ARM GAS  C:\Users\13740\AppData\Local\Temp\ccMtlS6j.s 			page 1


   1              		.syntax unified
   2              		.cpu cortex-m0
   3              		.fpu softvfp
   4              		.eabi_attribute 20, 1
   5              		.eabi_attribute 21, 1
   6              		.eabi_attribute 23, 3
   7              		.eabi_attribute 24, 1
   8              		.eabi_attribute 25, 1
   9              		.eabi_attribute 26, 1
  10              		.eabi_attribute 30, 6
  11              		.eabi_attribute 34, 0
  12              		.eabi_attribute 18, 4
  13              		.thumb
  14              		.syntax unified
  15              		.file	"ad5941_platform.c"
  16              		.text
  17              	.Ltext0:
  18              		.cfi_sections	.debug_frame
  19              		.section	.text.SPI_Delay,"ax",%progbits
  20              		.align	2
  21              		.code	16
  22              		.thumb_func
  23              		.type	SPI_Delay, %function
  24              	SPI_Delay:
  25              	.LFB35:
  26              		.file 1 "ad5941_platform.c"
   1:ad5941_platform.c **** /*******************************************************************************
   2:ad5941_platform.c **** * File Name: ad5941_platform.c
   3:ad5941_platform.c **** *
   4:ad5941_platform.c **** * Description:
   5:ad5941_platform.c **** *   AD5940硬件抽象层 - PSoC平台适配（完整可运行版本）
   6:ad5941_platform.c **** *   提供SPI通信和GPIO控制的底层接口
   7:ad5941_platform.c **** *
   8:ad5941_platform.c **** * 编译说明：
   9:ad5941_platform.c **** *   此文件包含AD5940库所需的所有平台相关函数实现
  10:ad5941_platform.c **** *   无需修改ad5940.h，该文件自动提供所有必需接口
  11:ad5941_platform.c **** *
  12:ad5941_platform.c **** * 注意：
  13:ad5941_platform.c **** *   - PSoC Creator中已配置SPI_1组件和GPIO引脚
  14:ad5941_platform.c **** *   - AD5940_CS 和 AD5940_RST 已在TopDesign中定义
  15:ad5941_platform.c **** *
  16:ad5941_platform.c **** ********************************************************************************/
  17:ad5941_platform.c **** 
  18:ad5941_platform.c **** #include "project.h"
  19:ad5941_platform.c **** 
  20:ad5941_platform.c **** /*******************************************************************************
  21:ad5941_platform.c **** * 底层SPI通信函数 - 使用软件SPI实现（解决硬件SPI时钟问题）
  22:ad5941_platform.c **** *******************************************************************************/
  23:ad5941_platform.c **** 
  24:ad5941_platform.c **** /* ===== 软件 SPI 引脚定义 ===== */
  25:ad5941_platform.c **** /* 使用GPIO模拟SPI，避免TopDesign时钟配置问题 */
  26:ad5941_platform.c **** 
  27:ad5941_platform.c **** #define SPI_CS_HIGH()      AD5940_CS_Write(1)        // CS 高电平
  28:ad5941_platform.c **** #define SPI_CS_LOW()       AD5940_CS_Write(0)        // CS 低电平
  29:ad5941_platform.c **** #define SPI_SCLK_SET()     AD5940_SCLK_Write(1)      // SCLK 设高
  30:ad5941_platform.c **** #define SPI_SCLK_CLR()     AD5940_SCLK_Write(0)      // SCLK 设低
  31:ad5941_platform.c **** #define SPI_MOSI_SET()     AD5940_MOSI_Write(1)      // MOSI 设高
ARM GAS  C:\Users\13740\AppData\Local\Temp\ccMtlS6j.s 			page 2


  32:ad5941_platform.c **** #define SPI_MOSI_CLR()     AD5940_MOSI_Write(0)      // MOSI 设低
  33:ad5941_platform.c **** #define SPI_MISO_GET()     AD5940_MISO_Read()        // MISO 读取
  34:ad5941_platform.c **** 
  35:ad5941_platform.c **** /**
  36:ad5941_platform.c ****  * @brief 软件SPI延时 - 控制时钟频率
  37:ad5941_platform.c ****  * 2us延时对应约250 kHz时钟频率（符合AD5940规范 ≤400 kHz）
  38:ad5941_platform.c ****  */
  39:ad5941_platform.c **** static inline void SPI_Delay(void)
  40:ad5941_platform.c **** {
  27              		.loc 1 40 0
  28              		.cfi_startproc
  29              		@ args = 0, pretend = 0, frame = 0
  30              		@ frame_needed = 1, uses_anonymous_args = 0
  31 0000 80B5     		push	{r7, lr}
  32              		.cfi_def_cfa_offset 8
  33              		.cfi_offset 7, -8
  34              		.cfi_offset 14, -4
  35 0002 00AF     		add	r7, sp, #0
  36              		.cfi_def_cfa_register 7
  41:ad5941_platform.c ****     // 增加延时，确保波形稳定，特别是对于长线连接
  42:ad5941_platform.c ****     CyDelayUs(5); 
  37              		.loc 1 42 0
  38 0004 0520     		movs	r0, #5
  39 0006 FFF7FEFF 		bl	CyDelayUs
  43:ad5941_platform.c **** }
  40              		.loc 1 43 0
  41 000a C046     		nop
  42 000c BD46     		mov	sp, r7
  43              		@ sp needed
  44 000e 80BD     		pop	{r7, pc}
  45              		.cfi_endproc
  46              	.LFE35:
  47              		.size	SPI_Delay, .-SPI_Delay
  48              		.section	.text.SoftSPI_TxRxByte,"ax",%progbits
  49              		.align	2
  50              		.global	SoftSPI_TxRxByte
  51              		.code	16
  52              		.thumb_func
  53              		.type	SoftSPI_TxRxByte, %function
  54              	SoftSPI_TxRxByte:
  55              	.LFB36:
  44:ad5941_platform.c **** 
  45:ad5941_platform.c **** uint8_t SoftSPI_TxRxByte(uint8_t tx)
  46:ad5941_platform.c **** {
  56              		.loc 1 46 0
  57              		.cfi_startproc
  58              		@ args = 0, pretend = 0, frame = 16
  59              		@ frame_needed = 1, uses_anonymous_args = 0
  60 0000 80B5     		push	{r7, lr}
  61              		.cfi_def_cfa_offset 8
  62              		.cfi_offset 7, -8
  63              		.cfi_offset 14, -4
  64 0002 84B0     		sub	sp, sp, #16
  65              		.cfi_def_cfa_offset 24
  66 0004 00AF     		add	r7, sp, #0
  67              		.cfi_def_cfa_register 7
  68 0006 0200     		movs	r2, r0
ARM GAS  C:\Users\13740\AppData\Local\Temp\ccMtlS6j.s 			page 3


  69 0008 FB1D     		adds	r3, r7, #7
  70 000a 1A70     		strb	r2, [r3]
  47:ad5941_platform.c ****     uint8_t rx = 0;
  71              		.loc 1 47 0
  72 000c 0F23     		movs	r3, #15
  73 000e FB18     		adds	r3, r7, r3
  74 0010 0022     		movs	r2, #0
  75 0012 1A70     		strb	r2, [r3]
  48:ad5941_platform.c ****     int i;
  49:ad5941_platform.c **** 
  50:ad5941_platform.c ****     for(i = 7; i >= 0; i--)
  76              		.loc 1 50 0
  77 0014 0723     		movs	r3, #7
  78 0016 BB60     		str	r3, [r7, #8]
  79 0018 30E0     		b	.L3
  80              	.L7:
  51:ad5941_platform.c ****     {
  52:ad5941_platform.c ****         // 1. 准备数据 (MOSI)
  53:ad5941_platform.c ****         if(tx & (1 << i))
  81              		.loc 1 53 0
  82 001a FB1D     		adds	r3, r7, #7
  83 001c 1A78     		ldrb	r2, [r3]
  84 001e BB68     		ldr	r3, [r7, #8]
  85 0020 1A41     		asrs	r2, r2, r3
  86 0022 1300     		movs	r3, r2
  87 0024 0122     		movs	r2, #1
  88 0026 1340     		ands	r3, r2
  89 0028 03D0     		beq	.L4
  54:ad5941_platform.c ****             SPI_MOSI_SET();
  90              		.loc 1 54 0
  91 002a 0120     		movs	r0, #1
  92 002c FFF7FEFF 		bl	AD5940_MOSI_Write
  93 0030 02E0     		b	.L5
  94              	.L4:
  55:ad5941_platform.c ****         else
  56:ad5941_platform.c ****             SPI_MOSI_CLR();
  95              		.loc 1 56 0
  96 0032 0020     		movs	r0, #0
  97 0034 FFF7FEFF 		bl	AD5940_MOSI_Write
  98              	.L5:
  57:ad5941_platform.c ****         
  58:ad5941_platform.c ****         SPI_Delay(); // 建立时间 (Setup Time)
  99              		.loc 1 58 0
 100 0038 FFF7FEFF 		bl	SPI_Delay
  59:ad5941_platform.c **** 
  60:ad5941_platform.c ****         // 2. 时钟拉高 (SCLK Rising) - 此时 AD5940 采样 MOSI
  61:ad5941_platform.c ****         SPI_SCLK_SET();
 101              		.loc 1 61 0
 102 003c 0120     		movs	r0, #1
 103 003e FFF7FEFF 		bl	AD5940_SCLK_Write
  62:ad5941_platform.c ****         
  63:ad5941_platform.c ****         SPI_Delay(); // 增加延时，避开上升沿的串扰尖峰!
 104              		.loc 1 63 0
 105 0042 FFF7FEFF 		bl	SPI_Delay
  64:ad5941_platform.c ****         
  65:ad5941_platform.c ****         // 3. 读取 MISO 
  66:ad5941_platform.c ****         // 此时由于延时，串扰应该已经消失。
ARM GAS  C:\Users\13740\AppData\Local\Temp\ccMtlS6j.s 			page 4


  67:ad5941_platform.c ****         // 如果是真实数据，AD5940 会强驱动保持电平。
  68:ad5941_platform.c ****         rx <<= 1;
 106              		.loc 1 68 0
 107 0046 0F23     		movs	r3, #15
 108 0048 FA18     		adds	r2, r7, r3
 109 004a 0F23     		movs	r3, #15
 110 004c FB18     		adds	r3, r7, r3
 111 004e 1B78     		ldrb	r3, [r3]
 112 0050 DB18     		adds	r3, r3, r3
 113 0052 1370     		strb	r3, [r2]
  69:ad5941_platform.c ****         if(SPI_MISO_GET())
 114              		.loc 1 69 0
 115 0054 FFF7FEFF 		bl	AD5940_MISO_Read
 116 0058 031E     		subs	r3, r0, #0
 117 005a 07D0     		beq	.L6
  70:ad5941_platform.c ****         {
  71:ad5941_platform.c ****             rx |= 1;
 118              		.loc 1 71 0
 119 005c 0F23     		movs	r3, #15
 120 005e FB18     		adds	r3, r7, r3
 121 0060 0F22     		movs	r2, #15
 122 0062 BA18     		adds	r2, r7, r2
 123 0064 1278     		ldrb	r2, [r2]
 124 0066 0121     		movs	r1, #1
 125 0068 0A43     		orrs	r2, r1
 126 006a 1A70     		strb	r2, [r3]
 127              	.L6:
  72:ad5941_platform.c ****         }
  73:ad5941_platform.c **** 
  74:ad5941_platform.c ****         // 4. 时钟拉低 (SCLK Falling)
  75:ad5941_platform.c ****         SPI_SCLK_CLR();
 128              		.loc 1 75 0 discriminator 2
 129 006c 0020     		movs	r0, #0
 130 006e FFF7FEFF 		bl	AD5940_SCLK_Write
  76:ad5941_platform.c ****         SPI_Delay(); // 保持时间 (Hold Time)
 131              		.loc 1 76 0 discriminator 2
 132 0072 FFF7FEFF 		bl	SPI_Delay
  50:ad5941_platform.c ****     {
 133              		.loc 1 50 0 discriminator 2
 134 0076 BB68     		ldr	r3, [r7, #8]
 135 0078 013B     		subs	r3, r3, #1
 136 007a BB60     		str	r3, [r7, #8]
 137              	.L3:
  50:ad5941_platform.c ****     {
 138              		.loc 1 50 0 is_stmt 0 discriminator 1
 139 007c BB68     		ldr	r3, [r7, #8]
 140 007e 002B     		cmp	r3, #0
 141 0080 CBDA     		bge	.L7
  77:ad5941_platform.c ****     }
  78:ad5941_platform.c ****     
  79:ad5941_platform.c ****     return rx;
 142              		.loc 1 79 0 is_stmt 1
 143 0082 0F23     		movs	r3, #15
 144 0084 FB18     		adds	r3, r7, r3
 145 0086 1B78     		ldrb	r3, [r3]
  80:ad5941_platform.c **** }
 146              		.loc 1 80 0
ARM GAS  C:\Users\13740\AppData\Local\Temp\ccMtlS6j.s 			page 5


 147 0088 1800     		movs	r0, r3
 148 008a BD46     		mov	sp, r7
 149 008c 04B0     		add	sp, sp, #16
 150              		@ sp needed
 151 008e 80BD     		pop	{r7, pc}
 152              		.cfi_endproc
 153              	.LFE36:
 154              		.size	SoftSPI_TxRxByte, .-SoftSPI_TxRxByte
 155              		.section	.text.AD5940_ReadWriteNBytes,"ax",%progbits
 156              		.align	2
 157              		.global	AD5940_ReadWriteNBytes
 158              		.code	16
 159              		.thumb_func
 160              		.type	AD5940_ReadWriteNBytes, %function
 161              	AD5940_ReadWriteNBytes:
 162              	.LFB37:
  81:ad5941_platform.c **** 
  82:ad5941_platform.c **** /**
  83:ad5941_platform.c ****  * @brief SPI读写多字节 - 修正空闲态
  84:ad5941_platform.c ****  */
  85:ad5941_platform.c **** int32_t AD5940_ReadWriteNBytes(uint8_t *pSendBuffer,
  86:ad5941_platform.c ****                               uint8_t *pRecvBuff,
  87:ad5941_platform.c ****                               uint32_t length)
  88:ad5941_platform.c **** {
 163              		.loc 1 88 0
 164              		.cfi_startproc
 165              		@ args = 0, pretend = 0, frame = 24
 166              		@ frame_needed = 1, uses_anonymous_args = 0
 167 0000 90B5     		push	{r4, r7, lr}
 168              		.cfi_def_cfa_offset 12
 169              		.cfi_offset 4, -12
 170              		.cfi_offset 7, -8
 171              		.cfi_offset 14, -4
 172 0002 87B0     		sub	sp, sp, #28
 173              		.cfi_def_cfa_offset 40
 174 0004 00AF     		add	r7, sp, #0
 175              		.cfi_def_cfa_register 7
 176 0006 F860     		str	r0, [r7, #12]
 177 0008 B960     		str	r1, [r7, #8]
 178 000a 7A60     		str	r2, [r7, #4]
  89:ad5941_platform.c ****     uint32_t i;
  90:ad5941_platform.c **** 
  91:ad5941_platform.c ****     if (!pSendBuffer || !pRecvBuff || length == 0)
 179              		.loc 1 91 0
 180 000c FB68     		ldr	r3, [r7, #12]
 181 000e 002B     		cmp	r3, #0
 182 0010 05D0     		beq	.L10
 183              		.loc 1 91 0 is_stmt 0 discriminator 1
 184 0012 BB68     		ldr	r3, [r7, #8]
 185 0014 002B     		cmp	r3, #0
 186 0016 02D0     		beq	.L10
 187              		.loc 1 91 0 discriminator 2
 188 0018 7B68     		ldr	r3, [r7, #4]
 189 001a 002B     		cmp	r3, #0
 190 001c 02D1     		bne	.L11
 191              	.L10:
  92:ad5941_platform.c ****         return -1;
ARM GAS  C:\Users\13740\AppData\Local\Temp\ccMtlS6j.s 			page 6


 192              		.loc 1 92 0 is_stmt 1
 193 001e 0123     		movs	r3, #1
 194 0020 5B42     		rsbs	r3, r3, #0
 195 0022 2DE0     		b	.L12
 196              	.L11:
  93:ad5941_platform.c **** 
  94:ad5941_platform.c ****     /* ---------- 空闲态 ---------- */
  95:ad5941_platform.c ****     SPI_CS_HIGH();
 197              		.loc 1 95 0
 198 0024 0120     		movs	r0, #1
 199 0026 FFF7FEFF 		bl	AD5940_CS_Write
  96:ad5941_platform.c ****     SPI_SCLK_CLR();     // CPOL = 0
 200              		.loc 1 96 0
 201 002a 0020     		movs	r0, #0
 202 002c FFF7FEFF 		bl	AD5940_SCLK_Write
  97:ad5941_platform.c ****     SPI_MOSI_CLR();
 203              		.loc 1 97 0
 204 0030 0020     		movs	r0, #0
 205 0032 FFF7FEFF 		bl	AD5940_MOSI_Write
  98:ad5941_platform.c ****     SPI_Delay();
 206              		.loc 1 98 0
 207 0036 FFF7FEFF 		bl	SPI_Delay
  99:ad5941_platform.c **** 
 100:ad5941_platform.c ****     /* ---------- 拉低 CS（t2）---------- */
 101:ad5941_platform.c ****     SPI_CS_LOW();
 208              		.loc 1 101 0
 209 003a 0020     		movs	r0, #0
 210 003c FFF7FEFF 		bl	AD5940_CS_Write
 102:ad5941_platform.c ****     SPI_Delay();
 211              		.loc 1 102 0
 212 0040 FFF7FEFF 		bl	SPI_Delay
 103:ad5941_platform.c **** 
 104:ad5941_platform.c ****     /* ---------- 连续字节传输（CS 期间 SCLK 不停）---------- */
 105:ad5941_platform.c ****     for (i = 0; i < length; i++)
 213              		.loc 1 105 0
 214 0044 0023     		movs	r3, #0
 215 0046 7B61     		str	r3, [r7, #20]
 216 0048 0EE0     		b	.L13
 217              	.L14:
 106:ad5941_platform.c ****     {
 107:ad5941_platform.c ****         pRecvBuff[i] = SoftSPI_TxRxByte(pSendBuffer[i]);
 218              		.loc 1 107 0 discriminator 3
 219 004a BA68     		ldr	r2, [r7, #8]
 220 004c 7B69     		ldr	r3, [r7, #20]
 221 004e D418     		adds	r4, r2, r3
 222 0050 FA68     		ldr	r2, [r7, #12]
 223 0052 7B69     		ldr	r3, [r7, #20]
 224 0054 D318     		adds	r3, r2, r3
 225 0056 1B78     		ldrb	r3, [r3]
 226 0058 1800     		movs	r0, r3
 227 005a FFF7FEFF 		bl	SoftSPI_TxRxByte
 228 005e 0300     		movs	r3, r0
 229 0060 2370     		strb	r3, [r4]
 105:ad5941_platform.c ****     {
 230              		.loc 1 105 0 discriminator 3
 231 0062 7B69     		ldr	r3, [r7, #20]
 232 0064 0133     		adds	r3, r3, #1
ARM GAS  C:\Users\13740\AppData\Local\Temp\ccMtlS6j.s 			page 7


 233 0066 7B61     		str	r3, [r7, #20]
 234              	.L13:
 105:ad5941_platform.c ****     {
 235              		.loc 1 105 0 is_stmt 0 discriminator 1
 236 0068 7A69     		ldr	r2, [r7, #20]
 237 006a 7B68     		ldr	r3, [r7, #4]
 238 006c 9A42     		cmp	r2, r3
 239 006e ECD3     		bcc	.L14
 108:ad5941_platform.c ****     }
 109:ad5941_platform.c **** 
 110:ad5941_platform.c ****     /* ---------- 拉高 CS（t9 / t10）---------- */
 111:ad5941_platform.c ****     SPI_Delay();
 240              		.loc 1 111 0 is_stmt 1
 241 0070 FFF7FEFF 		bl	SPI_Delay
 112:ad5941_platform.c ****     SPI_CS_HIGH();
 242              		.loc 1 112 0
 243 0074 0120     		movs	r0, #1
 244 0076 FFF7FEFF 		bl	AD5940_CS_Write
 113:ad5941_platform.c ****     SPI_Delay();
 245              		.loc 1 113 0
 246 007a FFF7FEFF 		bl	SPI_Delay
 114:ad5941_platform.c **** 
 115:ad5941_platform.c ****     return 0;
 247              		.loc 1 115 0
 248 007e 0023     		movs	r3, #0
 249              	.L12:
 116:ad5941_platform.c **** }
 250              		.loc 1 116 0
 251 0080 1800     		movs	r0, r3
 252 0082 BD46     		mov	sp, r7
 253 0084 07B0     		add	sp, sp, #28
 254              		@ sp needed
 255 0086 90BD     		pop	{r4, r7, pc}
 256              		.cfi_endproc
 257              	.LFE37:
 258              		.size	AD5940_ReadWriteNBytes, .-AD5940_ReadWriteNBytes
 259              		.section	.text.AD5940_CsClr,"ax",%progbits
 260              		.align	2
 261              		.global	AD5940_CsClr
 262              		.code	16
 263              		.thumb_func
 264              		.type	AD5940_CsClr, %function
 265              	AD5940_CsClr:
 266              	.LFB38:
 117:ad5941_platform.c **** 
 118:ad5941_platform.c **** /*******************************************************************************
 119:ad5941_platform.c **** 
 120:ad5941_platform.c **** * GPIO控制函数
 121:ad5941_platform.c **** *******************************************************************************/
 122:ad5941_platform.c **** 
 123:ad5941_platform.c **** /**
 124:ad5941_platform.c ****  * @brief 拉低CS片选信号
 125:ad5941_platform.c ****  * 
 126:ad5941_platform.c ****  * CS为低电平时AD5940被选中，可以进行SPI通信
 127:ad5941_platform.c ****  */
 128:ad5941_platform.c **** void AD5940_CsClr(void)
 129:ad5941_platform.c **** {
ARM GAS  C:\Users\13740\AppData\Local\Temp\ccMtlS6j.s 			page 8


 267              		.loc 1 129 0
 268              		.cfi_startproc
 269              		@ args = 0, pretend = 0, frame = 0
 270              		@ frame_needed = 1, uses_anonymous_args = 0
 271 0000 80B5     		push	{r7, lr}
 272              		.cfi_def_cfa_offset 8
 273              		.cfi_offset 7, -8
 274              		.cfi_offset 14, -4
 275 0002 00AF     		add	r7, sp, #0
 276              		.cfi_def_cfa_register 7
 130:ad5941_platform.c ****     AD5940_CS_Write(0);
 277              		.loc 1 130 0
 278 0004 0020     		movs	r0, #0
 279 0006 FFF7FEFF 		bl	AD5940_CS_Write
 131:ad5941_platform.c **** }
 280              		.loc 1 131 0
 281 000a C046     		nop
 282 000c BD46     		mov	sp, r7
 283              		@ sp needed
 284 000e 80BD     		pop	{r7, pc}
 285              		.cfi_endproc
 286              	.LFE38:
 287              		.size	AD5940_CsClr, .-AD5940_CsClr
 288              		.section	.text.AD5940_CsSet,"ax",%progbits
 289              		.align	2
 290              		.global	AD5940_CsSet
 291              		.code	16
 292              		.thumb_func
 293              		.type	AD5940_CsSet, %function
 294              	AD5940_CsSet:
 295              	.LFB39:
 132:ad5941_platform.c **** 
 133:ad5941_platform.c **** /**
 134:ad5941_platform.c ****  * @brief 拉高CS片选信号
 135:ad5941_platform.c ****  * 
 136:ad5941_platform.c ****  * CS为高电平时AD5940不被选中，SPI通信结束
 137:ad5941_platform.c ****  */
 138:ad5941_platform.c **** void AD5940_CsSet(void)
 139:ad5941_platform.c **** {
 296              		.loc 1 139 0
 297              		.cfi_startproc
 298              		@ args = 0, pretend = 0, frame = 0
 299              		@ frame_needed = 1, uses_anonymous_args = 0
 300 0000 80B5     		push	{r7, lr}
 301              		.cfi_def_cfa_offset 8
 302              		.cfi_offset 7, -8
 303              		.cfi_offset 14, -4
 304 0002 00AF     		add	r7, sp, #0
 305              		.cfi_def_cfa_register 7
 140:ad5941_platform.c ****     AD5940_CS_Write(1);
 306              		.loc 1 140 0
 307 0004 0120     		movs	r0, #1
 308 0006 FFF7FEFF 		bl	AD5940_CS_Write
 141:ad5941_platform.c **** }
 309              		.loc 1 141 0
 310 000a C046     		nop
 311 000c BD46     		mov	sp, r7
ARM GAS  C:\Users\13740\AppData\Local\Temp\ccMtlS6j.s 			page 9


 312              		@ sp needed
 313 000e 80BD     		pop	{r7, pc}
 314              		.cfi_endproc
 315              	.LFE39:
 316              		.size	AD5940_CsSet, .-AD5940_CsSet
 317              		.section	.text.AD5940_RstSet,"ax",%progbits
 318              		.align	2
 319              		.global	AD5940_RstSet
 320              		.code	16
 321              		.thumb_func
 322              		.type	AD5940_RstSet, %function
 323              	AD5940_RstSet:
 324              	.LFB40:
 142:ad5941_platform.c **** 
 143:ad5941_platform.c **** /**
 144:ad5941_platform.c ****  * @brief 拉高复位引脚（芯片正常工作）
 145:ad5941_platform.c ****  * 
 146:ad5941_platform.c ****  * RST=1: 芯片正常工作
 147:ad5941_platform.c ****  * RST=0: 芯片处于复位状态
 148:ad5941_platform.c ****  */
 149:ad5941_platform.c **** void AD5940_RstSet(void)
 150:ad5941_platform.c **** {
 325              		.loc 1 150 0
 326              		.cfi_startproc
 327              		@ args = 0, pretend = 0, frame = 0
 328              		@ frame_needed = 1, uses_anonymous_args = 0
 329 0000 80B5     		push	{r7, lr}
 330              		.cfi_def_cfa_offset 8
 331              		.cfi_offset 7, -8
 332              		.cfi_offset 14, -4
 333 0002 00AF     		add	r7, sp, #0
 334              		.cfi_def_cfa_register 7
 151:ad5941_platform.c ****     AD5940_RST_Write(1);
 335              		.loc 1 151 0
 336 0004 0120     		movs	r0, #1
 337 0006 FFF7FEFF 		bl	AD5940_RST_Write
 152:ad5941_platform.c **** }
 338              		.loc 1 152 0
 339 000a C046     		nop
 340 000c BD46     		mov	sp, r7
 341              		@ sp needed
 342 000e 80BD     		pop	{r7, pc}
 343              		.cfi_endproc
 344              	.LFE40:
 345              		.size	AD5940_RstSet, .-AD5940_RstSet
 346              		.section	.text.AD5940_RstClr,"ax",%progbits
 347              		.align	2
 348              		.global	AD5940_RstClr
 349              		.code	16
 350              		.thumb_func
 351              		.type	AD5940_RstClr, %function
 352              	AD5940_RstClr:
 353              	.LFB41:
 153:ad5941_platform.c **** 
 154:ad5941_platform.c **** /**
 155:ad5941_platform.c ****  * @brief 拉低复位引脚（复位芯片）
 156:ad5941_platform.c ****  * 
ARM GAS  C:\Users\13740\AppData\Local\Temp\ccMtlS6j.s 			page 10


 157:ad5941_platform.c ****  * 将AD5940置于复位状态
 158:ad5941_platform.c ****  * 通常需要保持低电平至少10us，然后拉高以完成复位
 159:ad5941_platform.c ****  */
 160:ad5941_platform.c **** void AD5940_RstClr(void)
 161:ad5941_platform.c **** {
 354              		.loc 1 161 0
 355              		.cfi_startproc
 356              		@ args = 0, pretend = 0, frame = 0
 357              		@ frame_needed = 1, uses_anonymous_args = 0
 358 0000 80B5     		push	{r7, lr}
 359              		.cfi_def_cfa_offset 8
 360              		.cfi_offset 7, -8
 361              		.cfi_offset 14, -4
 362 0002 00AF     		add	r7, sp, #0
 363              		.cfi_def_cfa_register 7
 162:ad5941_platform.c ****     AD5940_RST_Write(0);
 364              		.loc 1 162 0
 365 0004 0020     		movs	r0, #0
 366 0006 FFF7FEFF 		bl	AD5940_RST_Write
 163:ad5941_platform.c **** }
 367              		.loc 1 163 0
 368 000a C046     		nop
 369 000c BD46     		mov	sp, r7
 370              		@ sp needed
 371 000e 80BD     		pop	{r7, pc}
 372              		.cfi_endproc
 373              	.LFE41:
 374              		.size	AD5940_RstClr, .-AD5940_RstClr
 375              		.section	.text.AD5940_Delay10us,"ax",%progbits
 376              		.align	2
 377              		.global	AD5940_Delay10us
 378              		.code	16
 379              		.thumb_func
 380              		.type	AD5940_Delay10us, %function
 381              	AD5940_Delay10us:
 382              	.LFB42:
 164:ad5941_platform.c **** 
 165:ad5941_platform.c **** /*******************************************************************************
 166:ad5941_platform.c **** * 延时和中断函数
 167:ad5941_platform.c **** *******************************************************************************/
 168:ad5941_platform.c **** 
 169:ad5941_platform.c **** /**
 170:ad5941_platform.c ****  * @brief 延时函数（以10微秒为单位）
 171:ad5941_platform.c ****  * @param time: 延时时间，单位为10us
 172:ad5941_platform.c ****  * 
 173:ad5941_platform.c ****  * 例如：AD5940_Delay10us(100) 延时1000us（1ms）
 174:ad5941_platform.c ****  *      AD5940_Delay10us(1000) 延时10ms
 175:ad5941_platform.c ****  */
 176:ad5941_platform.c **** void AD5940_Delay10us(uint32_t time)
 177:ad5941_platform.c **** {
 383              		.loc 1 177 0
 384              		.cfi_startproc
 385              		@ args = 0, pretend = 0, frame = 16
 386              		@ frame_needed = 1, uses_anonymous_args = 0
 387 0000 80B5     		push	{r7, lr}
 388              		.cfi_def_cfa_offset 8
 389              		.cfi_offset 7, -8
ARM GAS  C:\Users\13740\AppData\Local\Temp\ccMtlS6j.s 			page 11


 390              		.cfi_offset 14, -4
 391 0002 84B0     		sub	sp, sp, #16
 392              		.cfi_def_cfa_offset 24
 393 0004 00AF     		add	r7, sp, #0
 394              		.cfi_def_cfa_register 7
 395 0006 7860     		str	r0, [r7, #4]
 178:ad5941_platform.c ****     uint32_t i;
 179:ad5941_platform.c ****     
 180:ad5941_platform.c ****     if(time == 0) 
 396              		.loc 1 180 0
 397 0008 7B68     		ldr	r3, [r7, #4]
 398 000a 002B     		cmp	r3, #0
 399 000c 0DD0     		beq	.L24
 181:ad5941_platform.c ****         return;
 182:ad5941_platform.c ****     
 183:ad5941_platform.c ****     /* 延时 time*10 微秒 */
 184:ad5941_platform.c ****     for(i = 0; i < time; i++)
 400              		.loc 1 184 0
 401 000e 0023     		movs	r3, #0
 402 0010 FB60     		str	r3, [r7, #12]
 403 0012 05E0     		b	.L22
 404              	.L23:
 185:ad5941_platform.c ****     {
 186:ad5941_platform.c ****         CyDelayUs(10);
 405              		.loc 1 186 0 discriminator 3
 406 0014 0A20     		movs	r0, #10
 407 0016 FFF7FEFF 		bl	CyDelayUs
 184:ad5941_platform.c ****     {
 408              		.loc 1 184 0 discriminator 3
 409 001a FB68     		ldr	r3, [r7, #12]
 410 001c 0133     		adds	r3, r3, #1
 411 001e FB60     		str	r3, [r7, #12]
 412              	.L22:
 184:ad5941_platform.c ****     {
 413              		.loc 1 184 0 is_stmt 0 discriminator 1
 414 0020 FA68     		ldr	r2, [r7, #12]
 415 0022 7B68     		ldr	r3, [r7, #4]
 416 0024 9A42     		cmp	r2, r3
 417 0026 F5D3     		bcc	.L23
 418 0028 00E0     		b	.L19
 419              	.L24:
 181:ad5941_platform.c ****         return;
 420              		.loc 1 181 0 is_stmt 1
 421 002a C046     		nop
 422              	.L19:
 187:ad5941_platform.c ****     }
 188:ad5941_platform.c **** }
 423              		.loc 1 188 0
 424 002c BD46     		mov	sp, r7
 425 002e 04B0     		add	sp, sp, #16
 426              		@ sp needed
 427 0030 80BD     		pop	{r7, pc}
 428              		.cfi_endproc
 429              	.LFE42:
 430              		.size	AD5940_Delay10us, .-AD5940_Delay10us
 431 0032 C046     		.section	.text.AD5940_GetMCUIntFlag,"ax",%progbits
 432              		.align	2
ARM GAS  C:\Users\13740\AppData\Local\Temp\ccMtlS6j.s 			page 12


 433              		.global	AD5940_GetMCUIntFlag
 434              		.code	16
 435              		.thumb_func
 436              		.type	AD5940_GetMCUIntFlag, %function
 437              	AD5940_GetMCUIntFlag:
 438              	.LFB43:
 189:ad5941_platform.c **** 
 190:ad5941_platform.c **** /**
 191:ad5941_platform.c ****  * @brief 获取MCU中断标志
 192:ad5941_platform.c ****  * @return 中断状态（0=无中断, 非0=有中断）
 193:ad5941_platform.c ****  * 
 194:ad5941_platform.c ****  * 如果硬件中连接了AD5940的中断输出引脚，可在此读取其状态
 195:ad5941_platform.c ****  * 当前实现返回0，表示未检测到中断
 196:ad5941_platform.c ****  */
 197:ad5941_platform.c **** uint32_t AD5940_GetMCUIntFlag(void)
 198:ad5941_platform.c **** {
 439              		.loc 1 198 0
 440              		.cfi_startproc
 441              		@ args = 0, pretend = 0, frame = 0
 442              		@ frame_needed = 1, uses_anonymous_args = 0
 443 0000 80B5     		push	{r7, lr}
 444              		.cfi_def_cfa_offset 8
 445              		.cfi_offset 7, -8
 446              		.cfi_offset 14, -4
 447 0002 00AF     		add	r7, sp, #0
 448              		.cfi_def_cfa_register 7
 199:ad5941_platform.c ****     /* 如果硬件中连接了AD5940的中断引脚，可在此读取
 200:ad5941_platform.c ****      * 例如：return AD5940_Interrupt_Read();
 201:ad5941_platform.c ****      */
 202:ad5941_platform.c ****     
 203:ad5941_platform.c ****     /* 如果未使用中断引脚，返回0表示无中断 */
 204:ad5941_platform.c ****     return 0;
 449              		.loc 1 204 0
 450 0004 0023     		movs	r3, #0
 205:ad5941_platform.c **** }
 451              		.loc 1 205 0
 452 0006 1800     		movs	r0, r3
 453 0008 BD46     		mov	sp, r7
 454              		@ sp needed
 455 000a 80BD     		pop	{r7, pc}
 456              		.cfi_endproc
 457              	.LFE43:
 458              		.size	AD5940_GetMCUIntFlag, .-AD5940_GetMCUIntFlag
 459              		.section	.text.AD5940_ClrMCUIntFlag,"ax",%progbits
 460              		.align	2
 461              		.global	AD5940_ClrMCUIntFlag
 462              		.code	16
 463              		.thumb_func
 464              		.type	AD5940_ClrMCUIntFlag, %function
 465              	AD5940_ClrMCUIntFlag:
 466              	.LFB44:
 206:ad5941_platform.c **** 
 207:ad5941_platform.c **** /**
 208:ad5941_platform.c ****  * @brief 清除MCU中断标志
 209:ad5941_platform.c ****  * @return 1=成功, 0=失败
 210:ad5941_platform.c ****  * 
 211:ad5941_platform.c ****  * 清除之前检测到的中断标志，为下一次中断做准备
ARM GAS  C:\Users\13740\AppData\Local\Temp\ccMtlS6j.s 			page 13


 212:ad5941_platform.c ****  */
 213:ad5941_platform.c **** uint32_t AD5940_ClrMCUIntFlag(void)
 214:ad5941_platform.c **** {
 467              		.loc 1 214 0
 468              		.cfi_startproc
 469              		@ args = 0, pretend = 0, frame = 0
 470              		@ frame_needed = 1, uses_anonymous_args = 0
 471 0000 80B5     		push	{r7, lr}
 472              		.cfi_def_cfa_offset 8
 473              		.cfi_offset 7, -8
 474              		.cfi_offset 14, -4
 475 0002 00AF     		add	r7, sp, #0
 476              		.cfi_def_cfa_register 7
 215:ad5941_platform.c ****     /* 如果使用了中断引脚，在此清除中断
 216:ad5941_platform.c ****      * 例如：AD5940_Interrupt_ClearInterrupt();
 217:ad5941_platform.c ****      */
 218:ad5941_platform.c ****     
 219:ad5941_platform.c ****     return 1;  /* 成功 */
 477              		.loc 1 219 0
 478 0004 0123     		movs	r3, #1
 220:ad5941_platform.c **** }
 479              		.loc 1 220 0
 480 0006 1800     		movs	r0, r3
 481 0008 BD46     		mov	sp, r7
 482              		@ sp needed
 483 000a 80BD     		pop	{r7, pc}
 484              		.cfi_endproc
 485              	.LFE44:
 486              		.size	AD5940_ClrMCUIntFlag, .-AD5940_ClrMCUIntFlag
 487              		.section	.text.AD5940_MCUResourceInit,"ax",%progbits
 488              		.align	2
 489              		.global	AD5940_MCUResourceInit
 490              		.code	16
 491              		.thumb_func
 492              		.type	AD5940_MCUResourceInit, %function
 493              	AD5940_MCUResourceInit:
 494              	.LFB45:
 221:ad5941_platform.c **** 
 222:ad5941_platform.c **** /*******************************************************************************
 223:ad5941_platform.c **** * 初始化函数
 224:ad5941_platform.c **** *******************************************************************************/
 225:ad5941_platform.c **** 
 226:ad5941_platform.c **** /**
 227:ad5941_platform.c ****  * @brief 初始化MCU资源（SPI、GPIO等）
 228:ad5941_platform.c ****  * @param pCfg: 配置参数（通常为NULL）
 229:ad5941_platform.c ****  * @return 0=成功, -1=失败
 230:ad5941_platform.c ****  * 
 231:ad5941_platform.c ****  * 该函数初始化：
 232:ad5941_platform.c ****  * 1. CS和RST引脚的初始状态
 233:ad5941_platform.c ****  * 2. SPI通信参数（通常已在TopDesign中配置）
 234:ad5941_platform.c ****  * 3. 芯片工作环境
 235:ad5941_platform.c ****  * 
 236:ad5941_platform.c ****  * 调用时机：
 237:ad5941_platform.c ****  * - 在main()函数早期调用
 238:ad5941_platform.c ****  * - 在SPI_1_Start()之后调用
 239:ad5941_platform.c ****  * - 在任何AD5940操作之前调用
 240:ad5941_platform.c ****  */
ARM GAS  C:\Users\13740\AppData\Local\Temp\ccMtlS6j.s 			page 14


 241:ad5941_platform.c **** int32_t AD5940_MCUResourceInit(void *pCfg)
 242:ad5941_platform.c **** {
 495              		.loc 1 242 0
 496              		.cfi_startproc
 497              		@ args = 0, pretend = 0, frame = 8
 498              		@ frame_needed = 1, uses_anonymous_args = 0
 499 0000 80B5     		push	{r7, lr}
 500              		.cfi_def_cfa_offset 8
 501              		.cfi_offset 7, -8
 502              		.cfi_offset 14, -4
 503 0002 82B0     		sub	sp, sp, #8
 504              		.cfi_def_cfa_offset 16
 505 0004 00AF     		add	r7, sp, #0
 506              		.cfi_def_cfa_register 7
 507 0006 7860     		str	r0, [r7, #4]
 243:ad5941_platform.c ****     #ifdef AD5940_CS_SetDriveMode
 244:ad5941_platform.c ****         AD5940_CS_SetDriveMode(AD5940_CS_DM_STRONG);
 245:ad5941_platform.c ****     #endif
 246:ad5941_platform.c ****     
 247:ad5941_platform.c ****     #ifdef AD5940_SCLK_SetDriveMode
 248:ad5941_platform.c ****         AD5940_SCLK_SetDriveMode(AD5940_SCLK_DM_STRONG);
 249:ad5941_platform.c ****     #endif
 250:ad5941_platform.c ****     
 251:ad5941_platform.c ****     #ifdef AD5940_MOSI_SetDriveMode
 252:ad5941_platform.c ****         AD5940_MOSI_SetDriveMode(AD5940_MOSI_DM_STRONG);
 253:ad5941_platform.c ****     #endif
 254:ad5941_platform.c ****     
 255:ad5941_platform.c ****     #ifdef AD5940_RST_SetDriveMode
 256:ad5941_platform.c ****         AD5940_RST_SetDriveMode(AD5940_RST_DM_STRONG);
 257:ad5941_platform.c ****     #endif
 258:ad5941_platform.c ****     
 259:ad5941_platform.c ****     /* 设置引脚初始状态 */
 260:ad5941_platform.c ****     AD5940_CS_Write(1);      /* CS 高电平 */
 508              		.loc 1 260 0
 509 0008 0120     		movs	r0, #1
 510 000a FFF7FEFF 		bl	AD5940_CS_Write
 261:ad5941_platform.c ****     AD5940_RST_Write(1);     /* RST 高电平 */
 511              		.loc 1 261 0
 512 000e 0120     		movs	r0, #1
 513 0010 FFF7FEFF 		bl	AD5940_RST_Write
 262:ad5941_platform.c ****     AD5940_SCLK_Write(0);    /* SCLK 低电平（CPOL=0）*/
 514              		.loc 1 262 0
 515 0014 0020     		movs	r0, #0
 516 0016 FFF7FEFF 		bl	AD5940_SCLK_Write
 263:ad5941_platform.c ****     AD5940_MOSI_Write(0);    /* MOSI 低电平 */
 517              		.loc 1 263 0
 518 001a 0020     		movs	r0, #0
 519 001c FFF7FEFF 		bl	AD5940_MOSI_Write
 264:ad5941_platform.c ****     
 265:ad5941_platform.c ****     /* 等待系统稳定 */
 266:ad5941_platform.c ****     CyDelay(10);
 520              		.loc 1 266 0
 521 0020 0A20     		movs	r0, #10
 522 0022 FFF7FEFF 		bl	CyDelay
 267:ad5941_platform.c ****     
 268:ad5941_platform.c ****     return 0;  /* 成功 */
 523              		.loc 1 268 0
ARM GAS  C:\Users\13740\AppData\Local\Temp\ccMtlS6j.s 			page 15


 524 0026 0023     		movs	r3, #0
 269:ad5941_platform.c **** }
 525              		.loc 1 269 0
 526 0028 1800     		movs	r0, r3
 527 002a BD46     		mov	sp, r7
 528 002c 02B0     		add	sp, sp, #8
 529              		@ sp needed
 530 002e 80BD     		pop	{r7, pc}
 531              		.cfi_endproc
 532              	.LFE45:
 533              		.size	AD5940_MCUResourceInit, .-AD5940_MCUResourceInit
 534              		.text
 535              	.Letext0:
 536              		.file 2 "f:\\infineon\\psoc creator\\4.4\\psoc creator\\import\\gnu\\arm\\5.4.1\\arm-none-eabi\\in
 537              		.file 3 "f:\\infineon\\psoc creator\\4.4\\psoc creator\\import\\gnu\\arm\\5.4.1\\arm-none-eabi\\in