ARM GAS  C:\Users\13740\AppData\Local\Temp\ccPV2Gz9.s 			page 1


   1              		.syntax unified
   2              		.cpu cortex-m0
   3              		.fpu softvfp
   4              		.eabi_attribute 20, 1
   5              		.eabi_attribute 21, 1
   6              		.eabi_attribute 23, 3
   7              		.eabi_attribute 24, 1
   8              		.eabi_attribute 25, 1
   9              		.eabi_attribute 26, 1
  10              		.eabi_attribute 30, 6
  11              		.eabi_attribute 34, 0
  12              		.eabi_attribute 18, 4
  13              		.thumb
  14              		.syntax unified
  15              		.file	"ad5940.c"
  16              		.text
  17              	.Ltext0:
  18              		.cfi_sections	.debug_frame
  19              		.bss
  20              	bIsS2silicon:
  21 0000 00       		.space	1
  22              		.comm	SeqGenDB,28,4
  23              		.section	.text.AD5940_SEQGenInsert,"ax",%progbits
  24              		.align	2
  25              		.global	AD5940_SEQGenInsert
  26              		.code	16
  27              		.thumb_func
  28              		.type	AD5940_SEQGenInsert, %function
  29              	AD5940_SEQGenInsert:
  30              	.LFB1:
  31              		.file 1 "ad5940.c"
   1:ad5940.c      **** /**  
   2:ad5940.c      ****  * @file       ad5940.c
   3:ad5940.c      ****  * @brief      AD5940 library. This file contains all AD5940 library functions. 
   4:ad5940.c      ****  * @author     ADI
   5:ad5940.c      ****  * @date       March 2019
   6:ad5940.c      ****  * @par Revision History:
   7:ad5940.c      ****  * 
   8:ad5940.c      ****  * Copyright (c) 2017-2019 Analog Devices, Inc. All Rights Reserved.
   9:ad5940.c      ****  * 
  10:ad5940.c      ****  * This software is proprietary to Analog Devices, Inc. and its licensors.
  11:ad5940.c      ****  * By using this software you agree to the terms of the associated
  12:ad5940.c      ****  * Analog Devices Software License Agreement.
  13:ad5940.c      **** **/
  14:ad5940.c      **** #include "ad5940.h"
  15:ad5940.c      **** 
  16:ad5940.c      **** /*! \mainpage AD5940 Library Introduction
  17:ad5940.c      ****  * 
  18:ad5940.c      ****  * ![AD5940 EVAL Board](https://www.analog.com/-/media/analog/en/evaluation-board-images/images/eva
  19:ad5940.c      ****  * 
  20:ad5940.c      ****  * # Introduction
  21:ad5940.c      ****  *
  22:ad5940.c      ****  * The documentation is for AD594x library and examples.
  23:ad5940.c      ****  * 
  24:ad5940.c      ****  * # Manual Structure
  25:ad5940.c      ****  *
  26:ad5940.c      ****  * @ref AD5940_Library                                                      
ARM GAS  C:\Users\13740\AppData\Local\Temp\ccPV2Gz9.s 			page 2


  27:ad5940.c      ****  *  - @ref AD5940_Functions                                                 
  28:ad5940.c      ****  *  - @ref TypeDefinitions                                                    
  29:ad5940.c      ****  * @ref AD5940_Standard_Examples                                            
  30:ad5940.c      ****  * @ref AD5940_System_Examples	                                            
  31:ad5940.c      ****  * 
  32:ad5940.c      ****  * # How to Use It
  33:ad5940.c      ****  *  We provide examples that can directly run out of box.
  34:ad5940.c      ****  *  The files can generally be separated to three parts:
  35:ad5940.c      ****  *    - AD5940 Library files. ad5940.c and ad5940.h specifically. These two files are shared among 
  36:ad5940.c      ****  *    - AD5940 System Examples. The system examples mean system level application like measuring im
  37:ad5940.c      ****  *    - Standard examples. These include basic block level examples like ADC. It shows how to setup
  38:ad5940.c      ****  * 
  39:ad5940.c      ****  * ## Requirements to run these examples
  40:ad5940.c      ****  *  ### Hardware
  41:ad5940.c      ****  *  - Use EVAL_AD5940 or EVAL_AD5941. The default MCU board we used is ADICUP3029. We also provide 
  42:ad5940.c      ****  *  - Or use EVAL_ADuCM355
  43:ad5940.c      ****  *  ### Software
  44:ad5940.c      ****  *  - Pull all the source file from [GitHub](https://github.com/analogdevicesinc/ad5940-examples.gi
  45:ad5940.c      ****  *  - CMSIS pack that related to specific MCU. This normally is done by IDE you use.
  46:ad5940.c      ****  * 
  47:ad5940.c      ****  * ## Materials
  48:ad5940.c      ****  *      Please use this library together with following materials.
  49:ad5940.c      ****  *      - [AD5940 Data Sheet](https://www.analog.com/media/en/technical-documentation/data-sheets/A
  50:ad5940.c      ****  *      - [AD5940 Eval Board](https://www.analog.com/en/design-center/evaluation-hardware-and-softw
  51:ad5940.c      ****  *
  52:ad5940.c      ****  */
  53:ad5940.c      **** 
  54:ad5940.c      **** /* Remove below variables after AD594x is released. */
  55:ad5940.c      **** static BoolFlag bIsS2silicon = bFALSE;
  56:ad5940.c      **** 
  57:ad5940.c      **** /* Declare of SPI functions used to read/write registers */
  58:ad5940.c      **** #ifndef CHIPSEL_M355
  59:ad5940.c      **** static uint32_t AD5940_SPIReadReg(uint16_t RegAddr);
  60:ad5940.c      **** static void AD5940_SPIWriteReg(uint16_t RegAddr, uint32_t RegData);
  61:ad5940.c      **** #else
  62:ad5940.c      **** static uint32_t AD5940_D2DReadReg(uint16_t RegAddr);
  63:ad5940.c      **** static void AD5940_D2DWriteReg(uint16_t RegAddr, uint32_t RegData);
  64:ad5940.c      **** #endif
  65:ad5940.c      **** 
  66:ad5940.c      **** /** 
  67:ad5940.c      ****  * @addtogroup AD5940_Library
  68:ad5940.c      ****  *  The library functions, structures and constants.
  69:ad5940.c      ****  * @{
  70:ad5940.c      ****  *    @defgroup AD5940_Functions
  71:ad5940.c      ****  *    @{
  72:ad5940.c      ****  *        @defgroup Function_Helpers
  73:ad5940.c      ****  *        @brief The functions with no hardware access. They are helpers.
  74:ad5940.c      ****  *        @{
  75:ad5940.c      ****  *            @defgroup Sequencer_Generator_Functions
  76:ad5940.c      ****  *            @brief The set of function used to track all register read and write once it's enable
  77:ad5940.c      ****  *            @{
  78:ad5940.c      **** */
  79:ad5940.c      **** 
  80:ad5940.c      **** #define SEQUENCE_GENERATOR  /*!< Build sequence generator part in to lib. Comment this line to remo
  81:ad5940.c      **** 
  82:ad5940.c      **** #ifdef SEQUENCE_GENERATOR
  83:ad5940.c      **** /**
ARM GAS  C:\Users\13740\AppData\Local\Temp\ccPV2Gz9.s 			page 3


  84:ad5940.c      ****  * Structure used to store register information(address and its data) 
  85:ad5940.c      ****  * */
  86:ad5940.c      **** typedef struct
  87:ad5940.c      **** {
  88:ad5940.c      ****   uint32_t RegAddr  :8;   /**< 8bit address is enough for sequencer */
  89:ad5940.c      ****   uint32_t RegValue :24;  /**< Reg data is limited to 24bit by sequencer  */
  90:ad5940.c      **** }SEQGenRegInfo_Type;
  91:ad5940.c      **** 
  92:ad5940.c      **** /**
  93:ad5940.c      ****  * Sequencer generator data base.
  94:ad5940.c      **** */
  95:ad5940.c      **** struct
  96:ad5940.c      **** {
  97:ad5940.c      ****   BoolFlag EngineStart;         /**< Flag to mark start of the generator */
  98:ad5940.c      ****   uint32_t BufferSize;          /**< Total buffer size */
  99:ad5940.c      **** 
 100:ad5940.c      ****   uint32_t *pSeqBuff;           /**< The buffer for sequence generator(both sequences and RegInfo) 
 101:ad5940.c      ****   uint32_t SeqLen;              /**< Generated sequence length till now */
 102:ad5940.c      ****   SEQGenRegInfo_Type *pRegInfo; /**< Pointer to buffer where stores register info */
 103:ad5940.c      ****   uint32_t RegCount;            /**< The count of register info available in buffer *pRegInfo. */
 104:ad5940.c      ****   AD5940Err LastError;          /**< The last error message. */
 105:ad5940.c      **** }SeqGenDB;  /* Data base of Seq Generator */
 106:ad5940.c      **** 
 107:ad5940.c      **** /**
 108:ad5940.c      ****  * @brief Manually input a command to sequencer generator.
 109:ad5940.c      ****  * @param CmdWord: The 32-bit width sequencer command word. @ref Sequencer_Helper can be used to ge
 110:ad5940.c      ****  * @return None;
 111:ad5940.c      **** */
 112:ad5940.c      **** void AD5940_SEQGenInsert(uint32_t CmdWord)
 113:ad5940.c      **** {
  32              		.loc 1 113 0
  33              		.cfi_startproc
  34              		@ args = 0, pretend = 0, frame = 16
  35              		@ frame_needed = 1, uses_anonymous_args = 0
  36 0000 80B5     		push	{r7, lr}
  37              		.cfi_def_cfa_offset 8
  38              		.cfi_offset 7, -8
  39              		.cfi_offset 14, -4
  40 0002 84B0     		sub	sp, sp, #16
  41              		.cfi_def_cfa_offset 24
  42 0004 00AF     		add	r7, sp, #0
  43              		.cfi_def_cfa_register 7
  44 0006 7860     		str	r0, [r7, #4]
 114:ad5940.c      ****   uint32_t temp;
 115:ad5940.c      ****   temp  = SeqGenDB.RegCount + SeqGenDB.SeqLen;
  45              		.loc 1 115 0
  46 0008 104B     		ldr	r3, .L5
  47 000a 5A69     		ldr	r2, [r3, #20]
  48 000c 0F4B     		ldr	r3, .L5
  49 000e DB68     		ldr	r3, [r3, #12]
  50 0010 D318     		adds	r3, r2, r3
  51 0012 FB60     		str	r3, [r7, #12]
 116:ad5940.c      ****   /* Generate Sequence command */
 117:ad5940.c      ****   if(temp < SeqGenDB.BufferSize)
  52              		.loc 1 117 0
  53 0014 0D4B     		ldr	r3, .L5
  54 0016 5A68     		ldr	r2, [r3, #4]
ARM GAS  C:\Users\13740\AppData\Local\Temp\ccPV2Gz9.s 			page 4


  55 0018 FB68     		ldr	r3, [r7, #12]
  56 001a 9A42     		cmp	r2, r3
  57 001c 0DD9     		bls	.L2
 118:ad5940.c      ****   {
 119:ad5940.c      ****     SeqGenDB.pSeqBuff[SeqGenDB.SeqLen] = CmdWord;
  58              		.loc 1 119 0
  59 001e 0B4B     		ldr	r3, .L5
  60 0020 9A68     		ldr	r2, [r3, #8]
  61 0022 0A4B     		ldr	r3, .L5
  62 0024 DB68     		ldr	r3, [r3, #12]
  63 0026 9B00     		lsls	r3, r3, #2
  64 0028 D318     		adds	r3, r2, r3
  65 002a 7A68     		ldr	r2, [r7, #4]
  66 002c 1A60     		str	r2, [r3]
 120:ad5940.c      ****     SeqGenDB.SeqLen ++;
  67              		.loc 1 120 0
  68 002e 074B     		ldr	r3, .L5
  69 0030 DB68     		ldr	r3, [r3, #12]
  70 0032 5A1C     		adds	r2, r3, #1
  71 0034 054B     		ldr	r3, .L5
  72 0036 DA60     		str	r2, [r3, #12]
 121:ad5940.c      ****   }
 122:ad5940.c      ****   else  /* There is no buffer */
 123:ad5940.c      ****     SeqGenDB.LastError = AD5940ERR_BUFF;
 124:ad5940.c      **** }
  73              		.loc 1 124 0
  74 0038 03E0     		b	.L4
  75              	.L2:
 123:ad5940.c      **** }
  76              		.loc 1 123 0
  77 003a 044B     		ldr	r3, .L5
  78 003c 0422     		movs	r2, #4
  79 003e 5242     		rsbs	r2, r2, #0
  80 0040 9A61     		str	r2, [r3, #24]
  81              	.L4:
  82              		.loc 1 124 0
  83 0042 C046     		nop
  84 0044 BD46     		mov	sp, r7
  85 0046 04B0     		add	sp, sp, #16
  86              		@ sp needed
  87 0048 80BD     		pop	{r7, pc}
  88              	.L6:
  89 004a C046     		.align	2
  90              	.L5:
  91 004c 00000000 		.word	SeqGenDB
  92              		.cfi_endproc
  93              	.LFE1:
  94              		.size	AD5940_SEQGenInsert, .-AD5940_SEQGenInsert
  95              		.section	.text.AD5940_SEQGenSearchReg,"ax",%progbits
  96              		.align	2
  97              		.code	16
  98              		.thumb_func
  99              		.type	AD5940_SEQGenSearchReg, %function
 100              	AD5940_SEQGenSearchReg:
 101              	.LFB2:
 125:ad5940.c      **** 
 126:ad5940.c      **** /**
ARM GAS  C:\Users\13740\AppData\Local\Temp\ccPV2Gz9.s 			page 5


 127:ad5940.c      ****  * @brief Search data-base to get current register value.
 128:ad5940.c      ****  * @param RegAddr: The register address.
 129:ad5940.c      ****  * @param pIndex: Pointer to a variable that used to store index of found register-info.
 130:ad5940.c      ****  * @return Return AD5940ERR_OK if register found in data-base. Otherwise return AD5940ERR_SEQREG.
 131:ad5940.c      **** */
 132:ad5940.c      **** static AD5940Err AD5940_SEQGenSearchReg(uint32_t RegAddr, uint32_t *pIndex)
 133:ad5940.c      **** {
 102              		.loc 1 133 0
 103              		.cfi_startproc
 104              		@ args = 0, pretend = 0, frame = 16
 105              		@ frame_needed = 1, uses_anonymous_args = 0
 106 0000 80B5     		push	{r7, lr}
 107              		.cfi_def_cfa_offset 8
 108              		.cfi_offset 7, -8
 109              		.cfi_offset 14, -4
 110 0002 84B0     		sub	sp, sp, #16
 111              		.cfi_def_cfa_offset 24
 112 0004 00AF     		add	r7, sp, #0
 113              		.cfi_def_cfa_register 7
 114 0006 7860     		str	r0, [r7, #4]
 115 0008 3960     		str	r1, [r7]
 134:ad5940.c      ****   uint32_t i;
 135:ad5940.c      **** 
 136:ad5940.c      ****   RegAddr = (RegAddr>>2)&0xff;
 116              		.loc 1 136 0
 117 000a 7B68     		ldr	r3, [r7, #4]
 118 000c 9B08     		lsrs	r3, r3, #2
 119 000e FF22     		movs	r2, #255
 120 0010 1340     		ands	r3, r2
 121 0012 7B60     		str	r3, [r7, #4]
 137:ad5940.c      ****   for(i=0;i<SeqGenDB.SeqLen;i++)
 122              		.loc 1 137 0
 123 0014 0023     		movs	r3, #0
 124 0016 FB60     		str	r3, [r7, #12]
 125 0018 11E0     		b	.L8
 126              	.L11:
 138:ad5940.c      ****   {
 139:ad5940.c      ****     if(RegAddr == SeqGenDB.pRegInfo[i].RegAddr)
 127              		.loc 1 139 0
 128 001a 0E4B     		ldr	r3, .L12
 129 001c 1A69     		ldr	r2, [r3, #16]
 130 001e FB68     		ldr	r3, [r7, #12]
 131 0020 9B00     		lsls	r3, r3, #2
 132 0022 D318     		adds	r3, r2, r3
 133 0024 1B78     		ldrb	r3, [r3]
 134 0026 1A00     		movs	r2, r3
 135 0028 7B68     		ldr	r3, [r7, #4]
 136 002a 9A42     		cmp	r2, r3
 137 002c 04D1     		bne	.L9
 140:ad5940.c      ****     {
 141:ad5940.c      ****       *pIndex = i;
 138              		.loc 1 141 0
 139 002e 3B68     		ldr	r3, [r7]
 140 0030 FA68     		ldr	r2, [r7, #12]
 141 0032 1A60     		str	r2, [r3]
 142:ad5940.c      ****       return AD5940ERR_OK;
 142              		.loc 1 142 0
ARM GAS  C:\Users\13740\AppData\Local\Temp\ccPV2Gz9.s 			page 6


 143 0034 0023     		movs	r3, #0
 144 0036 09E0     		b	.L10
 145              	.L9:
 137:ad5940.c      ****   {
 146              		.loc 1 137 0 discriminator 2
 147 0038 FB68     		ldr	r3, [r7, #12]
 148 003a 0133     		adds	r3, r3, #1
 149 003c FB60     		str	r3, [r7, #12]
 150              	.L8:
 137:ad5940.c      ****   {
 151              		.loc 1 137 0 is_stmt 0 discriminator 1
 152 003e 054B     		ldr	r3, .L12
 153 0040 DA68     		ldr	r2, [r3, #12]
 154 0042 FB68     		ldr	r3, [r7, #12]
 155 0044 9A42     		cmp	r2, r3
 156 0046 E8D8     		bhi	.L11
 143:ad5940.c      ****     }
 144:ad5940.c      ****   }
 145:ad5940.c      ****   return AD5940ERR_SEQREG;
 157              		.loc 1 145 0 is_stmt 1
 158 0048 0723     		movs	r3, #7
 159 004a 5B42     		rsbs	r3, r3, #0
 160              	.L10:
 146:ad5940.c      **** }
 161              		.loc 1 146 0
 162 004c 1800     		movs	r0, r3
 163 004e BD46     		mov	sp, r7
 164 0050 04B0     		add	sp, sp, #16
 165              		@ sp needed
 166 0052 80BD     		pop	{r7, pc}
 167              	.L13:
 168              		.align	2
 169              	.L12:
 170 0054 00000000 		.word	SeqGenDB
 171              		.cfi_endproc
 172              	.LFE2:
 173              		.size	AD5940_SEQGenSearchReg, .-AD5940_SEQGenSearchReg
 174              		.section	.text.AD5940_SEQGenGetRegDefault,"ax",%progbits
 175              		.align	2
 176              		.code	16
 177              		.thumb_func
 178              		.type	AD5940_SEQGenGetRegDefault, %function
 179              	AD5940_SEQGenGetRegDefault:
 180              	.LFB3:
 147:ad5940.c      **** 
 148:ad5940.c      **** /**
 149:ad5940.c      ****  * @brief Get the register default value by SPI read. This function requires AD5940 is in active st
 150:ad5940.c      ****  * @param RegAddr: The register address.
 151:ad5940.c      ****  * @param pRegData: Pointer to a variable to store register default value.
 152:ad5940.c      ****  * @return Return AD5940ERR_OK.
 153:ad5940.c      **** */
 154:ad5940.c      **** static AD5940Err AD5940_SEQGenGetRegDefault(uint32_t RegAddr, uint32_t *pRegData)
 155:ad5940.c      **** {
 181              		.loc 1 155 0
 182              		.cfi_startproc
 183              		@ args = 0, pretend = 0, frame = 8
 184              		@ frame_needed = 1, uses_anonymous_args = 0
ARM GAS  C:\Users\13740\AppData\Local\Temp\ccPV2Gz9.s 			page 7


 185 0000 80B5     		push	{r7, lr}
 186              		.cfi_def_cfa_offset 8
 187              		.cfi_offset 7, -8
 188              		.cfi_offset 14, -4
 189 0002 82B0     		sub	sp, sp, #8
 190              		.cfi_def_cfa_offset 16
 191 0004 00AF     		add	r7, sp, #0
 192              		.cfi_def_cfa_register 7
 193 0006 7860     		str	r0, [r7, #4]
 194 0008 3960     		str	r1, [r7]
 156:ad5940.c      **** #ifdef CHIPSEL_M355
 157:ad5940.c      ****   *pRegData = AD5940_D2DReadReg(RegAddr);
 158:ad5940.c      **** #else
 159:ad5940.c      ****   *pRegData = AD5940_SPIReadReg(RegAddr);
 195              		.loc 1 159 0
 196 000a 7B68     		ldr	r3, [r7, #4]
 197 000c 9BB2     		uxth	r3, r3
 198 000e 1800     		movs	r0, r3
 199 0010 FFF7FEFF 		bl	AD5940_SPIReadReg
 200 0014 0200     		movs	r2, r0
 201 0016 3B68     		ldr	r3, [r7]
 202 0018 1A60     		str	r2, [r3]
 160:ad5940.c      **** #endif
 161:ad5940.c      ****   return AD5940ERR_OK;
 203              		.loc 1 161 0
 204 001a 0023     		movs	r3, #0
 162:ad5940.c      **** }
 205              		.loc 1 162 0
 206 001c 1800     		movs	r0, r3
 207 001e BD46     		mov	sp, r7
 208 0020 02B0     		add	sp, sp, #8
 209              		@ sp needed
 210 0022 80BD     		pop	{r7, pc}
 211              		.cfi_endproc
 212              	.LFE3:
 213              		.size	AD5940_SEQGenGetRegDefault, .-AD5940_SEQGenGetRegDefault
 214              		.section	.text.AD5940_SEQRegInfoInsert,"ax",%progbits
 215              		.align	2
 216              		.code	16
 217              		.thumb_func
 218              		.type	AD5940_SEQRegInfoInsert, %function
 219              	AD5940_SEQRegInfoInsert:
 220              	.LFB4:
 163:ad5940.c      **** 
 164:ad5940.c      **** /**
 165:ad5940.c      ****  * @brief Record the current register info to data-base. Update LastError if there is error.
 166:ad5940.c      ****  * @param RegAddr: The register address.
 167:ad5940.c      ****  * @param RegData: The register data
 168:ad5940.c      ****  * @return Return None.
 169:ad5940.c      **** */
 170:ad5940.c      **** static void AD5940_SEQRegInfoInsert(uint16_t RegAddr, uint32_t RegData)
 171:ad5940.c      **** {
 221              		.loc 1 171 0
 222              		.cfi_startproc
 223              		@ args = 0, pretend = 0, frame = 16
 224              		@ frame_needed = 1, uses_anonymous_args = 0
 225 0000 80B5     		push	{r7, lr}
ARM GAS  C:\Users\13740\AppData\Local\Temp\ccPV2Gz9.s 			page 8


 226              		.cfi_def_cfa_offset 8
 227              		.cfi_offset 7, -8
 228              		.cfi_offset 14, -4
 229 0002 84B0     		sub	sp, sp, #16
 230              		.cfi_def_cfa_offset 24
 231 0004 00AF     		add	r7, sp, #0
 232              		.cfi_def_cfa_register 7
 233 0006 0200     		movs	r2, r0
 234 0008 3960     		str	r1, [r7]
 235 000a BB1D     		adds	r3, r7, #6
 236 000c 1A80     		strh	r2, [r3]
 172:ad5940.c      ****   uint32_t temp;
 173:ad5940.c      ****   temp = SeqGenDB.RegCount + SeqGenDB.SeqLen;
 237              		.loc 1 173 0
 238 000e 184B     		ldr	r3, .L20
 239 0010 5A69     		ldr	r2, [r3, #20]
 240 0012 174B     		ldr	r3, .L20
 241 0014 DB68     		ldr	r3, [r3, #12]
 242 0016 D318     		adds	r3, r2, r3
 243 0018 FB60     		str	r3, [r7, #12]
 174:ad5940.c      ****   
 175:ad5940.c      ****   if(temp < SeqGenDB.BufferSize)
 244              		.loc 1 175 0
 245 001a 154B     		ldr	r3, .L20
 246 001c 5A68     		ldr	r2, [r3, #4]
 247 001e FB68     		ldr	r3, [r7, #12]
 248 0020 9A42     		cmp	r2, r3
 249 0022 1DD9     		bls	.L17
 176:ad5940.c      ****   {
 177:ad5940.c      ****     SeqGenDB.pRegInfo --; /* Move back */
 250              		.loc 1 177 0
 251 0024 124B     		ldr	r3, .L20
 252 0026 1B69     		ldr	r3, [r3, #16]
 253 0028 1A1F     		subs	r2, r3, #4
 254 002a 114B     		ldr	r3, .L20
 255 002c 1A61     		str	r2, [r3, #16]
 178:ad5940.c      ****     SeqGenDB.pRegInfo[0].RegAddr = (RegAddr>>2)&0xff;
 256              		.loc 1 178 0
 257 002e 104B     		ldr	r3, .L20
 258 0030 1B69     		ldr	r3, [r3, #16]
 259 0032 BA1D     		adds	r2, r7, #6
 260 0034 1288     		ldrh	r2, [r2]
 261 0036 9208     		lsrs	r2, r2, #2
 262 0038 92B2     		uxth	r2, r2
 263 003a D2B2     		uxtb	r2, r2
 264 003c 1A70     		strb	r2, [r3]
 179:ad5940.c      ****     SeqGenDB.pRegInfo[0].RegValue = RegData&0x00ffffff;
 265              		.loc 1 179 0
 266 003e 0C4B     		ldr	r3, .L20
 267 0040 1B69     		ldr	r3, [r3, #16]
 268 0042 3A68     		ldr	r2, [r7]
 269 0044 1202     		lsls	r2, r2, #8
 270 0046 120A     		lsrs	r2, r2, #8
 271 0048 1202     		lsls	r2, r2, #8
 272 004a 1968     		ldr	r1, [r3]
 273 004c FF20     		movs	r0, #255
 274 004e 0140     		ands	r1, r0
ARM GAS  C:\Users\13740\AppData\Local\Temp\ccPV2Gz9.s 			page 9


 275 0050 0A43     		orrs	r2, r1
 276 0052 1A60     		str	r2, [r3]
 180:ad5940.c      ****     SeqGenDB.RegCount ++;
 277              		.loc 1 180 0
 278 0054 064B     		ldr	r3, .L20
 279 0056 5B69     		ldr	r3, [r3, #20]
 280 0058 5A1C     		adds	r2, r3, #1
 281 005a 054B     		ldr	r3, .L20
 282 005c 5A61     		str	r2, [r3, #20]
 181:ad5940.c      ****   }
 182:ad5940.c      ****   else  /* There is no more buffer  */
 183:ad5940.c      ****   {
 184:ad5940.c      ****     SeqGenDB.LastError = AD5940ERR_BUFF;
 185:ad5940.c      ****   }
 186:ad5940.c      **** }
 283              		.loc 1 186 0
 284 005e 03E0     		b	.L19
 285              	.L17:
 184:ad5940.c      ****   }
 286              		.loc 1 184 0
 287 0060 034B     		ldr	r3, .L20
 288 0062 0422     		movs	r2, #4
 289 0064 5242     		rsbs	r2, r2, #0
 290 0066 9A61     		str	r2, [r3, #24]
 291              	.L19:
 292              		.loc 1 186 0
 293 0068 C046     		nop
 294 006a BD46     		mov	sp, r7
 295 006c 04B0     		add	sp, sp, #16
 296              		@ sp needed
 297 006e 80BD     		pop	{r7, pc}
 298              	.L21:
 299              		.align	2
 300              	.L20:
 301 0070 00000000 		.word	SeqGenDB
 302              		.cfi_endproc
 303              	.LFE4:
 304              		.size	AD5940_SEQRegInfoInsert, .-AD5940_SEQRegInfoInsert
 305              		.section	.text.AD5940_SEQReadReg,"ax",%progbits
 306              		.align	2
 307              		.code	16
 308              		.thumb_func
 309              		.type	AD5940_SEQReadReg, %function
 310              	AD5940_SEQReadReg:
 311              	.LFB5:
 187:ad5940.c      **** 
 188:ad5940.c      **** /**
 189:ad5940.c      ****  * @brief Get current register value. If we have record in data-base, read it. Otherwise, return th
 190:ad5940.c      ****  * @param RegAddr: The register address.
 191:ad5940.c      ****  * @return Return register value.
 192:ad5940.c      **** */
 193:ad5940.c      **** static uint32_t AD5940_SEQReadReg(uint16_t RegAddr)
 194:ad5940.c      **** {
 312              		.loc 1 194 0
 313              		.cfi_startproc
 314              		@ args = 0, pretend = 0, frame = 16
 315              		@ frame_needed = 1, uses_anonymous_args = 0
ARM GAS  C:\Users\13740\AppData\Local\Temp\ccPV2Gz9.s 			page 10


 316 0000 80B5     		push	{r7, lr}
 317              		.cfi_def_cfa_offset 8
 318              		.cfi_offset 7, -8
 319              		.cfi_offset 14, -4
 320 0002 84B0     		sub	sp, sp, #16
 321              		.cfi_def_cfa_offset 24
 322 0004 00AF     		add	r7, sp, #0
 323              		.cfi_def_cfa_register 7
 324 0006 0200     		movs	r2, r0
 325 0008 BB1D     		adds	r3, r7, #6
 326 000a 1A80     		strh	r2, [r3]
 195:ad5940.c      ****   uint32_t RegIndex, RegData;
 196:ad5940.c      ****   
 197:ad5940.c      ****   if(AD5940_SEQGenSearchReg(RegAddr, &RegIndex) != AD5940ERR_OK)
 327              		.loc 1 197 0
 328 000c BB1D     		adds	r3, r7, #6
 329 000e 1B88     		ldrh	r3, [r3]
 330 0010 0C22     		movs	r2, #12
 331 0012 BA18     		adds	r2, r7, r2
 332 0014 1100     		movs	r1, r2
 333 0016 1800     		movs	r0, r3
 334 0018 FFF7FEFF 		bl	AD5940_SEQGenSearchReg
 335 001c 031E     		subs	r3, r0, #0
 336 001e 0FD0     		beq	.L23
 198:ad5940.c      ****   {
 199:ad5940.c      ****     /* There is no record in data-base, read the default value. */
 200:ad5940.c      ****     AD5940_SEQGenGetRegDefault(RegAddr, &RegData);
 337              		.loc 1 200 0
 338 0020 BB1D     		adds	r3, r7, #6
 339 0022 1B88     		ldrh	r3, [r3]
 340 0024 0822     		movs	r2, #8
 341 0026 BA18     		adds	r2, r7, r2
 342 0028 1100     		movs	r1, r2
 343 002a 1800     		movs	r0, r3
 344 002c FFF7FEFF 		bl	AD5940_SEQGenGetRegDefault
 201:ad5940.c      ****     AD5940_SEQRegInfoInsert(RegAddr, RegData);
 345              		.loc 1 201 0
 346 0030 BA68     		ldr	r2, [r7, #8]
 347 0032 BB1D     		adds	r3, r7, #6
 348 0034 1B88     		ldrh	r3, [r3]
 349 0036 1100     		movs	r1, r2
 350 0038 1800     		movs	r0, r3
 351 003a FFF7FEFF 		bl	AD5940_SEQRegInfoInsert
 352 003e 07E0     		b	.L24
 353              	.L23:
 202:ad5940.c      ****   }
 203:ad5940.c      ****   else
 204:ad5940.c      ****   {
 205:ad5940.c      ****     /* return the current register value stored in data-base */
 206:ad5940.c      ****     RegData = SeqGenDB.pRegInfo[RegIndex].RegValue;
 354              		.loc 1 206 0
 355 0040 064B     		ldr	r3, .L26
 356 0042 1A69     		ldr	r2, [r3, #16]
 357 0044 FB68     		ldr	r3, [r7, #12]
 358 0046 9B00     		lsls	r3, r3, #2
 359 0048 D318     		adds	r3, r2, r3
 360 004a 1B68     		ldr	r3, [r3]
ARM GAS  C:\Users\13740\AppData\Local\Temp\ccPV2Gz9.s 			page 11


 361 004c 1B0A     		lsrs	r3, r3, #8
 362 004e BB60     		str	r3, [r7, #8]
 363              	.L24:
 207:ad5940.c      ****   }
 208:ad5940.c      **** 
 209:ad5940.c      ****   return RegData;
 364              		.loc 1 209 0
 365 0050 BB68     		ldr	r3, [r7, #8]
 210:ad5940.c      **** }
 366              		.loc 1 210 0
 367 0052 1800     		movs	r0, r3
 368 0054 BD46     		mov	sp, r7
 369 0056 04B0     		add	sp, sp, #16
 370              		@ sp needed
 371 0058 80BD     		pop	{r7, pc}
 372              	.L27:
 373 005a C046     		.align	2
 374              	.L26:
 375 005c 00000000 		.word	SeqGenDB
 376              		.cfi_endproc
 377              	.LFE5:
 378              		.size	AD5940_SEQReadReg, .-AD5940_SEQReadReg
 379              		.section	.text.AD5940_SEQWriteReg,"ax",%progbits
 380              		.align	2
 381              		.code	16
 382              		.thumb_func
 383              		.type	AD5940_SEQWriteReg, %function
 384              	AD5940_SEQWriteReg:
 385              	.LFB6:
 211:ad5940.c      **** 
 212:ad5940.c      **** /**
 213:ad5940.c      ****  * @brief Generate a sequencer command to write register. If the register address is out of range, 
 214:ad5940.c      ****  *        This function will also update the register-info in data-base to record current register 
 215:ad5940.c      ****  * @param RegAddr: The register address.
 216:ad5940.c      ****  * @param RegData: The register value.
 217:ad5940.c      ****  * @return Return None.
 218:ad5940.c      **** */
 219:ad5940.c      **** static void AD5940_SEQWriteReg(uint16_t RegAddr, uint32_t RegData)
 220:ad5940.c      **** {
 386              		.loc 1 220 0
 387              		.cfi_startproc
 388              		@ args = 0, pretend = 0, frame = 16
 389              		@ frame_needed = 1, uses_anonymous_args = 0
 390 0000 80B5     		push	{r7, lr}
 391              		.cfi_def_cfa_offset 8
 392              		.cfi_offset 7, -8
 393              		.cfi_offset 14, -4
 394 0002 84B0     		sub	sp, sp, #16
 395              		.cfi_def_cfa_offset 24
 396 0004 00AF     		add	r7, sp, #0
 397              		.cfi_def_cfa_register 7
 398 0006 0200     		movs	r2, r0
 399 0008 3960     		str	r1, [r7]
 400 000a BB1D     		adds	r3, r7, #6
 401 000c 1A80     		strh	r2, [r3]
 221:ad5940.c      ****   uint32_t RegIndex;
 222:ad5940.c      ****   
ARM GAS  C:\Users\13740\AppData\Local\Temp\ccPV2Gz9.s 			page 12


 223:ad5940.c      ****   if(RegAddr > 0x21ff)
 402              		.loc 1 223 0
 403 000e BB1D     		adds	r3, r7, #6
 404 0010 1B88     		ldrh	r3, [r3]
 405 0012 274A     		ldr	r2, .L33
 406 0014 9342     		cmp	r3, r2
 407 0016 04D9     		bls	.L29
 224:ad5940.c      ****   {
 225:ad5940.c      ****     SeqGenDB.LastError = AD5940ERR_ADDROR;  /* address out of range  */
 408              		.loc 1 225 0
 409 0018 264B     		ldr	r3, .L33+4
 410 001a 0522     		movs	r2, #5
 411 001c 5242     		rsbs	r2, r2, #0
 412 001e 9A61     		str	r2, [r3, #24]
 413 0020 43E0     		b	.L28
 414              	.L29:
 226:ad5940.c      ****     return;
 227:ad5940.c      ****   }
 228:ad5940.c      **** 
 229:ad5940.c      ****   if(AD5940_SEQGenSearchReg(RegAddr, &RegIndex) == AD5940ERR_OK)
 415              		.loc 1 229 0
 416 0022 BB1D     		adds	r3, r7, #6
 417 0024 1B88     		ldrh	r3, [r3]
 418 0026 0C22     		movs	r2, #12
 419 0028 BA18     		adds	r2, r7, r2
 420 002a 1100     		movs	r1, r2
 421 002c 1800     		movs	r0, r3
 422 002e FFF7FEFF 		bl	AD5940_SEQGenSearchReg
 423 0032 031E     		subs	r3, r0, #0
 424 0034 20D1     		bne	.L31
 230:ad5940.c      ****   {
 231:ad5940.c      ****     /* Store register value */
 232:ad5940.c      ****     SeqGenDB.pRegInfo[RegIndex].RegValue = RegData;
 425              		.loc 1 232 0
 426 0036 1F4B     		ldr	r3, .L33+4
 427 0038 1A69     		ldr	r2, [r3, #16]
 428 003a FB68     		ldr	r3, [r7, #12]
 429 003c 9B00     		lsls	r3, r3, #2
 430 003e D318     		adds	r3, r2, r3
 431 0040 3A68     		ldr	r2, [r7]
 432 0042 1202     		lsls	r2, r2, #8
 433 0044 120A     		lsrs	r2, r2, #8
 434 0046 1202     		lsls	r2, r2, #8
 435 0048 1968     		ldr	r1, [r3]
 436 004a FF20     		movs	r0, #255
 437 004c 0140     		ands	r1, r0
 438 004e 0A43     		orrs	r2, r1
 439 0050 1A60     		str	r2, [r3]
 233:ad5940.c      ****     /* Generate Sequence command */
 234:ad5940.c      ****     AD5940_SEQGenInsert(SEQ_WR(RegAddr, RegData));
 440              		.loc 1 234 0
 441 0052 BB1D     		adds	r3, r7, #6
 442 0054 1B88     		ldrh	r3, [r3]
 443 0056 9B08     		lsrs	r3, r3, #2
 444 0058 9BB2     		uxth	r3, r3
 445 005a 1A06     		lsls	r2, r3, #24
 446 005c FE23     		movs	r3, #254
ARM GAS  C:\Users\13740\AppData\Local\Temp\ccPV2Gz9.s 			page 13


 447 005e DB05     		lsls	r3, r3, #23
 448 0060 1A40     		ands	r2, r3
 449 0062 3B68     		ldr	r3, [r7]
 450 0064 1B02     		lsls	r3, r3, #8
 451 0066 1B0A     		lsrs	r3, r3, #8
 452 0068 1343     		orrs	r3, r2
 453 006a 8022     		movs	r2, #128
 454 006c 1206     		lsls	r2, r2, #24
 455 006e 1343     		orrs	r3, r2
 456 0070 1800     		movs	r0, r3
 457 0072 FFF7FEFF 		bl	AD5940_SEQGenInsert
 458 0076 18E0     		b	.L28
 459              	.L31:
 235:ad5940.c      ****   }
 236:ad5940.c      ****   else
 237:ad5940.c      ****   {
 238:ad5940.c      ****     AD5940_SEQRegInfoInsert(RegAddr, RegData);
 460              		.loc 1 238 0
 461 0078 3A68     		ldr	r2, [r7]
 462 007a BB1D     		adds	r3, r7, #6
 463 007c 1B88     		ldrh	r3, [r3]
 464 007e 1100     		movs	r1, r2
 465 0080 1800     		movs	r0, r3
 466 0082 FFF7FEFF 		bl	AD5940_SEQRegInfoInsert
 239:ad5940.c      ****     /* Generate Sequence command */
 240:ad5940.c      ****     AD5940_SEQGenInsert(SEQ_WR(RegAddr, RegData));
 467              		.loc 1 240 0
 468 0086 BB1D     		adds	r3, r7, #6
 469 0088 1B88     		ldrh	r3, [r3]
 470 008a 9B08     		lsrs	r3, r3, #2
 471 008c 9BB2     		uxth	r3, r3
 472 008e 1A06     		lsls	r2, r3, #24
 473 0090 FE23     		movs	r3, #254
 474 0092 DB05     		lsls	r3, r3, #23
 475 0094 1A40     		ands	r2, r3
 476 0096 3B68     		ldr	r3, [r7]
 477 0098 1B02     		lsls	r3, r3, #8
 478 009a 1B0A     		lsrs	r3, r3, #8
 479 009c 1343     		orrs	r3, r2
 480 009e 8022     		movs	r2, #128
 481 00a0 1206     		lsls	r2, r2, #24
 482 00a2 1343     		orrs	r3, r2
 483 00a4 1800     		movs	r0, r3
 484 00a6 FFF7FEFF 		bl	AD5940_SEQGenInsert
 485              	.L28:
 241:ad5940.c      ****   }
 242:ad5940.c      **** }
 486              		.loc 1 242 0
 487 00aa BD46     		mov	sp, r7
 488 00ac 04B0     		add	sp, sp, #16
 489              		@ sp needed
 490 00ae 80BD     		pop	{r7, pc}
 491              	.L34:
 492              		.align	2
 493              	.L33:
 494 00b0 FF210000 		.word	8703
 495 00b4 00000000 		.word	SeqGenDB
ARM GAS  C:\Users\13740\AppData\Local\Temp\ccPV2Gz9.s 			page 14


 496              		.cfi_endproc
 497              	.LFE6:
 498              		.size	AD5940_SEQWriteReg, .-AD5940_SEQWriteReg
 499              		.section	.text.AD5940_SEQGenInit,"ax",%progbits
 500              		.align	2
 501              		.global	AD5940_SEQGenInit
 502              		.code	16
 503              		.thumb_func
 504              		.type	AD5940_SEQGenInit, %function
 505              	AD5940_SEQGenInit:
 506              	.LFB7:
 243:ad5940.c      **** 
 244:ad5940.c      **** /**
 245:ad5940.c      ****  * @brief Initialize sequencer generator with specified buffer.
 246:ad5940.c      ****  *        The buffer is used to store sequencer generated and record register value changes.
 247:ad5940.c      ****  *        The command is stored from start address of buffer while register value is stored from en
 248:ad5940.c      ****  *    Buffer[0] : First sequencer command;
 249:ad5940.c      ****  *    Buffer[1] : Second Sequencer command;
 250:ad5940.c      ****  *    ...
 251:ad5940.c      ****  *    Buffer[Last-1]: The second register value record.
 252:ad5940.c      ****  *    Buffer[Last]: The first register value record.
 253:ad5940.c      ****  * @param pBuffer: Pointer to the buffer.
 254:ad5940.c      ****  * @param BufferSize: The buffer length.
 255:ad5940.c      ****  * @return Return None.
 256:ad5940.c      **** */
 257:ad5940.c      **** void AD5940_SEQGenInit(uint32_t *pBuffer, uint32_t BufferSize)
 258:ad5940.c      **** {
 507              		.loc 1 258 0
 508              		.cfi_startproc
 509              		@ args = 0, pretend = 0, frame = 8
 510              		@ frame_needed = 1, uses_anonymous_args = 0
 511 0000 80B5     		push	{r7, lr}
 512              		.cfi_def_cfa_offset 8
 513              		.cfi_offset 7, -8
 514              		.cfi_offset 14, -4
 515 0002 82B0     		sub	sp, sp, #8
 516              		.cfi_def_cfa_offset 16
 517 0004 00AF     		add	r7, sp, #0
 518              		.cfi_def_cfa_register 7
 519 0006 7860     		str	r0, [r7, #4]
 520 0008 3960     		str	r1, [r7]
 259:ad5940.c      ****   if(BufferSize < 2) return;
 521              		.loc 1 259 0
 522 000a 3B68     		ldr	r3, [r7]
 523 000c 012B     		cmp	r3, #1
 524 000e 1BD9     		bls	.L38
 260:ad5940.c      ****   SeqGenDB.BufferSize = BufferSize;
 525              		.loc 1 260 0
 526 0010 0F4B     		ldr	r3, .L39
 527 0012 3A68     		ldr	r2, [r7]
 528 0014 5A60     		str	r2, [r3, #4]
 261:ad5940.c      ****   SeqGenDB.pSeqBuff = pBuffer;
 529              		.loc 1 261 0
 530 0016 0E4B     		ldr	r3, .L39
 531 0018 7A68     		ldr	r2, [r7, #4]
 532 001a 9A60     		str	r2, [r3, #8]
 262:ad5940.c      ****   SeqGenDB.pRegInfo = (SEQGenRegInfo_Type*)pBuffer + BufferSize - 1; /* Point to the last element i
ARM GAS  C:\Users\13740\AppData\Local\Temp\ccPV2Gz9.s 			page 15


 533              		.loc 1 262 0
 534 001c 3B68     		ldr	r3, [r7]
 535 001e 0D4A     		ldr	r2, .L39+4
 536 0020 9446     		mov	ip, r2
 537 0022 6344     		add	r3, r3, ip
 538 0024 9B00     		lsls	r3, r3, #2
 539 0026 7A68     		ldr	r2, [r7, #4]
 540 0028 D218     		adds	r2, r2, r3
 541 002a 094B     		ldr	r3, .L39
 542 002c 1A61     		str	r2, [r3, #16]
 263:ad5940.c      ****   SeqGenDB.SeqLen = 0;
 543              		.loc 1 263 0
 544 002e 084B     		ldr	r3, .L39
 545 0030 0022     		movs	r2, #0
 546 0032 DA60     		str	r2, [r3, #12]
 264:ad5940.c      **** 
 265:ad5940.c      ****   SeqGenDB.RegCount = 0;
 547              		.loc 1 265 0
 548 0034 064B     		ldr	r3, .L39
 549 0036 0022     		movs	r2, #0
 550 0038 5A61     		str	r2, [r3, #20]
 266:ad5940.c      ****   SeqGenDB.LastError = AD5940ERR_OK;
 551              		.loc 1 266 0
 552 003a 054B     		ldr	r3, .L39
 553 003c 0022     		movs	r2, #0
 554 003e 9A61     		str	r2, [r3, #24]
 267:ad5940.c      ****   SeqGenDB.EngineStart = bFALSE;
 555              		.loc 1 267 0
 556 0040 034B     		ldr	r3, .L39
 557 0042 0022     		movs	r2, #0
 558 0044 1A70     		strb	r2, [r3]
 559 0046 00E0     		b	.L35
 560              	.L38:
 259:ad5940.c      ****   SeqGenDB.BufferSize = BufferSize;
 561              		.loc 1 259 0
 562 0048 C046     		nop
 563              	.L35:
 268:ad5940.c      **** }
 564              		.loc 1 268 0
 565 004a BD46     		mov	sp, r7
 566 004c 02B0     		add	sp, sp, #8
 567              		@ sp needed
 568 004e 80BD     		pop	{r7, pc}
 569              	.L40:
 570              		.align	2
 571              	.L39:
 572 0050 00000000 		.word	SeqGenDB
 573 0054 FFFFFF3F 		.word	1073741823
 574              		.cfi_endproc
 575              	.LFE7:
 576              		.size	AD5940_SEQGenInit, .-AD5940_SEQGenInit
 577              		.section	.text.AD5940_SEQGenFetchSeq,"ax",%progbits
 578              		.align	2
 579              		.global	AD5940_SEQGenFetchSeq
 580              		.code	16
 581              		.thumb_func
 582              		.type	AD5940_SEQGenFetchSeq, %function
ARM GAS  C:\Users\13740\AppData\Local\Temp\ccPV2Gz9.s 			page 16


 583              	AD5940_SEQGenFetchSeq:
 584              	.LFB8:
 269:ad5940.c      **** 
 270:ad5940.c      **** /**
 271:ad5940.c      ****  * @brief Get sequencer command generated.
 272:ad5940.c      ****  * @param ppSeqCmd: Pointer to a variable(pointer) used to store the pointer to generated sequencer
 273:ad5940.c      ****  * @param pSeqLen: Pointer to a variable that used to store how many commands available in buffer.
 274:ad5940.c      ****  * @return Return lasterror.
 275:ad5940.c      **** */
 276:ad5940.c      **** AD5940Err AD5940_SEQGenFetchSeq(const uint32_t **ppSeqCmd, uint32_t *pSeqLen)
 277:ad5940.c      **** {
 585              		.loc 1 277 0
 586              		.cfi_startproc
 587              		@ args = 0, pretend = 0, frame = 16
 588              		@ frame_needed = 1, uses_anonymous_args = 0
 589 0000 80B5     		push	{r7, lr}
 590              		.cfi_def_cfa_offset 8
 591              		.cfi_offset 7, -8
 592              		.cfi_offset 14, -4
 593 0002 84B0     		sub	sp, sp, #16
 594              		.cfi_def_cfa_offset 24
 595 0004 00AF     		add	r7, sp, #0
 596              		.cfi_def_cfa_register 7
 597 0006 7860     		str	r0, [r7, #4]
 598 0008 3960     		str	r1, [r7]
 278:ad5940.c      ****   AD5940Err lasterror;
 279:ad5940.c      **** 
 280:ad5940.c      ****   if(ppSeqCmd)
 599              		.loc 1 280 0
 600 000a 7B68     		ldr	r3, [r7, #4]
 601 000c 002B     		cmp	r3, #0
 602 000e 03D0     		beq	.L42
 281:ad5940.c      ****     *ppSeqCmd = SeqGenDB.pSeqBuff;  
 603              		.loc 1 281 0
 604 0010 094B     		ldr	r3, .L45
 605 0012 9A68     		ldr	r2, [r3, #8]
 606 0014 7B68     		ldr	r3, [r7, #4]
 607 0016 1A60     		str	r2, [r3]
 608              	.L42:
 282:ad5940.c      ****   if(pSeqLen)
 609              		.loc 1 282 0
 610 0018 3B68     		ldr	r3, [r7]
 611 001a 002B     		cmp	r3, #0
 612 001c 03D0     		beq	.L43
 283:ad5940.c      ****     *pSeqLen = SeqGenDB.SeqLen;
 613              		.loc 1 283 0
 614 001e 064B     		ldr	r3, .L45
 615 0020 DA68     		ldr	r2, [r3, #12]
 616 0022 3B68     		ldr	r3, [r7]
 617 0024 1A60     		str	r2, [r3]
 618              	.L43:
 284:ad5940.c      **** 
 285:ad5940.c      ****   //SeqGenDB.SeqLen = 0;  /* Start a new sequence */
 286:ad5940.c      ****   lasterror = SeqGenDB.LastError;
 619              		.loc 1 286 0
 620 0026 044B     		ldr	r3, .L45
 621 0028 9B69     		ldr	r3, [r3, #24]
ARM GAS  C:\Users\13740\AppData\Local\Temp\ccPV2Gz9.s 			page 17


 622 002a FB60     		str	r3, [r7, #12]
 287:ad5940.c      ****   //SeqGenDB.LastError = AD5940ERR_OK;  /* Clear error message */
 288:ad5940.c      ****   return lasterror;
 623              		.loc 1 288 0
 624 002c FB68     		ldr	r3, [r7, #12]
 289:ad5940.c      **** }
 625              		.loc 1 289 0
 626 002e 1800     		movs	r0, r3
 627 0030 BD46     		mov	sp, r7
 628 0032 04B0     		add	sp, sp, #16
 629              		@ sp needed
 630 0034 80BD     		pop	{r7, pc}
 631              	.L46:
 632 0036 C046     		.align	2
 633              	.L45:
 634 0038 00000000 		.word	SeqGenDB
 635              		.cfi_endproc
 636              	.LFE8:
 637              		.size	AD5940_SEQGenFetchSeq, .-AD5940_SEQGenFetchSeq
 638              		.section	.text.AD5940_SEQGenCtrl,"ax",%progbits
 639              		.align	2
 640              		.global	AD5940_SEQGenCtrl
 641              		.code	16
 642              		.thumb_func
 643              		.type	AD5940_SEQGenCtrl, %function
 644              	AD5940_SEQGenCtrl:
 645              	.LFB9:
 290:ad5940.c      **** 
 291:ad5940.c      **** /**
 292:ad5940.c      ****  * @brief Start or stop the sequencer generator. Once started, the register write will be recorded 
 293:ad5940.c      ****  *        Once it's disabled, the register write is written to AD5940 directly by SPI bus.
 294:ad5940.c      ****  * @param bFlag: Enable or disable sequencer generator.
 295:ad5940.c      ****  * @return Return None.
 296:ad5940.c      **** */
 297:ad5940.c      **** void AD5940_SEQGenCtrl(BoolFlag bFlag)
 298:ad5940.c      **** {
 646              		.loc 1 298 0
 647              		.cfi_startproc
 648              		@ args = 0, pretend = 0, frame = 8
 649              		@ frame_needed = 1, uses_anonymous_args = 0
 650 0000 80B5     		push	{r7, lr}
 651              		.cfi_def_cfa_offset 8
 652              		.cfi_offset 7, -8
 653              		.cfi_offset 14, -4
 654 0002 82B0     		sub	sp, sp, #8
 655              		.cfi_def_cfa_offset 16
 656 0004 00AF     		add	r7, sp, #0
 657              		.cfi_def_cfa_register 7
 658 0006 0200     		movs	r2, r0
 659 0008 FB1D     		adds	r3, r7, #7
 660 000a 1A70     		strb	r2, [r3]
 299:ad5940.c      ****   if(bFlag == bFALSE) /* Disable sequence generator */
 661              		.loc 1 299 0
 662 000c FB1D     		adds	r3, r7, #7
 663 000e 1B78     		ldrb	r3, [r3]
 664 0010 002B     		cmp	r3, #0
 665 0012 03D1     		bne	.L48
ARM GAS  C:\Users\13740\AppData\Local\Temp\ccPV2Gz9.s 			page 18


 300:ad5940.c      ****   {
 301:ad5940.c      ****     SeqGenDB.EngineStart = bFALSE;
 666              		.loc 1 301 0
 667 0014 084B     		ldr	r3, .L51
 668 0016 0022     		movs	r2, #0
 669 0018 1A70     		strb	r2, [r3]
 302:ad5940.c      ****   }
 303:ad5940.c      ****   else
 304:ad5940.c      ****   {
 305:ad5940.c      ****     SeqGenDB.SeqLen = 0;
 306:ad5940.c      ****     SeqGenDB.LastError = AD5940ERR_OK;  /* Clear error message */
 307:ad5940.c      ****     SeqGenDB.EngineStart = bTRUE;
 308:ad5940.c      ****   }
 309:ad5940.c      **** }
 670              		.loc 1 309 0
 671 001a 08E0     		b	.L50
 672              	.L48:
 305:ad5940.c      ****     SeqGenDB.LastError = AD5940ERR_OK;  /* Clear error message */
 673              		.loc 1 305 0
 674 001c 064B     		ldr	r3, .L51
 675 001e 0022     		movs	r2, #0
 676 0020 DA60     		str	r2, [r3, #12]
 306:ad5940.c      ****     SeqGenDB.EngineStart = bTRUE;
 677              		.loc 1 306 0
 678 0022 054B     		ldr	r3, .L51
 679 0024 0022     		movs	r2, #0
 680 0026 9A61     		str	r2, [r3, #24]
 307:ad5940.c      ****   }
 681              		.loc 1 307 0
 682 0028 034B     		ldr	r3, .L51
 683 002a 0122     		movs	r2, #1
 684 002c 1A70     		strb	r2, [r3]
 685              	.L50:
 686              		.loc 1 309 0
 687 002e C046     		nop
 688 0030 BD46     		mov	sp, r7
 689 0032 02B0     		add	sp, sp, #8
 690              		@ sp needed
 691 0034 80BD     		pop	{r7, pc}
 692              	.L52:
 693 0036 C046     		.align	2
 694              	.L51:
 695 0038 00000000 		.word	SeqGenDB
 696              		.cfi_endproc
 697              	.LFE9:
 698              		.size	AD5940_SEQGenCtrl, .-AD5940_SEQGenCtrl
 699              		.section	.text.AD5940_SEQCycleTime,"ax",%progbits
 700              		.align	2
 701              		.global	AD5940_SEQCycleTime
 702              		.code	16
 703              		.thumb_func
 704              		.type	AD5940_SEQCycleTime, %function
 705              	AD5940_SEQCycleTime:
 706              	.LFB10:
 310:ad5940.c      **** 
 311:ad5940.c      **** /**
 312:ad5940.c      ****  * @brief Calculate the number of cycles in the sequence
ARM GAS  C:\Users\13740\AppData\Local\Temp\ccPV2Gz9.s 			page 19


 313:ad5940.c      ****  * @return Return Number of ACLK Cycles that a generated sequence will take.
 314:ad5940.c      **** */
 315:ad5940.c      **** uint32_t AD5940_SEQCycleTime(void)
 316:ad5940.c      **** {
 707              		.loc 1 316 0
 708              		.cfi_startproc
 709              		@ args = 0, pretend = 0, frame = 16
 710              		@ frame_needed = 1, uses_anonymous_args = 0
 711 0000 80B5     		push	{r7, lr}
 712              		.cfi_def_cfa_offset 8
 713              		.cfi_offset 7, -8
 714              		.cfi_offset 14, -4
 715 0002 84B0     		sub	sp, sp, #16
 716              		.cfi_def_cfa_offset 24
 717 0004 00AF     		add	r7, sp, #0
 718              		.cfi_def_cfa_register 7
 317:ad5940.c      ****   uint32_t i, Cycles, Cmd;  
 318:ad5940.c      ****   Cycles = 0;
 719              		.loc 1 318 0
 720 0006 0023     		movs	r3, #0
 721 0008 BB60     		str	r3, [r7, #8]
 319:ad5940.c      ****   for(i=0;i<SeqGenDB.RegCount;i++)
 722              		.loc 1 319 0
 723 000a 0023     		movs	r3, #0
 724 000c FB60     		str	r3, [r7, #12]
 725 000e 25E0     		b	.L54
 726              	.L58:
 320:ad5940.c      ****   {
 321:ad5940.c      ****     Cmd = (SeqGenDB.pSeqBuff[i]  >> 30) & 0x3;
 727              		.loc 1 321 0
 728 0010 174B     		ldr	r3, .L60
 729 0012 9A68     		ldr	r2, [r3, #8]
 730 0014 FB68     		ldr	r3, [r7, #12]
 731 0016 9B00     		lsls	r3, r3, #2
 732 0018 D318     		adds	r3, r2, r3
 733 001a 1B68     		ldr	r3, [r3]
 734 001c 9B0F     		lsrs	r3, r3, #30
 735 001e 7B60     		str	r3, [r7, #4]
 322:ad5940.c      ****     if (Cmd & 0x2)
 736              		.loc 1 322 0
 737 0020 7B68     		ldr	r3, [r7, #4]
 738 0022 0222     		movs	r2, #2
 739 0024 1340     		ands	r3, r2
 740 0026 03D0     		beq	.L55
 323:ad5940.c      ****     {
 324:ad5940.c      ****       /* A write command */
 325:ad5940.c      ****       Cycles += 1;
 741              		.loc 1 325 0
 742 0028 BB68     		ldr	r3, [r7, #8]
 743 002a 0133     		adds	r3, r3, #1
 744 002c BB60     		str	r3, [r7, #8]
 745 002e 12E0     		b	.L56
 746              	.L55:
 326:ad5940.c      ****     }
 327:ad5940.c      ****     else
 328:ad5940.c      ****     {
 329:ad5940.c      ****       if (Cmd & 0x1)
ARM GAS  C:\Users\13740\AppData\Local\Temp\ccPV2Gz9.s 			page 20


 747              		.loc 1 329 0
 748 0030 7B68     		ldr	r3, [r7, #4]
 749 0032 0122     		movs	r2, #1
 750 0034 1340     		ands	r3, r2
 751 0036 03D0     		beq	.L57
 330:ad5940.c      ****       {
 331:ad5940.c      ****         /* Timeout Command */    
 332:ad5940.c      ****         Cycles += 1;
 752              		.loc 1 332 0
 753 0038 BB68     		ldr	r3, [r7, #8]
 754 003a 0133     		adds	r3, r3, #1
 755 003c BB60     		str	r3, [r7, #8]
 756 003e 0AE0     		b	.L56
 757              	.L57:
 333:ad5940.c      ****       }
 334:ad5940.c      ****       else
 335:ad5940.c      ****         {
 336:ad5940.c      ****           /* Wait command */
 337:ad5940.c      ****           Cycles += SeqGenDB.pSeqBuff[i] & 0x3FFFFFFF;
 758              		.loc 1 337 0
 759 0040 0B4B     		ldr	r3, .L60
 760 0042 9A68     		ldr	r2, [r3, #8]
 761 0044 FB68     		ldr	r3, [r7, #12]
 762 0046 9B00     		lsls	r3, r3, #2
 763 0048 D318     		adds	r3, r2, r3
 764 004a 1B68     		ldr	r3, [r3]
 765 004c 9B00     		lsls	r3, r3, #2
 766 004e 9B08     		lsrs	r3, r3, #2
 767 0050 BA68     		ldr	r2, [r7, #8]
 768 0052 D318     		adds	r3, r2, r3
 769 0054 BB60     		str	r3, [r7, #8]
 770              	.L56:
 319:ad5940.c      ****   {
 771              		.loc 1 319 0 discriminator 2
 772 0056 FB68     		ldr	r3, [r7, #12]
 773 0058 0133     		adds	r3, r3, #1
 774 005a FB60     		str	r3, [r7, #12]
 775              	.L54:
 319:ad5940.c      ****   {
 776              		.loc 1 319 0 is_stmt 0 discriminator 1
 777 005c 044B     		ldr	r3, .L60
 778 005e 5A69     		ldr	r2, [r3, #20]
 779 0060 FB68     		ldr	r3, [r7, #12]
 780 0062 9A42     		cmp	r2, r3
 781 0064 D4D8     		bhi	.L58
 338:ad5940.c      ****         }
 339:ad5940.c      ****     }
 340:ad5940.c      ****   } 
 341:ad5940.c      ****   return Cycles;  
 782              		.loc 1 341 0 is_stmt 1
 783 0066 BB68     		ldr	r3, [r7, #8]
 342:ad5940.c      **** }
 784              		.loc 1 342 0
 785 0068 1800     		movs	r0, r3
 786 006a BD46     		mov	sp, r7
 787 006c 04B0     		add	sp, sp, #16
 788              		@ sp needed
ARM GAS  C:\Users\13740\AppData\Local\Temp\ccPV2Gz9.s 			page 21


 789 006e 80BD     		pop	{r7, pc}
 790              	.L61:
 791              		.align	2
 792              	.L60:
 793 0070 00000000 		.word	SeqGenDB
 794              		.cfi_endproc
 795              	.LFE10:
 796              		.size	AD5940_SEQCycleTime, .-AD5940_SEQCycleTime
 797              		.section	.text._is_value_in_table,"ax",%progbits
 798              		.align	2
 799              		.code	16
 800              		.thumb_func
 801              		.type	_is_value_in_table, %function
 802              	_is_value_in_table:
 803              	.LFB11:
 343:ad5940.c      **** #endif
 344:ad5940.c      **** /**
 345:ad5940.c      ****  * @} Sequencer_Generator_Functions
 346:ad5940.c      **** */
 347:ad5940.c      **** 
 348:ad5940.c      **** /**
 349:ad5940.c      ****  * Check if an uint8_t value exist in table.
 350:ad5940.c      **** */
 351:ad5940.c      **** static int32_t _is_value_in_table(uint8_t value, const uint8_t *table, uint8_t len, uint8_t *index)
 352:ad5940.c      **** {
 804              		.loc 1 352 0
 805              		.cfi_startproc
 806              		@ args = 0, pretend = 0, frame = 24
 807              		@ frame_needed = 1, uses_anonymous_args = 0
 808 0000 80B5     		push	{r7, lr}
 809              		.cfi_def_cfa_offset 8
 810              		.cfi_offset 7, -8
 811              		.cfi_offset 14, -4
 812 0002 86B0     		sub	sp, sp, #24
 813              		.cfi_def_cfa_offset 32
 814 0004 00AF     		add	r7, sp, #0
 815              		.cfi_def_cfa_register 7
 816 0006 B960     		str	r1, [r7, #8]
 817 0008 1100     		movs	r1, r2
 818 000a 7B60     		str	r3, [r7, #4]
 819 000c 0F23     		movs	r3, #15
 820 000e FB18     		adds	r3, r7, r3
 821 0010 021C     		adds	r2, r0, #0
 822 0012 1A70     		strb	r2, [r3]
 823 0014 0E23     		movs	r3, #14
 824 0016 FB18     		adds	r3, r7, r3
 825 0018 0A1C     		adds	r2, r1, #0
 826 001a 1A70     		strb	r2, [r3]
 827              	.LBB2:
 353:ad5940.c      ****   for(int i=0; i<len; i++)
 828              		.loc 1 353 0
 829 001c 0023     		movs	r3, #0
 830 001e 7B61     		str	r3, [r7, #20]
 831 0020 11E0     		b	.L63
 832              	.L66:
 354:ad5940.c      ****   {
 355:ad5940.c      ****     if(value == table[i])
ARM GAS  C:\Users\13740\AppData\Local\Temp\ccPV2Gz9.s 			page 22


 833              		.loc 1 355 0
 834 0022 7B69     		ldr	r3, [r7, #20]
 835 0024 BA68     		ldr	r2, [r7, #8]
 836 0026 D318     		adds	r3, r2, r3
 837 0028 1B78     		ldrb	r3, [r3]
 838 002a 0F22     		movs	r2, #15
 839 002c BA18     		adds	r2, r7, r2
 840 002e 1278     		ldrb	r2, [r2]
 841 0030 9A42     		cmp	r2, r3
 842 0032 05D1     		bne	.L64
 356:ad5940.c      ****     {
 357:ad5940.c      ****       *index = i;
 843              		.loc 1 357 0
 844 0034 7B69     		ldr	r3, [r7, #20]
 845 0036 DAB2     		uxtb	r2, r3
 846 0038 7B68     		ldr	r3, [r7, #4]
 847 003a 1A70     		strb	r2, [r3]
 358:ad5940.c      ****       return bTRUE;
 848              		.loc 1 358 0
 849 003c 0123     		movs	r3, #1
 850 003e 09E0     		b	.L65
 851              	.L64:
 353:ad5940.c      ****   {
 852              		.loc 1 353 0 discriminator 2
 853 0040 7B69     		ldr	r3, [r7, #20]
 854 0042 0133     		adds	r3, r3, #1
 855 0044 7B61     		str	r3, [r7, #20]
 856              	.L63:
 353:ad5940.c      ****   {
 857              		.loc 1 353 0 is_stmt 0 discriminator 1
 858 0046 0E23     		movs	r3, #14
 859 0048 FB18     		adds	r3, r7, r3
 860 004a 1A78     		ldrb	r2, [r3]
 861 004c 7B69     		ldr	r3, [r7, #20]
 862 004e 9A42     		cmp	r2, r3
 863 0050 E7DC     		bgt	.L66
 864              	.LBE2:
 359:ad5940.c      ****     }
 360:ad5940.c      ****   }
 361:ad5940.c      ****   return bFALSE;
 865              		.loc 1 361 0 is_stmt 1
 866 0052 0023     		movs	r3, #0
 867              	.L65:
 362:ad5940.c      **** }
 868              		.loc 1 362 0
 869 0054 1800     		movs	r0, r3
 870 0056 BD46     		mov	sp, r7
 871 0058 06B0     		add	sp, sp, #24
 872              		@ sp needed
 873 005a 80BD     		pop	{r7, pc}
 874              		.cfi_endproc
 875              	.LFE11:
 876              		.size	_is_value_in_table, .-_is_value_in_table
 877              		.section	.rodata
 878              		.align	2
 879              	.LC0:
 880 0000 05       		.byte	5
ARM GAS  C:\Users\13740\AppData\Local\Temp\ccPV2Gz9.s 			page 23


 881 0001 07       		.byte	7
 882 0002 08       		.byte	8
 883 0003 09       		.byte	9
 884 0004 0B       		.byte	11
 885 0005 000000   		.align	2
 886              	.LC1:
 887 0008 0F       		.byte	15
 888 0009 0C       		.byte	12
 889 000a 0A       		.byte	10
 890 000b 09       		.byte	9
 891 000c 06       		.byte	6
 892 000d 000000   		.align	2
 893              	.LC2:
 894 0010 09       		.byte	9
 895 0011 0A       		.byte	10
 896 0012 0B       		.byte	11
 897 0013 00       		.align	2
 898              	.LC3:
 899 0014 12       		.byte	18
 900 0015 0F       		.byte	15
 901 0016 0C       		.byte	12
 902 0017 00       		.align	2
 903              	.LC4:
 904 0018 03       		.byte	3
 905 0019 04       		.byte	4
 906 001a 05       		.byte	5
 907 001b 06       		.byte	6
 908 001c 08       		.byte	8
 909 001d 0A       		.byte	10
 910 001e 0000     		.align	2
 911              	.LC5:
 912 0020 12       		.byte	18
 913 0021 0C       		.byte	12
 914 0022 06       		.byte	6
 915 0023 05       		.byte	5
 916 0024 04       		.byte	4
 917 0025 03       		.byte	3
 918              		.section	.text.AD5940_Notch50HzAvailable,"ax",%progbits
 919              		.align	2
 920              		.global	AD5940_Notch50HzAvailable
 921              		.code	16
 922              		.thumb_func
 923              		.type	AD5940_Notch50HzAvailable, %function
 924              	AD5940_Notch50HzAvailable:
 925              	.LFB12:
 363:ad5940.c      **** 
 364:ad5940.c      **** /**
 365:ad5940.c      ****  * @brief return if the SINC3/SINC2 combination is available for notch 50Hz filter.
 366:ad5940.c      ****  *        If it's not availabe, hardware automatically bypass Notch even if it's enabled.
 367:ad5940.c      ****  * @param pFilterInfo the filter configuration, only need sinc2/sinc3 osr and adc data rate informa
 368:ad5940.c      ****  * @return return bTRUE if notch 50Hz filter is available.
 369:ad5940.c      **** */
 370:ad5940.c      **** BoolFlag AD5940_Notch50HzAvailable(ADCFilterCfg_Type *pFilterInfo, uint8_t *dl)
 371:ad5940.c      **** {
 926              		.loc 1 371 0
 927              		.cfi_startproc
 928              		@ args = 0, pretend = 0, frame = 56
ARM GAS  C:\Users\13740\AppData\Local\Temp\ccPV2Gz9.s 			page 24


 929              		@ frame_needed = 1, uses_anonymous_args = 0
 930 0000 80B5     		push	{r7, lr}
 931              		.cfi_def_cfa_offset 8
 932              		.cfi_offset 7, -8
 933              		.cfi_offset 14, -4
 934 0002 8EB0     		sub	sp, sp, #56
 935              		.cfi_def_cfa_offset 64
 936 0004 00AF     		add	r7, sp, #0
 937              		.cfi_def_cfa_register 7
 938 0006 7860     		str	r0, [r7, #4]
 939 0008 3960     		str	r1, [r7]
 372:ad5940.c      ****   if((pFilterInfo->ADCRate == ADCRATE_800KHZ && pFilterInfo->ADCSinc3Osr == ADCSINC3OSR_2)||\
 940              		.loc 1 372 0
 941 000a 7B68     		ldr	r3, [r7, #4]
 942 000c DB68     		ldr	r3, [r3, #12]
 943 000e 012B     		cmp	r3, #1
 944 0010 03D1     		bne	.L68
 945              		.loc 1 372 0 is_stmt 0 discriminator 1
 946 0012 7B68     		ldr	r3, [r7, #4]
 947 0014 1B68     		ldr	r3, [r3]
 948 0016 022B     		cmp	r3, #2
 949 0018 07D0     		beq	.L69
 950              	.L68:
 373:ad5940.c      ****       (pFilterInfo->ADCRate == ADCRATE_1P6MHZ && pFilterInfo->ADCSinc3Osr != ADCSINC3OSR_2))
 951              		.loc 1 373 0 is_stmt 1 discriminator 3
 952 001a 7B68     		ldr	r3, [r7, #4]
 953 001c DB68     		ldr	r3, [r3, #12]
 372:ad5940.c      ****   if((pFilterInfo->ADCRate == ADCRATE_800KHZ && pFilterInfo->ADCSinc3Osr == ADCSINC3OSR_2)||\
 954              		.loc 1 372 0 discriminator 3
 955 001e 002B     		cmp	r3, #0
 956 0020 2CD1     		bne	.L70
 957              		.loc 1 373 0
 958 0022 7B68     		ldr	r3, [r7, #4]
 959 0024 1B68     		ldr	r3, [r3]
 960 0026 022B     		cmp	r3, #2
 961 0028 28D0     		beq	.L70
 962              	.L69:
 963              	.LBB3:
 374:ad5940.c      ****   {
 375:ad5940.c      ****     //this combination suits for filter:
 376:ad5940.c      ****     //SINC3 OSR2, for 800kSPS
 377:ad5940.c      ****     //and SINC3 OSR4 and OSR5 for 1.6MSPS,
 378:ad5940.c      ****     const uint8_t available_sinc2_osr[] = {ADCSINC2OSR_533, ADCSINC2OSR_667,ADCSINC2OSR_800, ADCSIN
 964              		.loc 1 378 0
 965 002a 3023     		movs	r3, #48
 966 002c FA18     		adds	r2, r7, r3
 967 002e 4A4B     		ldr	r3, .L79
 968 0030 1000     		movs	r0, r2
 969 0032 1900     		movs	r1, r3
 970 0034 0523     		movs	r3, #5
 971 0036 1A00     		movs	r2, r3
 972 0038 FFF7FEFF 		bl	memcpy
 379:ad5940.c      ****     const uint8_t dl_50Hz[] = {15,12,10,9,6};
 973              		.loc 1 379 0
 974 003c 2823     		movs	r3, #40
 975 003e FA18     		adds	r2, r7, r3
 976 0040 464B     		ldr	r3, .L79+4
ARM GAS  C:\Users\13740\AppData\Local\Temp\ccPV2Gz9.s 			page 25


 977 0042 1000     		movs	r0, r2
 978 0044 1900     		movs	r1, r3
 979 0046 0523     		movs	r3, #5
 980 0048 1A00     		movs	r2, r3
 981 004a FFF7FEFF 		bl	memcpy
 380:ad5940.c      ****     uint8_t index;
 381:ad5940.c      ****     if(_is_value_in_table(pFilterInfo->ADCSinc2Osr, available_sinc2_osr, sizeof(available_sinc2_osr
 982              		.loc 1 381 0
 983 004e 7B68     		ldr	r3, [r7, #4]
 984 0050 5B68     		ldr	r3, [r3, #4]
 985 0052 D8B2     		uxtb	r0, r3
 986 0054 2723     		movs	r3, #39
 987 0056 FB18     		adds	r3, r7, r3
 988 0058 3022     		movs	r2, #48
 989 005a B918     		adds	r1, r7, r2
 990 005c 0522     		movs	r2, #5
 991 005e FFF7FEFF 		bl	_is_value_in_table
 992 0062 031E     		subs	r3, r0, #0
 993 0064 6CD0     		beq	.L77
 382:ad5940.c      ****     {
 383:ad5940.c      ****       *dl = dl_50Hz[index];
 994              		.loc 1 383 0
 995 0066 2723     		movs	r3, #39
 996 0068 FB18     		adds	r3, r7, r3
 997 006a 1B78     		ldrb	r3, [r3]
 998 006c 1A00     		movs	r2, r3
 999 006e 2823     		movs	r3, #40
 1000 0070 FB18     		adds	r3, r7, r3
 1001 0072 9A5C     		ldrb	r2, [r3, r2]
 1002 0074 3B68     		ldr	r3, [r7]
 1003 0076 1A70     		strb	r2, [r3]
 384:ad5940.c      ****       return bTRUE;
 1004              		.loc 1 384 0
 1005 0078 0123     		movs	r3, #1
 1006 007a 68E0     		b	.L72
 1007              	.L70:
 1008              	.LBE3:
 385:ad5940.c      ****     }
 386:ad5940.c      ****   }
 387:ad5940.c      ****   else if(pFilterInfo->ADCRate == ADCRATE_1P6MHZ && pFilterInfo->ADCSinc3Osr == ADCSINC3OSR_2)
 1009              		.loc 1 387 0
 1010 007c 7B68     		ldr	r3, [r7, #4]
 1011 007e DB68     		ldr	r3, [r3, #12]
 1012 0080 002B     		cmp	r3, #0
 1013 0082 2CD1     		bne	.L74
 1014              		.loc 1 387 0 is_stmt 0 discriminator 1
 1015 0084 7B68     		ldr	r3, [r7, #4]
 1016 0086 1B68     		ldr	r3, [r3]
 1017 0088 022B     		cmp	r3, #2
 1018 008a 28D1     		bne	.L74
 1019              	.LBB4:
 388:ad5940.c      ****   {
 389:ad5940.c      ****     //this combination suits for filter:
 390:ad5940.c      ****     //SINC3 OSR2 for 1.6MSPS
 391:ad5940.c      ****     const uint8_t available_sinc2_osr[] = {ADCSINC2OSR_889, ADCSINC2OSR_1067, ADCSINC2OSR_1333};
 1020              		.loc 1 391 0 is_stmt 1
 1021 008c 2423     		movs	r3, #36
ARM GAS  C:\Users\13740\AppData\Local\Temp\ccPV2Gz9.s 			page 26


 1022 008e FA18     		adds	r2, r7, r3
 1023 0090 334B     		ldr	r3, .L79+8
 1024 0092 1000     		movs	r0, r2
 1025 0094 1900     		movs	r1, r3
 1026 0096 0323     		movs	r3, #3
 1027 0098 1A00     		movs	r2, r3
 1028 009a FFF7FEFF 		bl	memcpy
 392:ad5940.c      ****     const uint8_t dl_50Hz[] = {18,15,12};
 1029              		.loc 1 392 0
 1030 009e 2023     		movs	r3, #32
 1031 00a0 FA18     		adds	r2, r7, r3
 1032 00a2 304B     		ldr	r3, .L79+12
 1033 00a4 1000     		movs	r0, r2
 1034 00a6 1900     		movs	r1, r3
 1035 00a8 0323     		movs	r3, #3
 1036 00aa 1A00     		movs	r2, r3
 1037 00ac FFF7FEFF 		bl	memcpy
 393:ad5940.c      ****     uint8_t index;
 394:ad5940.c      ****     if(_is_value_in_table(pFilterInfo->ADCSinc2Osr, available_sinc2_osr, sizeof(available_sinc2_osr
 1038              		.loc 1 394 0
 1039 00b0 7B68     		ldr	r3, [r7, #4]
 1040 00b2 5B68     		ldr	r3, [r3, #4]
 1041 00b4 D8B2     		uxtb	r0, r3
 1042 00b6 1F23     		movs	r3, #31
 1043 00b8 FB18     		adds	r3, r7, r3
 1044 00ba 2422     		movs	r2, #36
 1045 00bc B918     		adds	r1, r7, r2
 1046 00be 0322     		movs	r2, #3
 1047 00c0 FFF7FEFF 		bl	_is_value_in_table
 1048 00c4 031E     		subs	r3, r0, #0
 1049 00c6 3DD0     		beq	.L78
 395:ad5940.c      ****     {
 396:ad5940.c      ****       *dl = dl_50Hz[index];
 1050              		.loc 1 396 0
 1051 00c8 1F23     		movs	r3, #31
 1052 00ca FB18     		adds	r3, r7, r3
 1053 00cc 1B78     		ldrb	r3, [r3]
 1054 00ce 1A00     		movs	r2, r3
 1055 00d0 2023     		movs	r3, #32
 1056 00d2 FB18     		adds	r3, r7, r3
 1057 00d4 9A5C     		ldrb	r2, [r3, r2]
 1058 00d6 3B68     		ldr	r3, [r7]
 1059 00d8 1A70     		strb	r2, [r3]
 397:ad5940.c      ****       return bTRUE;
 1060              		.loc 1 397 0
 1061 00da 0123     		movs	r3, #1
 1062 00dc 37E0     		b	.L72
 1063              	.L74:
 1064              	.LBE4:
 398:ad5940.c      ****     }
 399:ad5940.c      ****   }
 400:ad5940.c      ****   else if(pFilterInfo->ADCRate == ADCRATE_800KHZ && pFilterInfo->ADCSinc3Osr != ADCSINC3OSR_2)
 1065              		.loc 1 400 0
 1066 00de 7B68     		ldr	r3, [r7, #4]
 1067 00e0 DB68     		ldr	r3, [r3, #12]
 1068 00e2 012B     		cmp	r3, #1
 1069 00e4 2FD1     		bne	.L73
ARM GAS  C:\Users\13740\AppData\Local\Temp\ccPV2Gz9.s 			page 27


 1070              		.loc 1 400 0 is_stmt 0 discriminator 1
 1071 00e6 7B68     		ldr	r3, [r7, #4]
 1072 00e8 1B68     		ldr	r3, [r3]
 1073 00ea 022B     		cmp	r3, #2
 1074 00ec 2BD0     		beq	.L73
 1075              	.LBB5:
 401:ad5940.c      ****   {
 402:ad5940.c      ****     //this combination suits for filter:
 403:ad5940.c      ****     //SINC3 OSR4 and OSR5 for 800kSPS,
 404:ad5940.c      ****     const uint8_t available_sinc2_osr[] = {ADCSINC2OSR_178, ADCSINC2OSR_267, ADCSINC2OSR_533, ADCSI
 1076              		.loc 1 404 0 is_stmt 1
 1077 00ee 1823     		movs	r3, #24
 1078 00f0 FA18     		adds	r2, r7, r3
 1079 00f2 1D4B     		ldr	r3, .L79+16
 1080 00f4 1000     		movs	r0, r2
 1081 00f6 1900     		movs	r1, r3
 1082 00f8 0623     		movs	r3, #6
 1083 00fa 1A00     		movs	r2, r3
 1084 00fc FFF7FEFF 		bl	memcpy
 405:ad5940.c      ****                                     ADCSINC2OSR_800, ADCSINC2OSR_1067};
 406:ad5940.c      ****     const uint8_t dl_50Hz[] = {18,12,6,5,4,3};
 1085              		.loc 1 406 0
 1086 0100 1023     		movs	r3, #16
 1087 0102 FA18     		adds	r2, r7, r3
 1088 0104 194B     		ldr	r3, .L79+20
 1089 0106 1000     		movs	r0, r2
 1090 0108 1900     		movs	r1, r3
 1091 010a 0623     		movs	r3, #6
 1092 010c 1A00     		movs	r2, r3
 1093 010e FFF7FEFF 		bl	memcpy
 407:ad5940.c      ****     uint8_t index;
 408:ad5940.c      ****     if(_is_value_in_table(pFilterInfo->ADCSinc2Osr, available_sinc2_osr, sizeof(available_sinc2_osr
 1094              		.loc 1 408 0
 1095 0112 7B68     		ldr	r3, [r7, #4]
 1096 0114 5B68     		ldr	r3, [r3, #4]
 1097 0116 D8B2     		uxtb	r0, r3
 1098 0118 0F23     		movs	r3, #15
 1099 011a FB18     		adds	r3, r7, r3
 1100 011c 1822     		movs	r2, #24
 1101 011e B918     		adds	r1, r7, r2
 1102 0120 0622     		movs	r2, #6
 1103 0122 FFF7FEFF 		bl	_is_value_in_table
 1104 0126 031E     		subs	r3, r0, #0
 1105 0128 0DD0     		beq	.L73
 409:ad5940.c      ****     {
 410:ad5940.c      ****       *dl = dl_50Hz[index];
 1106              		.loc 1 410 0
 1107 012a 0F23     		movs	r3, #15
 1108 012c FB18     		adds	r3, r7, r3
 1109 012e 1B78     		ldrb	r3, [r3]
 1110 0130 1A00     		movs	r2, r3
 1111 0132 1023     		movs	r3, #16
 1112 0134 FB18     		adds	r3, r7, r3
 1113 0136 9A5C     		ldrb	r2, [r3, r2]
 1114 0138 3B68     		ldr	r3, [r7]
 1115 013a 1A70     		strb	r2, [r3]
 411:ad5940.c      ****       return bTRUE;
ARM GAS  C:\Users\13740\AppData\Local\Temp\ccPV2Gz9.s 			page 28


 1116              		.loc 1 411 0
 1117 013c 0123     		movs	r3, #1
 1118 013e 06E0     		b	.L72
 1119              	.L77:
 1120              	.LBE5:
 374:ad5940.c      ****     //this combination suits for filter:
 1121              		.loc 1 374 0
 1122 0140 C046     		nop
 1123 0142 00E0     		b	.L73
 1124              	.L78:
 388:ad5940.c      ****     //this combination suits for filter:
 1125              		.loc 1 388 0
 1126 0144 C046     		nop
 1127              	.L73:
 412:ad5940.c      ****     }
 413:ad5940.c      ****   }
 414:ad5940.c      ****   *dl = 0;
 1128              		.loc 1 414 0
 1129 0146 3B68     		ldr	r3, [r7]
 1130 0148 0022     		movs	r2, #0
 1131 014a 1A70     		strb	r2, [r3]
 415:ad5940.c      ****   return bFALSE;
 1132              		.loc 1 415 0
 1133 014c 0023     		movs	r3, #0
 1134              	.L72:
 416:ad5940.c      **** }
 1135              		.loc 1 416 0
 1136 014e 1800     		movs	r0, r3
 1137 0150 BD46     		mov	sp, r7
 1138 0152 0EB0     		add	sp, sp, #56
 1139              		@ sp needed
 1140 0154 80BD     		pop	{r7, pc}
 1141              	.L80:
 1142 0156 C046     		.align	2
 1143              	.L79:
 1144 0158 00000000 		.word	.LC0
 1145 015c 08000000 		.word	.LC1
 1146 0160 10000000 		.word	.LC2
 1147 0164 14000000 		.word	.LC3
 1148 0168 18000000 		.word	.LC4
 1149 016c 20000000 		.word	.LC5
 1150              		.cfi_endproc
 1151              	.LFE12:
 1152              		.size	AD5940_Notch50HzAvailable, .-AD5940_Notch50HzAvailable
 1153              		.section	.rodata
 1154 0026 0000     		.align	2
 1155              	.LC6:
 1156 0028 07       		.byte	7
 1157 0029 0B       		.byte	11
 1158 002a 0000     		.align	2
 1159              	.LC7:
 1160 002c 0A       		.byte	10
 1161 002d 05       		.byte	5
 1162 002e 0000     		.align	2
 1163              	.LC8:
 1164 0030 09       		.byte	9
 1165 0031 0B       		.byte	11
ARM GAS  C:\Users\13740\AppData\Local\Temp\ccPV2Gz9.s 			page 29


 1166 0032 0000     		.align	2
 1167              	.LC9:
 1168 0034 0F       		.byte	15
 1169 0035 0A       		.byte	10
 1170 0036 0000     		.align	2
 1171              	.LC10:
 1172 0038 03       		.byte	3
 1173 0039 04       		.byte	4
 1174 003a 05       		.byte	5
 1175 003b 07       		.byte	7
 1176 003c 09       		.byte	9
 1177 003d 0B       		.byte	11
 1178 003e 0000     		.align	2
 1179              	.LC11:
 1180 0040 0F       		.byte	15
 1181 0041 0A       		.byte	10
 1182 0042 05       		.byte	5
 1183 0043 04       		.byte	4
 1184 0044 03       		.byte	3
 1185 0045 02       		.byte	2
 1186              		.section	.text.AD5940_Notch60HzAvailable,"ax",%progbits
 1187              		.align	2
 1188              		.global	AD5940_Notch60HzAvailable
 1189              		.code	16
 1190              		.thumb_func
 1191              		.type	AD5940_Notch60HzAvailable, %function
 1192              	AD5940_Notch60HzAvailable:
 1193              	.LFB13:
 417:ad5940.c      **** 
 418:ad5940.c      **** /**
 419:ad5940.c      ****  * @brief return if the SINC3/SINC2 combination is available for notch 60Hz filter.
 420:ad5940.c      ****  *        If it's not availabe, hardware automatically bypass Notch even if it's enabled.
 421:ad5940.c      ****  * @param pFilterInfo the filter configuration, need sinc2/sinc3 osr and adc data rate information.
 422:ad5940.c      ****  * @return return bTRUE if notch 60Hz filter is available.
 423:ad5940.c      **** */
 424:ad5940.c      **** BoolFlag AD5940_Notch60HzAvailable(ADCFilterCfg_Type *pFilterInfo, uint8_t *dl)
 425:ad5940.c      **** {
 1194              		.loc 1 425 0
 1195              		.cfi_startproc
 1196              		@ args = 0, pretend = 0, frame = 48
 1197              		@ frame_needed = 1, uses_anonymous_args = 0
 1198 0000 80B5     		push	{r7, lr}
 1199              		.cfi_def_cfa_offset 8
 1200              		.cfi_offset 7, -8
 1201              		.cfi_offset 14, -4
 1202 0002 8CB0     		sub	sp, sp, #48
 1203              		.cfi_def_cfa_offset 56
 1204 0004 00AF     		add	r7, sp, #0
 1205              		.cfi_def_cfa_register 7
 1206 0006 7860     		str	r0, [r7, #4]
 1207 0008 3960     		str	r1, [r7]
 426:ad5940.c      ****   if((pFilterInfo->ADCRate == ADCRATE_800KHZ && pFilterInfo->ADCSinc3Osr == ADCSINC3OSR_2)||\
 1208              		.loc 1 426 0
 1209 000a 7B68     		ldr	r3, [r7, #4]
 1210 000c DB68     		ldr	r3, [r3, #12]
 1211 000e 012B     		cmp	r3, #1
 1212 0010 03D1     		bne	.L82
ARM GAS  C:\Users\13740\AppData\Local\Temp\ccPV2Gz9.s 			page 30


 1213              		.loc 1 426 0 is_stmt 0 discriminator 1
 1214 0012 7B68     		ldr	r3, [r7, #4]
 1215 0014 1B68     		ldr	r3, [r3]
 1216 0016 022B     		cmp	r3, #2
 1217 0018 07D0     		beq	.L83
 1218              	.L82:
 427:ad5940.c      ****       (pFilterInfo->ADCRate == ADCRATE_1P6MHZ && pFilterInfo->ADCSinc3Osr != ADCSINC3OSR_2))
 1219              		.loc 1 427 0 is_stmt 1 discriminator 3
 1220 001a 7B68     		ldr	r3, [r7, #4]
 1221 001c DB68     		ldr	r3, [r3, #12]
 426:ad5940.c      ****   if((pFilterInfo->ADCRate == ADCRATE_800KHZ && pFilterInfo->ADCSinc3Osr == ADCSINC3OSR_2)||\
 1222              		.loc 1 426 0 discriminator 3
 1223 001e 002B     		cmp	r3, #0
 1224 0020 2CD1     		bne	.L84
 1225              		.loc 1 427 0
 1226 0022 7B68     		ldr	r3, [r7, #4]
 1227 0024 1B68     		ldr	r3, [r3]
 1228 0026 022B     		cmp	r3, #2
 1229 0028 28D0     		beq	.L84
 1230              	.L83:
 1231              	.LBB6:
 428:ad5940.c      ****   {
 429:ad5940.c      ****     //this combination suits for filter:
 430:ad5940.c      ****     //SINC3 OSR2, for 800kSPS
 431:ad5940.c      ****     //and SINC3 OSR4 and OSR5 for 1.6MSPS,
 432:ad5940.c      ****     const uint8_t available_sinc2_osr[] = {ADCSINC2OSR_667, ADCSINC2OSR_1333};
 1232              		.loc 1 432 0
 1233 002a 2C23     		movs	r3, #44
 1234 002c FA18     		adds	r2, r7, r3
 1235 002e 4A4B     		ldr	r3, .L93
 1236 0030 1000     		movs	r0, r2
 1237 0032 1900     		movs	r1, r3
 1238 0034 0223     		movs	r3, #2
 1239 0036 1A00     		movs	r2, r3
 1240 0038 FFF7FEFF 		bl	memcpy
 433:ad5940.c      ****     const uint8_t dl_60Hz[] = {10,5};
 1241              		.loc 1 433 0
 1242 003c 2823     		movs	r3, #40
 1243 003e FA18     		adds	r2, r7, r3
 1244 0040 464B     		ldr	r3, .L93+4
 1245 0042 1000     		movs	r0, r2
 1246 0044 1900     		movs	r1, r3
 1247 0046 0223     		movs	r3, #2
 1248 0048 1A00     		movs	r2, r3
 1249 004a FFF7FEFF 		bl	memcpy
 434:ad5940.c      ****     uint8_t index;
 435:ad5940.c      ****     if(_is_value_in_table(pFilterInfo->ADCSinc2Osr, available_sinc2_osr, sizeof(available_sinc2_osr
 1250              		.loc 1 435 0
 1251 004e 7B68     		ldr	r3, [r7, #4]
 1252 0050 5B68     		ldr	r3, [r3, #4]
 1253 0052 D8B2     		uxtb	r0, r3
 1254 0054 2723     		movs	r3, #39
 1255 0056 FB18     		adds	r3, r7, r3
 1256 0058 2C22     		movs	r2, #44
 1257 005a B918     		adds	r1, r7, r2
 1258 005c 0222     		movs	r2, #2
 1259 005e FFF7FEFF 		bl	_is_value_in_table
ARM GAS  C:\Users\13740\AppData\Local\Temp\ccPV2Gz9.s 			page 31


 1260 0062 031E     		subs	r3, r0, #0
 1261 0064 6CD0     		beq	.L91
 436:ad5940.c      ****     {
 437:ad5940.c      ****       *dl = dl_60Hz[index];
 1262              		.loc 1 437 0
 1263 0066 2723     		movs	r3, #39
 1264 0068 FB18     		adds	r3, r7, r3
 1265 006a 1B78     		ldrb	r3, [r3]
 1266 006c 1A00     		movs	r2, r3
 1267 006e 2823     		movs	r3, #40
 1268 0070 FB18     		adds	r3, r7, r3
 1269 0072 9A5C     		ldrb	r2, [r3, r2]
 1270 0074 3B68     		ldr	r3, [r7]
 1271 0076 1A70     		strb	r2, [r3]
 438:ad5940.c      ****       return bTRUE;
 1272              		.loc 1 438 0
 1273 0078 0123     		movs	r3, #1
 1274 007a 68E0     		b	.L86
 1275              	.L84:
 1276              	.LBE6:
 439:ad5940.c      ****     }
 440:ad5940.c      ****   }
 441:ad5940.c      ****   else if(pFilterInfo->ADCRate == ADCRATE_1P6MHZ && pFilterInfo->ADCSinc3Osr == ADCSINC3OSR_2)
 1277              		.loc 1 441 0
 1278 007c 7B68     		ldr	r3, [r7, #4]
 1279 007e DB68     		ldr	r3, [r3, #12]
 1280 0080 002B     		cmp	r3, #0
 1281 0082 2CD1     		bne	.L88
 1282              		.loc 1 441 0 is_stmt 0 discriminator 1
 1283 0084 7B68     		ldr	r3, [r7, #4]
 1284 0086 1B68     		ldr	r3, [r3]
 1285 0088 022B     		cmp	r3, #2
 1286 008a 28D1     		bne	.L88
 1287              	.LBB7:
 442:ad5940.c      ****   {
 443:ad5940.c      ****     //this combination suits for filter:
 444:ad5940.c      ****     //SINC3 OSR2 for 1.6MSPS
 445:ad5940.c      ****     const uint8_t available_sinc2_osr[] = {ADCSINC2OSR_889, ADCSINC2OSR_1333};
 1288              		.loc 1 445 0 is_stmt 1
 1289 008c 2423     		movs	r3, #36
 1290 008e FA18     		adds	r2, r7, r3
 1291 0090 334B     		ldr	r3, .L93+8
 1292 0092 1000     		movs	r0, r2
 1293 0094 1900     		movs	r1, r3
 1294 0096 0223     		movs	r3, #2
 1295 0098 1A00     		movs	r2, r3
 1296 009a FFF7FEFF 		bl	memcpy
 446:ad5940.c      ****     const uint8_t dl_60Hz[] = {15,10};
 1297              		.loc 1 446 0
 1298 009e 2023     		movs	r3, #32
 1299 00a0 FA18     		adds	r2, r7, r3
 1300 00a2 304B     		ldr	r3, .L93+12
 1301 00a4 1000     		movs	r0, r2
 1302 00a6 1900     		movs	r1, r3
 1303 00a8 0223     		movs	r3, #2
 1304 00aa 1A00     		movs	r2, r3
 1305 00ac FFF7FEFF 		bl	memcpy
ARM GAS  C:\Users\13740\AppData\Local\Temp\ccPV2Gz9.s 			page 32


 447:ad5940.c      ****     uint8_t index;
 448:ad5940.c      ****     if(_is_value_in_table(pFilterInfo->ADCSinc2Osr, available_sinc2_osr, sizeof(available_sinc2_osr
 1306              		.loc 1 448 0
 1307 00b0 7B68     		ldr	r3, [r7, #4]
 1308 00b2 5B68     		ldr	r3, [r3, #4]
 1309 00b4 D8B2     		uxtb	r0, r3
 1310 00b6 1F23     		movs	r3, #31
 1311 00b8 FB18     		adds	r3, r7, r3
 1312 00ba 2422     		movs	r2, #36
 1313 00bc B918     		adds	r1, r7, r2
 1314 00be 0222     		movs	r2, #2
 1315 00c0 FFF7FEFF 		bl	_is_value_in_table
 1316 00c4 031E     		subs	r3, r0, #0
 1317 00c6 3DD0     		beq	.L92
 449:ad5940.c      ****     {
 450:ad5940.c      ****       *dl = dl_60Hz[index];
 1318              		.loc 1 450 0
 1319 00c8 1F23     		movs	r3, #31
 1320 00ca FB18     		adds	r3, r7, r3
 1321 00cc 1B78     		ldrb	r3, [r3]
 1322 00ce 1A00     		movs	r2, r3
 1323 00d0 2023     		movs	r3, #32
 1324 00d2 FB18     		adds	r3, r7, r3
 1325 00d4 9A5C     		ldrb	r2, [r3, r2]
 1326 00d6 3B68     		ldr	r3, [r7]
 1327 00d8 1A70     		strb	r2, [r3]
 451:ad5940.c      ****       return bTRUE;
 1328              		.loc 1 451 0
 1329 00da 0123     		movs	r3, #1
 1330 00dc 37E0     		b	.L86
 1331              	.L88:
 1332              	.LBE7:
 452:ad5940.c      ****     }
 453:ad5940.c      ****   }
 454:ad5940.c      ****   else if(pFilterInfo->ADCRate == ADCRATE_800KHZ && pFilterInfo->ADCSinc3Osr != ADCSINC3OSR_2)
 1333              		.loc 1 454 0
 1334 00de 7B68     		ldr	r3, [r7, #4]
 1335 00e0 DB68     		ldr	r3, [r3, #12]
 1336 00e2 012B     		cmp	r3, #1
 1337 00e4 2FD1     		bne	.L87
 1338              		.loc 1 454 0 is_stmt 0 discriminator 1
 1339 00e6 7B68     		ldr	r3, [r7, #4]
 1340 00e8 1B68     		ldr	r3, [r3]
 1341 00ea 022B     		cmp	r3, #2
 1342 00ec 2BD0     		beq	.L87
 1343              	.LBB8:
 455:ad5940.c      ****   {
 456:ad5940.c      ****     //this combination suits for filter:
 457:ad5940.c      ****     //SINC3 OSR4 and OSR5 for 800kSPS,
 458:ad5940.c      ****     const uint8_t available_sinc2_osr[] = {ADCSINC2OSR_178, ADCSINC2OSR_267, ADCSINC2OSR_533, ADCSI
 1344              		.loc 1 458 0 is_stmt 1
 1345 00ee 1823     		movs	r3, #24
 1346 00f0 FA18     		adds	r2, r7, r3
 1347 00f2 1D4B     		ldr	r3, .L93+16
 1348 00f4 1000     		movs	r0, r2
 1349 00f6 1900     		movs	r1, r3
 1350 00f8 0623     		movs	r3, #6
ARM GAS  C:\Users\13740\AppData\Local\Temp\ccPV2Gz9.s 			page 33


 1351 00fa 1A00     		movs	r2, r3
 1352 00fc FFF7FEFF 		bl	memcpy
 459:ad5940.c      ****                                     ADCSINC2OSR_889, ADCSINC2OSR_1333};
 460:ad5940.c      ****     const uint8_t dl_60Hz[] = {15,10,5,4,3,2};
 1353              		.loc 1 460 0
 1354 0100 1023     		movs	r3, #16
 1355 0102 FA18     		adds	r2, r7, r3
 1356 0104 194B     		ldr	r3, .L93+20
 1357 0106 1000     		movs	r0, r2
 1358 0108 1900     		movs	r1, r3
 1359 010a 0623     		movs	r3, #6
 1360 010c 1A00     		movs	r2, r3
 1361 010e FFF7FEFF 		bl	memcpy
 461:ad5940.c      ****     uint8_t index;
 462:ad5940.c      ****     if(_is_value_in_table(pFilterInfo->ADCSinc2Osr, available_sinc2_osr, sizeof(available_sinc2_osr
 1362              		.loc 1 462 0
 1363 0112 7B68     		ldr	r3, [r7, #4]
 1364 0114 5B68     		ldr	r3, [r3, #4]
 1365 0116 D8B2     		uxtb	r0, r3
 1366 0118 0F23     		movs	r3, #15
 1367 011a FB18     		adds	r3, r7, r3
 1368 011c 1822     		movs	r2, #24
 1369 011e B918     		adds	r1, r7, r2
 1370 0120 0622     		movs	r2, #6
 1371 0122 FFF7FEFF 		bl	_is_value_in_table
 1372 0126 031E     		subs	r3, r0, #0
 1373 0128 0DD0     		beq	.L87
 463:ad5940.c      ****     {
 464:ad5940.c      ****       *dl = dl_60Hz[index];
 1374              		.loc 1 464 0
 1375 012a 0F23     		movs	r3, #15
 1376 012c FB18     		adds	r3, r7, r3
 1377 012e 1B78     		ldrb	r3, [r3]
 1378 0130 1A00     		movs	r2, r3
 1379 0132 1023     		movs	r3, #16
 1380 0134 FB18     		adds	r3, r7, r3
 1381 0136 9A5C     		ldrb	r2, [r3, r2]
 1382 0138 3B68     		ldr	r3, [r7]
 1383 013a 1A70     		strb	r2, [r3]
 465:ad5940.c      ****       return bTRUE;
 1384              		.loc 1 465 0
 1385 013c 0123     		movs	r3, #1
 1386 013e 06E0     		b	.L86
 1387              	.L91:
 1388              	.LBE8:
 428:ad5940.c      ****     //this combination suits for filter:
 1389              		.loc 1 428 0
 1390 0140 C046     		nop
 1391 0142 00E0     		b	.L87
 1392              	.L92:
 442:ad5940.c      ****     //this combination suits for filter:
 1393              		.loc 1 442 0
 1394 0144 C046     		nop
 1395              	.L87:
 466:ad5940.c      ****     }
 467:ad5940.c      ****   }
 468:ad5940.c      ****   *dl = 0;
ARM GAS  C:\Users\13740\AppData\Local\Temp\ccPV2Gz9.s 			page 34


 1396              		.loc 1 468 0
 1397 0146 3B68     		ldr	r3, [r7]
 1398 0148 0022     		movs	r2, #0
 1399 014a 1A70     		strb	r2, [r3]
 469:ad5940.c      ****   return bFALSE;
 1400              		.loc 1 469 0
 1401 014c 0023     		movs	r3, #0
 1402              	.L86:
 470:ad5940.c      **** }
 1403              		.loc 1 470 0
 1404 014e 1800     		movs	r0, r3
 1405 0150 BD46     		mov	sp, r7
 1406 0152 0CB0     		add	sp, sp, #48
 1407              		@ sp needed
 1408 0154 80BD     		pop	{r7, pc}
 1409              	.L94:
 1410 0156 C046     		.align	2
 1411              	.L93:
 1412 0158 28000000 		.word	.LC6
 1413 015c 2C000000 		.word	.LC7
 1414 0160 30000000 		.word	.LC8
 1415 0164 34000000 		.word	.LC9
 1416 0168 38000000 		.word	.LC10
 1417 016c 40000000 		.word	.LC11
 1418              		.cfi_endproc
 1419              	.LFE13:
 1420              		.size	AD5940_Notch60HzAvailable, .-AD5940_Notch60HzAvailable
 1421              		.global	__aeabi_ui2f
 1422              		.global	__aeabi_fmul
 1423              		.global	__aeabi_f2uiz
 1424              		.global	__aeabi_fadd
 1425              		.section	.rodata
 1426 0046 0000     		.align	2
 1427              	.LC12:
 1428 0048 16000000 		.word	22
 1429 004c 2C000000 		.word	44
 1430 0050 59000000 		.word	89
 1431 0054 B2000000 		.word	178
 1432 0058 0B010000 		.word	267
 1433 005c 15020000 		.word	533
 1434 0060 80020000 		.word	640
 1435 0064 9B020000 		.word	667
 1436 0068 20030000 		.word	800
 1437 006c 79030000 		.word	889
 1438 0070 2B040000 		.word	1067
 1439 0074 35050000 		.word	1333
 1440 0078 00000000 		.word	0
 1441              		.align	2
 1442              	.LC13:
 1443 007c 05000000 		.word	5
 1444 0080 04000000 		.word	4
 1445 0084 02000000 		.word	2
 1446 0088 00000000 		.word	0
 1447              		.section	.text.AD5940_ClksCalculate,"ax",%progbits
 1448              		.align	2
 1449              		.global	AD5940_ClksCalculate
 1450              		.code	16
ARM GAS  C:\Users\13740\AppData\Local\Temp\ccPV2Gz9.s 			page 35


 1451              		.thumb_func
 1452              		.type	AD5940_ClksCalculate, %function
 1453              	AD5940_ClksCalculate:
 1454              	.LFB14:
 471:ad5940.c      **** 
 472:ad5940.c      **** /**
 473:ad5940.c      ****  * @brief Calculate how many clocks are needed in sequencer wait command to generate required numbe
 474:ad5940.c      ****  * @note When measurement is done, it's recommend to disable blocks like ADCPWR, ADCCNV, SINC2, DFT
 475:ad5940.c      ****  *       they may need less clocks to generate required number of output. Use function @ref AD5940_
 476:ad5940.c      ****  * @param pFilterInfo: Pointer to configuration structure. 
 477:ad5940.c      ****  * @param pClocks: pointer used to store results.         
 478:ad5940.c      ****  * @return return none.
 479:ad5940.c      **** */
 480:ad5940.c      **** void AD5940_ClksCalculate(ClksCalInfo_Type *pFilterInfo, uint32_t *pClocks)
 481:ad5940.c      **** {
 1455              		.loc 1 481 0
 1456              		.cfi_startproc
 1457              		@ args = 0, pretend = 0, frame = 112
 1458              		@ frame_needed = 1, uses_anonymous_args = 0
 1459 0000 90B5     		push	{r4, r7, lr}
 1460              		.cfi_def_cfa_offset 12
 1461              		.cfi_offset 4, -12
 1462              		.cfi_offset 7, -8
 1463              		.cfi_offset 14, -4
 1464 0002 9DB0     		sub	sp, sp, #116
 1465              		.cfi_def_cfa_offset 128
 1466 0004 00AF     		add	r7, sp, #0
 1467              		.cfi_def_cfa_register 7
 1468 0006 7860     		str	r0, [r7, #4]
 1469 0008 3960     		str	r1, [r7]
 482:ad5940.c      ****   uint32_t temp = 0;
 1470              		.loc 1 482 0
 1471 000a 0023     		movs	r3, #0
 1472 000c BB66     		str	r3, [r7, #104]
 483:ad5940.c      ****   const uint32_t sinc2osr_table[] = {22,44,89,178,267,533,640,667,800,889,1067,1333,0};
 1473              		.loc 1 483 0
 1474 000e 3423     		movs	r3, #52
 1475 0010 FA18     		adds	r2, r7, r3
 1476 0012 A64B     		ldr	r3, .L127
 1477 0014 1000     		movs	r0, r2
 1478 0016 1900     		movs	r1, r3
 1479 0018 3423     		movs	r3, #52
 1480 001a 1A00     		movs	r2, r3
 1481 001c FFF7FEFF 		bl	memcpy
 484:ad5940.c      ****   const uint32_t sinc3osr_table[] = {5,4,2,0};
 1482              		.loc 1 484 0
 1483 0020 2423     		movs	r3, #36
 1484 0022 FB18     		adds	r3, r7, r3
 1485 0024 A24A     		ldr	r2, .L127+4
 1486 0026 13CA     		ldmia	r2!, {r0, r1, r4}
 1487 0028 13C3     		stmia	r3!, {r0, r1, r4}
 1488 002a 1268     		ldr	r2, [r2]
 1489 002c 1A60     		str	r2, [r3]
 485:ad5940.c      **** 
 486:ad5940.c      ****   *pClocks = 0;
 1490              		.loc 1 486 0
 1491 002e 3B68     		ldr	r3, [r7]
ARM GAS  C:\Users\13740\AppData\Local\Temp\ccPV2Gz9.s 			page 36


 1492 0030 0022     		movs	r2, #0
 1493 0032 1A60     		str	r2, [r3]
 487:ad5940.c      ****   if(pFilterInfo == NULL) return;
 1494              		.loc 1 487 0
 1495 0034 7B68     		ldr	r3, [r7, #4]
 1496 0036 002B     		cmp	r3, #0
 1497 0038 00D1     		bne	.LCB1253
 1498 003a 2BE1     		b	.L121	@long jump
 1499              	.LCB1253:
 488:ad5940.c      ****   if(pClocks == NULL) return;
 1500              		.loc 1 488 0
 1501 003c 3B68     		ldr	r3, [r7]
 1502 003e 002B     		cmp	r3, #0
 1503 0040 00D1     		bne	.LCB1256
 1504 0042 29E1     		b	.L122	@long jump
 1505              	.LCB1256:
 489:ad5940.c      ****   if(pFilterInfo->ADCSinc2Osr > ADCSINC2OSR_1333) return;
 1506              		.loc 1 489 0
 1507 0044 7B68     		ldr	r3, [r7, #4]
 1508 0046 DB68     		ldr	r3, [r3, #12]
 1509 0048 0B2B     		cmp	r3, #11
 1510 004a 00D9     		bls	.LCB1260
 1511 004c 26E1     		b	.L123	@long jump
 1512              	.LCB1260:
 490:ad5940.c      ****   if(pFilterInfo->ADCSinc3Osr > 2)  return; /* 0: OSR5, 1:OSR4, 2:OSR2 */
 1513              		.loc 1 490 0
 1514 004e 7B68     		ldr	r3, [r7, #4]
 1515 0050 9B68     		ldr	r3, [r3, #8]
 1516 0052 022B     		cmp	r3, #2
 1517 0054 00D9     		bls	.LCB1264
 1518 0056 23E1     		b	.L124	@long jump
 1519              	.LCB1264:
 491:ad5940.c      ****   if(pFilterInfo->ADCAvgNum > ADCAVGNUM_16) return; /* Average number index:0,1,2,3 */
 1520              		.loc 1 491 0
 1521 0058 7B68     		ldr	r3, [r7, #4]
 1522 005a 1B69     		ldr	r3, [r3, #16]
 1523 005c 032B     		cmp	r3, #3
 1524 005e 00D9     		bls	.LCB1268
 1525 0060 20E1     		b	.L125	@long jump
 1526              	.LCB1268:
 492:ad5940.c      ****   switch(pFilterInfo->DataType)
 1527              		.loc 1 492 0
 1528 0062 7B68     		ldr	r3, [r7, #4]
 1529 0064 1B68     		ldr	r3, [r3]
 1530 0066 042B     		cmp	r3, #4
 1531 0068 00D9     		bls	.LCB1272
 1532 006a 0EE1     		b	.L126	@long jump
 1533              	.LCB1272:
 1534 006c 9A00     		lsls	r2, r3, #2
 1535 006e 914B     		ldr	r3, .L127+8
 1536 0070 D318     		adds	r3, r2, r3
 1537 0072 1B68     		ldr	r3, [r3]
 1538 0074 9F46     		mov	pc, r3
 1539              		.section	.rodata
 1540              		.align	2
 1541              	.L104:
 1542 008c 76000000 		.word	.L103
ARM GAS  C:\Users\13740\AppData\Local\Temp\ccPV2Gz9.s 			page 37


 1543 0090 A4000000 		.word	.L105
 1544 0094 F2000000 		.word	.L106
 1545 0098 F0010000 		.word	.L107
 1546 009c 32010000 		.word	.L108
 1547              		.section	.text.AD5940_ClksCalculate
 1548              	.L103:
 493:ad5940.c      ****   {
 494:ad5940.c      ****     case DATATYPE_ADCRAW:
 495:ad5940.c      ****       temp = (uint32_t)(20*pFilterInfo->DataCount*pFilterInfo->RatioSys2AdcClk);
 1549              		.loc 1 495 0
 1550 0076 7B68     		ldr	r3, [r7, #4]
 1551 0078 5A68     		ldr	r2, [r3, #4]
 1552 007a 1300     		movs	r3, r2
 1553 007c 9B00     		lsls	r3, r3, #2
 1554 007e 9B18     		adds	r3, r3, r2
 1555 0080 9B00     		lsls	r3, r3, #2
 1556 0082 1800     		movs	r0, r3
 1557 0084 FFF7FEFF 		bl	__aeabi_ui2f
 1558 0088 021C     		adds	r2, r0, #0
 1559 008a 7B68     		ldr	r3, [r7, #4]
 1560 008c DB69     		ldr	r3, [r3, #28]
 1561 008e 191C     		adds	r1, r3, #0
 1562 0090 101C     		adds	r0, r2, #0
 1563 0092 FFF7FEFF 		bl	__aeabi_fmul
 1564 0096 031C     		adds	r3, r0, #0
 1565 0098 181C     		adds	r0, r3, #0
 1566 009a FFF7FEFF 		bl	__aeabi_f2uiz
 1567 009e 0300     		movs	r3, r0
 1568 00a0 BB66     		str	r3, [r7, #104]
 496:ad5940.c      ****       break;
 1569              		.loc 1 496 0
 1570 00a2 F3E0     		b	.L109
 1571              	.L105:
 497:ad5940.c      ****     case DATATYPE_SINC3:
 498:ad5940.c      ****       temp = (uint32_t)(((pFilterInfo->DataCount+2)*sinc3osr_table[pFilterInfo->ADCSinc3Osr]+1)*20*
 1572              		.loc 1 498 0
 1573 00a4 7B68     		ldr	r3, [r7, #4]
 1574 00a6 5A68     		ldr	r2, [r3, #4]
 1575 00a8 1300     		movs	r3, r2
 1576 00aa 9B00     		lsls	r3, r3, #2
 1577 00ac 9B18     		adds	r3, r3, r2
 1578 00ae 9B00     		lsls	r3, r3, #2
 1579 00b0 2833     		adds	r3, r3, #40
 1580 00b2 1A00     		movs	r2, r3
 1581 00b4 7B68     		ldr	r3, [r7, #4]
 1582 00b6 9968     		ldr	r1, [r3, #8]
 1583 00b8 2423     		movs	r3, #36
 1584 00ba FB18     		adds	r3, r7, r3
 1585 00bc 8900     		lsls	r1, r1, #2
 1586 00be CB58     		ldr	r3, [r1, r3]
 1587 00c0 5343     		muls	r3, r2
 1588 00c2 1433     		adds	r3, r3, #20
 1589 00c4 1800     		movs	r0, r3
 1590 00c6 FFF7FEFF 		bl	__aeabi_ui2f
 1591 00ca 021C     		adds	r2, r0, #0
 1592 00cc 7B68     		ldr	r3, [r7, #4]
 1593 00ce DB69     		ldr	r3, [r3, #28]
ARM GAS  C:\Users\13740\AppData\Local\Temp\ccPV2Gz9.s 			page 38


 1594 00d0 191C     		adds	r1, r3, #0
 1595 00d2 101C     		adds	r0, r2, #0
 1596 00d4 FFF7FEFF 		bl	__aeabi_fmul
 1597 00d8 031C     		adds	r3, r0, #0
 1598 00da FC21     		movs	r1, #252
 1599 00dc 8905     		lsls	r1, r1, #22
 1600 00de 181C     		adds	r0, r3, #0
 1601 00e0 FFF7FEFF 		bl	__aeabi_fadd
 1602 00e4 031C     		adds	r3, r0, #0
 1603 00e6 181C     		adds	r0, r3, #0
 1604 00e8 FFF7FEFF 		bl	__aeabi_f2uiz
 1605 00ec 0300     		movs	r3, r0
 1606 00ee BB66     		str	r3, [r7, #104]
 499:ad5940.c      ****       break;
 1607              		.loc 1 499 0
 1608 00f0 CCE0     		b	.L109
 1609              	.L106:
 500:ad5940.c      ****     case DATATYPE_SINC2: 
 501:ad5940.c      ****       temp = (pFilterInfo->DataCount+1)*sinc2osr_table[pFilterInfo->ADCSinc2Osr] + 1;
 1610              		.loc 1 501 0
 1611 00f2 7B68     		ldr	r3, [r7, #4]
 1612 00f4 5B68     		ldr	r3, [r3, #4]
 1613 00f6 5A1C     		adds	r2, r3, #1
 1614 00f8 7B68     		ldr	r3, [r7, #4]
 1615 00fa D968     		ldr	r1, [r3, #12]
 1616 00fc 3423     		movs	r3, #52
 1617 00fe FB18     		adds	r3, r7, r3
 1618 0100 8900     		lsls	r1, r1, #2
 1619 0102 CB58     		ldr	r3, [r1, r3]
 1620 0104 5343     		muls	r3, r2
 1621 0106 0133     		adds	r3, r3, #1
 1622 0108 BB66     		str	r3, [r7, #104]
 502:ad5940.c      ****       pFilterInfo->DataType = DATATYPE_SINC3;
 1623              		.loc 1 502 0
 1624 010a 7B68     		ldr	r3, [r7, #4]
 1625 010c 0122     		movs	r2, #1
 1626 010e 1A60     		str	r2, [r3]
 503:ad5940.c      ****       pFilterInfo->DataCount = temp;
 1627              		.loc 1 503 0
 1628 0110 BA6E     		ldr	r2, [r7, #104]
 1629 0112 7B68     		ldr	r3, [r7, #4]
 1630 0114 5A60     		str	r2, [r3, #4]
 504:ad5940.c      ****       AD5940_ClksCalculate(pFilterInfo, &temp);
 1631              		.loc 1 504 0
 1632 0116 6823     		movs	r3, #104
 1633 0118 FA18     		adds	r2, r7, r3
 1634 011a 7B68     		ldr	r3, [r7, #4]
 1635 011c 1100     		movs	r1, r2
 1636 011e 1800     		movs	r0, r3
 1637 0120 FFF7FEFF 		bl	AD5940_ClksCalculate
 505:ad5940.c      ****       pFilterInfo->DataType = DATATYPE_SINC2;
 1638              		.loc 1 505 0
 1639 0124 7B68     		ldr	r3, [r7, #4]
 1640 0126 0222     		movs	r2, #2
 1641 0128 1A60     		str	r2, [r3]
 506:ad5940.c      ****       temp += 15;   /* Need extra 15 clocks for FIFO etc. Just to be safe. */
 1642              		.loc 1 506 0
ARM GAS  C:\Users\13740\AppData\Local\Temp\ccPV2Gz9.s 			page 39


 1643 012a BB6E     		ldr	r3, [r7, #104]
 1644 012c 0F33     		adds	r3, r3, #15
 1645 012e BB66     		str	r3, [r7, #104]
 507:ad5940.c      ****       break;
 1646              		.loc 1 507 0
 1647 0130 ACE0     		b	.L109
 1648              	.L108:
 1649              	.LBB9:
 508:ad5940.c      ****     case DATATYPE_NOTCH:
 509:ad5940.c      ****     {
 510:ad5940.c      ****       ADCFilterCfg_Type filter;
 511:ad5940.c      ****       filter.ADCRate = pFilterInfo->ADCRate;
 1650              		.loc 1 511 0
 1651 0132 7B68     		ldr	r3, [r7, #4]
 1652 0134 1B7E     		ldrb	r3, [r3, #24]
 1653 0136 1A00     		movs	r2, r3
 1654 0138 0C23     		movs	r3, #12
 1655 013a FB18     		adds	r3, r7, r3
 1656 013c DA60     		str	r2, [r3, #12]
 512:ad5940.c      ****       filter.ADCSinc3Osr = pFilterInfo->ADCSinc3Osr;
 1657              		.loc 1 512 0
 1658 013e 7B68     		ldr	r3, [r7, #4]
 1659 0140 9A68     		ldr	r2, [r3, #8]
 1660 0142 0C23     		movs	r3, #12
 1661 0144 FB18     		adds	r3, r7, r3
 1662 0146 1A60     		str	r2, [r3]
 513:ad5940.c      ****       filter.ADCSinc2Osr = pFilterInfo->ADCSinc2Osr;
 1663              		.loc 1 513 0
 1664 0148 7B68     		ldr	r3, [r7, #4]
 1665 014a DA68     		ldr	r2, [r3, #12]
 1666 014c 0C23     		movs	r3, #12
 1667 014e FB18     		adds	r3, r7, r3
 1668 0150 5A60     		str	r2, [r3, #4]
 514:ad5940.c      ****       uint8_t dl=0, dl_50, dl_60;
 1669              		.loc 1 514 0
 1670 0152 6F23     		movs	r3, #111
 1671 0154 FB18     		adds	r3, r7, r3
 1672 0156 0022     		movs	r2, #0
 1673 0158 1A70     		strb	r2, [r3]
 515:ad5940.c      ****       if(AD5940_Notch50HzAvailable(&filter, &dl_50)){
 1674              		.loc 1 515 0
 1675 015a 0B23     		movs	r3, #11
 1676 015c FA18     		adds	r2, r7, r3
 1677 015e 0C23     		movs	r3, #12
 1678 0160 FB18     		adds	r3, r7, r3
 1679 0162 1100     		movs	r1, r2
 1680 0164 1800     		movs	r0, r3
 1681 0166 FFF7FEFF 		bl	AD5940_Notch50HzAvailable
 1682 016a 031E     		subs	r3, r0, #0
 1683 016c 0BD0     		beq	.L110
 516:ad5940.c      ****         dl += dl_50 - 1;
 1684              		.loc 1 516 0
 1685 016e 0B23     		movs	r3, #11
 1686 0170 FB18     		adds	r3, r7, r3
 1687 0172 1A78     		ldrb	r2, [r3]
 1688 0174 6F23     		movs	r3, #111
 1689 0176 FB18     		adds	r3, r7, r3
ARM GAS  C:\Users\13740\AppData\Local\Temp\ccPV2Gz9.s 			page 40


 1690 0178 1B78     		ldrb	r3, [r3]
 1691 017a D318     		adds	r3, r2, r3
 1692 017c DAB2     		uxtb	r2, r3
 1693 017e 6F23     		movs	r3, #111
 1694 0180 FB18     		adds	r3, r7, r3
 1695 0182 013A     		subs	r2, r2, #1
 1696 0184 1A70     		strb	r2, [r3]
 1697              	.L110:
 517:ad5940.c      ****       }
 518:ad5940.c      ****       if(AD5940_Notch60HzAvailable(&filter, &dl_60)){
 1698              		.loc 1 518 0
 1699 0186 0A23     		movs	r3, #10
 1700 0188 FA18     		adds	r2, r7, r3
 1701 018a 0C23     		movs	r3, #12
 1702 018c FB18     		adds	r3, r7, r3
 1703 018e 1100     		movs	r1, r2
 1704 0190 1800     		movs	r0, r3
 1705 0192 FFF7FEFF 		bl	AD5940_Notch60HzAvailable
 1706 0196 031E     		subs	r3, r0, #0
 1707 0198 0BD0     		beq	.L111
 519:ad5940.c      ****         dl += dl_60 - 1;
 1708              		.loc 1 519 0
 1709 019a 0A23     		movs	r3, #10
 1710 019c FB18     		adds	r3, r7, r3
 1711 019e 1A78     		ldrb	r2, [r3]
 1712 01a0 6F23     		movs	r3, #111
 1713 01a2 FB18     		adds	r3, r7, r3
 1714 01a4 1B78     		ldrb	r3, [r3]
 1715 01a6 D318     		adds	r3, r2, r3
 1716 01a8 DAB2     		uxtb	r2, r3
 1717 01aa 6F23     		movs	r3, #111
 1718 01ac FB18     		adds	r3, r7, r3
 1719 01ae 013A     		subs	r2, r2, #1
 1720 01b0 1A70     		strb	r2, [r3]
 1721              	.L111:
 520:ad5940.c      ****       }
 521:ad5940.c      ****       pFilterInfo->DataType = DATATYPE_SINC2;
 1722              		.loc 1 521 0
 1723 01b2 7B68     		ldr	r3, [r7, #4]
 1724 01b4 0222     		movs	r2, #2
 1725 01b6 1A60     		str	r2, [r3]
 522:ad5940.c      ****       pFilterInfo->DataCount += dl; //DL is the extra data input needed for filter to output first 
 1726              		.loc 1 522 0
 1727 01b8 7B68     		ldr	r3, [r7, #4]
 1728 01ba 5A68     		ldr	r2, [r3, #4]
 1729 01bc 6F23     		movs	r3, #111
 1730 01be FB18     		adds	r3, r7, r3
 1731 01c0 1B78     		ldrb	r3, [r3]
 1732 01c2 D218     		adds	r2, r2, r3
 1733 01c4 7B68     		ldr	r3, [r7, #4]
 1734 01c6 5A60     		str	r2, [r3, #4]
 523:ad5940.c      ****       AD5940_ClksCalculate(pFilterInfo,&temp);
 1735              		.loc 1 523 0
 1736 01c8 6823     		movs	r3, #104
 1737 01ca FA18     		adds	r2, r7, r3
 1738 01cc 7B68     		ldr	r3, [r7, #4]
 1739 01ce 1100     		movs	r1, r2
ARM GAS  C:\Users\13740\AppData\Local\Temp\ccPV2Gz9.s 			page 41


 1740 01d0 1800     		movs	r0, r3
 1741 01d2 FFF7FEFF 		bl	AD5940_ClksCalculate
 524:ad5940.c      ****       //restore the filter info.
 525:ad5940.c      ****       pFilterInfo->DataType = DATATYPE_NOTCH;
 1742              		.loc 1 525 0
 1743 01d6 7B68     		ldr	r3, [r7, #4]
 1744 01d8 0422     		movs	r2, #4
 1745 01da 1A60     		str	r2, [r3]
 526:ad5940.c      ****       pFilterInfo->DataCount -= dl;
 1746              		.loc 1 526 0
 1747 01dc 7B68     		ldr	r3, [r7, #4]
 1748 01de 5A68     		ldr	r2, [r3, #4]
 1749 01e0 6F23     		movs	r3, #111
 1750 01e2 FB18     		adds	r3, r7, r3
 1751 01e4 1B78     		ldrb	r3, [r3]
 1752 01e6 D21A     		subs	r2, r2, r3
 1753 01e8 7B68     		ldr	r3, [r7, #4]
 1754 01ea 5A60     		str	r2, [r3, #4]
 527:ad5940.c      ****       break;
 1755              		.loc 1 527 0
 1756 01ec C046     		nop
 1757 01ee 4DE0     		b	.L109
 1758              	.L107:
 1759              	.LBE9:
 528:ad5940.c      ****     }
 529:ad5940.c      ****     case DATATYPE_DFT:
 530:ad5940.c      ****       switch(pFilterInfo->DftSrc)
 1760              		.loc 1 530 0
 1761 01f0 7B68     		ldr	r3, [r7, #4]
 1762 01f2 5B69     		ldr	r3, [r3, #20]
 1763 01f4 012B     		cmp	r3, #1
 1764 01f6 10D0     		beq	.L113
 1765 01f8 1AD3     		bcc	.L114
 1766 01fa 022B     		cmp	r3, #2
 1767 01fc 02D0     		beq	.L115
 1768 01fe 032B     		cmp	r3, #3
 1769 0200 29D0     		beq	.L116
 531:ad5940.c      ****       {
 532:ad5940.c      ****         case DFTSRC_ADCRAW:
 533:ad5940.c      ****           pFilterInfo->DataType = DATATYPE_ADCRAW;
 534:ad5940.c      ****           AD5940_ClksCalculate(pFilterInfo, &temp);
 535:ad5940.c      ****           break;
 536:ad5940.c      ****         case DFTSRC_SINC3:
 537:ad5940.c      ****           pFilterInfo->DataType = DATATYPE_SINC3;
 538:ad5940.c      ****           AD5940_ClksCalculate(pFilterInfo, &temp);
 539:ad5940.c      ****           break;
 540:ad5940.c      ****         case DFTSRC_SINC2NOTCH:
 541:ad5940.c      ****           if(pFilterInfo->BpNotch)
 542:ad5940.c      ****             pFilterInfo->DataType = DATATYPE_SINC2;
 543:ad5940.c      ****           else
 544:ad5940.c      ****             pFilterInfo->DataType = DATATYPE_NOTCH;
 545:ad5940.c      ****           AD5940_ClksCalculate(pFilterInfo, &temp);
 546:ad5940.c      ****           break;
 547:ad5940.c      ****         case DFTSRC_AVG:
 548:ad5940.c      ****           pFilterInfo->DataType = DATATYPE_SINC3;
 549:ad5940.c      ****           pFilterInfo->DataCount *= 1L<<(pFilterInfo->ADCAvgNum+1); /* 0: average2, 1: average4, 2:
 550:ad5940.c      ****           AD5940_ClksCalculate(pFilterInfo, &temp);
ARM GAS  C:\Users\13740\AppData\Local\Temp\ccPV2Gz9.s 			page 42


 551:ad5940.c      ****           break;
 552:ad5940.c      ****         default:
 553:ad5940.c      ****           break;
 1770              		.loc 1 553 0
 1771 0202 3BE0     		b	.L117
 1772              	.L115:
 533:ad5940.c      ****           AD5940_ClksCalculate(pFilterInfo, &temp);
 1773              		.loc 1 533 0
 1774 0204 7B68     		ldr	r3, [r7, #4]
 1775 0206 0022     		movs	r2, #0
 1776 0208 1A60     		str	r2, [r3]
 534:ad5940.c      ****           break;
 1777              		.loc 1 534 0
 1778 020a 6823     		movs	r3, #104
 1779 020c FA18     		adds	r2, r7, r3
 1780 020e 7B68     		ldr	r3, [r7, #4]
 1781 0210 1100     		movs	r1, r2
 1782 0212 1800     		movs	r0, r3
 1783 0214 FFF7FEFF 		bl	AD5940_ClksCalculate
 535:ad5940.c      ****         case DFTSRC_SINC3:
 1784              		.loc 1 535 0
 1785 0218 30E0     		b	.L117
 1786              	.L113:
 537:ad5940.c      ****           AD5940_ClksCalculate(pFilterInfo, &temp);
 1787              		.loc 1 537 0
 1788 021a 7B68     		ldr	r3, [r7, #4]
 1789 021c 0122     		movs	r2, #1
 1790 021e 1A60     		str	r2, [r3]
 538:ad5940.c      ****           break;
 1791              		.loc 1 538 0
 1792 0220 6823     		movs	r3, #104
 1793 0222 FA18     		adds	r2, r7, r3
 1794 0224 7B68     		ldr	r3, [r7, #4]
 1795 0226 1100     		movs	r1, r2
 1796 0228 1800     		movs	r0, r3
 1797 022a FFF7FEFF 		bl	AD5940_ClksCalculate
 539:ad5940.c      ****         case DFTSRC_SINC2NOTCH:
 1798              		.loc 1 539 0
 1799 022e 25E0     		b	.L117
 1800              	.L114:
 541:ad5940.c      ****             pFilterInfo->DataType = DATATYPE_SINC2;
 1801              		.loc 1 541 0
 1802 0230 7B68     		ldr	r3, [r7, #4]
 1803 0232 5B7E     		ldrb	r3, [r3, #25]
 1804 0234 002B     		cmp	r3, #0
 1805 0236 03D0     		beq	.L118
 542:ad5940.c      ****           else
 1806              		.loc 1 542 0
 1807 0238 7B68     		ldr	r3, [r7, #4]
 1808 023a 0222     		movs	r2, #2
 1809 023c 1A60     		str	r2, [r3]
 1810 023e 02E0     		b	.L119
 1811              	.L118:
 544:ad5940.c      ****           AD5940_ClksCalculate(pFilterInfo, &temp);
 1812              		.loc 1 544 0
 1813 0240 7B68     		ldr	r3, [r7, #4]
 1814 0242 0422     		movs	r2, #4
ARM GAS  C:\Users\13740\AppData\Local\Temp\ccPV2Gz9.s 			page 43


 1815 0244 1A60     		str	r2, [r3]
 1816              	.L119:
 545:ad5940.c      ****           break;
 1817              		.loc 1 545 0
 1818 0246 6823     		movs	r3, #104
 1819 0248 FA18     		adds	r2, r7, r3
 1820 024a 7B68     		ldr	r3, [r7, #4]
 1821 024c 1100     		movs	r1, r2
 1822 024e 1800     		movs	r0, r3
 1823 0250 FFF7FEFF 		bl	AD5940_ClksCalculate
 546:ad5940.c      ****         case DFTSRC_AVG:
 1824              		.loc 1 546 0
 1825 0254 12E0     		b	.L117
 1826              	.L116:
 548:ad5940.c      ****           pFilterInfo->DataCount *= 1L<<(pFilterInfo->ADCAvgNum+1); /* 0: average2, 1: average4, 2:
 1827              		.loc 1 548 0
 1828 0256 7B68     		ldr	r3, [r7, #4]
 1829 0258 0122     		movs	r2, #1
 1830 025a 1A60     		str	r2, [r3]
 549:ad5940.c      ****           AD5940_ClksCalculate(pFilterInfo, &temp);
 1831              		.loc 1 549 0
 1832 025c 7B68     		ldr	r3, [r7, #4]
 1833 025e 5A68     		ldr	r2, [r3, #4]
 1834 0260 7B68     		ldr	r3, [r7, #4]
 1835 0262 1B69     		ldr	r3, [r3, #16]
 1836 0264 0133     		adds	r3, r3, #1
 1837 0266 9A40     		lsls	r2, r2, r3
 1838 0268 7B68     		ldr	r3, [r7, #4]
 1839 026a 5A60     		str	r2, [r3, #4]
 550:ad5940.c      ****           break;
 1840              		.loc 1 550 0
 1841 026c 6823     		movs	r3, #104
 1842 026e FA18     		adds	r2, r7, r3
 1843 0270 7B68     		ldr	r3, [r7, #4]
 1844 0272 1100     		movs	r1, r2
 1845 0274 1800     		movs	r0, r3
 1846 0276 FFF7FEFF 		bl	AD5940_ClksCalculate
 551:ad5940.c      ****         default:
 1847              		.loc 1 551 0
 1848 027a C046     		nop
 1849              	.L117:
 554:ad5940.c      ****       }
 555:ad5940.c      ****       pFilterInfo->DataType = DATATYPE_DFT;
 1850              		.loc 1 555 0
 1851 027c 7B68     		ldr	r3, [r7, #4]
 1852 027e 0322     		movs	r2, #3
 1853 0280 1A60     		str	r2, [r3]
 556:ad5940.c      ****       temp += 25; /* add margin */
 1854              		.loc 1 556 0
 1855 0282 BB6E     		ldr	r3, [r7, #104]
 1856 0284 1933     		adds	r3, r3, #25
 1857 0286 BB66     		str	r3, [r7, #104]
 557:ad5940.c      ****       break;
 1858              		.loc 1 557 0
 1859 0288 00E0     		b	.L109
 1860              	.L126:
 558:ad5940.c      ****     default:
ARM GAS  C:\Users\13740\AppData\Local\Temp\ccPV2Gz9.s 			page 44


 559:ad5940.c      ****     break;
 1861              		.loc 1 559 0
 1862 028a C046     		nop
 1863              	.L109:
 560:ad5940.c      ****   }
 561:ad5940.c      ****   *pClocks = temp;
 1864              		.loc 1 561 0 discriminator 1
 1865 028c BA6E     		ldr	r2, [r7, #104]
 1866 028e 3B68     		ldr	r3, [r7]
 1867 0290 1A60     		str	r2, [r3]
 1868 0292 08E0     		b	.L95
 1869              	.L121:
 487:ad5940.c      ****   if(pClocks == NULL) return;
 1870              		.loc 1 487 0
 1871 0294 C046     		nop
 1872 0296 06E0     		b	.L95
 1873              	.L122:
 488:ad5940.c      ****   if(pFilterInfo->ADCSinc2Osr > ADCSINC2OSR_1333) return;
 1874              		.loc 1 488 0
 1875 0298 C046     		nop
 1876 029a 04E0     		b	.L95
 1877              	.L123:
 489:ad5940.c      ****   if(pFilterInfo->ADCSinc3Osr > 2)  return; /* 0: OSR5, 1:OSR4, 2:OSR2 */
 1878              		.loc 1 489 0
 1879 029c C046     		nop
 1880 029e 02E0     		b	.L95
 1881              	.L124:
 490:ad5940.c      ****   if(pFilterInfo->ADCAvgNum > ADCAVGNUM_16) return; /* Average number index:0,1,2,3 */
 1882              		.loc 1 490 0
 1883 02a0 C046     		nop
 1884 02a2 00E0     		b	.L95
 1885              	.L125:
 491:ad5940.c      ****   switch(pFilterInfo->DataType)
 1886              		.loc 1 491 0
 1887 02a4 C046     		nop
 1888              	.L95:
 562:ad5940.c      **** }
 1889              		.loc 1 562 0
 1890 02a6 BD46     		mov	sp, r7
 1891 02a8 1DB0     		add	sp, sp, #116
 1892              		@ sp needed
 1893 02aa 90BD     		pop	{r4, r7, pc}
 1894              	.L128:
 1895              		.align	2
 1896              	.L127:
 1897 02ac 48000000 		.word	.LC12
 1898 02b0 7C000000 		.word	.LC13
 1899 02b4 8C000000 		.word	.L104
 1900              		.cfi_endproc
 1901              	.LFE14:
 1902              		.size	AD5940_ClksCalculate, .-AD5940_ClksCalculate
 1903              		.global	__aeabi_fcmplt
 1904              		.global	__aeabi_f2d
 1905              		.global	__aeabi_ui2d
 1906              		.global	__aeabi_fdiv
 1907              		.global	__aeabi_dmul
 1908              		.global	__aeabi_ddiv
ARM GAS  C:\Users\13740\AppData\Local\Temp\ccPV2Gz9.s 			page 45


 1909              		.global	__aeabi_d2f
 1910              		.global	__aeabi_fsub
 1911              		.global	__aeabi_dadd
 1912              		.section	.text.AD5940_SweepNext,"ax",%progbits
 1913              		.align	2
 1914              		.global	AD5940_SweepNext
 1915              		.code	16
 1916              		.thumb_func
 1917              		.type	AD5940_SweepNext, %function
 1918              	AD5940_SweepNext:
 1919              	.LFB15:
 563:ad5940.c      **** 
 564:ad5940.c      **** /**
 565:ad5940.c      ****    @brief void AD5940_SweepNext(SoftSweepCfg_Type *pSweepCfg, float *pNextFreq)
 566:ad5940.c      ****           For sweep function, calculate next frequency point according to pSweepCfg info.
 567:ad5940.c      ****    @return Return next frequency point in Hz.
 568:ad5940.c      **** */
 569:ad5940.c      **** void AD5940_SweepNext(SoftSweepCfg_Type *pSweepCfg, float *pNextFreq)
 570:ad5940.c      **** {
 1920              		.loc 1 570 0
 1921              		.cfi_startproc
 1922              		@ args = 0, pretend = 0, frame = 32
 1923              		@ frame_needed = 1, uses_anonymous_args = 0
 1924 0000 B0B5     		push	{r4, r5, r7, lr}
 1925              		.cfi_def_cfa_offset 16
 1926              		.cfi_offset 4, -16
 1927              		.cfi_offset 5, -12
 1928              		.cfi_offset 7, -8
 1929              		.cfi_offset 14, -4
 1930 0002 88B0     		sub	sp, sp, #32
 1931              		.cfi_def_cfa_offset 48
 1932 0004 00AF     		add	r7, sp, #0
 1933              		.cfi_def_cfa_register 7
 1934 0006 7861     		str	r0, [r7, #20]
 1935 0008 3961     		str	r1, [r7, #16]
 571:ad5940.c      ****    float frequency;
 572:ad5940.c      **** 
 573:ad5940.c      ****    if(pSweepCfg->SweepLog)/* Log step */
 1936              		.loc 1 573 0
 1937 000a 7B69     		ldr	r3, [r7, #20]
 1938 000c 1B7C     		ldrb	r3, [r3, #16]
 1939 000e 002B     		cmp	r3, #0
 1940 0010 00D1     		bne	.LCB1648
 1941 0012 BBE0     		b	.L130	@long jump
 1942              	.LCB1648:
 574:ad5940.c      ****    {
 575:ad5940.c      ****       if(pSweepCfg->SweepStart<pSweepCfg->SweepStop) /* Normal */
 1943              		.loc 1 575 0
 1944 0014 7B69     		ldr	r3, [r7, #20]
 1945 0016 5A68     		ldr	r2, [r3, #4]
 1946 0018 7B69     		ldr	r3, [r7, #20]
 1947 001a 9B68     		ldr	r3, [r3, #8]
 1948 001c 191C     		adds	r1, r3, #0
 1949 001e 101C     		adds	r0, r2, #0
 1950 0020 FFF7FEFF 		bl	__aeabi_fcmplt
 1951 0024 031E     		subs	r3, r0, #0
 1952 0026 58D0     		beq	.L143
ARM GAS  C:\Users\13740\AppData\Local\Temp\ccPV2Gz9.s 			page 46


 576:ad5940.c      ****       {
 577:ad5940.c      ****          if(++pSweepCfg->SweepIndex == pSweepCfg->SweepPoints)
 1953              		.loc 1 577 0
 1954 0028 7B69     		ldr	r3, [r7, #20]
 1955 002a 5B69     		ldr	r3, [r3, #20]
 1956 002c 5A1C     		adds	r2, r3, #1
 1957 002e 7B69     		ldr	r3, [r7, #20]
 1958 0030 5A61     		str	r2, [r3, #20]
 1959 0032 7B69     		ldr	r3, [r7, #20]
 1960 0034 5A69     		ldr	r2, [r3, #20]
 1961 0036 7B69     		ldr	r3, [r7, #20]
 1962 0038 DB68     		ldr	r3, [r3, #12]
 1963 003a 9A42     		cmp	r2, r3
 1964 003c 02D1     		bne	.L133
 578:ad5940.c      ****             pSweepCfg->SweepIndex = 0;
 1965              		.loc 1 578 0
 1966 003e 7B69     		ldr	r3, [r7, #20]
 1967 0040 0022     		movs	r2, #0
 1968 0042 5A61     		str	r2, [r3, #20]
 1969              	.L133:
 579:ad5940.c      ****          frequency = pSweepCfg->SweepStart*pow(10,pSweepCfg->SweepIndex*log10(pSweepCfg->SweepStop/
 1970              		.loc 1 579 0
 1971 0044 7B69     		ldr	r3, [r7, #20]
 1972 0046 5B68     		ldr	r3, [r3, #4]
 1973 0048 181C     		adds	r0, r3, #0
 1974 004a FFF7FEFF 		bl	__aeabi_f2d
 1975 004e 0400     		movs	r4, r0
 1976 0050 0D00     		movs	r5, r1
 1977 0052 7B69     		ldr	r3, [r7, #20]
 1978 0054 5B69     		ldr	r3, [r3, #20]
 1979 0056 1800     		movs	r0, r3
 1980 0058 FFF7FEFF 		bl	__aeabi_ui2d
 1981 005c B860     		str	r0, [r7, #8]
 1982 005e F960     		str	r1, [r7, #12]
 1983 0060 7B69     		ldr	r3, [r7, #20]
 1984 0062 9A68     		ldr	r2, [r3, #8]
 1985 0064 7B69     		ldr	r3, [r7, #20]
 1986 0066 5B68     		ldr	r3, [r3, #4]
 1987 0068 191C     		adds	r1, r3, #0
 1988 006a 101C     		adds	r0, r2, #0
 1989 006c FFF7FEFF 		bl	__aeabi_fdiv
 1990 0070 031C     		adds	r3, r0, #0
 1991 0072 181C     		adds	r0, r3, #0
 1992 0074 FFF7FEFF 		bl	__aeabi_f2d
 1993 0078 0200     		movs	r2, r0
 1994 007a 0B00     		movs	r3, r1
 1995 007c 1000     		movs	r0, r2
 1996 007e 1900     		movs	r1, r3
 1997 0080 FFF7FEFF 		bl	log10
 1998 0084 0200     		movs	r2, r0
 1999 0086 0B00     		movs	r3, r1
 2000 0088 B868     		ldr	r0, [r7, #8]
 2001 008a F968     		ldr	r1, [r7, #12]
 2002 008c FFF7FEFF 		bl	__aeabi_dmul
 2003 0090 0200     		movs	r2, r0
 2004 0092 0B00     		movs	r3, r1
 2005 0094 BA60     		str	r2, [r7, #8]
ARM GAS  C:\Users\13740\AppData\Local\Temp\ccPV2Gz9.s 			page 47


 2006 0096 FB60     		str	r3, [r7, #12]
 2007 0098 7B69     		ldr	r3, [r7, #20]
 2008 009a DB68     		ldr	r3, [r3, #12]
 2009 009c 013B     		subs	r3, r3, #1
 2010 009e 1800     		movs	r0, r3
 2011 00a0 FFF7FEFF 		bl	__aeabi_ui2d
 2012 00a4 0200     		movs	r2, r0
 2013 00a6 0B00     		movs	r3, r1
 2014 00a8 B868     		ldr	r0, [r7, #8]
 2015 00aa F968     		ldr	r1, [r7, #12]
 2016 00ac FFF7FEFF 		bl	__aeabi_ddiv
 2017 00b0 0200     		movs	r2, r0
 2018 00b2 0B00     		movs	r3, r1
 2019 00b4 0020     		movs	r0, #0
 2020 00b6 8B49     		ldr	r1, .L145
 2021 00b8 FFF7FEFF 		bl	pow
 2022 00bc 0200     		movs	r2, r0
 2023 00be 0B00     		movs	r3, r1
 2024 00c0 2000     		movs	r0, r4
 2025 00c2 2900     		movs	r1, r5
 2026 00c4 FFF7FEFF 		bl	__aeabi_dmul
 2027 00c8 0300     		movs	r3, r0
 2028 00ca 0C00     		movs	r4, r1
 2029 00cc 1800     		movs	r0, r3
 2030 00ce 2100     		movs	r1, r4
 2031 00d0 FFF7FEFF 		bl	__aeabi_d2f
 2032 00d4 031C     		adds	r3, r0, #0
 2033 00d6 FB61     		str	r3, [r7, #28]
 2034 00d8 FDE0     		b	.L136
 2035              	.L143:
 580:ad5940.c      ****       }
 581:ad5940.c      ****       else
 582:ad5940.c      ****       {
 583:ad5940.c      ****          pSweepCfg->SweepIndex --;
 2036              		.loc 1 583 0
 2037 00da 7B69     		ldr	r3, [r7, #20]
 2038 00dc 5B69     		ldr	r3, [r3, #20]
 2039 00de 5A1E     		subs	r2, r3, #1
 2040 00e0 7B69     		ldr	r3, [r7, #20]
 2041 00e2 5A61     		str	r2, [r3, #20]
 584:ad5940.c      ****          if(pSweepCfg->SweepIndex >= pSweepCfg->SweepPoints)
 2042              		.loc 1 584 0
 2043 00e4 7B69     		ldr	r3, [r7, #20]
 2044 00e6 5A69     		ldr	r2, [r3, #20]
 2045 00e8 7B69     		ldr	r3, [r7, #20]
 2046 00ea DB68     		ldr	r3, [r3, #12]
 2047 00ec 9A42     		cmp	r2, r3
 2048 00ee 04D3     		bcc	.L135
 585:ad5940.c      ****             pSweepCfg->SweepIndex = pSweepCfg->SweepPoints-1;
 2049              		.loc 1 585 0
 2050 00f0 7B69     		ldr	r3, [r7, #20]
 2051 00f2 DB68     		ldr	r3, [r3, #12]
 2052 00f4 5A1E     		subs	r2, r3, #1
 2053 00f6 7B69     		ldr	r3, [r7, #20]
 2054 00f8 5A61     		str	r2, [r3, #20]
 2055              	.L135:
 586:ad5940.c      ****          frequency = pSweepCfg->SweepStop*pow(10,pSweepCfg->SweepIndex*
ARM GAS  C:\Users\13740\AppData\Local\Temp\ccPV2Gz9.s 			page 48


 2056              		.loc 1 586 0
 2057 00fa 7B69     		ldr	r3, [r7, #20]
 2058 00fc 9B68     		ldr	r3, [r3, #8]
 2059 00fe 181C     		adds	r0, r3, #0
 2060 0100 FFF7FEFF 		bl	__aeabi_f2d
 2061 0104 0400     		movs	r4, r0
 2062 0106 0D00     		movs	r5, r1
 2063 0108 7B69     		ldr	r3, [r7, #20]
 2064 010a 5B69     		ldr	r3, [r3, #20]
 2065 010c 1800     		movs	r0, r3
 2066 010e FFF7FEFF 		bl	__aeabi_ui2d
 2067 0112 B860     		str	r0, [r7, #8]
 2068 0114 F960     		str	r1, [r7, #12]
 587:ad5940.c      ****                                      (log10(pSweepCfg->SweepStart/pSweepCfg->SweepStop)/(pSweepCfg-
 2069              		.loc 1 587 0
 2070 0116 7B69     		ldr	r3, [r7, #20]
 2071 0118 5A68     		ldr	r2, [r3, #4]
 2072 011a 7B69     		ldr	r3, [r7, #20]
 2073 011c 9B68     		ldr	r3, [r3, #8]
 2074 011e 191C     		adds	r1, r3, #0
 2075 0120 101C     		adds	r0, r2, #0
 2076 0122 FFF7FEFF 		bl	__aeabi_fdiv
 2077 0126 031C     		adds	r3, r0, #0
 2078 0128 181C     		adds	r0, r3, #0
 2079 012a FFF7FEFF 		bl	__aeabi_f2d
 2080 012e 0200     		movs	r2, r0
 2081 0130 0B00     		movs	r3, r1
 2082 0132 1000     		movs	r0, r2
 2083 0134 1900     		movs	r1, r3
 2084 0136 FFF7FEFF 		bl	log10
 2085 013a 3860     		str	r0, [r7]
 2086 013c 7960     		str	r1, [r7, #4]
 2087 013e 7B69     		ldr	r3, [r7, #20]
 2088 0140 DB68     		ldr	r3, [r3, #12]
 2089 0142 013B     		subs	r3, r3, #1
 2090 0144 1800     		movs	r0, r3
 2091 0146 FFF7FEFF 		bl	__aeabi_ui2d
 2092 014a 0200     		movs	r2, r0
 2093 014c 0B00     		movs	r3, r1
 2094 014e 3868     		ldr	r0, [r7]
 2095 0150 7968     		ldr	r1, [r7, #4]
 2096 0152 FFF7FEFF 		bl	__aeabi_ddiv
 2097 0156 0200     		movs	r2, r0
 2098 0158 0B00     		movs	r3, r1
 586:ad5940.c      ****          frequency = pSweepCfg->SweepStop*pow(10,pSweepCfg->SweepIndex*
 2099              		.loc 1 586 0
 2100 015a B868     		ldr	r0, [r7, #8]
 2101 015c F968     		ldr	r1, [r7, #12]
 2102 015e FFF7FEFF 		bl	__aeabi_dmul
 2103 0162 0200     		movs	r2, r0
 2104 0164 0B00     		movs	r3, r1
 2105 0166 0020     		movs	r0, #0
 2106 0168 5E49     		ldr	r1, .L145
 2107 016a FFF7FEFF 		bl	pow
 2108 016e 0200     		movs	r2, r0
 2109 0170 0B00     		movs	r3, r1
 2110 0172 2000     		movs	r0, r4
ARM GAS  C:\Users\13740\AppData\Local\Temp\ccPV2Gz9.s 			page 49


 2111 0174 2900     		movs	r1, r5
 2112 0176 FFF7FEFF 		bl	__aeabi_dmul
 2113 017a 0300     		movs	r3, r0
 2114 017c 0C00     		movs	r4, r1
 2115 017e 1800     		movs	r0, r3
 2116 0180 2100     		movs	r1, r4
 2117 0182 FFF7FEFF 		bl	__aeabi_d2f
 2118 0186 031C     		adds	r3, r0, #0
 2119 0188 FB61     		str	r3, [r7, #28]
 2120 018a A4E0     		b	.L136
 2121              	.L130:
 588:ad5940.c      ****       }
 589:ad5940.c      ****    }
 590:ad5940.c      ****    else/* Linear step */
 591:ad5940.c      ****    {
 592:ad5940.c      ****       if(pSweepCfg->SweepStart<pSweepCfg->SweepStop) /* Normal */
 2122              		.loc 1 592 0
 2123 018c 7B69     		ldr	r3, [r7, #20]
 2124 018e 5A68     		ldr	r2, [r3, #4]
 2125 0190 7B69     		ldr	r3, [r7, #20]
 2126 0192 9B68     		ldr	r3, [r3, #8]
 2127 0194 191C     		adds	r1, r3, #0
 2128 0196 101C     		adds	r0, r2, #0
 2129 0198 FFF7FEFF 		bl	__aeabi_fcmplt
 2130 019c 031E     		subs	r3, r0, #0
 2131 019e 4CD0     		beq	.L144
 593:ad5940.c      ****       {
 594:ad5940.c      ****          if(++pSweepCfg->SweepIndex == pSweepCfg->SweepPoints)
 2132              		.loc 1 594 0
 2133 01a0 7B69     		ldr	r3, [r7, #20]
 2134 01a2 5B69     		ldr	r3, [r3, #20]
 2135 01a4 5A1C     		adds	r2, r3, #1
 2136 01a6 7B69     		ldr	r3, [r7, #20]
 2137 01a8 5A61     		str	r2, [r3, #20]
 2138 01aa 7B69     		ldr	r3, [r7, #20]
 2139 01ac 5A69     		ldr	r2, [r3, #20]
 2140 01ae 7B69     		ldr	r3, [r7, #20]
 2141 01b0 DB68     		ldr	r3, [r3, #12]
 2142 01b2 9A42     		cmp	r2, r3
 2143 01b4 02D1     		bne	.L139
 595:ad5940.c      ****             pSweepCfg->SweepIndex = 0;
 2144              		.loc 1 595 0
 2145 01b6 7B69     		ldr	r3, [r7, #20]
 2146 01b8 0022     		movs	r2, #0
 2147 01ba 5A61     		str	r2, [r3, #20]
 2148              	.L139:
 596:ad5940.c      ****          frequency = pSweepCfg->SweepStart + pSweepCfg->SweepIndex*(double)(pSweepCfg->SweepStop-pS
 2149              		.loc 1 596 0
 2150 01bc 7B69     		ldr	r3, [r7, #20]
 2151 01be 5B68     		ldr	r3, [r3, #4]
 2152 01c0 181C     		adds	r0, r3, #0
 2153 01c2 FFF7FEFF 		bl	__aeabi_f2d
 2154 01c6 0400     		movs	r4, r0
 2155 01c8 0D00     		movs	r5, r1
 2156 01ca 7B69     		ldr	r3, [r7, #20]
 2157 01cc 5B69     		ldr	r3, [r3, #20]
 2158 01ce 1800     		movs	r0, r3
ARM GAS  C:\Users\13740\AppData\Local\Temp\ccPV2Gz9.s 			page 50


 2159 01d0 FFF7FEFF 		bl	__aeabi_ui2d
 2160 01d4 B860     		str	r0, [r7, #8]
 2161 01d6 F960     		str	r1, [r7, #12]
 2162 01d8 7B69     		ldr	r3, [r7, #20]
 2163 01da 9A68     		ldr	r2, [r3, #8]
 2164 01dc 7B69     		ldr	r3, [r7, #20]
 2165 01de 5B68     		ldr	r3, [r3, #4]
 2166 01e0 191C     		adds	r1, r3, #0
 2167 01e2 101C     		adds	r0, r2, #0
 2168 01e4 FFF7FEFF 		bl	__aeabi_fsub
 2169 01e8 031C     		adds	r3, r0, #0
 2170 01ea 181C     		adds	r0, r3, #0
 2171 01ec FFF7FEFF 		bl	__aeabi_f2d
 2172 01f0 0200     		movs	r2, r0
 2173 01f2 0B00     		movs	r3, r1
 2174 01f4 B868     		ldr	r0, [r7, #8]
 2175 01f6 F968     		ldr	r1, [r7, #12]
 2176 01f8 FFF7FEFF 		bl	__aeabi_dmul
 2177 01fc 0200     		movs	r2, r0
 2178 01fe 0B00     		movs	r3, r1
 2179 0200 BA60     		str	r2, [r7, #8]
 2180 0202 FB60     		str	r3, [r7, #12]
 2181 0204 7B69     		ldr	r3, [r7, #20]
 2182 0206 DB68     		ldr	r3, [r3, #12]
 2183 0208 013B     		subs	r3, r3, #1
 2184 020a 1800     		movs	r0, r3
 2185 020c FFF7FEFF 		bl	__aeabi_ui2d
 2186 0210 0200     		movs	r2, r0
 2187 0212 0B00     		movs	r3, r1
 2188 0214 B868     		ldr	r0, [r7, #8]
 2189 0216 F968     		ldr	r1, [r7, #12]
 2190 0218 FFF7FEFF 		bl	__aeabi_ddiv
 2191 021c 0200     		movs	r2, r0
 2192 021e 0B00     		movs	r3, r1
 2193 0220 2000     		movs	r0, r4
 2194 0222 2900     		movs	r1, r5
 2195 0224 FFF7FEFF 		bl	__aeabi_dadd
 2196 0228 0300     		movs	r3, r0
 2197 022a 0C00     		movs	r4, r1
 2198 022c 1800     		movs	r0, r3
 2199 022e 2100     		movs	r1, r4
 2200 0230 FFF7FEFF 		bl	__aeabi_d2f
 2201 0234 031C     		adds	r3, r0, #0
 2202 0236 FB61     		str	r3, [r7, #28]
 2203 0238 4DE0     		b	.L136
 2204              	.L144:
 597:ad5940.c      ****       }
 598:ad5940.c      ****       else
 599:ad5940.c      ****       {
 600:ad5940.c      ****          pSweepCfg->SweepIndex --;
 2205              		.loc 1 600 0
 2206 023a 7B69     		ldr	r3, [r7, #20]
 2207 023c 5B69     		ldr	r3, [r3, #20]
 2208 023e 5A1E     		subs	r2, r3, #1
 2209 0240 7B69     		ldr	r3, [r7, #20]
 2210 0242 5A61     		str	r2, [r3, #20]
 601:ad5940.c      ****          if(pSweepCfg->SweepIndex >= pSweepCfg->SweepPoints)
ARM GAS  C:\Users\13740\AppData\Local\Temp\ccPV2Gz9.s 			page 51


 2211              		.loc 1 601 0
 2212 0244 7B69     		ldr	r3, [r7, #20]
 2213 0246 5A69     		ldr	r2, [r3, #20]
 2214 0248 7B69     		ldr	r3, [r7, #20]
 2215 024a DB68     		ldr	r3, [r3, #12]
 2216 024c 9A42     		cmp	r2, r3
 2217 024e 04D3     		bcc	.L140
 602:ad5940.c      ****             pSweepCfg->SweepIndex = pSweepCfg->SweepPoints-1;
 2218              		.loc 1 602 0
 2219 0250 7B69     		ldr	r3, [r7, #20]
 2220 0252 DB68     		ldr	r3, [r3, #12]
 2221 0254 5A1E     		subs	r2, r3, #1
 2222 0256 7B69     		ldr	r3, [r7, #20]
 2223 0258 5A61     		str	r2, [r3, #20]
 2224              	.L140:
 603:ad5940.c      ****          frequency = pSweepCfg->SweepStop + pSweepCfg->SweepIndex*(double)(pSweepCfg->SweepStart - 
 2225              		.loc 1 603 0
 2226 025a 7B69     		ldr	r3, [r7, #20]
 2227 025c 9B68     		ldr	r3, [r3, #8]
 2228 025e 181C     		adds	r0, r3, #0
 2229 0260 FFF7FEFF 		bl	__aeabi_f2d
 2230 0264 0400     		movs	r4, r0
 2231 0266 0D00     		movs	r5, r1
 2232 0268 7B69     		ldr	r3, [r7, #20]
 2233 026a 5B69     		ldr	r3, [r3, #20]
 2234 026c 1800     		movs	r0, r3
 2235 026e FFF7FEFF 		bl	__aeabi_ui2d
 2236 0272 B860     		str	r0, [r7, #8]
 2237 0274 F960     		str	r1, [r7, #12]
 2238 0276 7B69     		ldr	r3, [r7, #20]
 2239 0278 5A68     		ldr	r2, [r3, #4]
 2240 027a 7B69     		ldr	r3, [r7, #20]
 2241 027c 9B68     		ldr	r3, [r3, #8]
 2242 027e 191C     		adds	r1, r3, #0
 2243 0280 101C     		adds	r0, r2, #0
 2244 0282 FFF7FEFF 		bl	__aeabi_fsub
 2245 0286 031C     		adds	r3, r0, #0
 2246 0288 181C     		adds	r0, r3, #0
 2247 028a FFF7FEFF 		bl	__aeabi_f2d
 2248 028e 0200     		movs	r2, r0
 2249 0290 0B00     		movs	r3, r1
 2250 0292 B868     		ldr	r0, [r7, #8]
 2251 0294 F968     		ldr	r1, [r7, #12]
 2252 0296 FFF7FEFF 		bl	__aeabi_dmul
 2253 029a 0200     		movs	r2, r0
 2254 029c 0B00     		movs	r3, r1
 2255 029e BA60     		str	r2, [r7, #8]
 2256 02a0 FB60     		str	r3, [r7, #12]
 2257 02a2 7B69     		ldr	r3, [r7, #20]
 2258 02a4 DB68     		ldr	r3, [r3, #12]
 2259 02a6 013B     		subs	r3, r3, #1
 2260 02a8 1800     		movs	r0, r3
 2261 02aa FFF7FEFF 		bl	__aeabi_ui2d
 2262 02ae 0200     		movs	r2, r0
 2263 02b0 0B00     		movs	r3, r1
 2264 02b2 B868     		ldr	r0, [r7, #8]
 2265 02b4 F968     		ldr	r1, [r7, #12]
ARM GAS  C:\Users\13740\AppData\Local\Temp\ccPV2Gz9.s 			page 52


 2266 02b6 FFF7FEFF 		bl	__aeabi_ddiv
 2267 02ba 0200     		movs	r2, r0
 2268 02bc 0B00     		movs	r3, r1
 2269 02be 2000     		movs	r0, r4
 2270 02c0 2900     		movs	r1, r5
 2271 02c2 FFF7FEFF 		bl	__aeabi_dadd
 2272 02c6 0300     		movs	r3, r0
 2273 02c8 0C00     		movs	r4, r1
 2274 02ca 1800     		movs	r0, r3
 2275 02cc 2100     		movs	r1, r4
 2276 02ce FFF7FEFF 		bl	__aeabi_d2f
 2277 02d2 031C     		adds	r3, r0, #0
 2278 02d4 FB61     		str	r3, [r7, #28]
 2279              	.L136:
 604:ad5940.c      ****       }
 605:ad5940.c      ****    }
 606:ad5940.c      ****    
 607:ad5940.c      ****    *pNextFreq = frequency;
 2280              		.loc 1 607 0
 2281 02d6 3B69     		ldr	r3, [r7, #16]
 2282 02d8 FA69     		ldr	r2, [r7, #28]
 2283 02da 1A60     		str	r2, [r3]
 608:ad5940.c      **** }
 2284              		.loc 1 608 0
 2285 02dc C046     		nop
 2286 02de BD46     		mov	sp, r7
 2287 02e0 08B0     		add	sp, sp, #32
 2288              		@ sp needed
 2289 02e2 B0BD     		pop	{r4, r5, r7, pc}
 2290              	.L146:
 2291              		.align	2
 2292              	.L145:
 2293 02e4 00002440 		.word	1076101120
 2294              		.cfi_endproc
 2295              	.LFE15:
 2296              		.size	AD5940_SweepNext, .-AD5940_SweepNext
 2297              		.section	.text.AD5940_StructInit,"ax",%progbits
 2298              		.align	2
 2299              		.global	AD5940_StructInit
 2300              		.code	16
 2301              		.thumb_func
 2302              		.type	AD5940_StructInit, %function
 2303              	AD5940_StructInit:
 2304              	.LFB16:
 609:ad5940.c      **** 
 610:ad5940.c      **** /**
 611:ad5940.c      ****   @brief Initialize Structure members to zero
 612:ad5940.c      ****   @param pStruct: Pointer to the structure. 
 613:ad5940.c      ****   @param StructSize: The structure size in Byte.
 614:ad5940.c      ****   @return Return None.
 615:ad5940.c      **** **/
 616:ad5940.c      **** void AD5940_StructInit(void *pStruct, uint32_t StructSize)
 617:ad5940.c      **** {
 2305              		.loc 1 617 0
 2306              		.cfi_startproc
 2307              		@ args = 0, pretend = 0, frame = 8
 2308              		@ frame_needed = 1, uses_anonymous_args = 0
ARM GAS  C:\Users\13740\AppData\Local\Temp\ccPV2Gz9.s 			page 53


 2309 0000 80B5     		push	{r7, lr}
 2310              		.cfi_def_cfa_offset 8
 2311              		.cfi_offset 7, -8
 2312              		.cfi_offset 14, -4
 2313 0002 82B0     		sub	sp, sp, #8
 2314              		.cfi_def_cfa_offset 16
 2315 0004 00AF     		add	r7, sp, #0
 2316              		.cfi_def_cfa_register 7
 2317 0006 7860     		str	r0, [r7, #4]
 2318 0008 3960     		str	r1, [r7]
 618:ad5940.c      ****   memset(pStruct, 0, StructSize);
 2319              		.loc 1 618 0
 2320 000a 3A68     		ldr	r2, [r7]
 2321 000c 7B68     		ldr	r3, [r7, #4]
 2322 000e 0021     		movs	r1, #0
 2323 0010 1800     		movs	r0, r3
 2324 0012 FFF7FEFF 		bl	memset
 619:ad5940.c      **** }
 2325              		.loc 1 619 0
 2326 0016 C046     		nop
 2327 0018 BD46     		mov	sp, r7
 2328 001a 02B0     		add	sp, sp, #8
 2329              		@ sp needed
 2330 001c 80BD     		pop	{r7, pc}
 2331              		.cfi_endproc
 2332              	.LFE16:
 2333              		.size	AD5940_StructInit, .-AD5940_StructInit
 2334              		.global	__aeabi_i2f
 2335 001e C046     		.section	.text.AD5940_ADCCode2Volt,"ax",%progbits
 2336              		.align	2
 2337              		.global	AD5940_ADCCode2Volt
 2338              		.code	16
 2339              		.thumb_func
 2340              		.type	AD5940_ADCCode2Volt, %function
 2341              	AD5940_ADCCode2Volt:
 2342              	.LFB17:
 620:ad5940.c      **** 
 621:ad5940.c      **** /**
 622:ad5940.c      ****   @brief Convert ADC Code to voltage. 
 623:ad5940.c      ****   @param ADCPga: The ADC PGA used for this result.
 624:ad5940.c      ****   @param code: ADC code.
 625:ad5940.c      ****   @param VRef1p82: the actual 1.82V reference voltage.
 626:ad5940.c      ****   @return Voltage in volt.
 627:ad5940.c      **** **/
 628:ad5940.c      **** float AD5940_ADCCode2Volt(uint32_t code, uint32_t ADCPga, float VRef1p82)
 629:ad5940.c      **** {
 2343              		.loc 1 629 0
 2344              		.cfi_startproc
 2345              		@ args = 0, pretend = 0, frame = 32
 2346              		@ frame_needed = 1, uses_anonymous_args = 0
 2347 0000 80B5     		push	{r7, lr}
 2348              		.cfi_def_cfa_offset 8
 2349              		.cfi_offset 7, -8
 2350              		.cfi_offset 14, -4
 2351 0002 88B0     		sub	sp, sp, #32
 2352              		.cfi_def_cfa_offset 40
 2353 0004 00AF     		add	r7, sp, #0
ARM GAS  C:\Users\13740\AppData\Local\Temp\ccPV2Gz9.s 			page 54


 2354              		.cfi_def_cfa_register 7
 2355 0006 F860     		str	r0, [r7, #12]
 2356 0008 B960     		str	r1, [r7, #8]
 2357 000a 7A60     		str	r2, [r7, #4]
 630:ad5940.c      ****   float kFactor = 1.835/1.82;
 2358              		.loc 1 630 0
 2359 000c 274B     		ldr	r3, .L160
 2360 000e BB61     		str	r3, [r7, #24]
 631:ad5940.c      ****   float fVolt = 0.0;
 2361              		.loc 1 631 0
 2362 0010 0023     		movs	r3, #0
 2363 0012 7B61     		str	r3, [r7, #20]
 632:ad5940.c      ****   float tmp = 0;
 2364              		.loc 1 632 0
 2365 0014 0023     		movs	r3, #0
 2366 0016 FB61     		str	r3, [r7, #28]
 633:ad5940.c      ****   tmp = (int32_t)code - 32768;
 2367              		.loc 1 633 0
 2368 0018 FB68     		ldr	r3, [r7, #12]
 2369 001a 254A     		ldr	r2, .L160+4
 2370 001c 9446     		mov	ip, r2
 2371 001e 6344     		add	r3, r3, ip
 2372 0020 1800     		movs	r0, r3
 2373 0022 FFF7FEFF 		bl	__aeabi_i2f
 2374 0026 031C     		adds	r3, r0, #0
 2375 0028 FB61     		str	r3, [r7, #28]
 634:ad5940.c      ****   switch(ADCPga)
 2376              		.loc 1 634 0
 2377 002a BB68     		ldr	r3, [r7, #8]
 2378 002c 042B     		cmp	r3, #4
 2379 002e 24D8     		bhi	.L158
 2380 0030 BB68     		ldr	r3, [r7, #8]
 2381 0032 9A00     		lsls	r2, r3, #2
 2382 0034 1F4B     		ldr	r3, .L160+8
 2383 0036 D318     		adds	r3, r2, r3
 2384 0038 1B68     		ldr	r3, [r3]
 2385 003a 9F46     		mov	pc, r3
 2386              		.section	.rodata
 2387              		.align	2
 2388              	.L151:
 2389 00a0 7E000000 		.word	.L159
 2390 00a4 3C000000 		.word	.L152
 2391 00a8 4C000000 		.word	.L153
 2392 00ac 5C000000 		.word	.L154
 2393 00b0 6C000000 		.word	.L155
 2394              		.section	.text.AD5940_ADCCode2Volt
 2395              	.L152:
 635:ad5940.c      ****   {
 636:ad5940.c      ****   case ADCPGA_1:
 637:ad5940.c      ****     break;
 638:ad5940.c      ****   case ADCPGA_1P5:
 639:ad5940.c      ****     tmp /= 1.5f;
 2396              		.loc 1 639 0
 2397 003c FF21     		movs	r1, #255
 2398 003e 8905     		lsls	r1, r1, #22
 2399 0040 F869     		ldr	r0, [r7, #28]
 2400 0042 FFF7FEFF 		bl	__aeabi_fdiv
ARM GAS  C:\Users\13740\AppData\Local\Temp\ccPV2Gz9.s 			page 55


 2401 0046 031C     		adds	r3, r0, #0
 2402 0048 FB61     		str	r3, [r7, #28]
 640:ad5940.c      ****     break;
 2403              		.loc 1 640 0
 2404 004a 19E0     		b	.L156
 2405              	.L153:
 641:ad5940.c      ****   case ADCPGA_2:
 642:ad5940.c      ****     tmp /= 2.0f;
 2406              		.loc 1 642 0
 2407 004c 8021     		movs	r1, #128
 2408 004e C905     		lsls	r1, r1, #23
 2409 0050 F869     		ldr	r0, [r7, #28]
 2410 0052 FFF7FEFF 		bl	__aeabi_fdiv
 2411 0056 031C     		adds	r3, r0, #0
 2412 0058 FB61     		str	r3, [r7, #28]
 643:ad5940.c      ****     break;
 2413              		.loc 1 643 0
 2414 005a 11E0     		b	.L156
 2415              	.L154:
 644:ad5940.c      ****   case ADCPGA_4:
 645:ad5940.c      ****     tmp /= 4.0f;
 2416              		.loc 1 645 0
 2417 005c 8121     		movs	r1, #129
 2418 005e C905     		lsls	r1, r1, #23
 2419 0060 F869     		ldr	r0, [r7, #28]
 2420 0062 FFF7FEFF 		bl	__aeabi_fdiv
 2421 0066 031C     		adds	r3, r0, #0
 2422 0068 FB61     		str	r3, [r7, #28]
 646:ad5940.c      ****     break;
 2423              		.loc 1 646 0
 2424 006a 09E0     		b	.L156
 2425              	.L155:
 647:ad5940.c      ****   case ADCPGA_9:
 648:ad5940.c      ****     tmp /= 9.0f;
 2426              		.loc 1 648 0
 2427 006c 1249     		ldr	r1, .L160+12
 2428 006e F869     		ldr	r0, [r7, #28]
 2429 0070 FFF7FEFF 		bl	__aeabi_fdiv
 2430 0074 031C     		adds	r3, r0, #0
 2431 0076 FB61     		str	r3, [r7, #28]
 649:ad5940.c      ****     break;
 2432              		.loc 1 649 0
 2433 0078 02E0     		b	.L156
 2434              	.L158:
 650:ad5940.c      ****   default:break;
 2435              		.loc 1 650 0
 2436 007a C046     		nop
 2437 007c 00E0     		b	.L156
 2438              	.L159:
 637:ad5940.c      ****   case ADCPGA_1P5:
 2439              		.loc 1 637 0
 2440 007e C046     		nop
 2441              	.L156:
 651:ad5940.c      ****   }
 652:ad5940.c      ****   fVolt = tmp*VRef1p82/32768*kFactor;
 2442              		.loc 1 652 0
 2443 0080 7968     		ldr	r1, [r7, #4]
ARM GAS  C:\Users\13740\AppData\Local\Temp\ccPV2Gz9.s 			page 56


 2444 0082 F869     		ldr	r0, [r7, #28]
 2445 0084 FFF7FEFF 		bl	__aeabi_fmul
 2446 0088 031C     		adds	r3, r0, #0
 2447 008a 8E21     		movs	r1, #142
 2448 008c C905     		lsls	r1, r1, #23
 2449 008e 181C     		adds	r0, r3, #0
 2450 0090 FFF7FEFF 		bl	__aeabi_fdiv
 2451 0094 031C     		adds	r3, r0, #0
 2452 0096 B969     		ldr	r1, [r7, #24]
 2453 0098 181C     		adds	r0, r3, #0
 2454 009a FFF7FEFF 		bl	__aeabi_fmul
 2455 009e 031C     		adds	r3, r0, #0
 2456 00a0 7B61     		str	r3, [r7, #20]
 653:ad5940.c      ****   return fVolt;
 2457              		.loc 1 653 0
 2458 00a2 7B69     		ldr	r3, [r7, #20]
 654:ad5940.c      **** }
 2459              		.loc 1 654 0
 2460 00a4 181C     		adds	r0, r3, #0
 2461 00a6 BD46     		mov	sp, r7
 2462 00a8 08B0     		add	sp, sp, #32
 2463              		@ sp needed
 2464 00aa 80BD     		pop	{r7, pc}
 2465              	.L161:
 2466              		.align	2
 2467              	.L160:
 2468 00ac 110E813F 		.word	1065422353
 2469 00b0 0080FFFF 		.word	-32768
 2470 00b4 A0000000 		.word	.L151
 2471 00b8 00001041 		.word	1091567616
 2472              		.cfi_endproc
 2473              	.LFE17:
 2474              		.size	AD5940_ADCCode2Volt, .-AD5940_ADCCode2Volt
 2475              		.section	.text.AD5940_ComplexDivFloat,"ax",%progbits
 2476              		.align	2
 2477              		.global	AD5940_ComplexDivFloat
 2478              		.code	16
 2479              		.thumb_func
 2480              		.type	AD5940_ComplexDivFloat, %function
 2481              	AD5940_ComplexDivFloat:
 2482              	.LFB18:
 655:ad5940.c      **** 
 656:ad5940.c      **** /**
 657:ad5940.c      ****  * @brief Do complex number division.
 658:ad5940.c      ****  * @param a: The dividend.
 659:ad5940.c      ****  * @param b: The divisor.
 660:ad5940.c      ****  * @return Return result.
 661:ad5940.c      **** **/
 662:ad5940.c      **** fImpCar_Type AD5940_ComplexDivFloat(fImpCar_Type *a, fImpCar_Type *b)
 663:ad5940.c      **** {
 2483              		.loc 1 663 0
 2484              		.cfi_startproc
 2485              		@ args = 0, pretend = 0, frame = 32
 2486              		@ frame_needed = 1, uses_anonymous_args = 0
 2487 0000 90B5     		push	{r4, r7, lr}
 2488              		.cfi_def_cfa_offset 12
 2489              		.cfi_offset 4, -12
ARM GAS  C:\Users\13740\AppData\Local\Temp\ccPV2Gz9.s 			page 57


 2490              		.cfi_offset 7, -8
 2491              		.cfi_offset 14, -4
 2492 0002 89B0     		sub	sp, sp, #36
 2493              		.cfi_def_cfa_offset 48
 2494 0004 00AF     		add	r7, sp, #0
 2495              		.cfi_def_cfa_register 7
 2496 0006 F860     		str	r0, [r7, #12]
 2497 0008 B960     		str	r1, [r7, #8]
 2498 000a 7A60     		str	r2, [r7, #4]
 664:ad5940.c      ****   fImpCar_Type res;
 665:ad5940.c      ****   float temp;
 666:ad5940.c      ****   temp = b->Real*b->Real + b->Image*b->Image;
 2499              		.loc 1 666 0
 2500 000c 7B68     		ldr	r3, [r7, #4]
 2501 000e 1A68     		ldr	r2, [r3]
 2502 0010 7B68     		ldr	r3, [r7, #4]
 2503 0012 1B68     		ldr	r3, [r3]
 2504 0014 191C     		adds	r1, r3, #0
 2505 0016 101C     		adds	r0, r2, #0
 2506 0018 FFF7FEFF 		bl	__aeabi_fmul
 2507 001c 031C     		adds	r3, r0, #0
 2508 001e 1C1C     		adds	r4, r3, #0
 2509 0020 7B68     		ldr	r3, [r7, #4]
 2510 0022 5A68     		ldr	r2, [r3, #4]
 2511 0024 7B68     		ldr	r3, [r7, #4]
 2512 0026 5B68     		ldr	r3, [r3, #4]
 2513 0028 191C     		adds	r1, r3, #0
 2514 002a 101C     		adds	r0, r2, #0
 2515 002c FFF7FEFF 		bl	__aeabi_fmul
 2516 0030 031C     		adds	r3, r0, #0
 2517 0032 191C     		adds	r1, r3, #0
 2518 0034 201C     		adds	r0, r4, #0
 2519 0036 FFF7FEFF 		bl	__aeabi_fadd
 2520 003a 031C     		adds	r3, r0, #0
 2521 003c FB61     		str	r3, [r7, #28]
 667:ad5940.c      ****   res.Real = a->Real*b->Real + a->Image*b->Image;
 2522              		.loc 1 667 0
 2523 003e BB68     		ldr	r3, [r7, #8]
 2524 0040 1A68     		ldr	r2, [r3]
 2525 0042 7B68     		ldr	r3, [r7, #4]
 2526 0044 1B68     		ldr	r3, [r3]
 2527 0046 191C     		adds	r1, r3, #0
 2528 0048 101C     		adds	r0, r2, #0
 2529 004a FFF7FEFF 		bl	__aeabi_fmul
 2530 004e 031C     		adds	r3, r0, #0
 2531 0050 1C1C     		adds	r4, r3, #0
 2532 0052 BB68     		ldr	r3, [r7, #8]
 2533 0054 5A68     		ldr	r2, [r3, #4]
 2534 0056 7B68     		ldr	r3, [r7, #4]
 2535 0058 5B68     		ldr	r3, [r3, #4]
 2536 005a 191C     		adds	r1, r3, #0
 2537 005c 101C     		adds	r0, r2, #0
 2538 005e FFF7FEFF 		bl	__aeabi_fmul
 2539 0062 031C     		adds	r3, r0, #0
 2540 0064 191C     		adds	r1, r3, #0
 2541 0066 201C     		adds	r0, r4, #0
 2542 0068 FFF7FEFF 		bl	__aeabi_fadd
ARM GAS  C:\Users\13740\AppData\Local\Temp\ccPV2Gz9.s 			page 58


 2543 006c 031C     		adds	r3, r0, #0
 2544 006e 1A1C     		adds	r2, r3, #0
 2545 0070 1423     		movs	r3, #20
 2546 0072 FB18     		adds	r3, r7, r3
 2547 0074 1A60     		str	r2, [r3]
 668:ad5940.c      ****   res.Real /= temp;
 2548              		.loc 1 668 0
 2549 0076 1423     		movs	r3, #20
 2550 0078 FB18     		adds	r3, r7, r3
 2551 007a 1B68     		ldr	r3, [r3]
 2552 007c F969     		ldr	r1, [r7, #28]
 2553 007e 181C     		adds	r0, r3, #0
 2554 0080 FFF7FEFF 		bl	__aeabi_fdiv
 2555 0084 031C     		adds	r3, r0, #0
 2556 0086 1A1C     		adds	r2, r3, #0
 2557 0088 1423     		movs	r3, #20
 2558 008a FB18     		adds	r3, r7, r3
 2559 008c 1A60     		str	r2, [r3]
 669:ad5940.c      ****   res.Image = a->Image*b->Real - a->Real*b->Image;
 2560              		.loc 1 669 0
 2561 008e BB68     		ldr	r3, [r7, #8]
 2562 0090 5A68     		ldr	r2, [r3, #4]
 2563 0092 7B68     		ldr	r3, [r7, #4]
 2564 0094 1B68     		ldr	r3, [r3]
 2565 0096 191C     		adds	r1, r3, #0
 2566 0098 101C     		adds	r0, r2, #0
 2567 009a FFF7FEFF 		bl	__aeabi_fmul
 2568 009e 031C     		adds	r3, r0, #0
 2569 00a0 1C1C     		adds	r4, r3, #0
 2570 00a2 BB68     		ldr	r3, [r7, #8]
 2571 00a4 1A68     		ldr	r2, [r3]
 2572 00a6 7B68     		ldr	r3, [r7, #4]
 2573 00a8 5B68     		ldr	r3, [r3, #4]
 2574 00aa 191C     		adds	r1, r3, #0
 2575 00ac 101C     		adds	r0, r2, #0
 2576 00ae FFF7FEFF 		bl	__aeabi_fmul
 2577 00b2 031C     		adds	r3, r0, #0
 2578 00b4 191C     		adds	r1, r3, #0
 2579 00b6 201C     		adds	r0, r4, #0
 2580 00b8 FFF7FEFF 		bl	__aeabi_fsub
 2581 00bc 031C     		adds	r3, r0, #0
 2582 00be 1A1C     		adds	r2, r3, #0
 2583 00c0 1423     		movs	r3, #20
 2584 00c2 FB18     		adds	r3, r7, r3
 2585 00c4 5A60     		str	r2, [r3, #4]
 670:ad5940.c      ****   res.Image /= temp;
 2586              		.loc 1 670 0
 2587 00c6 1423     		movs	r3, #20
 2588 00c8 FB18     		adds	r3, r7, r3
 2589 00ca 5B68     		ldr	r3, [r3, #4]
 2590 00cc F969     		ldr	r1, [r7, #28]
 2591 00ce 181C     		adds	r0, r3, #0
 2592 00d0 FFF7FEFF 		bl	__aeabi_fdiv
 2593 00d4 031C     		adds	r3, r0, #0
 2594 00d6 1A1C     		adds	r2, r3, #0
 2595 00d8 1423     		movs	r3, #20
 2596 00da FB18     		adds	r3, r7, r3
ARM GAS  C:\Users\13740\AppData\Local\Temp\ccPV2Gz9.s 			page 59


 2597 00dc 5A60     		str	r2, [r3, #4]
 671:ad5940.c      ****   return res;
 2598              		.loc 1 671 0
 2599 00de FB68     		ldr	r3, [r7, #12]
 2600 00e0 1422     		movs	r2, #20
 2601 00e2 BA18     		adds	r2, r7, r2
 2602 00e4 03CA     		ldmia	r2!, {r0, r1}
 2603 00e6 03C3     		stmia	r3!, {r0, r1}
 672:ad5940.c      **** }
 2604              		.loc 1 672 0
 2605 00e8 F868     		ldr	r0, [r7, #12]
 2606 00ea BD46     		mov	sp, r7
 2607 00ec 09B0     		add	sp, sp, #36
 2608              		@ sp needed
 2609 00ee 90BD     		pop	{r4, r7, pc}
 2610              		.cfi_endproc
 2611              	.LFE18:
 2612              		.size	AD5940_ComplexDivFloat, .-AD5940_ComplexDivFloat
 2613              		.section	.text.AD5940_ComplexMulFloat,"ax",%progbits
 2614              		.align	2
 2615              		.global	AD5940_ComplexMulFloat
 2616              		.code	16
 2617              		.thumb_func
 2618              		.type	AD5940_ComplexMulFloat, %function
 2619              	AD5940_ComplexMulFloat:
 2620              	.LFB19:
 673:ad5940.c      **** 
 674:ad5940.c      **** /**
 675:ad5940.c      ****  * @brief Do complex number multiplication.
 676:ad5940.c      ****  * @param a: The multiplicand.
 677:ad5940.c      ****  * @param b: The multiplier .
 678:ad5940.c      ****  * @return Return result.
 679:ad5940.c      **** **/
 680:ad5940.c      **** fImpCar_Type AD5940_ComplexMulFloat(fImpCar_Type *a, fImpCar_Type *b)
 681:ad5940.c      **** {
 2621              		.loc 1 681 0
 2622              		.cfi_startproc
 2623              		@ args = 0, pretend = 0, frame = 24
 2624              		@ frame_needed = 1, uses_anonymous_args = 0
 2625 0000 90B5     		push	{r4, r7, lr}
 2626              		.cfi_def_cfa_offset 12
 2627              		.cfi_offset 4, -12
 2628              		.cfi_offset 7, -8
 2629              		.cfi_offset 14, -4
 2630 0002 87B0     		sub	sp, sp, #28
 2631              		.cfi_def_cfa_offset 40
 2632 0004 00AF     		add	r7, sp, #0
 2633              		.cfi_def_cfa_register 7
 2634 0006 F860     		str	r0, [r7, #12]
 2635 0008 B960     		str	r1, [r7, #8]
 2636 000a 7A60     		str	r2, [r7, #4]
 682:ad5940.c      ****   fImpCar_Type res;
 683:ad5940.c      ****   
 684:ad5940.c      ****   res.Real = a->Real*b->Real - a->Image*b->Image;
 2637              		.loc 1 684 0
 2638 000c BB68     		ldr	r3, [r7, #8]
 2639 000e 1A68     		ldr	r2, [r3]
ARM GAS  C:\Users\13740\AppData\Local\Temp\ccPV2Gz9.s 			page 60


 2640 0010 7B68     		ldr	r3, [r7, #4]
 2641 0012 1B68     		ldr	r3, [r3]
 2642 0014 191C     		adds	r1, r3, #0
 2643 0016 101C     		adds	r0, r2, #0
 2644 0018 FFF7FEFF 		bl	__aeabi_fmul
 2645 001c 031C     		adds	r3, r0, #0
 2646 001e 1C1C     		adds	r4, r3, #0
 2647 0020 BB68     		ldr	r3, [r7, #8]
 2648 0022 5A68     		ldr	r2, [r3, #4]
 2649 0024 7B68     		ldr	r3, [r7, #4]
 2650 0026 5B68     		ldr	r3, [r3, #4]
 2651 0028 191C     		adds	r1, r3, #0
 2652 002a 101C     		adds	r0, r2, #0
 2653 002c FFF7FEFF 		bl	__aeabi_fmul
 2654 0030 031C     		adds	r3, r0, #0
 2655 0032 191C     		adds	r1, r3, #0
 2656 0034 201C     		adds	r0, r4, #0
 2657 0036 FFF7FEFF 		bl	__aeabi_fsub
 2658 003a 031C     		adds	r3, r0, #0
 2659 003c 1A1C     		adds	r2, r3, #0
 2660 003e 1023     		movs	r3, #16
 2661 0040 FB18     		adds	r3, r7, r3
 2662 0042 1A60     		str	r2, [r3]
 685:ad5940.c      ****   res.Image = a->Image*b->Real + a->Real*b->Image;
 2663              		.loc 1 685 0
 2664 0044 BB68     		ldr	r3, [r7, #8]
 2665 0046 5A68     		ldr	r2, [r3, #4]
 2666 0048 7B68     		ldr	r3, [r7, #4]
 2667 004a 1B68     		ldr	r3, [r3]
 2668 004c 191C     		adds	r1, r3, #0
 2669 004e 101C     		adds	r0, r2, #0
 2670 0050 FFF7FEFF 		bl	__aeabi_fmul
 2671 0054 031C     		adds	r3, r0, #0
 2672 0056 1C1C     		adds	r4, r3, #0
 2673 0058 BB68     		ldr	r3, [r7, #8]
 2674 005a 1A68     		ldr	r2, [r3]
 2675 005c 7B68     		ldr	r3, [r7, #4]
 2676 005e 5B68     		ldr	r3, [r3, #4]
 2677 0060 191C     		adds	r1, r3, #0
 2678 0062 101C     		adds	r0, r2, #0
 2679 0064 FFF7FEFF 		bl	__aeabi_fmul
 2680 0068 031C     		adds	r3, r0, #0
 2681 006a 191C     		adds	r1, r3, #0
 2682 006c 201C     		adds	r0, r4, #0
 2683 006e FFF7FEFF 		bl	__aeabi_fadd
 2684 0072 031C     		adds	r3, r0, #0
 2685 0074 1A1C     		adds	r2, r3, #0
 2686 0076 1023     		movs	r3, #16
 2687 0078 FB18     		adds	r3, r7, r3
 2688 007a 5A60     		str	r2, [r3, #4]
 686:ad5940.c      **** 
 687:ad5940.c      ****   return res;
 2689              		.loc 1 687 0
 2690 007c FB68     		ldr	r3, [r7, #12]
 2691 007e 1022     		movs	r2, #16
 2692 0080 BA18     		adds	r2, r7, r2
 2693 0082 03CA     		ldmia	r2!, {r0, r1}
ARM GAS  C:\Users\13740\AppData\Local\Temp\ccPV2Gz9.s 			page 61


 2694 0084 03C3     		stmia	r3!, {r0, r1}
 688:ad5940.c      **** }
 2695              		.loc 1 688 0
 2696 0086 F868     		ldr	r0, [r7, #12]
 2697 0088 BD46     		mov	sp, r7
 2698 008a 07B0     		add	sp, sp, #28
 2699              		@ sp needed
 2700 008c 90BD     		pop	{r4, r7, pc}
 2701              		.cfi_endproc
 2702              	.LFE19:
 2703              		.size	AD5940_ComplexMulFloat, .-AD5940_ComplexMulFloat
 2704 008e C046     		.section	.text.AD5940_ComplexAddFloat,"ax",%progbits
 2705              		.align	2
 2706              		.global	AD5940_ComplexAddFloat
 2707              		.code	16
 2708              		.thumb_func
 2709              		.type	AD5940_ComplexAddFloat, %function
 2710              	AD5940_ComplexAddFloat:
 2711              	.LFB20:
 689:ad5940.c      **** /**
 690:ad5940.c      ****  * @brief Do complex number addition.
 691:ad5940.c      ****  * @param a: The addend.
 692:ad5940.c      ****  * @param b: The addend .
 693:ad5940.c      ****  * @return Return result.
 694:ad5940.c      **** **/
 695:ad5940.c      **** fImpCar_Type AD5940_ComplexAddFloat(fImpCar_Type *a, fImpCar_Type *b)
 696:ad5940.c      **** {
 2712              		.loc 1 696 0
 2713              		.cfi_startproc
 2714              		@ args = 0, pretend = 0, frame = 24
 2715              		@ frame_needed = 1, uses_anonymous_args = 0
 2716 0000 80B5     		push	{r7, lr}
 2717              		.cfi_def_cfa_offset 8
 2718              		.cfi_offset 7, -8
 2719              		.cfi_offset 14, -4
 2720 0002 86B0     		sub	sp, sp, #24
 2721              		.cfi_def_cfa_offset 32
 2722 0004 00AF     		add	r7, sp, #0
 2723              		.cfi_def_cfa_register 7
 2724 0006 F860     		str	r0, [r7, #12]
 2725 0008 B960     		str	r1, [r7, #8]
 2726 000a 7A60     		str	r2, [r7, #4]
 697:ad5940.c      ****   fImpCar_Type res;
 698:ad5940.c      ****   
 699:ad5940.c      ****   res.Real = a->Real + b->Real;
 2727              		.loc 1 699 0
 2728 000c BB68     		ldr	r3, [r7, #8]
 2729 000e 1A68     		ldr	r2, [r3]
 2730 0010 7B68     		ldr	r3, [r7, #4]
 2731 0012 1B68     		ldr	r3, [r3]
 2732 0014 191C     		adds	r1, r3, #0
 2733 0016 101C     		adds	r0, r2, #0
 2734 0018 FFF7FEFF 		bl	__aeabi_fadd
 2735 001c 031C     		adds	r3, r0, #0
 2736 001e 1A1C     		adds	r2, r3, #0
 2737 0020 1023     		movs	r3, #16
 2738 0022 FB18     		adds	r3, r7, r3
ARM GAS  C:\Users\13740\AppData\Local\Temp\ccPV2Gz9.s 			page 62


 2739 0024 1A60     		str	r2, [r3]
 700:ad5940.c      ****   res.Image = a->Image + b->Image;
 2740              		.loc 1 700 0
 2741 0026 BB68     		ldr	r3, [r7, #8]
 2742 0028 5A68     		ldr	r2, [r3, #4]
 2743 002a 7B68     		ldr	r3, [r7, #4]
 2744 002c 5B68     		ldr	r3, [r3, #4]
 2745 002e 191C     		adds	r1, r3, #0
 2746 0030 101C     		adds	r0, r2, #0
 2747 0032 FFF7FEFF 		bl	__aeabi_fadd
 2748 0036 031C     		adds	r3, r0, #0
 2749 0038 1A1C     		adds	r2, r3, #0
 2750 003a 1023     		movs	r3, #16
 2751 003c FB18     		adds	r3, r7, r3
 2752 003e 5A60     		str	r2, [r3, #4]
 701:ad5940.c      **** 
 702:ad5940.c      ****   return res;
 2753              		.loc 1 702 0
 2754 0040 FB68     		ldr	r3, [r7, #12]
 2755 0042 1022     		movs	r2, #16
 2756 0044 BA18     		adds	r2, r7, r2
 2757 0046 03CA     		ldmia	r2!, {r0, r1}
 2758 0048 03C3     		stmia	r3!, {r0, r1}
 703:ad5940.c      **** }
 2759              		.loc 1 703 0
 2760 004a F868     		ldr	r0, [r7, #12]
 2761 004c BD46     		mov	sp, r7
 2762 004e 06B0     		add	sp, sp, #24
 2763              		@ sp needed
 2764 0050 80BD     		pop	{r7, pc}
 2765              		.cfi_endproc
 2766              	.LFE20:
 2767              		.size	AD5940_ComplexAddFloat, .-AD5940_ComplexAddFloat
 2768 0052 C046     		.section	.text.AD5940_ComplexSubFloat,"ax",%progbits
 2769              		.align	2
 2770              		.global	AD5940_ComplexSubFloat
 2771              		.code	16
 2772              		.thumb_func
 2773              		.type	AD5940_ComplexSubFloat, %function
 2774              	AD5940_ComplexSubFloat:
 2775              	.LFB21:
 704:ad5940.c      **** 
 705:ad5940.c      **** /**
 706:ad5940.c      ****  * @brief Do complex number subtraction.
 707:ad5940.c      ****  * @param a: The minuend.
 708:ad5940.c      ****  * @param b: The subtrahend .
 709:ad5940.c      ****  * @return Return result.
 710:ad5940.c      **** **/
 711:ad5940.c      **** fImpCar_Type AD5940_ComplexSubFloat(fImpCar_Type *a, fImpCar_Type *b)
 712:ad5940.c      **** {
 2776              		.loc 1 712 0
 2777              		.cfi_startproc
 2778              		@ args = 0, pretend = 0, frame = 24
 2779              		@ frame_needed = 1, uses_anonymous_args = 0
 2780 0000 80B5     		push	{r7, lr}
 2781              		.cfi_def_cfa_offset 8
 2782              		.cfi_offset 7, -8
ARM GAS  C:\Users\13740\AppData\Local\Temp\ccPV2Gz9.s 			page 63


 2783              		.cfi_offset 14, -4
 2784 0002 86B0     		sub	sp, sp, #24
 2785              		.cfi_def_cfa_offset 32
 2786 0004 00AF     		add	r7, sp, #0
 2787              		.cfi_def_cfa_register 7
 2788 0006 F860     		str	r0, [r7, #12]
 2789 0008 B960     		str	r1, [r7, #8]
 2790 000a 7A60     		str	r2, [r7, #4]
 713:ad5940.c      ****   fImpCar_Type res;
 714:ad5940.c      ****   
 715:ad5940.c      ****   res.Real = a->Real - b->Real;
 2791              		.loc 1 715 0
 2792 000c BB68     		ldr	r3, [r7, #8]
 2793 000e 1A68     		ldr	r2, [r3]
 2794 0010 7B68     		ldr	r3, [r7, #4]
 2795 0012 1B68     		ldr	r3, [r3]
 2796 0014 191C     		adds	r1, r3, #0
 2797 0016 101C     		adds	r0, r2, #0
 2798 0018 FFF7FEFF 		bl	__aeabi_fsub
 2799 001c 031C     		adds	r3, r0, #0
 2800 001e 1A1C     		adds	r2, r3, #0
 2801 0020 1023     		movs	r3, #16
 2802 0022 FB18     		adds	r3, r7, r3
 2803 0024 1A60     		str	r2, [r3]
 716:ad5940.c      ****   res.Image = a->Image - b->Image;
 2804              		.loc 1 716 0
 2805 0026 BB68     		ldr	r3, [r7, #8]
 2806 0028 5A68     		ldr	r2, [r3, #4]
 2807 002a 7B68     		ldr	r3, [r7, #4]
 2808 002c 5B68     		ldr	r3, [r3, #4]
 2809 002e 191C     		adds	r1, r3, #0
 2810 0030 101C     		adds	r0, r2, #0
 2811 0032 FFF7FEFF 		bl	__aeabi_fsub
 2812 0036 031C     		adds	r3, r0, #0
 2813 0038 1A1C     		adds	r2, r3, #0
 2814 003a 1023     		movs	r3, #16
 2815 003c FB18     		adds	r3, r7, r3
 2816 003e 5A60     		str	r2, [r3, #4]
 717:ad5940.c      **** 
 718:ad5940.c      ****   return res;
 2817              		.loc 1 718 0
 2818 0040 FB68     		ldr	r3, [r7, #12]
 2819 0042 1022     		movs	r2, #16
 2820 0044 BA18     		adds	r2, r7, r2
 2821 0046 03CA     		ldmia	r2!, {r0, r1}
 2822 0048 03C3     		stmia	r3!, {r0, r1}
 719:ad5940.c      **** }
 2823              		.loc 1 719 0
 2824 004a F868     		ldr	r0, [r7, #12]
 2825 004c BD46     		mov	sp, r7
 2826 004e 06B0     		add	sp, sp, #24
 2827              		@ sp needed
 2828 0050 80BD     		pop	{r7, pc}
 2829              		.cfi_endproc
 2830              	.LFE21:
 2831              		.size	AD5940_ComplexSubFloat, .-AD5940_ComplexSubFloat
 2832 0052 C046     		.section	.text.AD5940_ComplexDivInt,"ax",%progbits
ARM GAS  C:\Users\13740\AppData\Local\Temp\ccPV2Gz9.s 			page 64


 2833              		.align	2
 2834              		.global	AD5940_ComplexDivInt
 2835              		.code	16
 2836              		.thumb_func
 2837              		.type	AD5940_ComplexDivInt, %function
 2838              	AD5940_ComplexDivInt:
 2839              	.LFB22:
 720:ad5940.c      **** 
 721:ad5940.c      **** /**
 722:ad5940.c      ****  * @brief Do complex number division.
 723:ad5940.c      ****  * @param a: The dividend.
 724:ad5940.c      ****  * @param b: The divisor.
 725:ad5940.c      ****  * @return Return result.
 726:ad5940.c      **** **/
 727:ad5940.c      **** fImpCar_Type AD5940_ComplexDivInt(iImpCar_Type *a, iImpCar_Type *b)
 728:ad5940.c      **** {
 2840              		.loc 1 728 0
 2841              		.cfi_startproc
 2842              		@ args = 0, pretend = 0, frame = 32
 2843              		@ frame_needed = 1, uses_anonymous_args = 0
 2844 0000 B0B5     		push	{r4, r5, r7, lr}
 2845              		.cfi_def_cfa_offset 16
 2846              		.cfi_offset 4, -16
 2847              		.cfi_offset 5, -12
 2848              		.cfi_offset 7, -8
 2849              		.cfi_offset 14, -4
 2850 0002 88B0     		sub	sp, sp, #32
 2851              		.cfi_def_cfa_offset 48
 2852 0004 00AF     		add	r7, sp, #0
 2853              		.cfi_def_cfa_register 7
 2854 0006 F860     		str	r0, [r7, #12]
 2855 0008 B960     		str	r1, [r7, #8]
 2856 000a 7A60     		str	r2, [r7, #4]
 729:ad5940.c      ****   fImpCar_Type res;
 730:ad5940.c      ****   float temp;
 731:ad5940.c      ****   temp = (float)b->Real*b->Real + (float)b->Image*b->Image;
 2857              		.loc 1 731 0
 2858 000c 7B68     		ldr	r3, [r7, #4]
 2859 000e 1B68     		ldr	r3, [r3]
 2860 0010 1800     		movs	r0, r3
 2861 0012 FFF7FEFF 		bl	__aeabi_i2f
 2862 0016 041C     		adds	r4, r0, #0
 2863 0018 7B68     		ldr	r3, [r7, #4]
 2864 001a 1B68     		ldr	r3, [r3]
 2865 001c 1800     		movs	r0, r3
 2866 001e FFF7FEFF 		bl	__aeabi_i2f
 2867 0022 031C     		adds	r3, r0, #0
 2868 0024 191C     		adds	r1, r3, #0
 2869 0026 201C     		adds	r0, r4, #0
 2870 0028 FFF7FEFF 		bl	__aeabi_fmul
 2871 002c 031C     		adds	r3, r0, #0
 2872 002e 1C1C     		adds	r4, r3, #0
 2873 0030 7B68     		ldr	r3, [r7, #4]
 2874 0032 5B68     		ldr	r3, [r3, #4]
 2875 0034 1800     		movs	r0, r3
 2876 0036 FFF7FEFF 		bl	__aeabi_i2f
 2877 003a 051C     		adds	r5, r0, #0
ARM GAS  C:\Users\13740\AppData\Local\Temp\ccPV2Gz9.s 			page 65


 2878 003c 7B68     		ldr	r3, [r7, #4]
 2879 003e 5B68     		ldr	r3, [r3, #4]
 2880 0040 1800     		movs	r0, r3
 2881 0042 FFF7FEFF 		bl	__aeabi_i2f
 2882 0046 031C     		adds	r3, r0, #0
 2883 0048 191C     		adds	r1, r3, #0
 2884 004a 281C     		adds	r0, r5, #0
 2885 004c FFF7FEFF 		bl	__aeabi_fmul
 2886 0050 031C     		adds	r3, r0, #0
 2887 0052 191C     		adds	r1, r3, #0
 2888 0054 201C     		adds	r0, r4, #0
 2889 0056 FFF7FEFF 		bl	__aeabi_fadd
 2890 005a 031C     		adds	r3, r0, #0
 2891 005c FB61     		str	r3, [r7, #28]
 732:ad5940.c      ****   res.Real = (float)a->Real*b->Real + (float)a->Image*b->Image;
 2892              		.loc 1 732 0
 2893 005e BB68     		ldr	r3, [r7, #8]
 2894 0060 1B68     		ldr	r3, [r3]
 2895 0062 1800     		movs	r0, r3
 2896 0064 FFF7FEFF 		bl	__aeabi_i2f
 2897 0068 041C     		adds	r4, r0, #0
 2898 006a 7B68     		ldr	r3, [r7, #4]
 2899 006c 1B68     		ldr	r3, [r3]
 2900 006e 1800     		movs	r0, r3
 2901 0070 FFF7FEFF 		bl	__aeabi_i2f
 2902 0074 031C     		adds	r3, r0, #0
 2903 0076 191C     		adds	r1, r3, #0
 2904 0078 201C     		adds	r0, r4, #0
 2905 007a FFF7FEFF 		bl	__aeabi_fmul
 2906 007e 031C     		adds	r3, r0, #0
 2907 0080 1C1C     		adds	r4, r3, #0
 2908 0082 BB68     		ldr	r3, [r7, #8]
 2909 0084 5B68     		ldr	r3, [r3, #4]
 2910 0086 1800     		movs	r0, r3
 2911 0088 FFF7FEFF 		bl	__aeabi_i2f
 2912 008c 051C     		adds	r5, r0, #0
 2913 008e 7B68     		ldr	r3, [r7, #4]
 2914 0090 5B68     		ldr	r3, [r3, #4]
 2915 0092 1800     		movs	r0, r3
 2916 0094 FFF7FEFF 		bl	__aeabi_i2f
 2917 0098 031C     		adds	r3, r0, #0
 2918 009a 191C     		adds	r1, r3, #0
 2919 009c 281C     		adds	r0, r5, #0
 2920 009e FFF7FEFF 		bl	__aeabi_fmul
 2921 00a2 031C     		adds	r3, r0, #0
 2922 00a4 191C     		adds	r1, r3, #0
 2923 00a6 201C     		adds	r0, r4, #0
 2924 00a8 FFF7FEFF 		bl	__aeabi_fadd
 2925 00ac 031C     		adds	r3, r0, #0
 2926 00ae 1A1C     		adds	r2, r3, #0
 2927 00b0 1423     		movs	r3, #20
 2928 00b2 FB18     		adds	r3, r7, r3
 2929 00b4 1A60     		str	r2, [r3]
 733:ad5940.c      ****   res.Real /= temp;
 2930              		.loc 1 733 0
 2931 00b6 1423     		movs	r3, #20
 2932 00b8 FB18     		adds	r3, r7, r3
ARM GAS  C:\Users\13740\AppData\Local\Temp\ccPV2Gz9.s 			page 66


 2933 00ba 1B68     		ldr	r3, [r3]
 2934 00bc F969     		ldr	r1, [r7, #28]
 2935 00be 181C     		adds	r0, r3, #0
 2936 00c0 FFF7FEFF 		bl	__aeabi_fdiv
 2937 00c4 031C     		adds	r3, r0, #0
 2938 00c6 1A1C     		adds	r2, r3, #0
 2939 00c8 1423     		movs	r3, #20
 2940 00ca FB18     		adds	r3, r7, r3
 2941 00cc 1A60     		str	r2, [r3]
 734:ad5940.c      ****   res.Image = (float)a->Image*b->Real - (float)a->Real*b->Image;
 2942              		.loc 1 734 0
 2943 00ce BB68     		ldr	r3, [r7, #8]
 2944 00d0 5B68     		ldr	r3, [r3, #4]
 2945 00d2 1800     		movs	r0, r3
 2946 00d4 FFF7FEFF 		bl	__aeabi_i2f
 2947 00d8 041C     		adds	r4, r0, #0
 2948 00da 7B68     		ldr	r3, [r7, #4]
 2949 00dc 1B68     		ldr	r3, [r3]
 2950 00de 1800     		movs	r0, r3
 2951 00e0 FFF7FEFF 		bl	__aeabi_i2f
 2952 00e4 031C     		adds	r3, r0, #0
 2953 00e6 191C     		adds	r1, r3, #0
 2954 00e8 201C     		adds	r0, r4, #0
 2955 00ea FFF7FEFF 		bl	__aeabi_fmul
 2956 00ee 031C     		adds	r3, r0, #0
 2957 00f0 1C1C     		adds	r4, r3, #0
 2958 00f2 BB68     		ldr	r3, [r7, #8]
 2959 00f4 1B68     		ldr	r3, [r3]
 2960 00f6 1800     		movs	r0, r3
 2961 00f8 FFF7FEFF 		bl	__aeabi_i2f
 2962 00fc 051C     		adds	r5, r0, #0
 2963 00fe 7B68     		ldr	r3, [r7, #4]
 2964 0100 5B68     		ldr	r3, [r3, #4]
 2965 0102 1800     		movs	r0, r3
 2966 0104 FFF7FEFF 		bl	__aeabi_i2f
 2967 0108 031C     		adds	r3, r0, #0
 2968 010a 191C     		adds	r1, r3, #0
 2969 010c 281C     		adds	r0, r5, #0
 2970 010e FFF7FEFF 		bl	__aeabi_fmul
 2971 0112 031C     		adds	r3, r0, #0
 2972 0114 191C     		adds	r1, r3, #0
 2973 0116 201C     		adds	r0, r4, #0
 2974 0118 FFF7FEFF 		bl	__aeabi_fsub
 2975 011c 031C     		adds	r3, r0, #0
 2976 011e 1A1C     		adds	r2, r3, #0
 2977 0120 1423     		movs	r3, #20
 2978 0122 FB18     		adds	r3, r7, r3
 2979 0124 5A60     		str	r2, [r3, #4]
 735:ad5940.c      ****   res.Image /= temp;
 2980              		.loc 1 735 0
 2981 0126 1423     		movs	r3, #20
 2982 0128 FB18     		adds	r3, r7, r3
 2983 012a 5B68     		ldr	r3, [r3, #4]
 2984 012c F969     		ldr	r1, [r7, #28]
 2985 012e 181C     		adds	r0, r3, #0
 2986 0130 FFF7FEFF 		bl	__aeabi_fdiv
 2987 0134 031C     		adds	r3, r0, #0
ARM GAS  C:\Users\13740\AppData\Local\Temp\ccPV2Gz9.s 			page 67


 2988 0136 1A1C     		adds	r2, r3, #0
 2989 0138 1423     		movs	r3, #20
 2990 013a FB18     		adds	r3, r7, r3
 2991 013c 5A60     		str	r2, [r3, #4]
 736:ad5940.c      ****   return res;
 2992              		.loc 1 736 0
 2993 013e FB68     		ldr	r3, [r7, #12]
 2994 0140 1422     		movs	r2, #20
 2995 0142 BA18     		adds	r2, r7, r2
 2996 0144 03CA     		ldmia	r2!, {r0, r1}
 2997 0146 03C3     		stmia	r3!, {r0, r1}
 737:ad5940.c      **** }
 2998              		.loc 1 737 0
 2999 0148 F868     		ldr	r0, [r7, #12]
 3000 014a BD46     		mov	sp, r7
 3001 014c 08B0     		add	sp, sp, #32
 3002              		@ sp needed
 3003 014e B0BD     		pop	{r4, r5, r7, pc}
 3004              		.cfi_endproc
 3005              	.LFE22:
 3006              		.size	AD5940_ComplexDivInt, .-AD5940_ComplexDivInt
 3007              		.section	.text.AD5940_ComplexMulInt,"ax",%progbits
 3008              		.align	2
 3009              		.global	AD5940_ComplexMulInt
 3010              		.code	16
 3011              		.thumb_func
 3012              		.type	AD5940_ComplexMulInt, %function
 3013              	AD5940_ComplexMulInt:
 3014              	.LFB23:
 738:ad5940.c      **** 
 739:ad5940.c      **** /**
 740:ad5940.c      ****  * @brief Do complex number multiplication.
 741:ad5940.c      ****  * @param a: The multiplicand.
 742:ad5940.c      ****  * @param b: The multiplier .
 743:ad5940.c      ****  * @return Return result.
 744:ad5940.c      **** **/
 745:ad5940.c      **** fImpCar_Type AD5940_ComplexMulInt(iImpCar_Type *a, iImpCar_Type *b)
 746:ad5940.c      **** {
 3015              		.loc 1 746 0
 3016              		.cfi_startproc
 3017              		@ args = 0, pretend = 0, frame = 24
 3018              		@ frame_needed = 1, uses_anonymous_args = 0
 3019 0000 B0B5     		push	{r4, r5, r7, lr}
 3020              		.cfi_def_cfa_offset 16
 3021              		.cfi_offset 4, -16
 3022              		.cfi_offset 5, -12
 3023              		.cfi_offset 7, -8
 3024              		.cfi_offset 14, -4
 3025 0002 86B0     		sub	sp, sp, #24
 3026              		.cfi_def_cfa_offset 40
 3027 0004 00AF     		add	r7, sp, #0
 3028              		.cfi_def_cfa_register 7
 3029 0006 F860     		str	r0, [r7, #12]
 3030 0008 B960     		str	r1, [r7, #8]
 3031 000a 7A60     		str	r2, [r7, #4]
 747:ad5940.c      ****   fImpCar_Type res;
 748:ad5940.c      ****   
ARM GAS  C:\Users\13740\AppData\Local\Temp\ccPV2Gz9.s 			page 68


 749:ad5940.c      ****   res.Real = (float)a->Real*b->Real - (float)a->Image*b->Image;
 3032              		.loc 1 749 0
 3033 000c BB68     		ldr	r3, [r7, #8]
 3034 000e 1B68     		ldr	r3, [r3]
 3035 0010 1800     		movs	r0, r3
 3036 0012 FFF7FEFF 		bl	__aeabi_i2f
 3037 0016 041C     		adds	r4, r0, #0
 3038 0018 7B68     		ldr	r3, [r7, #4]
 3039 001a 1B68     		ldr	r3, [r3]
 3040 001c 1800     		movs	r0, r3
 3041 001e FFF7FEFF 		bl	__aeabi_i2f
 3042 0022 031C     		adds	r3, r0, #0
 3043 0024 191C     		adds	r1, r3, #0
 3044 0026 201C     		adds	r0, r4, #0
 3045 0028 FFF7FEFF 		bl	__aeabi_fmul
 3046 002c 031C     		adds	r3, r0, #0
 3047 002e 1C1C     		adds	r4, r3, #0
 3048 0030 BB68     		ldr	r3, [r7, #8]
 3049 0032 5B68     		ldr	r3, [r3, #4]
 3050 0034 1800     		movs	r0, r3
 3051 0036 FFF7FEFF 		bl	__aeabi_i2f
 3052 003a 051C     		adds	r5, r0, #0
 3053 003c 7B68     		ldr	r3, [r7, #4]
 3054 003e 5B68     		ldr	r3, [r3, #4]
 3055 0040 1800     		movs	r0, r3
 3056 0042 FFF7FEFF 		bl	__aeabi_i2f
 3057 0046 031C     		adds	r3, r0, #0
 3058 0048 191C     		adds	r1, r3, #0
 3059 004a 281C     		adds	r0, r5, #0
 3060 004c FFF7FEFF 		bl	__aeabi_fmul
 3061 0050 031C     		adds	r3, r0, #0
 3062 0052 191C     		adds	r1, r3, #0
 3063 0054 201C     		adds	r0, r4, #0
 3064 0056 FFF7FEFF 		bl	__aeabi_fsub
 3065 005a 031C     		adds	r3, r0, #0
 3066 005c 1A1C     		adds	r2, r3, #0
 3067 005e 1023     		movs	r3, #16
 3068 0060 FB18     		adds	r3, r7, r3
 3069 0062 1A60     		str	r2, [r3]
 750:ad5940.c      ****   res.Image = (float)a->Image*b->Real + (float)a->Real*b->Image;
 3070              		.loc 1 750 0
 3071 0064 BB68     		ldr	r3, [r7, #8]
 3072 0066 5B68     		ldr	r3, [r3, #4]
 3073 0068 1800     		movs	r0, r3
 3074 006a FFF7FEFF 		bl	__aeabi_i2f
 3075 006e 041C     		adds	r4, r0, #0
 3076 0070 7B68     		ldr	r3, [r7, #4]
 3077 0072 1B68     		ldr	r3, [r3]
 3078 0074 1800     		movs	r0, r3
 3079 0076 FFF7FEFF 		bl	__aeabi_i2f
 3080 007a 031C     		adds	r3, r0, #0
 3081 007c 191C     		adds	r1, r3, #0
 3082 007e 201C     		adds	r0, r4, #0
 3083 0080 FFF7FEFF 		bl	__aeabi_fmul
 3084 0084 031C     		adds	r3, r0, #0
 3085 0086 1C1C     		adds	r4, r3, #0
 3086 0088 BB68     		ldr	r3, [r7, #8]
ARM GAS  C:\Users\13740\AppData\Local\Temp\ccPV2Gz9.s 			page 69


 3087 008a 1B68     		ldr	r3, [r3]
 3088 008c 1800     		movs	r0, r3
 3089 008e FFF7FEFF 		bl	__aeabi_i2f
 3090 0092 051C     		adds	r5, r0, #0
 3091 0094 7B68     		ldr	r3, [r7, #4]
 3092 0096 5B68     		ldr	r3, [r3, #4]
 3093 0098 1800     		movs	r0, r3
 3094 009a FFF7FEFF 		bl	__aeabi_i2f
 3095 009e 031C     		adds	r3, r0, #0
 3096 00a0 191C     		adds	r1, r3, #0
 3097 00a2 281C     		adds	r0, r5, #0
 3098 00a4 FFF7FEFF 		bl	__aeabi_fmul
 3099 00a8 031C     		adds	r3, r0, #0
 3100 00aa 191C     		adds	r1, r3, #0
 3101 00ac 201C     		adds	r0, r4, #0
 3102 00ae FFF7FEFF 		bl	__aeabi_fadd
 3103 00b2 031C     		adds	r3, r0, #0
 3104 00b4 1A1C     		adds	r2, r3, #0
 3105 00b6 1023     		movs	r3, #16
 3106 00b8 FB18     		adds	r3, r7, r3
 3107 00ba 5A60     		str	r2, [r3, #4]
 751:ad5940.c      **** 
 752:ad5940.c      ****   return res;
 3108              		.loc 1 752 0
 3109 00bc FB68     		ldr	r3, [r7, #12]
 3110 00be 1022     		movs	r2, #16
 3111 00c0 BA18     		adds	r2, r7, r2
 3112 00c2 03CA     		ldmia	r2!, {r0, r1}
 3113 00c4 03C3     		stmia	r3!, {r0, r1}
 753:ad5940.c      **** }
 3114              		.loc 1 753 0
 3115 00c6 F868     		ldr	r0, [r7, #12]
 3116 00c8 BD46     		mov	sp, r7
 3117 00ca 06B0     		add	sp, sp, #24
 3118              		@ sp needed
 3119 00cc B0BD     		pop	{r4, r5, r7, pc}
 3120              		.cfi_endproc
 3121              	.LFE23:
 3122              		.size	AD5940_ComplexMulInt, .-AD5940_ComplexMulInt
 3123 00ce C046     		.section	.text.AD5940_ComplexMag,"ax",%progbits
 3124              		.align	2
 3125              		.global	AD5940_ComplexMag
 3126              		.code	16
 3127              		.thumb_func
 3128              		.type	AD5940_ComplexMag, %function
 3129              	AD5940_ComplexMag:
 3130              	.LFB24:
 754:ad5940.c      **** 
 755:ad5940.c      **** /**
 756:ad5940.c      ****  * @brief Calculate the complex number magnitude.
 757:ad5940.c      ****  * @param a: The complex number.
 758:ad5940.c      ****  * @return Return magnitude.
 759:ad5940.c      **** **/
 760:ad5940.c      **** float AD5940_ComplexMag(fImpCar_Type *a)
 761:ad5940.c      **** {
 3131              		.loc 1 761 0
 3132              		.cfi_startproc
ARM GAS  C:\Users\13740\AppData\Local\Temp\ccPV2Gz9.s 			page 70


 3133              		@ args = 0, pretend = 0, frame = 8
 3134              		@ frame_needed = 1, uses_anonymous_args = 0
 3135 0000 90B5     		push	{r4, r7, lr}
 3136              		.cfi_def_cfa_offset 12
 3137              		.cfi_offset 4, -12
 3138              		.cfi_offset 7, -8
 3139              		.cfi_offset 14, -4
 3140 0002 83B0     		sub	sp, sp, #12
 3141              		.cfi_def_cfa_offset 24
 3142 0004 00AF     		add	r7, sp, #0
 3143              		.cfi_def_cfa_register 7
 3144 0006 7860     		str	r0, [r7, #4]
 762:ad5940.c      ****   return sqrt(a->Real*a->Real + a->Image*a->Image);
 3145              		.loc 1 762 0
 3146 0008 7B68     		ldr	r3, [r7, #4]
 3147 000a 1A68     		ldr	r2, [r3]
 3148 000c 7B68     		ldr	r3, [r7, #4]
 3149 000e 1B68     		ldr	r3, [r3]
 3150 0010 191C     		adds	r1, r3, #0
 3151 0012 101C     		adds	r0, r2, #0
 3152 0014 FFF7FEFF 		bl	__aeabi_fmul
 3153 0018 031C     		adds	r3, r0, #0
 3154 001a 1C1C     		adds	r4, r3, #0
 3155 001c 7B68     		ldr	r3, [r7, #4]
 3156 001e 5A68     		ldr	r2, [r3, #4]
 3157 0020 7B68     		ldr	r3, [r7, #4]
 3158 0022 5B68     		ldr	r3, [r3, #4]
 3159 0024 191C     		adds	r1, r3, #0
 3160 0026 101C     		adds	r0, r2, #0
 3161 0028 FFF7FEFF 		bl	__aeabi_fmul
 3162 002c 031C     		adds	r3, r0, #0
 3163 002e 191C     		adds	r1, r3, #0
 3164 0030 201C     		adds	r0, r4, #0
 3165 0032 FFF7FEFF 		bl	__aeabi_fadd
 3166 0036 031C     		adds	r3, r0, #0
 3167 0038 181C     		adds	r0, r3, #0
 3168 003a FFF7FEFF 		bl	__aeabi_f2d
 3169 003e 0300     		movs	r3, r0
 3170 0040 0C00     		movs	r4, r1
 3171 0042 1800     		movs	r0, r3
 3172 0044 2100     		movs	r1, r4
 3173 0046 FFF7FEFF 		bl	sqrt
 3174 004a 0300     		movs	r3, r0
 3175 004c 0C00     		movs	r4, r1
 3176 004e 1800     		movs	r0, r3
 3177 0050 2100     		movs	r1, r4
 3178 0052 FFF7FEFF 		bl	__aeabi_d2f
 3179 0056 031C     		adds	r3, r0, #0
 763:ad5940.c      **** }
 3180              		.loc 1 763 0
 3181 0058 181C     		adds	r0, r3, #0
 3182 005a BD46     		mov	sp, r7
 3183 005c 03B0     		add	sp, sp, #12
 3184              		@ sp needed
 3185 005e 90BD     		pop	{r4, r7, pc}
 3186              		.cfi_endproc
 3187              	.LFE24:
ARM GAS  C:\Users\13740\AppData\Local\Temp\ccPV2Gz9.s 			page 71


 3188              		.size	AD5940_ComplexMag, .-AD5940_ComplexMag
 3189              		.section	.text.AD5940_ComplexPhase,"ax",%progbits
 3190              		.align	2
 3191              		.global	AD5940_ComplexPhase
 3192              		.code	16
 3193              		.thumb_func
 3194              		.type	AD5940_ComplexPhase, %function
 3195              	AD5940_ComplexPhase:
 3196              	.LFB25:
 764:ad5940.c      **** 
 765:ad5940.c      **** /**
 766:ad5940.c      ****  * @brief Calculate the complex number phase.
 767:ad5940.c      ****  * @param a: The complex number.
 768:ad5940.c      ****  * @return Return phase.
 769:ad5940.c      **** **/
 770:ad5940.c      **** float AD5940_ComplexPhase(fImpCar_Type *a)
 771:ad5940.c      **** {
 3197              		.loc 1 771 0
 3198              		.cfi_startproc
 3199              		@ args = 0, pretend = 0, frame = 8
 3200              		@ frame_needed = 1, uses_anonymous_args = 0
 3201 0000 B0B5     		push	{r4, r5, r7, lr}
 3202              		.cfi_def_cfa_offset 16
 3203              		.cfi_offset 4, -16
 3204              		.cfi_offset 5, -12
 3205              		.cfi_offset 7, -8
 3206              		.cfi_offset 14, -4
 3207 0002 82B0     		sub	sp, sp, #8
 3208              		.cfi_def_cfa_offset 24
 3209 0004 00AF     		add	r7, sp, #0
 3210              		.cfi_def_cfa_register 7
 3211 0006 7860     		str	r0, [r7, #4]
 772:ad5940.c      ****   return atan2(a->Image, a->Real);
 3212              		.loc 1 772 0
 3213 0008 7B68     		ldr	r3, [r7, #4]
 3214 000a 5B68     		ldr	r3, [r3, #4]
 3215 000c 181C     		adds	r0, r3, #0
 3216 000e FFF7FEFF 		bl	__aeabi_f2d
 3217 0012 0400     		movs	r4, r0
 3218 0014 0D00     		movs	r5, r1
 3219 0016 7B68     		ldr	r3, [r7, #4]
 3220 0018 1B68     		ldr	r3, [r3]
 3221 001a 181C     		adds	r0, r3, #0
 3222 001c FFF7FEFF 		bl	__aeabi_f2d
 3223 0020 0200     		movs	r2, r0
 3224 0022 0B00     		movs	r3, r1
 3225 0024 2000     		movs	r0, r4
 3226 0026 2900     		movs	r1, r5
 3227 0028 FFF7FEFF 		bl	atan2
 3228 002c 0300     		movs	r3, r0
 3229 002e 0C00     		movs	r4, r1
 3230 0030 1800     		movs	r0, r3
 3231 0032 2100     		movs	r1, r4
 3232 0034 FFF7FEFF 		bl	__aeabi_d2f
 3233 0038 031C     		adds	r3, r0, #0
 773:ad5940.c      **** }
 3234              		.loc 1 773 0
ARM GAS  C:\Users\13740\AppData\Local\Temp\ccPV2Gz9.s 			page 72


 3235 003a 181C     		adds	r0, r3, #0
 3236 003c BD46     		mov	sp, r7
 3237 003e 02B0     		add	sp, sp, #8
 3238              		@ sp needed
 3239 0040 B0BD     		pop	{r4, r5, r7, pc}
 3240              		.cfi_endproc
 3241              	.LFE25:
 3242              		.size	AD5940_ComplexPhase, .-AD5940_ComplexPhase
 3243              		.global	__aeabi_fcmpge
 3244              		.global	__aeabi_dcmplt
 3245 0042 C046     		.section	.rodata
 3246              		.align	2
 3247              	.LC14:
 3248 00b4 04000000 		.word	4
 3249 00b8 08000000 		.word	8
 3250 00bc 10000000 		.word	16
 3251 00c0 20000000 		.word	32
 3252 00c4 40000000 		.word	64
 3253 00c8 80000000 		.word	128
 3254 00cc 00010000 		.word	256
 3255 00d0 00020000 		.word	512
 3256 00d4 00040000 		.word	1024
 3257 00d8 00080000 		.word	2048
 3258 00dc 00100000 		.word	4096
 3259 00e0 00200000 		.word	8192
 3260 00e4 00400000 		.word	16384
 3261              		.align	2
 3262              	.LC15:
 3263 00e8 01000000 		.word	1
 3264 00ec 16000000 		.word	22
 3265 00f0 2C000000 		.word	44
 3266 00f4 59000000 		.word	89
 3267 00f8 B2000000 		.word	178
 3268 00fc 0B010000 		.word	267
 3269 0100 15020000 		.word	533
 3270 0104 80020000 		.word	640
 3271 0108 9B020000 		.word	667
 3272 010c 20030000 		.word	800
 3273 0110 79030000 		.word	889
 3274 0114 2B040000 		.word	1067
 3275 0118 35050000 		.word	1333
 3276              		.section	.text.AD5940_GetFreqParameters,"ax",%progbits
 3277              		.align	2
 3278              		.global	AD5940_GetFreqParameters
 3279              		.code	16
 3280              		.thumb_func
 3281              		.type	AD5940_GetFreqParameters, %function
 3282              	AD5940_GetFreqParameters:
 3283              	.LFB26:
 774:ad5940.c      **** 
 775:ad5940.c      **** /**
 776:ad5940.c      ****  * @brief Calculate the optimum filter settings based on signal frequency.
 777:ad5940.c      ****  * @param freq: Frequency of signalr.
 778:ad5940.c      ****  * @return Return FreqParams.
 779:ad5940.c      **** **/
 780:ad5940.c      **** FreqParams_Type AD5940_GetFreqParameters(float freq)
 781:ad5940.c      **** {
ARM GAS  C:\Users\13740\AppData\Local\Temp\ccPV2Gz9.s 			page 73


 3284              		.loc 1 781 0
 3285              		.cfi_startproc
 3286              		@ args = 0, pretend = 0, frame = 160
 3287              		@ frame_needed = 1, uses_anonymous_args = 0
 3288 0000 90B5     		push	{r4, r7, lr}
 3289              		.cfi_def_cfa_offset 12
 3290              		.cfi_offset 4, -12
 3291              		.cfi_offset 7, -8
 3292              		.cfi_offset 14, -4
 3293 0002 A9B0     		sub	sp, sp, #164
 3294              		.cfi_def_cfa_offset 176
 3295 0004 00AF     		add	r7, sp, #0
 3296              		.cfi_def_cfa_register 7
 3297 0006 7860     		str	r0, [r7, #4]
 3298 0008 3960     		str	r1, [r7]
 782:ad5940.c      **** 	const uint32_t dft_table[] = {4, 8, 16, 32, 64, 128, 256, 512, 1024, 2048, 4096, 8192, 16384};
 3299              		.loc 1 782 0
 3300 000a 5423     		movs	r3, #84
 3301 000c FA18     		adds	r2, r7, r3
 3302 000e 9A4B     		ldr	r3, .L201
 3303 0010 1000     		movs	r0, r2
 3304 0012 1900     		movs	r1, r3
 3305 0014 3423     		movs	r3, #52
 3306 0016 1A00     		movs	r2, r3
 3307 0018 FFF7FEFF 		bl	memcpy
 783:ad5940.c      **** 	const uint32_t sinc2osr_table[] = {1, 22,44,89,178,267,533,640,667,800,889,1067,1333};
 3308              		.loc 1 783 0
 3309 001c 2023     		movs	r3, #32
 3310 001e FA18     		adds	r2, r7, r3
 3311 0020 964B     		ldr	r3, .L201+4
 3312 0022 1000     		movs	r0, r2
 3313 0024 1900     		movs	r1, r3
 3314 0026 3423     		movs	r3, #52
 3315 0028 1A00     		movs	r2, r3
 3316 002a FFF7FEFF 		bl	memcpy
 784:ad5940.c      ****   const uint32_t sinc3osr_table[] = {2, 4, 5};
 785:ad5940.c      **** 	float AdcRate = 800000;
 3317              		.loc 1 785 0
 3318 002e 944B     		ldr	r3, .L201+8
 3319 0030 9422     		movs	r2, #148
 3320 0032 BA18     		adds	r2, r7, r2
 3321 0034 1360     		str	r3, [r2]
 786:ad5940.c      **** 	uint32_t n1 = 0;	// Sample rate after ADC filters
 3322              		.loc 1 786 0
 3323 0036 0023     		movs	r3, #0
 3324 0038 9022     		movs	r2, #144
 3325 003a BA18     		adds	r2, r7, r2
 3326 003c 1360     		str	r3, [r2]
 787:ad5940.c      **** 	uint32_t n2 = 0; // Sample rate after DFT block
 3327              		.loc 1 787 0
 3328 003e 0023     		movs	r3, #0
 3329 0040 8C22     		movs	r2, #140
 3330 0042 BA18     		adds	r2, r7, r2
 3331 0044 1360     		str	r3, [r2]
 788:ad5940.c      **** 	uint32_t iCycle = 0;
 3332              		.loc 1 788 0
 3333 0046 0023     		movs	r3, #0
ARM GAS  C:\Users\13740\AppData\Local\Temp\ccPV2Gz9.s 			page 74


 3334 0048 8822     		movs	r2, #136
 3335 004a BA18     		adds	r2, r7, r2
 3336 004c 1360     		str	r3, [r2]
 789:ad5940.c      **** 	FreqParams_Type freq_params;
 790:ad5940.c      **** 	/* High power mode */
 791:ad5940.c      **** 	if(freq >= 20000)
 3337              		.loc 1 791 0
 3338 004e 8D49     		ldr	r1, .L201+12
 3339 0050 3868     		ldr	r0, [r7]
 3340 0052 FFF7FEFF 		bl	__aeabi_fcmpge
 3341 0056 031E     		subs	r3, r0, #0
 3342 0058 1FD0     		beq	.L198
 792:ad5940.c      **** 	{
 793:ad5940.c      **** 		freq_params. DftSrc = DFTSRC_SINC3;
 3343              		.loc 1 793 0
 3344 005a 0823     		movs	r3, #8
 3345 005c FB18     		adds	r3, r7, r3
 3346 005e 0122     		movs	r2, #1
 3347 0060 9A60     		str	r2, [r3, #8]
 794:ad5940.c      **** 		freq_params.ADCSinc2Osr = 0;
 3348              		.loc 1 794 0
 3349 0062 0823     		movs	r3, #8
 3350 0064 FB18     		adds	r3, r7, r3
 3351 0066 0022     		movs	r2, #0
 3352 0068 1A61     		str	r2, [r3, #16]
 795:ad5940.c      **** 		freq_params.ADCSinc3Osr = 2;
 3353              		.loc 1 795 0
 3354 006a 0823     		movs	r3, #8
 3355 006c FB18     		adds	r3, r7, r3
 3356 006e 0222     		movs	r2, #2
 3357 0070 DA60     		str	r2, [r3, #12]
 796:ad5940.c      **** 		freq_params.DftNum = DFTNUM_8192;
 3358              		.loc 1 796 0
 3359 0072 0823     		movs	r3, #8
 3360 0074 FB18     		adds	r3, r7, r3
 3361 0076 0B22     		movs	r2, #11
 3362 0078 5A60     		str	r2, [r3, #4]
 797:ad5940.c      **** 		freq_params.NumClks = 0;
 3363              		.loc 1 797 0
 3364 007a 0823     		movs	r3, #8
 3365 007c FB18     		adds	r3, r7, r3
 3366 007e 0022     		movs	r2, #0
 3367 0080 5A61     		str	r2, [r3, #20]
 798:ad5940.c      **** 		freq_params.HighPwrMode = bTRUE;
 3368              		.loc 1 798 0
 3369 0082 0823     		movs	r3, #8
 3370 0084 FB18     		adds	r3, r7, r3
 3371 0086 0122     		movs	r2, #1
 3372 0088 1A70     		strb	r2, [r3]
 799:ad5940.c      **** 		return freq_params;		
 3373              		.loc 1 799 0
 3374 008a 7B68     		ldr	r3, [r7, #4]
 3375 008c 0822     		movs	r2, #8
 3376 008e BA18     		adds	r2, r7, r2
 3377 0090 13CA     		ldmia	r2!, {r0, r1, r4}
 3378 0092 13C3     		stmia	r3!, {r0, r1, r4}
 3379 0094 13CA     		ldmia	r2!, {r0, r1, r4}
ARM GAS  C:\Users\13740\AppData\Local\Temp\ccPV2Gz9.s 			page 75


 3380 0096 13C3     		stmia	r3!, {r0, r1, r4}
 3381 0098 EAE0     		b	.L178
 3382              	.L198:
 800:ad5940.c      **** 	}
 801:ad5940.c      **** 	
 802:ad5940.c      **** 	if(freq < 0.51)
 3383              		.loc 1 802 0
 3384 009a 3868     		ldr	r0, [r7]
 3385 009c FFF7FEFF 		bl	__aeabi_f2d
 3386 00a0 794A     		ldr	r2, .L201+16
 3387 00a2 7A4B     		ldr	r3, .L201+20
 3388 00a4 FFF7FEFF 		bl	__aeabi_dcmplt
 3389 00a8 031E     		subs	r3, r0, #0
 3390 00aa 1FD0     		beq	.L199
 803:ad5940.c      **** 	{
 804:ad5940.c      **** 		freq_params. DftSrc = DFTSRC_SINC2NOTCH;
 3391              		.loc 1 804 0
 3392 00ac 0823     		movs	r3, #8
 3393 00ae FB18     		adds	r3, r7, r3
 3394 00b0 0022     		movs	r2, #0
 3395 00b2 9A60     		str	r2, [r3, #8]
 805:ad5940.c      **** 		freq_params.ADCSinc2Osr = 6;
 3396              		.loc 1 805 0
 3397 00b4 0823     		movs	r3, #8
 3398 00b6 FB18     		adds	r3, r7, r3
 3399 00b8 0622     		movs	r2, #6
 3400 00ba 1A61     		str	r2, [r3, #16]
 806:ad5940.c      **** 		freq_params.ADCSinc3Osr = 1;
 3401              		.loc 1 806 0
 3402 00bc 0823     		movs	r3, #8
 3403 00be FB18     		adds	r3, r7, r3
 3404 00c0 0122     		movs	r2, #1
 3405 00c2 DA60     		str	r2, [r3, #12]
 807:ad5940.c      **** 		freq_params.DftNum = DFTNUM_8192;
 3406              		.loc 1 807 0
 3407 00c4 0823     		movs	r3, #8
 3408 00c6 FB18     		adds	r3, r7, r3
 3409 00c8 0B22     		movs	r2, #11
 3410 00ca 5A60     		str	r2, [r3, #4]
 808:ad5940.c      **** 		freq_params.NumClks = 0;
 3411              		.loc 1 808 0
 3412 00cc 0823     		movs	r3, #8
 3413 00ce FB18     		adds	r3, r7, r3
 3414 00d0 0022     		movs	r2, #0
 3415 00d2 5A61     		str	r2, [r3, #20]
 809:ad5940.c      **** 		freq_params.HighPwrMode = bTRUE;
 3416              		.loc 1 809 0
 3417 00d4 0823     		movs	r3, #8
 3418 00d6 FB18     		adds	r3, r7, r3
 3419 00d8 0122     		movs	r2, #1
 3420 00da 1A70     		strb	r2, [r3]
 810:ad5940.c      **** 		return freq_params;		
 3421              		.loc 1 810 0
 3422 00dc 7B68     		ldr	r3, [r7, #4]
 3423 00de 0822     		movs	r2, #8
 3424 00e0 BA18     		adds	r2, r7, r2
 3425 00e2 13CA     		ldmia	r2!, {r0, r1, r4}
ARM GAS  C:\Users\13740\AppData\Local\Temp\ccPV2Gz9.s 			page 76


 3426 00e4 13C3     		stmia	r3!, {r0, r1, r4}
 3427 00e6 13CA     		ldmia	r2!, {r0, r1, r4}
 3428 00e8 13C3     		stmia	r3!, {r0, r1, r4}
 3429 00ea C1E0     		b	.L178
 3430              	.L199:
 3431              	.LBB10:
 811:ad5940.c      **** 	}
 812:ad5940.c      **** 	
 813:ad5940.c      **** 	/* Start with SINC2 setting */
 814:ad5940.c      **** 	for(uint8_t i = 0; i<sizeof(sinc2osr_table) / sizeof(uint32_t); i++)
 3432              		.loc 1 814 0
 3433 00ec 9F23     		movs	r3, #159
 3434 00ee FB18     		adds	r3, r7, r3
 3435 00f0 0022     		movs	r2, #0
 3436 00f2 1A70     		strb	r2, [r3]
 3437 00f4 AFE0     		b	.L184
 3438              	.L193:
 815:ad5940.c      **** 	{
 816:ad5940.c      **** 		n1 = sinc2osr_table[i] * sinc3osr_table[1];
 3439              		.loc 1 816 0
 3440 00f6 9F23     		movs	r3, #159
 3441 00f8 FB18     		adds	r3, r7, r3
 3442 00fa 1A78     		ldrb	r2, [r3]
 3443 00fc 2023     		movs	r3, #32
 3444 00fe FB18     		adds	r3, r7, r3
 3445 0100 9200     		lsls	r2, r2, #2
 3446 0102 D258     		ldr	r2, [r2, r3]
 3447 0104 624B     		ldr	r3, .L201+24
 3448 0106 5B68     		ldr	r3, [r3, #4]
 3449 0108 5343     		muls	r3, r2
 3450 010a 9022     		movs	r2, #144
 3451 010c BA18     		adds	r2, r7, r2
 3452 010e 1360     		str	r3, [r2]
 817:ad5940.c      **** 		if(((AdcRate/n1) < freq * 10) && (freq<20e3))
 3453              		.loc 1 817 0
 3454 0110 9023     		movs	r3, #144
 3455 0112 FB18     		adds	r3, r7, r3
 3456 0114 1868     		ldr	r0, [r3]
 3457 0116 FFF7FEFF 		bl	__aeabi_ui2f
 3458 011a 031C     		adds	r3, r0, #0
 3459 011c 191C     		adds	r1, r3, #0
 3460 011e 9423     		movs	r3, #148
 3461 0120 FB18     		adds	r3, r7, r3
 3462 0122 1868     		ldr	r0, [r3]
 3463 0124 FFF7FEFF 		bl	__aeabi_fdiv
 3464 0128 031C     		adds	r3, r0, #0
 3465 012a 1C1C     		adds	r4, r3, #0
 3466 012c 5949     		ldr	r1, .L201+28
 3467 012e 3868     		ldr	r0, [r7]
 3468 0130 FFF7FEFF 		bl	__aeabi_fmul
 3469 0134 031C     		adds	r3, r0, #0
 3470 0136 191C     		adds	r1, r3, #0
 3471 0138 201C     		adds	r0, r4, #0
 3472 013a FFF7FEFF 		bl	__aeabi_fcmplt
 3473 013e 031E     		subs	r3, r0, #0
 3474 0140 06D0     		beq	.L185
 3475              		.loc 1 817 0 is_stmt 0 discriminator 1
ARM GAS  C:\Users\13740\AppData\Local\Temp\ccPV2Gz9.s 			page 77


 3476 0142 5049     		ldr	r1, .L201+12
 3477 0144 3868     		ldr	r0, [r7]
 3478 0146 FFF7FEFF 		bl	__aeabi_fcmplt
 3479 014a 031E     		subs	r3, r0, #0
 3480 014c 00D0     		beq	.LCB3014
 3481 014e 7AE0     		b	.L200	@long jump
 3482              	.LCB3014:
 3483              	.L185:
 3484              	.LBB11:
 818:ad5940.c      **** 			continue;
 819:ad5940.c      **** 		
 820:ad5940.c      **** 		/* Try DFT number */
 821:ad5940.c      **** 		for(uint32_t j = 8; j<sizeof(dft_table) / sizeof(uint32_t); j++)
 3485              		.loc 1 821 0 is_stmt 1
 3486 0150 0823     		movs	r3, #8
 3487 0152 9822     		movs	r2, #152
 3488 0154 BA18     		adds	r2, r7, r2
 3489 0156 1360     		str	r3, [r2]
 3490 0158 6FE0     		b	.L189
 3491              	.L192:
 822:ad5940.c      **** 		{
 823:ad5940.c      **** 			n2 = dft_table[j];
 3492              		.loc 1 823 0
 3493 015a 5423     		movs	r3, #84
 3494 015c FB18     		adds	r3, r7, r3
 3495 015e 9822     		movs	r2, #152
 3496 0160 BA18     		adds	r2, r7, r2
 3497 0162 1268     		ldr	r2, [r2]
 3498 0164 9200     		lsls	r2, r2, #2
 3499 0166 D358     		ldr	r3, [r2, r3]
 3500 0168 8C22     		movs	r2, #140
 3501 016a BA18     		adds	r2, r7, r2
 3502 016c 1360     		str	r3, [r2]
 824:ad5940.c      **** 			iCycle = (uint32_t)(n1 * n2 * freq)/AdcRate;
 3503              		.loc 1 824 0
 3504 016e 9023     		movs	r3, #144
 3505 0170 FB18     		adds	r3, r7, r3
 3506 0172 1B68     		ldr	r3, [r3]
 3507 0174 8C22     		movs	r2, #140
 3508 0176 BA18     		adds	r2, r7, r2
 3509 0178 1268     		ldr	r2, [r2]
 3510 017a 5343     		muls	r3, r2
 3511 017c 1800     		movs	r0, r3
 3512 017e FFF7FEFF 		bl	__aeabi_ui2f
 3513 0182 031C     		adds	r3, r0, #0
 3514 0184 3968     		ldr	r1, [r7]
 3515 0186 181C     		adds	r0, r3, #0
 3516 0188 FFF7FEFF 		bl	__aeabi_fmul
 3517 018c 031C     		adds	r3, r0, #0
 3518 018e 181C     		adds	r0, r3, #0
 3519 0190 FFF7FEFF 		bl	__aeabi_f2uiz
 3520 0194 0300     		movs	r3, r0
 3521 0196 1800     		movs	r0, r3
 3522 0198 FFF7FEFF 		bl	__aeabi_ui2f
 3523 019c 031C     		adds	r3, r0, #0
 3524 019e 9422     		movs	r2, #148
 3525 01a0 BA18     		adds	r2, r7, r2
ARM GAS  C:\Users\13740\AppData\Local\Temp\ccPV2Gz9.s 			page 78


 3526 01a2 1168     		ldr	r1, [r2]
 3527 01a4 181C     		adds	r0, r3, #0
 3528 01a6 FFF7FEFF 		bl	__aeabi_fdiv
 3529 01aa 031C     		adds	r3, r0, #0
 3530 01ac 181C     		adds	r0, r3, #0
 3531 01ae FFF7FEFF 		bl	__aeabi_f2uiz
 3532 01b2 0300     		movs	r3, r0
 3533 01b4 8822     		movs	r2, #136
 3534 01b6 BA18     		adds	r2, r7, r2
 3535 01b8 1360     		str	r3, [r2]
 825:ad5940.c      **** 			if(iCycle < 8)
 3536              		.loc 1 825 0
 3537 01ba 8823     		movs	r3, #136
 3538 01bc FB18     		adds	r3, r7, r3
 3539 01be 1B68     		ldr	r3, [r3]
 3540 01c0 072B     		cmp	r3, #7
 3541 01c2 07D8     		bhi	.L190
 821:ad5940.c      **** 		{
 3542              		.loc 1 821 0
 3543 01c4 9823     		movs	r3, #152
 3544 01c6 FB18     		adds	r3, r7, r3
 3545 01c8 1B68     		ldr	r3, [r3]
 3546 01ca 0133     		adds	r3, r3, #1
 3547 01cc 9822     		movs	r2, #152
 3548 01ce BA18     		adds	r2, r7, r2
 3549 01d0 1360     		str	r3, [r2]
 3550 01d2 32E0     		b	.L189
 3551              	.L190:
 826:ad5940.c      **** 				continue;
 827:ad5940.c      **** 			freq_params. DftSrc = DFTSRC_SINC2NOTCH;
 3552              		.loc 1 827 0
 3553 01d4 0823     		movs	r3, #8
 3554 01d6 FB18     		adds	r3, r7, r3
 3555 01d8 0022     		movs	r2, #0
 3556 01da 9A60     		str	r2, [r3, #8]
 828:ad5940.c      **** 			freq_params.ADCSinc2Osr = i-1;
 3557              		.loc 1 828 0
 3558 01dc 9F23     		movs	r3, #159
 3559 01de FB18     		adds	r3, r7, r3
 3560 01e0 1B78     		ldrb	r3, [r3]
 3561 01e2 013B     		subs	r3, r3, #1
 3562 01e4 1A00     		movs	r2, r3
 3563 01e6 0823     		movs	r3, #8
 3564 01e8 FB18     		adds	r3, r7, r3
 3565 01ea 1A61     		str	r2, [r3, #16]
 829:ad5940.c      **** 			freq_params.ADCSinc3Osr = 1;
 3566              		.loc 1 829 0
 3567 01ec 0823     		movs	r3, #8
 3568 01ee FB18     		adds	r3, r7, r3
 3569 01f0 0122     		movs	r2, #1
 3570 01f2 DA60     		str	r2, [r3, #12]
 830:ad5940.c      **** 			freq_params.DftNum = j;
 3571              		.loc 1 830 0
 3572 01f4 0823     		movs	r3, #8
 3573 01f6 FB18     		adds	r3, r7, r3
 3574 01f8 9822     		movs	r2, #152
 3575 01fa BA18     		adds	r2, r7, r2
ARM GAS  C:\Users\13740\AppData\Local\Temp\ccPV2Gz9.s 			page 79


 3576 01fc 1268     		ldr	r2, [r2]
 3577 01fe 5A60     		str	r2, [r3, #4]
 831:ad5940.c      **** 			freq_params.NumClks = 0;
 3578              		.loc 1 831 0
 3579 0200 0823     		movs	r3, #8
 3580 0202 FB18     		adds	r3, r7, r3
 3581 0204 0022     		movs	r2, #0
 3582 0206 5A61     		str	r2, [r3, #20]
 832:ad5940.c      **** 			freq_params.HighPwrMode = bFALSE;
 3583              		.loc 1 832 0
 3584 0208 0823     		movs	r3, #8
 3585 020a FB18     		adds	r3, r7, r3
 3586 020c 0022     		movs	r2, #0
 3587 020e 1A70     		strb	r2, [r3]
 833:ad5940.c      **** 			if(n1 == 4)
 3588              		.loc 1 833 0
 3589 0210 9023     		movs	r3, #144
 3590 0212 FB18     		adds	r3, r7, r3
 3591 0214 1B68     		ldr	r3, [r3]
 3592 0216 042B     		cmp	r3, #4
 3593 0218 07D1     		bne	.L191
 834:ad5940.c      **** 			{
 835:ad5940.c      **** 				freq_params. DftSrc = DFTSRC_SINC3;
 3594              		.loc 1 835 0
 3595 021a 0823     		movs	r3, #8
 3596 021c FB18     		adds	r3, r7, r3
 3597 021e 0122     		movs	r2, #1
 3598 0220 9A60     		str	r2, [r3, #8]
 836:ad5940.c      **** 				freq_params.ADCSinc2Osr = 0;
 3599              		.loc 1 836 0
 3600 0222 0823     		movs	r3, #8
 3601 0224 FB18     		adds	r3, r7, r3
 3602 0226 0022     		movs	r2, #0
 3603 0228 1A61     		str	r2, [r3, #16]
 3604              	.L191:
 837:ad5940.c      **** 			}
 838:ad5940.c      **** 			return freq_params;
 3605              		.loc 1 838 0
 3606 022a 7B68     		ldr	r3, [r7, #4]
 3607 022c 0822     		movs	r2, #8
 3608 022e BA18     		adds	r2, r7, r2
 3609 0230 13CA     		ldmia	r2!, {r0, r1, r4}
 3610 0232 13C3     		stmia	r3!, {r0, r1, r4}
 3611 0234 13CA     		ldmia	r2!, {r0, r1, r4}
 3612 0236 13C3     		stmia	r3!, {r0, r1, r4}
 3613 0238 1AE0     		b	.L178
 3614              	.L189:
 821:ad5940.c      **** 		{
 3615              		.loc 1 821 0 discriminator 1
 3616 023a 9823     		movs	r3, #152
 3617 023c FB18     		adds	r3, r7, r3
 3618 023e 1B68     		ldr	r3, [r3]
 3619 0240 0C2B     		cmp	r3, #12
 3620 0242 8AD9     		bls	.L192
 3621 0244 00E0     		b	.L188
 3622              	.L200:
 3623              	.LBE11:
ARM GAS  C:\Users\13740\AppData\Local\Temp\ccPV2Gz9.s 			page 80


 818:ad5940.c      **** 		
 3624              		.loc 1 818 0
 3625 0246 C046     		nop
 3626              	.L188:
 814:ad5940.c      **** 	{
 3627              		.loc 1 814 0 discriminator 2
 3628 0248 9F23     		movs	r3, #159
 3629 024a FB18     		adds	r3, r7, r3
 3630 024c 1A78     		ldrb	r2, [r3]
 3631 024e 9F23     		movs	r3, #159
 3632 0250 FB18     		adds	r3, r7, r3
 3633 0252 0132     		adds	r2, r2, #1
 3634 0254 1A70     		strb	r2, [r3]
 3635              	.L184:
 814:ad5940.c      **** 	{
 3636              		.loc 1 814 0 is_stmt 0 discriminator 1
 3637 0256 9F23     		movs	r3, #159
 3638 0258 FB18     		adds	r3, r7, r3
 3639 025a 1B78     		ldrb	r3, [r3]
 3640 025c 0C2B     		cmp	r3, #12
 3641 025e 00D8     		bhi	.LCB3163
 3642 0260 49E7     		b	.L193	@long jump
 3643              	.LCB3163:
 3644              	.LBE10:
 839:ad5940.c      **** 		}
 840:ad5940.c      **** 	}
 841:ad5940.c      **** 		
 842:ad5940.c      **** 	return freq_params;
 3645              		.loc 1 842 0 is_stmt 1
 3646 0262 7B68     		ldr	r3, [r7, #4]
 3647 0264 0822     		movs	r2, #8
 3648 0266 BA18     		adds	r2, r7, r2
 3649 0268 13CA     		ldmia	r2!, {r0, r1, r4}
 3650 026a 13C3     		stmia	r3!, {r0, r1, r4}
 3651 026c 13CA     		ldmia	r2!, {r0, r1, r4}
 3652 026e 13C3     		stmia	r3!, {r0, r1, r4}
 3653              	.L178:
 843:ad5940.c      **** }
 3654              		.loc 1 843 0
 3655 0270 7868     		ldr	r0, [r7, #4]
 3656 0272 BD46     		mov	sp, r7
 3657 0274 29B0     		add	sp, sp, #164
 3658              		@ sp needed
 3659 0276 90BD     		pop	{r4, r7, pc}
 3660              	.L202:
 3661              		.align	2
 3662              	.L201:
 3663 0278 B4000000 		.word	.LC14
 3664 027c E8000000 		.word	.LC15
 3665 0280 00504349 		.word	1229148160
 3666 0284 00409C46 		.word	1184645120
 3667 0288 52B81E85 		.word	-2061584302
 3668 028c EB51E03F 		.word	1071665643
 3669 0290 A4020000 		.word	sinc3osr_table.6648
 3670 0294 00002041 		.word	1092616192
 3671              		.cfi_endproc
 3672              	.LFE26:
ARM GAS  C:\Users\13740\AppData\Local\Temp\ccPV2Gz9.s 			page 81


 3673              		.size	AD5940_GetFreqParameters, .-AD5940_GetFreqParameters
 3674              		.section	.text.AD5940_ReadWrite8B,"ax",%progbits
 3675              		.align	2
 3676              		.code	16
 3677              		.thumb_func
 3678              		.type	AD5940_ReadWrite8B, %function
 3679              	AD5940_ReadWrite8B:
 3680              	.LFB27:
 844:ad5940.c      **** 
 845:ad5940.c      **** /**
 846:ad5940.c      ****  * @} Function_Helpers
 847:ad5940.c      **** */
 848:ad5940.c      **** 
 849:ad5940.c      **** #ifdef CHIPSEL_M355
 850:ad5940.c      **** static void AD5940_D2DWriteReg(uint16_t RegAddr, uint32_t RegData)
 851:ad5940.c      **** {
 852:ad5940.c      ****   if(((RegAddr>=0x1000)&&(RegAddr<=0x3014)))  /* 32bit register */
 853:ad5940.c      ****     *(volatile uint32_t *)(RegAddr+0x400c0000) = RegData;
 854:ad5940.c      ****   else                                        /* 16bit register */
 855:ad5940.c      ****     *(volatile uint16_t *)(RegAddr+0x400c0000) = RegData;
 856:ad5940.c      **** }
 857:ad5940.c      **** 
 858:ad5940.c      **** static uint32_t AD5940_D2DReadReg(uint16_t RegAddr)
 859:ad5940.c      **** {
 860:ad5940.c      ****   if(((RegAddr>=0x1000)&&(RegAddr<=0x3014)))  /* 32bit register */
 861:ad5940.c      ****     return *(volatile uint32_t *)(RegAddr+0x400c0000);
 862:ad5940.c      ****   else                                        /* 16bit register */
 863:ad5940.c      ****     return *(volatile uint16_t *)(RegAddr+0x400c0000);
 864:ad5940.c      **** }
 865:ad5940.c      **** 
 866:ad5940.c      **** void AD5940_FIFORd(uint32_t *pBuffer, uint32_t uiReadCount)   
 867:ad5940.c      **** {
 868:ad5940.c      ****   while(uiReadCount--)
 869:ad5940.c      ****     *pBuffer++ = *(volatile uint32_t *)(0x400c206C);
 870:ad5940.c      **** }
 871:ad5940.c      **** #else
 872:ad5940.c      **** /**
 873:ad5940.c      ****  * @defgroup SPI_Block
 874:ad5940.c      ****  * @brief Functions to communicate with AD5940 registers following AD5940 SPI protocols
 875:ad5940.c      ****  * @{
 876:ad5940.c      ****  * 
 877:ad5940.c      ****  * @defgroup SPI_Block_Functions
 878:ad5940.c      ****  * @brief The basic SPI protocols. All functions are basic on AD5940_ReadWriteNBytes which
 879:ad5940.c      ****  *        provided by user.
 880:ad5940.c      ****  *        
 881:ad5940.c      ****  *  ##SPI basic protocol
 882:ad5940.c      ****  *        All SPI protocol starts with one-byte command word. Following are data(16B or 32B)
 883:ad5940.c      ****  *        There are four SPI commands available @ref SPI_Block_Const.
 884:ad5940.c      ****  * @{
 885:ad5940.c      **** */
 886:ad5940.c      **** 
 887:ad5940.c      **** /**
 888:ad5940.c      ****   @brief Using SPI to transmit one byte and return the received byte. 
 889:ad5940.c      ****   @param data: The 8-bit data SPI will transmit.
 890:ad5940.c      ****   @return received data.
 891:ad5940.c      **** **/
 892:ad5940.c      **** static unsigned char AD5940_ReadWrite8B(unsigned char data)
ARM GAS  C:\Users\13740\AppData\Local\Temp\ccPV2Gz9.s 			page 82


 893:ad5940.c      **** {
 3681              		.loc 1 893 0
 3682              		.cfi_startproc
 3683              		@ args = 0, pretend = 0, frame = 16
 3684              		@ frame_needed = 1, uses_anonymous_args = 0
 3685 0000 80B5     		push	{r7, lr}
 3686              		.cfi_def_cfa_offset 8
 3687              		.cfi_offset 7, -8
 3688              		.cfi_offset 14, -4
 3689 0002 84B0     		sub	sp, sp, #16
 3690              		.cfi_def_cfa_offset 24
 3691 0004 00AF     		add	r7, sp, #0
 3692              		.cfi_def_cfa_register 7
 3693 0006 0200     		movs	r2, r0
 3694 0008 FB1D     		adds	r3, r7, #7
 3695 000a 1A70     		strb	r2, [r3]
 894:ad5940.c      ****    uint8_t tx[1], rx[1];
 895:ad5940.c      ****    tx[0] = data;
 3696              		.loc 1 895 0
 3697 000c 0C23     		movs	r3, #12
 3698 000e FB18     		adds	r3, r7, r3
 3699 0010 FA1D     		adds	r2, r7, #7
 3700 0012 1278     		ldrb	r2, [r2]
 3701 0014 1A70     		strb	r2, [r3]
 896:ad5940.c      ****    AD5940_ReadWriteNBytes(tx,rx,1);
 3702              		.loc 1 896 0
 3703 0016 0823     		movs	r3, #8
 3704 0018 F918     		adds	r1, r7, r3
 3705 001a 0C23     		movs	r3, #12
 3706 001c FB18     		adds	r3, r7, r3
 3707 001e 0122     		movs	r2, #1
 3708 0020 1800     		movs	r0, r3
 3709 0022 FFF7FEFF 		bl	AD5940_ReadWriteNBytes
 897:ad5940.c      ****    return rx[0];
 3710              		.loc 1 897 0
 3711 0026 0823     		movs	r3, #8
 3712 0028 FB18     		adds	r3, r7, r3
 3713 002a 1B78     		ldrb	r3, [r3]
 898:ad5940.c      **** }
 3714              		.loc 1 898 0
 3715 002c 1800     		movs	r0, r3
 3716 002e BD46     		mov	sp, r7
 3717 0030 04B0     		add	sp, sp, #16
 3718              		@ sp needed
 3719 0032 80BD     		pop	{r7, pc}
 3720              		.cfi_endproc
 3721              	.LFE27:
 3722              		.size	AD5940_ReadWrite8B, .-AD5940_ReadWrite8B
 3723              		.section	.text.AD5940_ReadWrite16B,"ax",%progbits
 3724              		.align	2
 3725              		.code	16
 3726              		.thumb_func
 3727              		.type	AD5940_ReadWrite16B, %function
 3728              	AD5940_ReadWrite16B:
 3729              	.LFB28:
 899:ad5940.c      **** 
 900:ad5940.c      **** /**
ARM GAS  C:\Users\13740\AppData\Local\Temp\ccPV2Gz9.s 			page 83


 901:ad5940.c      ****   @brief Using SPI to transmit two bytes and return the received bytes. 
 902:ad5940.c      ****   @param data: The 16-bit data SPI will transmit.
 903:ad5940.c      ****   @return received data.
 904:ad5940.c      **** **/
 905:ad5940.c      **** static uint16_t AD5940_ReadWrite16B(uint16_t data)
 906:ad5940.c      **** {
 3730              		.loc 1 906 0
 3731              		.cfi_startproc
 3732              		@ args = 0, pretend = 0, frame = 16
 3733              		@ frame_needed = 1, uses_anonymous_args = 0
 3734 0000 80B5     		push	{r7, lr}
 3735              		.cfi_def_cfa_offset 8
 3736              		.cfi_offset 7, -8
 3737              		.cfi_offset 14, -4
 3738 0002 84B0     		sub	sp, sp, #16
 3739              		.cfi_def_cfa_offset 24
 3740 0004 00AF     		add	r7, sp, #0
 3741              		.cfi_def_cfa_register 7
 3742 0006 0200     		movs	r2, r0
 3743 0008 BB1D     		adds	r3, r7, #6
 3744 000a 1A80     		strh	r2, [r3]
 907:ad5940.c      ****    uint8_t SendBuffer[2];
 908:ad5940.c      ****    uint8_t RecvBuffer[2];
 909:ad5940.c      ****    SendBuffer[0] = data>>8;
 3745              		.loc 1 909 0
 3746 000c BB1D     		adds	r3, r7, #6
 3747 000e 1B88     		ldrh	r3, [r3]
 3748 0010 1B0A     		lsrs	r3, r3, #8
 3749 0012 9BB2     		uxth	r3, r3
 3750 0014 DAB2     		uxtb	r2, r3
 3751 0016 0C23     		movs	r3, #12
 3752 0018 FB18     		adds	r3, r7, r3
 3753 001a 1A70     		strb	r2, [r3]
 910:ad5940.c      ****    SendBuffer[1] = data&0xff;
 3754              		.loc 1 910 0
 3755 001c BB1D     		adds	r3, r7, #6
 3756 001e 1B88     		ldrh	r3, [r3]
 3757 0020 DAB2     		uxtb	r2, r3
 3758 0022 0C23     		movs	r3, #12
 3759 0024 FB18     		adds	r3, r7, r3
 3760 0026 5A70     		strb	r2, [r3, #1]
 911:ad5940.c      ****    AD5940_ReadWriteNBytes(SendBuffer,RecvBuffer,2);
 3761              		.loc 1 911 0
 3762 0028 0823     		movs	r3, #8
 3763 002a F918     		adds	r1, r7, r3
 3764 002c 0C23     		movs	r3, #12
 3765 002e FB18     		adds	r3, r7, r3
 3766 0030 0222     		movs	r2, #2
 3767 0032 1800     		movs	r0, r3
 3768 0034 FFF7FEFF 		bl	AD5940_ReadWriteNBytes
 912:ad5940.c      ****    return (((uint16_t)RecvBuffer[0])<<8)|RecvBuffer[1];
 3769              		.loc 1 912 0
 3770 0038 0823     		movs	r3, #8
 3771 003a FB18     		adds	r3, r7, r3
 3772 003c 1B78     		ldrb	r3, [r3]
 3773 003e 1B02     		lsls	r3, r3, #8
 3774 0040 1AB2     		sxth	r2, r3
ARM GAS  C:\Users\13740\AppData\Local\Temp\ccPV2Gz9.s 			page 84


 3775 0042 0823     		movs	r3, #8
 3776 0044 FB18     		adds	r3, r7, r3
 3777 0046 5B78     		ldrb	r3, [r3, #1]
 3778 0048 1BB2     		sxth	r3, r3
 3779 004a 1343     		orrs	r3, r2
 3780 004c 1BB2     		sxth	r3, r3
 3781 004e 9BB2     		uxth	r3, r3
 913:ad5940.c      **** }
 3782              		.loc 1 913 0
 3783 0050 1800     		movs	r0, r3
 3784 0052 BD46     		mov	sp, r7
 3785 0054 04B0     		add	sp, sp, #16
 3786              		@ sp needed
 3787 0056 80BD     		pop	{r7, pc}
 3788              		.cfi_endproc
 3789              	.LFE28:
 3790              		.size	AD5940_ReadWrite16B, .-AD5940_ReadWrite16B
 3791              		.section	.text.AD5940_ReadWrite32B,"ax",%progbits
 3792              		.align	2
 3793              		.code	16
 3794              		.thumb_func
 3795              		.type	AD5940_ReadWrite32B, %function
 3796              	AD5940_ReadWrite32B:
 3797              	.LFB29:
 914:ad5940.c      **** 
 915:ad5940.c      **** /**
 916:ad5940.c      ****  * @brief Using SPI to transmit four bytes and return the received bytes. 
 917:ad5940.c      ****  * @param data: The 32-bit data SPI will transmit.
 918:ad5940.c      ****  * @return received data.
 919:ad5940.c      **** **/
 920:ad5940.c      **** static uint32_t AD5940_ReadWrite32B(uint32_t data)
 921:ad5940.c      **** {
 3798              		.loc 1 921 0
 3799              		.cfi_startproc
 3800              		@ args = 0, pretend = 0, frame = 16
 3801              		@ frame_needed = 1, uses_anonymous_args = 0
 3802 0000 80B5     		push	{r7, lr}
 3803              		.cfi_def_cfa_offset 8
 3804              		.cfi_offset 7, -8
 3805              		.cfi_offset 14, -4
 3806 0002 84B0     		sub	sp, sp, #16
 3807              		.cfi_def_cfa_offset 24
 3808 0004 00AF     		add	r7, sp, #0
 3809              		.cfi_def_cfa_register 7
 3810 0006 7860     		str	r0, [r7, #4]
 922:ad5940.c      ****    uint8_t SendBuffer[4];
 923:ad5940.c      ****    uint8_t RecvBuffer[4];
 924:ad5940.c      ****   
 925:ad5940.c      ****    SendBuffer[0] = (data>>24)&0xff;
 3811              		.loc 1 925 0
 3812 0008 7B68     		ldr	r3, [r7, #4]
 3813 000a 1B0E     		lsrs	r3, r3, #24
 3814 000c DAB2     		uxtb	r2, r3
 3815 000e 0C23     		movs	r3, #12
 3816 0010 FB18     		adds	r3, r7, r3
 3817 0012 1A70     		strb	r2, [r3]
 926:ad5940.c      ****    SendBuffer[1] = (data>>16)&0xff;
ARM GAS  C:\Users\13740\AppData\Local\Temp\ccPV2Gz9.s 			page 85


 3818              		.loc 1 926 0
 3819 0014 7B68     		ldr	r3, [r7, #4]
 3820 0016 1B0C     		lsrs	r3, r3, #16
 3821 0018 DAB2     		uxtb	r2, r3
 3822 001a 0C23     		movs	r3, #12
 3823 001c FB18     		adds	r3, r7, r3
 3824 001e 5A70     		strb	r2, [r3, #1]
 927:ad5940.c      ****    SendBuffer[2] = (data>> 8)&0xff;
 3825              		.loc 1 927 0
 3826 0020 7B68     		ldr	r3, [r7, #4]
 3827 0022 1B0A     		lsrs	r3, r3, #8
 3828 0024 DAB2     		uxtb	r2, r3
 3829 0026 0C23     		movs	r3, #12
 3830 0028 FB18     		adds	r3, r7, r3
 3831 002a 9A70     		strb	r2, [r3, #2]
 928:ad5940.c      ****    SendBuffer[3] = (data    )&0xff;
 3832              		.loc 1 928 0
 3833 002c 7B68     		ldr	r3, [r7, #4]
 3834 002e DAB2     		uxtb	r2, r3
 3835 0030 0C23     		movs	r3, #12
 3836 0032 FB18     		adds	r3, r7, r3
 3837 0034 DA70     		strb	r2, [r3, #3]
 929:ad5940.c      ****    AD5940_ReadWriteNBytes(SendBuffer,RecvBuffer,4);
 3838              		.loc 1 929 0
 3839 0036 0823     		movs	r3, #8
 3840 0038 F918     		adds	r1, r7, r3
 3841 003a 0C23     		movs	r3, #12
 3842 003c FB18     		adds	r3, r7, r3
 3843 003e 0422     		movs	r2, #4
 3844 0040 1800     		movs	r0, r3
 3845 0042 FFF7FEFF 		bl	AD5940_ReadWriteNBytes
 930:ad5940.c      ****    return (((uint32_t)RecvBuffer[0])<<24)|(((uint32_t)RecvBuffer[1])<<16)|(((uint32_t)RecvBuffer[2]
 3846              		.loc 1 930 0
 3847 0046 0823     		movs	r3, #8
 3848 0048 FB18     		adds	r3, r7, r3
 3849 004a 1B78     		ldrb	r3, [r3]
 3850 004c 1A06     		lsls	r2, r3, #24
 3851 004e 0823     		movs	r3, #8
 3852 0050 FB18     		adds	r3, r7, r3
 3853 0052 5B78     		ldrb	r3, [r3, #1]
 3854 0054 1B04     		lsls	r3, r3, #16
 3855 0056 1A43     		orrs	r2, r3
 3856 0058 0823     		movs	r3, #8
 3857 005a FB18     		adds	r3, r7, r3
 3858 005c 9B78     		ldrb	r3, [r3, #2]
 3859 005e 1B02     		lsls	r3, r3, #8
 3860 0060 1343     		orrs	r3, r2
 3861 0062 0822     		movs	r2, #8
 3862 0064 BA18     		adds	r2, r7, r2
 3863 0066 D278     		ldrb	r2, [r2, #3]
 3864 0068 1343     		orrs	r3, r2
 931:ad5940.c      **** }
 3865              		.loc 1 931 0
 3866 006a 1800     		movs	r0, r3
 3867 006c BD46     		mov	sp, r7
 3868 006e 04B0     		add	sp, sp, #16
 3869              		@ sp needed
ARM GAS  C:\Users\13740\AppData\Local\Temp\ccPV2Gz9.s 			page 86


 3870 0070 80BD     		pop	{r7, pc}
 3871              		.cfi_endproc
 3872              	.LFE29:
 3873              		.size	AD5940_ReadWrite32B, .-AD5940_ReadWrite32B
 3874 0072 C046     		.section	.text.AD5940_SPIWriteReg,"ax",%progbits
 3875              		.align	2
 3876              		.code	16
 3877              		.thumb_func
 3878              		.type	AD5940_SPIWriteReg, %function
 3879              	AD5940_SPIWriteReg:
 3880              	.LFB30:
 932:ad5940.c      **** 
 933:ad5940.c      **** /**
 934:ad5940.c      ****  * @brief Write register through SPI.
 935:ad5940.c      ****  * @param RegAddr: The register address.
 936:ad5940.c      ****  * @param RegData: The register data.
 937:ad5940.c      ****  * @return Return None.
 938:ad5940.c      **** **/
 939:ad5940.c      **** static void AD5940_SPIWriteReg(uint16_t RegAddr, uint32_t RegData)
 940:ad5940.c      **** {  
 3881              		.loc 1 940 0
 3882              		.cfi_startproc
 3883              		@ args = 0, pretend = 0, frame = 32
 3884              		@ frame_needed = 1, uses_anonymous_args = 0
 3885 0000 80B5     		push	{r7, lr}
 3886              		.cfi_def_cfa_offset 8
 3887              		.cfi_offset 7, -8
 3888              		.cfi_offset 14, -4
 3889 0002 88B0     		sub	sp, sp, #32
 3890              		.cfi_def_cfa_offset 40
 3891 0004 00AF     		add	r7, sp, #0
 3892              		.cfi_def_cfa_register 7
 3893 0006 0200     		movs	r2, r0
 3894 0008 3960     		str	r1, [r7]
 3895 000a BB1D     		adds	r3, r7, #6
 3896 000c 1A80     		strh	r2, [r3]
 941:ad5940.c      ****     uint8_t tx_buf[10];
 942:ad5940.c      ****     uint8_t rx_buf[10];
 943:ad5940.c      ****     uint8_t len;
 944:ad5940.c      ****     
 945:ad5940.c      ****     /* =====  ===== */
 946:ad5940.c      ****     tx_buf[0] = SPICMD_SETADDR;          // 
 3897              		.loc 1 946 0
 3898 000e 1423     		movs	r3, #20
 3899 0010 FB18     		adds	r3, r7, r3
 3900 0012 2022     		movs	r2, #32
 3901 0014 1A70     		strb	r2, [r3]
 947:ad5940.c      ****     tx_buf[1] = (RegAddr >> 8) & 0xFF;
 3902              		.loc 1 947 0
 3903 0016 BB1D     		adds	r3, r7, #6
 3904 0018 1B88     		ldrh	r3, [r3]
 3905 001a 1B0A     		lsrs	r3, r3, #8
 3906 001c 9BB2     		uxth	r3, r3
 3907 001e DAB2     		uxtb	r2, r3
 3908 0020 1423     		movs	r3, #20
 3909 0022 FB18     		adds	r3, r7, r3
 3910 0024 5A70     		strb	r2, [r3, #1]
ARM GAS  C:\Users\13740\AppData\Local\Temp\ccPV2Gz9.s 			page 87


 948:ad5940.c      ****     tx_buf[2] = RegAddr & 0xFF;
 3911              		.loc 1 948 0
 3912 0026 BB1D     		adds	r3, r7, #6
 3913 0028 1B88     		ldrh	r3, [r3]
 3914 002a DAB2     		uxtb	r2, r3
 3915 002c 1423     		movs	r3, #20
 3916 002e FB18     		adds	r3, r7, r3
 3917 0030 9A70     		strb	r2, [r3, #2]
 949:ad5940.c      ****     
 950:ad5940.c      ****     AD5940_CsClr();
 3918              		.loc 1 950 0
 3919 0032 FFF7FEFF 		bl	AD5940_CsClr
 951:ad5940.c      ****     CyDelayUs(2);
 3920              		.loc 1 951 0
 3921 0036 0220     		movs	r0, #2
 3922 0038 FFF7FEFF 		bl	CyDelayUs
 952:ad5940.c      ****     AD5940_ReadWriteNBytes(tx_buf, rx_buf, 3);
 3923              		.loc 1 952 0
 3924 003c 0823     		movs	r3, #8
 3925 003e F918     		adds	r1, r7, r3
 3926 0040 1423     		movs	r3, #20
 3927 0042 FB18     		adds	r3, r7, r3
 3928 0044 0322     		movs	r2, #3
 3929 0046 1800     		movs	r0, r3
 3930 0048 FFF7FEFF 		bl	AD5940_ReadWriteNBytes
 953:ad5940.c      ****     CyDelayUs(2);
 3931              		.loc 1 953 0
 3932 004c 0220     		movs	r0, #2
 3933 004e FFF7FEFF 		bl	CyDelayUs
 954:ad5940.c      ****     AD5940_CsSet();
 3934              		.loc 1 954 0
 3935 0052 FFF7FEFF 		bl	AD5940_CsSet
 955:ad5940.c      ****     CyDelayUs(2);  // 
 3936              		.loc 1 955 0
 3937 0056 0220     		movs	r0, #2
 3938 0058 FFF7FEFF 		bl	CyDelayUs
 956:ad5940.c      ****     
 957:ad5940.c      ****     /* =====  ===== */
 958:ad5940.c      ****     tx_buf[0] = SPICMD_WRITEREG;         // 
 3939              		.loc 1 958 0
 3940 005c 1423     		movs	r3, #20
 3941 005e FB18     		adds	r3, r7, r3
 3942 0060 2D22     		movs	r2, #45
 3943 0062 1A70     		strb	r2, [r3]
 959:ad5940.c      ****     
 960:ad5940.c      ****     if(((RegAddr >= 0x1000) && (RegAddr <= 0x3014)))
 3944              		.loc 1 960 0
 3945 0064 BB1D     		adds	r3, r7, #6
 3946 0066 1B88     		ldrh	r3, [r3]
 3947 0068 254A     		ldr	r2, .L212
 3948 006a 9342     		cmp	r3, r2
 3949 006c 20D9     		bls	.L210
 3950              		.loc 1 960 0 is_stmt 0 discriminator 1
 3951 006e BB1D     		adds	r3, r7, #6
 3952 0070 1B88     		ldrh	r3, [r3]
 3953 0072 244A     		ldr	r2, .L212+4
 3954 0074 9342     		cmp	r3, r2
ARM GAS  C:\Users\13740\AppData\Local\Temp\ccPV2Gz9.s 			page 88


 3955 0076 1BD8     		bhi	.L210
 961:ad5940.c      ****     {
 962:ad5940.c      ****         // 32
 963:ad5940.c      ****         tx_buf[1] = (RegData >> 24) & 0xFF;
 3956              		.loc 1 963 0 is_stmt 1
 3957 0078 3B68     		ldr	r3, [r7]
 3958 007a 1B0E     		lsrs	r3, r3, #24
 3959 007c DAB2     		uxtb	r2, r3
 3960 007e 1423     		movs	r3, #20
 3961 0080 FB18     		adds	r3, r7, r3
 3962 0082 5A70     		strb	r2, [r3, #1]
 964:ad5940.c      ****         tx_buf[2] = (RegData >> 16) & 0xFF;
 3963              		.loc 1 964 0
 3964 0084 3B68     		ldr	r3, [r7]
 3965 0086 1B0C     		lsrs	r3, r3, #16
 3966 0088 DAB2     		uxtb	r2, r3
 3967 008a 1423     		movs	r3, #20
 3968 008c FB18     		adds	r3, r7, r3
 3969 008e 9A70     		strb	r2, [r3, #2]
 965:ad5940.c      ****         tx_buf[3] = (RegData >> 8) & 0xFF;
 3970              		.loc 1 965 0
 3971 0090 3B68     		ldr	r3, [r7]
 3972 0092 1B0A     		lsrs	r3, r3, #8
 3973 0094 DAB2     		uxtb	r2, r3
 3974 0096 1423     		movs	r3, #20
 3975 0098 FB18     		adds	r3, r7, r3
 3976 009a DA70     		strb	r2, [r3, #3]
 966:ad5940.c      ****         tx_buf[4] = RegData & 0xFF;
 3977              		.loc 1 966 0
 3978 009c 3B68     		ldr	r3, [r7]
 3979 009e DAB2     		uxtb	r2, r3
 3980 00a0 1423     		movs	r3, #20
 3981 00a2 FB18     		adds	r3, r7, r3
 3982 00a4 1A71     		strb	r2, [r3, #4]
 967:ad5940.c      ****         len = 5;
 3983              		.loc 1 967 0
 3984 00a6 1F23     		movs	r3, #31
 3985 00a8 FB18     		adds	r3, r7, r3
 3986 00aa 0522     		movs	r2, #5
 3987 00ac 1A70     		strb	r2, [r3]
 3988 00ae 0EE0     		b	.L211
 3989              	.L210:
 968:ad5940.c      ****     }
 969:ad5940.c      ****     else
 970:ad5940.c      ****     {
 971:ad5940.c      ****         // 16
 972:ad5940.c      ****         tx_buf[1] = (RegData >> 8) & 0xFF;
 3990              		.loc 1 972 0
 3991 00b0 3B68     		ldr	r3, [r7]
 3992 00b2 1B0A     		lsrs	r3, r3, #8
 3993 00b4 DAB2     		uxtb	r2, r3
 3994 00b6 1423     		movs	r3, #20
 3995 00b8 FB18     		adds	r3, r7, r3
 3996 00ba 5A70     		strb	r2, [r3, #1]
 973:ad5940.c      ****         tx_buf[2] = RegData & 0xFF;
 3997              		.loc 1 973 0
 3998 00bc 3B68     		ldr	r3, [r7]
ARM GAS  C:\Users\13740\AppData\Local\Temp\ccPV2Gz9.s 			page 89


 3999 00be DAB2     		uxtb	r2, r3
 4000 00c0 1423     		movs	r3, #20
 4001 00c2 FB18     		adds	r3, r7, r3
 4002 00c4 9A70     		strb	r2, [r3, #2]
 974:ad5940.c      ****         len = 3;
 4003              		.loc 1 974 0
 4004 00c6 1F23     		movs	r3, #31
 4005 00c8 FB18     		adds	r3, r7, r3
 4006 00ca 0322     		movs	r2, #3
 4007 00cc 1A70     		strb	r2, [r3]
 4008              	.L211:
 975:ad5940.c      ****     }
 976:ad5940.c      ****     
 977:ad5940.c      ****     AD5940_CsClr();
 4009              		.loc 1 977 0
 4010 00ce FFF7FEFF 		bl	AD5940_CsClr
 978:ad5940.c      ****     CyDelayUs(2);
 4011              		.loc 1 978 0
 4012 00d2 0220     		movs	r0, #2
 4013 00d4 FFF7FEFF 		bl	CyDelayUs
 979:ad5940.c      ****     AD5940_ReadWriteNBytes(tx_buf, rx_buf, len);
 4014              		.loc 1 979 0
 4015 00d8 1F23     		movs	r3, #31
 4016 00da FB18     		adds	r3, r7, r3
 4017 00dc 1A78     		ldrb	r2, [r3]
 4018 00de 0823     		movs	r3, #8
 4019 00e0 F918     		adds	r1, r7, r3
 4020 00e2 1423     		movs	r3, #20
 4021 00e4 FB18     		adds	r3, r7, r3
 4022 00e6 1800     		movs	r0, r3
 4023 00e8 FFF7FEFF 		bl	AD5940_ReadWriteNBytes
 980:ad5940.c      ****     CyDelayUs(2);
 4024              		.loc 1 980 0
 4025 00ec 0220     		movs	r0, #2
 4026 00ee FFF7FEFF 		bl	CyDelayUs
 981:ad5940.c      ****     AD5940_CsSet();
 4027              		.loc 1 981 0
 4028 00f2 FFF7FEFF 		bl	AD5940_CsSet
 982:ad5940.c      **** }
 4029              		.loc 1 982 0
 4030 00f6 C046     		nop
 4031 00f8 BD46     		mov	sp, r7
 4032 00fa 08B0     		add	sp, sp, #32
 4033              		@ sp needed
 4034 00fc 80BD     		pop	{r7, pc}
 4035              	.L213:
 4036 00fe C046     		.align	2
 4037              	.L212:
 4038 0100 FF0F0000 		.word	4095
 4039 0104 14300000 		.word	12308
 4040              		.cfi_endproc
 4041              	.LFE30:
 4042              		.size	AD5940_SPIWriteReg, .-AD5940_SPIWriteReg
 4043              		.section	.text.AD5940_SPIReadReg,"ax",%progbits
 4044              		.align	2
 4045              		.code	16
 4046              		.thumb_func
ARM GAS  C:\Users\13740\AppData\Local\Temp\ccPV2Gz9.s 			page 90


 4047              		.type	AD5940_SPIReadReg, %function
 4048              	AD5940_SPIReadReg:
 4049              	.LFB31:
 983:ad5940.c      **** 
 984:ad5940.c      **** 
 985:ad5940.c      **** 
 986:ad5940.c      **** /**
 987:ad5940.c      ****  * @brief Read register through SPI.
 988:ad5940.c      ****  * @param RegAddr: The register address.
 989:ad5940.c      ****  * @return Return register data.
 990:ad5940.c      ****  * 
 991:ad5940.c      ****  *   - CS
 992:ad5940.c      ****  * - transactionCSLOW
 993:ad5940.c      ****  * - dummy byte
 994:ad5940.c      ****  * - 4
 995:ad5940.c      **** **/
 996:ad5940.c      **** static uint32_t AD5940_SPIReadReg(uint16_t RegAddr)
 997:ad5940.c      **** {
 4050              		.loc 1 997 0
 4051              		.cfi_startproc
 4052              		@ args = 0, pretend = 0, frame = 32
 4053              		@ frame_needed = 1, uses_anonymous_args = 0
 4054 0000 80B5     		push	{r7, lr}
 4055              		.cfi_def_cfa_offset 8
 4056              		.cfi_offset 7, -8
 4057              		.cfi_offset 14, -4
 4058 0002 88B0     		sub	sp, sp, #32
 4059              		.cfi_def_cfa_offset 40
 4060 0004 00AF     		add	r7, sp, #0
 4061              		.cfi_def_cfa_register 7
 4062 0006 0200     		movs	r2, r0
 4063 0008 BB1D     		adds	r3, r7, #6
 4064 000a 1A80     		strh	r2, [r3]
 998:ad5940.c      ****     uint8_t tx_buf[8];
 999:ad5940.c      ****     uint8_t rx_buf[8];
1000:ad5940.c      ****     uint32_t result = 0;
 4065              		.loc 1 1000 0
 4066 000c 0023     		movs	r3, #0
 4067 000e FB61     		str	r3, [r7, #28]
1001:ad5940.c      ****     uint8_t bufLen;
1002:ad5940.c      ****     
1003:ad5940.c      ****     /* 1.  16  32 */
1004:ad5940.c      ****     BoolFlag is32BitReg = bFALSE;
 4068              		.loc 1 1004 0
 4069 0010 1A23     		movs	r3, #26
 4070 0012 FB18     		adds	r3, r7, r3
 4071 0014 0022     		movs	r2, #0
 4072 0016 1A70     		strb	r2, [r3]
1005:ad5940.c      ****     if((RegAddr >= 0x1000) && (RegAddr < 0x3000))
 4073              		.loc 1 1005 0
 4074 0018 BB1D     		adds	r3, r7, #6
 4075 001a 1B88     		ldrh	r3, [r3]
 4076 001c 414A     		ldr	r2, .L221
 4077 001e 9342     		cmp	r3, r2
 4078 0020 08D9     		bls	.L215
 4079              		.loc 1 1005 0 is_stmt 0 discriminator 1
 4080 0022 BB1D     		adds	r3, r7, #6
ARM GAS  C:\Users\13740\AppData\Local\Temp\ccPV2Gz9.s 			page 91


 4081 0024 1B88     		ldrh	r3, [r3]
 4082 0026 404A     		ldr	r2, .L221+4
 4083 0028 9342     		cmp	r3, r2
 4084 002a 03D8     		bhi	.L215
1006:ad5940.c      ****     {
1007:ad5940.c      ****         is32BitReg = bTRUE;
 4085              		.loc 1 1007 0 is_stmt 1
 4086 002c 1A23     		movs	r3, #26
 4087 002e FB18     		adds	r3, r7, r3
 4088 0030 0122     		movs	r2, #1
 4089 0032 1A70     		strb	r2, [r3]
 4090              	.L215:
1008:ad5940.c      ****     }
1009:ad5940.c      ****     
1010:ad5940.c      ****     /* 2.  */
1011:ad5940.c      ****     // []  0x20 0x6D
1012:ad5940.c      ****     tx_buf[0] = 0x6D;              // SPICMD_READREG
 4091              		.loc 1 1012 0
 4092 0034 1023     		movs	r3, #16
 4093 0036 FB18     		adds	r3, r7, r3
 4094 0038 6D22     		movs	r2, #109
 4095 003a 1A70     		strb	r2, [r3]
1013:ad5940.c      ****     
1014:ad5940.c      ****     tx_buf[1] = (RegAddr >> 8);    // 
 4096              		.loc 1 1014 0
 4097 003c BB1D     		adds	r3, r7, #6
 4098 003e 1B88     		ldrh	r3, [r3]
 4099 0040 1B0A     		lsrs	r3, r3, #8
 4100 0042 9BB2     		uxth	r3, r3
 4101 0044 DAB2     		uxtb	r2, r3
 4102 0046 1023     		movs	r3, #16
 4103 0048 FB18     		adds	r3, r7, r3
 4104 004a 5A70     		strb	r2, [r3, #1]
1015:ad5940.c      ****     tx_buf[2] = RegAddr & 0xFF;    // 
 4105              		.loc 1 1015 0
 4106 004c BB1D     		adds	r3, r7, #6
 4107 004e 1B88     		ldrh	r3, [r3]
 4108 0050 DAB2     		uxtb	r2, r3
 4109 0052 1023     		movs	r3, #16
 4110 0054 FB18     		adds	r3, r7, r3
 4111 0056 9A70     		strb	r2, [r3, #2]
1016:ad5940.c      ****     tx_buf[3] = 0xFF;              // Dummy Byte (1)
 4112              		.loc 1 1016 0
 4113 0058 1023     		movs	r3, #16
 4114 005a FB18     		adds	r3, r7, r3
 4115 005c FF22     		movs	r2, #255
 4116 005e DA70     		strb	r2, [r3, #3]
1017:ad5940.c      ****     
1018:ad5940.c      ****     if(is32BitReg)
 4117              		.loc 1 1018 0
 4118 0060 1A23     		movs	r3, #26
 4119 0062 FB18     		adds	r3, r7, r3
 4120 0064 1B78     		ldrb	r3, [r3]
 4121 0066 002B     		cmp	r3, #0
 4122 0068 14D0     		beq	.L216
1019:ad5940.c      ****     {
1020:ad5940.c      ****         // 32: Cmd(1)+Addr(2)+Dummy(1)+Data(4) = 8
ARM GAS  C:\Users\13740\AppData\Local\Temp\ccPV2Gz9.s 			page 92


1021:ad5940.c      ****         tx_buf[4] = 0xFF; 
 4123              		.loc 1 1021 0
 4124 006a 1023     		movs	r3, #16
 4125 006c FB18     		adds	r3, r7, r3
 4126 006e FF22     		movs	r2, #255
 4127 0070 1A71     		strb	r2, [r3, #4]
1022:ad5940.c      ****         tx_buf[5] = 0xFF; 
 4128              		.loc 1 1022 0
 4129 0072 1023     		movs	r3, #16
 4130 0074 FB18     		adds	r3, r7, r3
 4131 0076 FF22     		movs	r2, #255
 4132 0078 5A71     		strb	r2, [r3, #5]
1023:ad5940.c      ****         tx_buf[6] = 0xFF; 
 4133              		.loc 1 1023 0
 4134 007a 1023     		movs	r3, #16
 4135 007c FB18     		adds	r3, r7, r3
 4136 007e FF22     		movs	r2, #255
 4137 0080 9A71     		strb	r2, [r3, #6]
1024:ad5940.c      ****         tx_buf[7] = 0xFF;
 4138              		.loc 1 1024 0
 4139 0082 1023     		movs	r3, #16
 4140 0084 FB18     		adds	r3, r7, r3
 4141 0086 FF22     		movs	r2, #255
 4142 0088 DA71     		strb	r2, [r3, #7]
1025:ad5940.c      ****         bufLen = 8;
 4143              		.loc 1 1025 0
 4144 008a 1B23     		movs	r3, #27
 4145 008c FB18     		adds	r3, r7, r3
 4146 008e 0822     		movs	r2, #8
 4147 0090 1A70     		strb	r2, [r3]
 4148 0092 0BE0     		b	.L217
 4149              	.L216:
1026:ad5940.c      ****     }
1027:ad5940.c      ****     else
1028:ad5940.c      ****     {
1029:ad5940.c      ****         // 16: Cmd(1)+Addr(2)+Dummy(1)+Data(2) = 6
1030:ad5940.c      ****         tx_buf[4] = 0xFF;
 4150              		.loc 1 1030 0
 4151 0094 1023     		movs	r3, #16
 4152 0096 FB18     		adds	r3, r7, r3
 4153 0098 FF22     		movs	r2, #255
 4154 009a 1A71     		strb	r2, [r3, #4]
1031:ad5940.c      ****         tx_buf[5] = 0xFF;
 4155              		.loc 1 1031 0
 4156 009c 1023     		movs	r3, #16
 4157 009e FB18     		adds	r3, r7, r3
 4158 00a0 FF22     		movs	r2, #255
 4159 00a2 5A71     		strb	r2, [r3, #5]
1032:ad5940.c      ****         bufLen = 6;
 4160              		.loc 1 1032 0
 4161 00a4 1B23     		movs	r3, #27
 4162 00a6 FB18     		adds	r3, r7, r3
 4163 00a8 0622     		movs	r2, #6
 4164 00aa 1A70     		strb	r2, [r3]
 4165              	.L217:
1033:ad5940.c      ****     }
1034:ad5940.c      ****     
ARM GAS  C:\Users\13740\AppData\Local\Temp\ccPV2Gz9.s 			page 93


1035:ad5940.c      ****     /* 3. SPI  (CS ) */
1036:ad5940.c      ****     AD5940_CsClr();
 4166              		.loc 1 1036 0
 4167 00ac FFF7FEFF 		bl	AD5940_CsClr
1037:ad5940.c      ****     CyDelayUs(2); //  CS 
 4168              		.loc 1 1037 0
 4169 00b0 0220     		movs	r0, #2
 4170 00b2 FFF7FEFF 		bl	CyDelayUs
1038:ad5940.c      ****     
1039:ad5940.c      ****     //  ad5941_platform.c 
1040:ad5940.c      ****     AD5940_ReadWriteNBytes(tx_buf, rx_buf, bufLen);
 4171              		.loc 1 1040 0
 4172 00b6 1B23     		movs	r3, #27
 4173 00b8 FB18     		adds	r3, r7, r3
 4174 00ba 1A78     		ldrb	r2, [r3]
 4175 00bc 0823     		movs	r3, #8
 4176 00be F918     		adds	r1, r7, r3
 4177 00c0 1023     		movs	r3, #16
 4178 00c2 FB18     		adds	r3, r7, r3
 4179 00c4 1800     		movs	r0, r3
 4180 00c6 FFF7FEFF 		bl	AD5940_ReadWriteNBytes
1041:ad5940.c      ****     
1042:ad5940.c      ****     CyDelayUs(2);
 4181              		.loc 1 1042 0
 4182 00ca 0220     		movs	r0, #2
 4183 00cc FFF7FEFF 		bl	CyDelayUs
1043:ad5940.c      ****     AD5940_CsSet();
 4184              		.loc 1 1043 0
 4185 00d0 FFF7FEFF 		bl	AD5940_CsSet
1044:ad5940.c      ****     
1045:ad5940.c      ****     /* 4.  ( MSB First) */
1046:ad5940.c      ****     //  5  ( 4)
1047:ad5940.c      ****     if(is32BitReg)
 4186              		.loc 1 1047 0
 4187 00d4 1A23     		movs	r3, #26
 4188 00d6 FB18     		adds	r3, r7, r3
 4189 00d8 1B78     		ldrb	r3, [r3]
 4190 00da 002B     		cmp	r3, #0
 4191 00dc 13D0     		beq	.L218
1048:ad5940.c      ****     {
1049:ad5940.c      ****         result = ((uint32_t)rx_buf[4] << 24) |
 4192              		.loc 1 1049 0
 4193 00de 0823     		movs	r3, #8
 4194 00e0 FB18     		adds	r3, r7, r3
 4195 00e2 1B79     		ldrb	r3, [r3, #4]
 4196 00e4 1A06     		lsls	r2, r3, #24
1050:ad5940.c      ****                  ((uint32_t)rx_buf[5] << 16) |
 4197              		.loc 1 1050 0
 4198 00e6 0823     		movs	r3, #8
 4199 00e8 FB18     		adds	r3, r7, r3
 4200 00ea 5B79     		ldrb	r3, [r3, #5]
 4201 00ec 1B04     		lsls	r3, r3, #16
1049:ad5940.c      ****                  ((uint32_t)rx_buf[5] << 16) |
 4202              		.loc 1 1049 0
 4203 00ee 1A43     		orrs	r2, r3
1051:ad5940.c      ****                  ((uint32_t)rx_buf[6] << 8)  |
 4204              		.loc 1 1051 0
ARM GAS  C:\Users\13740\AppData\Local\Temp\ccPV2Gz9.s 			page 94


 4205 00f0 0823     		movs	r3, #8
 4206 00f2 FB18     		adds	r3, r7, r3
 4207 00f4 9B79     		ldrb	r3, [r3, #6]
 4208 00f6 1B02     		lsls	r3, r3, #8
1050:ad5940.c      ****                  ((uint32_t)rx_buf[5] << 16) |
 4209              		.loc 1 1050 0
 4210 00f8 1343     		orrs	r3, r2
1052:ad5940.c      ****                  ((uint32_t)rx_buf[7]);
 4211              		.loc 1 1052 0
 4212 00fa 0822     		movs	r2, #8
 4213 00fc BA18     		adds	r2, r7, r2
 4214 00fe D279     		ldrb	r2, [r2, #7]
1049:ad5940.c      ****                  ((uint32_t)rx_buf[5] << 16) |
 4215              		.loc 1 1049 0
 4216 0100 1343     		orrs	r3, r2
 4217 0102 FB61     		str	r3, [r7, #28]
 4218 0104 08E0     		b	.L219
 4219              	.L218:
1053:ad5940.c      ****     }
1054:ad5940.c      ****     else
1055:ad5940.c      ****     {
1056:ad5940.c      ****         result = ((uint32_t)rx_buf[4] << 8) |
 4220              		.loc 1 1056 0
 4221 0106 0823     		movs	r3, #8
 4222 0108 FB18     		adds	r3, r7, r3
 4223 010a 1B79     		ldrb	r3, [r3, #4]
 4224 010c 1B02     		lsls	r3, r3, #8
1057:ad5940.c      ****                  ((uint32_t)rx_buf[5]);
 4225              		.loc 1 1057 0
 4226 010e 0822     		movs	r2, #8
 4227 0110 BA18     		adds	r2, r7, r2
 4228 0112 5279     		ldrb	r2, [r2, #5]
1056:ad5940.c      ****                  ((uint32_t)rx_buf[5]);
 4229              		.loc 1 1056 0
 4230 0114 1343     		orrs	r3, r2
 4231 0116 FB61     		str	r3, [r7, #28]
 4232              	.L219:
1058:ad5940.c      ****     }
1059:ad5940.c      ****     
1060:ad5940.c      ****     return result;
 4233              		.loc 1 1060 0
 4234 0118 FB69     		ldr	r3, [r7, #28]
1061:ad5940.c      **** }
 4235              		.loc 1 1061 0
 4236 011a 1800     		movs	r0, r3
 4237 011c BD46     		mov	sp, r7
 4238 011e 08B0     		add	sp, sp, #32
 4239              		@ sp needed
 4240 0120 80BD     		pop	{r7, pc}
 4241              	.L222:
 4242 0122 C046     		.align	2
 4243              	.L221:
 4244 0124 FF0F0000 		.word	4095
 4245 0128 FF2F0000 		.word	12287
 4246              		.cfi_endproc
 4247              	.LFE31:
 4248              		.size	AD5940_SPIReadReg, .-AD5940_SPIReadReg
ARM GAS  C:\Users\13740\AppData\Local\Temp\ccPV2Gz9.s 			page 95


 4249              		.section	.text.AD5940_FIFORd,"ax",%progbits
 4250              		.align	2
 4251              		.global	AD5940_FIFORd
 4252              		.code	16
 4253              		.thumb_func
 4254              		.type	AD5940_FIFORd, %function
 4255              	AD5940_FIFORd:
 4256              	.LFB32:
1062:ad5940.c      **** 
1063:ad5940.c      **** /**
1064:ad5940.c      ****   @brief Read specific number of data from FIFO with optimized SPI access.
1065:ad5940.c      ****   @param pBuffer: Pointer to a buffer that used to store data read back.
1066:ad5940.c      ****   @param uiReadCount: How much data to be read.
1067:ad5940.c      ****   @return none.
1068:ad5940.c      **** **/
1069:ad5940.c      **** void AD5940_FIFORd(uint32_t *pBuffer, uint32_t uiReadCount)   
1070:ad5940.c      **** {
 4257              		.loc 1 1070 0
 4258              		.cfi_startproc
 4259              		@ args = 0, pretend = 0, frame = 16
 4260              		@ frame_needed = 1, uses_anonymous_args = 0
 4261 0000 90B5     		push	{r4, r7, lr}
 4262              		.cfi_def_cfa_offset 12
 4263              		.cfi_offset 4, -12
 4264              		.cfi_offset 7, -8
 4265              		.cfi_offset 14, -4
 4266 0002 85B0     		sub	sp, sp, #20
 4267              		.cfi_def_cfa_offset 32
 4268 0004 00AF     		add	r7, sp, #0
 4269              		.cfi_def_cfa_register 7
 4270 0006 7860     		str	r0, [r7, #4]
 4271 0008 3960     		str	r1, [r7]
1071:ad5940.c      ****   /* Use function AD5940_SPIReadReg to read REG_AFE_DATAFIFORD is also one method. */
1072:ad5940.c      ****    uint32_t i;
1073:ad5940.c      ****    
1074:ad5940.c      ****    if(uiReadCount < 3)
 4272              		.loc 1 1074 0
 4273 000a 3B68     		ldr	r3, [r7]
 4274 000c 022B     		cmp	r3, #2
 4275 000e 28D8     		bhi	.L224
 4276              	.LBB12:
1075:ad5940.c      ****    {
1076:ad5940.c      ****       /* This method is more efficient when readcount < 3 */
1077:ad5940.c      ****       uint32_t i;
1078:ad5940.c      ****       AD5940_CsClr();
 4277              		.loc 1 1078 0
 4278 0010 FFF7FEFF 		bl	AD5940_CsClr
1079:ad5940.c      ****       AD5940_ReadWrite8B(SPICMD_SETADDR);
 4279              		.loc 1 1079 0
 4280 0014 2020     		movs	r0, #32
 4281 0016 FFF7FEFF 		bl	AD5940_ReadWrite8B
1080:ad5940.c      ****       AD5940_ReadWrite16B(REG_AFE_DATAFIFORD);
 4282              		.loc 1 1080 0
 4283 001a 324B     		ldr	r3, .L233
 4284 001c 1800     		movs	r0, r3
 4285 001e FFF7FEFF 		bl	AD5940_ReadWrite16B
1081:ad5940.c      ****       AD5940_CsSet();
ARM GAS  C:\Users\13740\AppData\Local\Temp\ccPV2Gz9.s 			page 96


 4286              		.loc 1 1081 0
 4287 0022 FFF7FEFF 		bl	AD5940_CsSet
1082:ad5940.c      ****       for(i=0;i<uiReadCount;i++)
 4288              		.loc 1 1082 0
 4289 0026 0023     		movs	r3, #0
 4290 0028 BB60     		str	r3, [r7, #8]
 4291 002a 15E0     		b	.L225
 4292              	.L226:
1083:ad5940.c      ****       {
1084:ad5940.c      ****          AD5940_CsClr();
 4293              		.loc 1 1084 0 discriminator 3
 4294 002c FFF7FEFF 		bl	AD5940_CsClr
1085:ad5940.c      ****          AD5940_ReadWrite8B(SPICMD_READREG);
 4295              		.loc 1 1085 0 discriminator 3
 4296 0030 6D20     		movs	r0, #109
 4297 0032 FFF7FEFF 		bl	AD5940_ReadWrite8B
1086:ad5940.c      ****          AD5940_ReadWrite8B(0);//Write Host status/Don't care
 4298              		.loc 1 1086 0 discriminator 3
 4299 0036 0020     		movs	r0, #0
 4300 0038 FFF7FEFF 		bl	AD5940_ReadWrite8B
1087:ad5940.c      ****          pBuffer[i] = AD5940_ReadWrite32B(0);
 4301              		.loc 1 1087 0 discriminator 3
 4302 003c BB68     		ldr	r3, [r7, #8]
 4303 003e 9B00     		lsls	r3, r3, #2
 4304 0040 7A68     		ldr	r2, [r7, #4]
 4305 0042 D418     		adds	r4, r2, r3
 4306 0044 0020     		movs	r0, #0
 4307 0046 FFF7FEFF 		bl	AD5940_ReadWrite32B
 4308 004a 0300     		movs	r3, r0
 4309 004c 2360     		str	r3, [r4]
1088:ad5940.c      ****          AD5940_CsSet();
 4310              		.loc 1 1088 0 discriminator 3
 4311 004e FFF7FEFF 		bl	AD5940_CsSet
1082:ad5940.c      ****       {
 4312              		.loc 1 1082 0 discriminator 3
 4313 0052 BB68     		ldr	r3, [r7, #8]
 4314 0054 0133     		adds	r3, r3, #1
 4315 0056 BB60     		str	r3, [r7, #8]
 4316              	.L225:
1082:ad5940.c      ****       {
 4317              		.loc 1 1082 0 is_stmt 0 discriminator 1
 4318 0058 BA68     		ldr	r2, [r7, #8]
 4319 005a 3B68     		ldr	r3, [r7]
 4320 005c 9A42     		cmp	r2, r3
 4321 005e E5D3     		bcc	.L226
 4322              	.LBE12:
1089:ad5940.c      ****       }
1090:ad5940.c      ****    }
1091:ad5940.c      ****    else
1092:ad5940.c      ****    {
1093:ad5940.c      ****       AD5940_CsClr();
1094:ad5940.c      ****       AD5940_ReadWrite8B(SPICMD_READFIFO);
1095:ad5940.c      ****       /* 6 dummy write before valid data read back */
1096:ad5940.c      ****       for(i=0;i<6;i++)
1097:ad5940.c      ****          AD5940_ReadWrite8B(0);
1098:ad5940.c      ****       /* Continuously read DATAFIFORD register with offset 0 */
1099:ad5940.c      ****       for(i=0;i<uiReadCount-2;i++)
ARM GAS  C:\Users\13740\AppData\Local\Temp\ccPV2Gz9.s 			page 97


1100:ad5940.c      ****       {
1101:ad5940.c      ****          pBuffer[i] = AD5940_ReadWrite32B(0); /*Offset is 0, so we always read DATAFIFORD register 
1102:ad5940.c      ****       }
1103:ad5940.c      ****       /* Read back last two FIFO data with none-zero offset*/
1104:ad5940.c      ****       pBuffer[i++] = AD5940_ReadWrite32B(0x44444444);
1105:ad5940.c      ****       pBuffer[i] = AD5940_ReadWrite32B(0x44444444);
1106:ad5940.c      ****       AD5940_CsSet();
1107:ad5940.c      ****    }
1108:ad5940.c      **** }
 4323              		.loc 1 1108 0 is_stmt 1
 4324 0060 3CE0     		b	.L232
 4325              	.L224:
1093:ad5940.c      ****       AD5940_ReadWrite8B(SPICMD_READFIFO);
 4326              		.loc 1 1093 0
 4327 0062 FFF7FEFF 		bl	AD5940_CsClr
1094:ad5940.c      ****       /* 6 dummy write before valid data read back */
 4328              		.loc 1 1094 0
 4329 0066 5F20     		movs	r0, #95
 4330 0068 FFF7FEFF 		bl	AD5940_ReadWrite8B
1096:ad5940.c      ****          AD5940_ReadWrite8B(0);
 4331              		.loc 1 1096 0
 4332 006c 0023     		movs	r3, #0
 4333 006e FB60     		str	r3, [r7, #12]
 4334 0070 05E0     		b	.L228
 4335              	.L229:
1097:ad5940.c      ****       /* Continuously read DATAFIFORD register with offset 0 */
 4336              		.loc 1 1097 0 discriminator 3
 4337 0072 0020     		movs	r0, #0
 4338 0074 FFF7FEFF 		bl	AD5940_ReadWrite8B
1096:ad5940.c      ****          AD5940_ReadWrite8B(0);
 4339              		.loc 1 1096 0 discriminator 3
 4340 0078 FB68     		ldr	r3, [r7, #12]
 4341 007a 0133     		adds	r3, r3, #1
 4342 007c FB60     		str	r3, [r7, #12]
 4343              	.L228:
1096:ad5940.c      ****          AD5940_ReadWrite8B(0);
 4344              		.loc 1 1096 0 is_stmt 0 discriminator 1
 4345 007e FB68     		ldr	r3, [r7, #12]
 4346 0080 052B     		cmp	r3, #5
 4347 0082 F6D9     		bls	.L229
1099:ad5940.c      ****       {
 4348              		.loc 1 1099 0 is_stmt 1
 4349 0084 0023     		movs	r3, #0
 4350 0086 FB60     		str	r3, [r7, #12]
 4351 0088 0BE0     		b	.L230
 4352              	.L231:
1101:ad5940.c      ****       }
 4353              		.loc 1 1101 0 discriminator 3
 4354 008a FB68     		ldr	r3, [r7, #12]
 4355 008c 9B00     		lsls	r3, r3, #2
 4356 008e 7A68     		ldr	r2, [r7, #4]
 4357 0090 D418     		adds	r4, r2, r3
 4358 0092 0020     		movs	r0, #0
 4359 0094 FFF7FEFF 		bl	AD5940_ReadWrite32B
 4360 0098 0300     		movs	r3, r0
 4361 009a 2360     		str	r3, [r4]
1099:ad5940.c      ****       {
ARM GAS  C:\Users\13740\AppData\Local\Temp\ccPV2Gz9.s 			page 98


 4362              		.loc 1 1099 0 discriminator 3
 4363 009c FB68     		ldr	r3, [r7, #12]
 4364 009e 0133     		adds	r3, r3, #1
 4365 00a0 FB60     		str	r3, [r7, #12]
 4366              	.L230:
1099:ad5940.c      ****       {
 4367              		.loc 1 1099 0 is_stmt 0 discriminator 1
 4368 00a2 3B68     		ldr	r3, [r7]
 4369 00a4 9A1E     		subs	r2, r3, #2
 4370 00a6 FB68     		ldr	r3, [r7, #12]
 4371 00a8 9A42     		cmp	r2, r3
 4372 00aa EED8     		bhi	.L231
1104:ad5940.c      ****       pBuffer[i] = AD5940_ReadWrite32B(0x44444444);
 4373              		.loc 1 1104 0 is_stmt 1
 4374 00ac FB68     		ldr	r3, [r7, #12]
 4375 00ae 5A1C     		adds	r2, r3, #1
 4376 00b0 FA60     		str	r2, [r7, #12]
 4377 00b2 9B00     		lsls	r3, r3, #2
 4378 00b4 7A68     		ldr	r2, [r7, #4]
 4379 00b6 D418     		adds	r4, r2, r3
 4380 00b8 0B4B     		ldr	r3, .L233+4
 4381 00ba 1800     		movs	r0, r3
 4382 00bc FFF7FEFF 		bl	AD5940_ReadWrite32B
 4383 00c0 0300     		movs	r3, r0
 4384 00c2 2360     		str	r3, [r4]
1105:ad5940.c      ****       AD5940_CsSet();
 4385              		.loc 1 1105 0
 4386 00c4 FB68     		ldr	r3, [r7, #12]
 4387 00c6 9B00     		lsls	r3, r3, #2
 4388 00c8 7A68     		ldr	r2, [r7, #4]
 4389 00ca D418     		adds	r4, r2, r3
 4390 00cc 064B     		ldr	r3, .L233+4
 4391 00ce 1800     		movs	r0, r3
 4392 00d0 FFF7FEFF 		bl	AD5940_ReadWrite32B
 4393 00d4 0300     		movs	r3, r0
 4394 00d6 2360     		str	r3, [r4]
1106:ad5940.c      ****    }
 4395              		.loc 1 1106 0
 4396 00d8 FFF7FEFF 		bl	AD5940_CsSet
 4397              	.L232:
 4398              		.loc 1 1108 0
 4399 00dc C046     		nop
 4400 00de BD46     		mov	sp, r7
 4401 00e0 05B0     		add	sp, sp, #20
 4402              		@ sp needed
 4403 00e2 90BD     		pop	{r4, r7, pc}
 4404              	.L234:
 4405              		.align	2
 4406              	.L233:
 4407 00e4 6C200000 		.word	8300
 4408 00e8 44444444 		.word	1145324612
 4409              		.cfi_endproc
 4410              	.LFE32:
 4411              		.size	AD5940_FIFORd, .-AD5940_FIFORd
 4412              		.section	.text.AD5940_WriteReg,"ax",%progbits
 4413              		.align	2
 4414              		.global	AD5940_WriteReg
ARM GAS  C:\Users\13740\AppData\Local\Temp\ccPV2Gz9.s 			page 99


 4415              		.code	16
 4416              		.thumb_func
 4417              		.type	AD5940_WriteReg, %function
 4418              	AD5940_WriteReg:
 4419              	.LFB33:
1109:ad5940.c      **** 
1110:ad5940.c      **** /**
1111:ad5940.c      ****  * @} SPI_Block_Functions
1112:ad5940.c      ****  * @} SPI_Block
1113:ad5940.c      **** */
1114:ad5940.c      **** #endif
1115:ad5940.c      **** 
1116:ad5940.c      **** /**
1117:ad5940.c      ****  * @brief Write register. If sequencer generator is enabled, the register write is recorded. 
1118:ad5940.c      ****  *        Otherwise, the data is written to AD5940 by SPI.
1119:ad5940.c      ****  * @param RegAddr: The register address.
1120:ad5940.c      ****  * @param RegData: The register data.
1121:ad5940.c      ****  * @return Return None.
1122:ad5940.c      **** **/
1123:ad5940.c      **** void AD5940_WriteReg(uint16_t RegAddr, uint32_t RegData)
1124:ad5940.c      **** {
 4420              		.loc 1 1124 0
 4421              		.cfi_startproc
 4422              		@ args = 0, pretend = 0, frame = 8
 4423              		@ frame_needed = 1, uses_anonymous_args = 0
 4424 0000 80B5     		push	{r7, lr}
 4425              		.cfi_def_cfa_offset 8
 4426              		.cfi_offset 7, -8
 4427              		.cfi_offset 14, -4
 4428 0002 82B0     		sub	sp, sp, #8
 4429              		.cfi_def_cfa_offset 16
 4430 0004 00AF     		add	r7, sp, #0
 4431              		.cfi_def_cfa_register 7
 4432 0006 0200     		movs	r2, r0
 4433 0008 3960     		str	r1, [r7]
 4434 000a BB1D     		adds	r3, r7, #6
 4435 000c 1A80     		strh	r2, [r3]
1125:ad5940.c      **** #ifdef SEQUENCE_GENERATOR
1126:ad5940.c      ****   if(SeqGenDB.EngineStart == bTRUE)
 4436              		.loc 1 1126 0
 4437 000e 0B4B     		ldr	r3, .L239
 4438 0010 1B78     		ldrb	r3, [r3]
 4439 0012 012B     		cmp	r3, #1
 4440 0014 07D1     		bne	.L236
1127:ad5940.c      ****     AD5940_SEQWriteReg(RegAddr, RegData);
 4441              		.loc 1 1127 0
 4442 0016 3A68     		ldr	r2, [r7]
 4443 0018 BB1D     		adds	r3, r7, #6
 4444 001a 1B88     		ldrh	r3, [r3]
 4445 001c 1100     		movs	r1, r2
 4446 001e 1800     		movs	r0, r3
 4447 0020 FFF7FEFF 		bl	AD5940_SEQWriteReg
1128:ad5940.c      ****   else
1129:ad5940.c      **** #endif
1130:ad5940.c      **** #ifdef CHIPSEL_M355
1131:ad5940.c      ****     AD5940_D2DWriteReg(RegAddr, RegData);
1132:ad5940.c      **** #else
ARM GAS  C:\Users\13740\AppData\Local\Temp\ccPV2Gz9.s 			page 100


1133:ad5940.c      ****     AD5940_SPIWriteReg(RegAddr, RegData);
1134:ad5940.c      **** #endif
1135:ad5940.c      **** }
 4448              		.loc 1 1135 0
 4449 0024 06E0     		b	.L238
 4450              	.L236:
1133:ad5940.c      **** #endif
 4451              		.loc 1 1133 0
 4452 0026 3A68     		ldr	r2, [r7]
 4453 0028 BB1D     		adds	r3, r7, #6
 4454 002a 1B88     		ldrh	r3, [r3]
 4455 002c 1100     		movs	r1, r2
 4456 002e 1800     		movs	r0, r3
 4457 0030 FFF7FEFF 		bl	AD5940_SPIWriteReg
 4458              	.L238:
 4459              		.loc 1 1135 0
 4460 0034 C046     		nop
 4461 0036 BD46     		mov	sp, r7
 4462 0038 02B0     		add	sp, sp, #8
 4463              		@ sp needed
 4464 003a 80BD     		pop	{r7, pc}
 4465              	.L240:
 4466              		.align	2
 4467              	.L239:
 4468 003c 00000000 		.word	SeqGenDB
 4469              		.cfi_endproc
 4470              	.LFE33:
 4471              		.size	AD5940_WriteReg, .-AD5940_WriteReg
 4472              		.section	.text.AD5940_ReadReg,"ax",%progbits
 4473              		.align	2
 4474              		.global	AD5940_ReadReg
 4475              		.code	16
 4476              		.thumb_func
 4477              		.type	AD5940_ReadReg, %function
 4478              	AD5940_ReadReg:
 4479              	.LFB34:
1136:ad5940.c      **** 
1137:ad5940.c      **** /**
1138:ad5940.c      ****  * @brief Read register. If sequencer generator is enabled, read current register value from data-b
1139:ad5940.c      ****  *        Otherwise, read register value by SPI.
1140:ad5940.c      ****  * @param RegAddr: The register address.
1141:ad5940.c      ****  * @return Return register value.
1142:ad5940.c      **** **/
1143:ad5940.c      **** uint32_t AD5940_ReadReg(uint16_t RegAddr)
1144:ad5940.c      **** {
 4480              		.loc 1 1144 0
 4481              		.cfi_startproc
 4482              		@ args = 0, pretend = 0, frame = 8
 4483              		@ frame_needed = 1, uses_anonymous_args = 0
 4484 0000 80B5     		push	{r7, lr}
 4485              		.cfi_def_cfa_offset 8
 4486              		.cfi_offset 7, -8
 4487              		.cfi_offset 14, -4
 4488 0002 82B0     		sub	sp, sp, #8
 4489              		.cfi_def_cfa_offset 16
 4490 0004 00AF     		add	r7, sp, #0
 4491              		.cfi_def_cfa_register 7
ARM GAS  C:\Users\13740\AppData\Local\Temp\ccPV2Gz9.s 			page 101


 4492 0006 0200     		movs	r2, r0
 4493 0008 BB1D     		adds	r3, r7, #6
 4494 000a 1A80     		strh	r2, [r3]
1145:ad5940.c      **** #ifdef SEQUENCE_GENERATOR
1146:ad5940.c      ****   if(SeqGenDB.EngineStart == bTRUE)
 4495              		.loc 1 1146 0
 4496 000c 0A4B     		ldr	r3, .L244
 4497 000e 1B78     		ldrb	r3, [r3]
 4498 0010 012B     		cmp	r3, #1
 4499 0012 06D1     		bne	.L242
1147:ad5940.c      ****     return AD5940_SEQReadReg(RegAddr);
 4500              		.loc 1 1147 0
 4501 0014 BB1D     		adds	r3, r7, #6
 4502 0016 1B88     		ldrh	r3, [r3]
 4503 0018 1800     		movs	r0, r3
 4504 001a FFF7FEFF 		bl	AD5940_SEQReadReg
 4505 001e 0300     		movs	r3, r0
 4506 0020 05E0     		b	.L243
 4507              	.L242:
1148:ad5940.c      ****   else
1149:ad5940.c      **** #endif
1150:ad5940.c      **** #ifdef CHIPSEL_M355
1151:ad5940.c      ****     return AD5940_D2DReadReg(RegAddr);
1152:ad5940.c      **** #else
1153:ad5940.c      ****     return AD5940_SPIReadReg(RegAddr);
 4508              		.loc 1 1153 0
 4509 0022 BB1D     		adds	r3, r7, #6
 4510 0024 1B88     		ldrh	r3, [r3]
 4511 0026 1800     		movs	r0, r3
 4512 0028 FFF7FEFF 		bl	AD5940_SPIReadReg
 4513 002c 0300     		movs	r3, r0
 4514              	.L243:
1154:ad5940.c      **** #endif
1155:ad5940.c      **** }
 4515              		.loc 1 1155 0
 4516 002e 1800     		movs	r0, r3
 4517 0030 BD46     		mov	sp, r7
 4518 0032 02B0     		add	sp, sp, #8
 4519              		@ sp needed
 4520 0034 80BD     		pop	{r7, pc}
 4521              	.L245:
 4522 0036 C046     		.align	2
 4523              	.L244:
 4524 0038 00000000 		.word	SeqGenDB
 4525              		.cfi_endproc
 4526              	.LFE34:
 4527              		.size	AD5940_ReadReg, .-AD5940_ReadReg
 4528              		.section	.rodata
 4529              		.align	2
 4530              	.LC16:
 4531 011c 0809     		.short	2312
 4532 011e 0000     		.space	2
 4533 0120 C9020000 		.word	713
 4534 0124 080C     		.short	3080
 4535 0126 0000     		.space	2
 4536 0128 6C200000 		.word	8300
 4537 012c F021     		.short	8688
ARM GAS  C:\Users\13740\AppData\Local\Temp\ccPV2Gz9.s 			page 102


 4538 012e 0000     		.space	2
 4539 0130 10000000 		.word	16
 4540 0134 1004     		.short	1040
 4541 0136 0000     		.space	2
 4542 0138 C9020000 		.word	713
 4543 013c 280A     		.short	2600
 4544 013e 0000     		.space	2
 4545 0140 09000000 		.word	9
 4546 0144 8C23     		.short	9100
 4547 0146 0000     		.space	2
 4548 0148 04010000 		.word	260
 4549 014c 040A     		.short	2564
 4550 014e 0000     		.space	2
 4551 0150 59480000 		.word	18521
 4552 0154 040A     		.short	2564
 4553 0156 0000     		.space	2
 4554 0158 7BF20000 		.word	62075
 4555 015c 000A     		.short	2560
 4556 015e 0000     		.space	2
 4557 0160 09800000 		.word	32777
 4558 0164 F022     		.short	8944
 4559 0166 0000     		.space	2
 4560 0168 00000000 		.word	0
 4561 016c 3022     		.short	8752
 4562 016e 0000     		.space	2
 4563 0170 AFA587DE 		.word	-561535569
 4564 0174 5022     		.short	8784
 4565 0176 0000     		.space	2
 4566 0178 3F100000 		.word	4159
 4567 017c B022     		.short	8880
 4568 017e 0000     		.space	2
 4569 0180 3C200000 		.word	8252
 4570 0184 3022     		.short	8752
 4571 0186 0000     		.space	2
 4572 0188 A0A587DE 		.word	-561535584
 4573              		.section	.text.AD5940_Initialize,"ax",%progbits
 4574              		.align	2
 4575              		.global	AD5940_Initialize
 4576              		.code	16
 4577              		.thumb_func
 4578              		.type	AD5940_Initialize, %function
 4579              	AD5940_Initialize:
 4580              	.LFB35:
1156:ad5940.c      **** 
1157:ad5940.c      **** 
1158:ad5940.c      **** /**
1159:ad5940.c      ****  * @defgroup AFE_Control 
1160:ad5940.c      ****  * @brief Some functions to control the whole AFE. They are top level switches.
1161:ad5940.c      ****  * @{
1162:ad5940.c      ****  *    @defgroup AFE_Control_Functions
1163:ad5940.c      ****  *    The top-level control functions for whole AFE perspective. 
1164:ad5940.c      ****  *    @details  This function set is used to control the whole AFE block by block. It's a top-level
1165:ad5940.c      ****  *              It's convenient when do initialization work with the functions called BLOCK**Cfg**.
1166:ad5940.c      ****  *              functions from each block. rather than top-level functions where you need to config
1167:ad5940.c      ****  *    @{
1168:ad5940.c      **** */
1169:ad5940.c      **** 
ARM GAS  C:\Users\13740\AppData\Local\Temp\ccPV2Gz9.s 			page 103


1170:ad5940.c      **** /**
1171:ad5940.c      ****  * @brief Initialize AD5940. This function must be called whenever there is reset(Software Reset or
1172:ad5940.c      ****  *        This function is used to put AD5940 to correct state.
1173:ad5940.c      ****  * @return return None
1174:ad5940.c      **** **/
1175:ad5940.c      **** void AD5940_Initialize(void)
1176:ad5940.c      **** {
 4581              		.loc 1 1176 0
 4582              		.cfi_startproc
 4583              		@ args = 0, pretend = 0, frame = 120
 4584              		@ frame_needed = 1, uses_anonymous_args = 0
 4585 0000 80B5     		push	{r7, lr}
 4586              		.cfi_def_cfa_offset 8
 4587              		.cfi_offset 7, -8
 4588              		.cfi_offset 14, -4
 4589 0002 9EB0     		sub	sp, sp, #120
 4590              		.cfi_def_cfa_offset 128
 4591 0004 00AF     		add	r7, sp, #0
 4592              		.cfi_def_cfa_register 7
1177:ad5940.c      ****   int i;
1178:ad5940.c      ****   /* Write following registers with its data sequentially whenever there is a reset happened. */
1179:ad5940.c      ****   const struct
1180:ad5940.c      ****   {
1181:ad5940.c      ****     uint16_t reg_addr;
1182:ad5940.c      ****     uint32_t reg_data;
1183:ad5940.c      ****   }RegTable[]=
 4593              		.loc 1 1183 0
 4594 0006 3A1D     		adds	r2, r7, #4
 4595 0008 264B     		ldr	r3, .L253
 4596 000a 1000     		movs	r0, r2
 4597 000c 1900     		movs	r1, r3
 4598 000e 7023     		movs	r3, #112
 4599 0010 1A00     		movs	r2, r3
 4600 0012 FFF7FEFF 		bl	memcpy
1184:ad5940.c      ****   {
1185:ad5940.c      ****     {0x0908, 0x02c9},
1186:ad5940.c      ****     {0x0c08, 0x206C},
1187:ad5940.c      ****     {0x21F0, 0x0010},
1188:ad5940.c      **** #ifndef CHIPSEL_M355
1189:ad5940.c      ****     /* This is AD5940 */
1190:ad5940.c      ****     {0x0410, 0x02c9},
1191:ad5940.c      ****     {0x0A28, 0x0009},
1192:ad5940.c      **** #else
1193:ad5940.c      ****     /* This is ADuCM355 */
1194:ad5940.c      ****     {0x0410, 0x001a},
1195:ad5940.c      ****     {0x0A28, 0x0008},
1196:ad5940.c      **** #endif
1197:ad5940.c      ****     {0x238c, 0x0104},
1198:ad5940.c      ****     {0x0a04, 0x4859},
1199:ad5940.c      ****     {0x0a04, 0xF27B},
1200:ad5940.c      ****     {0x0a00, 0x8009},
1201:ad5940.c      ****     {0x22F0, 0x0000},
1202:ad5940.c      ****     //
1203:ad5940.c      ****     {0x2230, 0xDE87A5AF},
1204:ad5940.c      ****     {0x2250, 0x103F},
1205:ad5940.c      ****     {0x22B0, 0x203C},
1206:ad5940.c      ****     {0x2230, 0xDE87A5A0},
ARM GAS  C:\Users\13740\AppData\Local\Temp\ccPV2Gz9.s 			page 104


1207:ad5940.c      ****   };
1208:ad5940.c      ****   //initialize global variables
1209:ad5940.c      ****   SeqGenDB.SeqLen = 0;
 4601              		.loc 1 1209 0
 4602 0016 244B     		ldr	r3, .L253+4
 4603 0018 0022     		movs	r2, #0
 4604 001a DA60     		str	r2, [r3, #12]
1210:ad5940.c      ****   SeqGenDB.RegCount = 0;
 4605              		.loc 1 1210 0
 4606 001c 224B     		ldr	r3, .L253+4
 4607 001e 0022     		movs	r2, #0
 4608 0020 5A61     		str	r2, [r3, #20]
1211:ad5940.c      ****   SeqGenDB.LastError = AD5940ERR_OK;
 4609              		.loc 1 1211 0
 4610 0022 214B     		ldr	r3, .L253+4
 4611 0024 0022     		movs	r2, #0
 4612 0026 9A61     		str	r2, [r3, #24]
1212:ad5940.c      ****   SeqGenDB.EngineStart = bFALSE;
 4613              		.loc 1 1212 0
 4614 0028 1F4B     		ldr	r3, .L253+4
 4615 002a 0022     		movs	r2, #0
 4616 002c 1A70     		strb	r2, [r3]
1213:ad5940.c      **** #ifndef CHIPSEL_M355
1214:ad5940.c      ****   AD5940_CsSet(); /* Pull high CS in case it's low */
 4617              		.loc 1 1214 0
 4618 002e FFF7FEFF 		bl	AD5940_CsSet
1215:ad5940.c      **** #endif
1216:ad5940.c      ****   for(i=0; i<sizeof(RegTable)/sizeof(RegTable[0]); i++)
 4619              		.loc 1 1216 0
 4620 0032 0023     		movs	r3, #0
 4621 0034 7B67     		str	r3, [r7, #116]
 4622 0036 0FE0     		b	.L247
 4623              	.L248:
1217:ad5940.c      ****     AD5940_WriteReg(RegTable[i].reg_addr, RegTable[i].reg_data);
 4624              		.loc 1 1217 0 discriminator 3
 4625 0038 3B1D     		adds	r3, r7, #4
 4626 003a 7A6F     		ldr	r2, [r7, #116]
 4627 003c D200     		lsls	r2, r2, #3
 4628 003e D05A     		ldrh	r0, [r2, r3]
 4629 0040 3A1D     		adds	r2, r7, #4
 4630 0042 7B6F     		ldr	r3, [r7, #116]
 4631 0044 DB00     		lsls	r3, r3, #3
 4632 0046 D318     		adds	r3, r2, r3
 4633 0048 0433     		adds	r3, r3, #4
 4634 004a 1B68     		ldr	r3, [r3]
 4635 004c 1900     		movs	r1, r3
 4636 004e FFF7FEFF 		bl	AD5940_WriteReg
1216:ad5940.c      ****     AD5940_WriteReg(RegTable[i].reg_addr, RegTable[i].reg_data);
 4637              		.loc 1 1216 0 discriminator 3
 4638 0052 7B6F     		ldr	r3, [r7, #116]
 4639 0054 0133     		adds	r3, r3, #1
 4640 0056 7B67     		str	r3, [r7, #116]
 4641              	.L247:
1216:ad5940.c      ****     AD5940_WriteReg(RegTable[i].reg_addr, RegTable[i].reg_data);
 4642              		.loc 1 1216 0 is_stmt 0 discriminator 1
 4643 0058 7B6F     		ldr	r3, [r7, #116]
 4644 005a 0D2B     		cmp	r3, #13
ARM GAS  C:\Users\13740\AppData\Local\Temp\ccPV2Gz9.s 			page 105


 4645 005c ECD9     		bls	.L248
1218:ad5940.c      ****   i = AD5940_ReadReg(REG_AFECON_CHIPID);  
 4646              		.loc 1 1218 0 is_stmt 1
 4647 005e 134B     		ldr	r3, .L253+8
 4648 0060 1800     		movs	r0, r3
 4649 0062 FFF7FEFF 		bl	AD5940_ReadReg
 4650 0066 0300     		movs	r3, r0
 4651 0068 7B67     		str	r3, [r7, #116]
1219:ad5940.c      ****   if(i == 0x5501)
 4652              		.loc 1 1219 0
 4653 006a 7B6F     		ldr	r3, [r7, #116]
 4654 006c 104A     		ldr	r2, .L253+12
 4655 006e 9342     		cmp	r3, r2
 4656 0070 03D1     		bne	.L249
1220:ad5940.c      ****     bIsS2silicon = bTRUE;
 4657              		.loc 1 1220 0
 4658 0072 104B     		ldr	r3, .L253+16
 4659 0074 0122     		movs	r2, #1
 4660 0076 1A70     		strb	r2, [r3]
1221:ad5940.c      ****   else if(i == 0x5502)  /* S3 chip-id is 0x5502. The is no difference with S2. */
1222:ad5940.c      ****     bIsS2silicon = bTRUE;
1223:ad5940.c      ****   else if(i == 0x5500)
1224:ad5940.c      ****     bIsS2silicon = bFALSE;
1225:ad5940.c      **** #ifdef ADI_DEBUG
1226:ad5940.c      ****   else
1227:ad5940.c      ****   {
1228:ad5940.c      ****     printf("CHIPID read error:0x%04x. AD5940 is not present?\n", i);
1229:ad5940.c      ****     while(1);
1230:ad5940.c      ****   }
1231:ad5940.c      **** #ifdef CHIPSEL_M355
1232:ad5940.c      ****   ADI_Print("This ADuCM355!\n");
1233:ad5940.c      **** #else
1234:ad5940.c      ****   ADI_Print("This AD594x!\n");
1235:ad5940.c      **** #endif
1236:ad5940.c      ****   ADI_Print("Note: Current Silicon is %s\n", bIsS2silicon?"S2":"S1");
1237:ad5940.c      ****   ADI_Print("AD5940LIB Version:v%d.%d.%d\n", AD5940LIB_VER_MAJOR, AD5940LIB_VER_MINOR, AD5940LIB_VE
1238:ad5940.c      **** #endif
1239:ad5940.c      **** }
 4661              		.loc 1 1239 0
 4662 0078 0FE0     		b	.L252
 4663              	.L249:
1221:ad5940.c      ****   else if(i == 0x5502)  /* S3 chip-id is 0x5502. The is no difference with S2. */
 4664              		.loc 1 1221 0
 4665 007a 7B6F     		ldr	r3, [r7, #116]
 4666 007c 0E4A     		ldr	r2, .L253+20
 4667 007e 9342     		cmp	r3, r2
 4668 0080 03D1     		bne	.L251
1222:ad5940.c      ****   else if(i == 0x5500)
 4669              		.loc 1 1222 0
 4670 0082 0C4B     		ldr	r3, .L253+16
 4671 0084 0122     		movs	r2, #1
 4672 0086 1A70     		strb	r2, [r3]
 4673              		.loc 1 1239 0
 4674 0088 07E0     		b	.L252
 4675              	.L251:
1223:ad5940.c      ****     bIsS2silicon = bFALSE;
 4676              		.loc 1 1223 0
ARM GAS  C:\Users\13740\AppData\Local\Temp\ccPV2Gz9.s 			page 106


 4677 008a 7A6F     		ldr	r2, [r7, #116]
 4678 008c AA23     		movs	r3, #170
 4679 008e DB01     		lsls	r3, r3, #7
 4680 0090 9A42     		cmp	r2, r3
 4681 0092 02D1     		bne	.L252
1224:ad5940.c      **** #ifdef ADI_DEBUG
 4682              		.loc 1 1224 0
 4683 0094 074B     		ldr	r3, .L253+16
 4684 0096 0022     		movs	r2, #0
