ARM GAS  C:\Users\13740\AppData\Local\Temp\ccZrwIb5.s 			page 1


   1              		.syntax unified
   2              		.cpu cortex-m0
   3              		.fpu softvfp
   4              		.eabi_attribute 20, 1
   5              		.eabi_attribute 21, 1
   6              		.eabi_attribute 23, 3
   7              		.eabi_attribute 24, 1
   8              		.eabi_attribute 25, 1
   9              		.eabi_attribute 26, 1
  10              		.eabi_attribute 30, 6
  11              		.eabi_attribute 34, 0
  12              		.eabi_attribute 18, 4
  13              		.thumb
  14              		.syntax unified
  15              		.file	"Amperometric.c"
  16              		.text
  17              	.Ltext0:
  18              		.cfi_sections	.debug_frame
  19              		.global	AppAMPCfg
  20              		.data
  21              		.align	2
  22              		.type	AppAMPCfg, %object
  23              		.size	AppAMPCfg, 160
  24              	AppAMPCfg:
  25 0000 00       		.byte	0
  26 0001 000000   		.space	3
  27 0004 00000000 		.word	0
  28 0008 00000000 		.word	0
  29 000c 00000000 		.word	0
  30 0010 00000000 		.word	0
  31 0014 00       		.byte	0
  32 0015 000000   		.space	3
  33 0018 0024744B 		.word	1265902592
  34 001c 0000FA46 		.word	1190789120
  35 0020 0024744B 		.word	1265902592
  36 0024 05000000 		.word	5
  37 0028 0000803F 		.word	1065353216
  38 002c FFFFFFFF 		.word	-1
  39 0030 00401C46 		.word	1176256512
  40 0034 C3F5E83F 		.word	1072231875
  41 0038 00000000 		.word	0
  42 003c 01000000 		.word	1
  43 0040 01       		.byte	1
  44 0041 03       		.byte	3
  45 0042 0000     		.space	2
  46 0044 00000000 		.word	0
  47 0048 08000000 		.word	8
  48 004c 07000000 		.word	7
  49 0050 04000000 		.word	4
  50 0054 00401C46 		.word	1176256512
  51 0058 00000000 		.word	0
  52 005c 00808944 		.word	1149861888
  53 0060 0000FA43 		.word	1140457472
  54 0064 00       		.byte	0
  55 0065 000000   		.space	3
  56 0068 00000000 		.word	0
  57 006c 00       		.byte	0
ARM GAS  C:\Users\13740\AppData\Local\Temp\ccZrwIb5.s 			page 2


  58 006d 00000000 		.space	43
  58      00000000 
  58      00000000 
  58      00000000 
  58      00000000 
  59 0098 00       		.byte	0
  60 0099 00000000 		.space	7
  60      000000
  61              		.section	.text.AppAMPGetCfg,"ax",%progbits
  62              		.align	2
  63              		.global	AppAMPGetCfg
  64              		.code	16
  65              		.thumb_func
  66              		.type	AppAMPGetCfg, %function
  67              	AppAMPGetCfg:
  68              	.LFB1:
  69              		.file 1 "Amperometric.c"
   1:Amperometric.c **** /*!
   2:Amperometric.c ****  *****************************************************************************
   3:Amperometric.c ****  @file:    Amperometric.c
   4:Amperometric.c ****  @author:  $Author: mlambe $
   5:Amperometric.c ****  @brief:   Amperometric measurement.
   6:Amperometric.c ****  @version: $Revision: 766 $
   7:Amperometric.c ****  @date:    $Date: 2018-03-21 14:09:35 +0100 (Wed, 21 Mar 2018) $
   8:Amperometric.c ****  -----------------------------------------------------------------------------
   9:Amperometric.c **** 
  10:Amperometric.c **** Copyright (c) 2017-2019 Analog Devices, Inc. All Rights Reserved.
  11:Amperometric.c **** 
  12:Amperometric.c **** This software is proprietary to Analog Devices, Inc. and its licensors.
  13:Amperometric.c **** By using this software you agree to the terms of the associated
  14:Amperometric.c **** Analog Devices Software License Agreement.
  15:Amperometric.c ****  
  16:Amperometric.c **** *****************************************************************************/
  17:Amperometric.c **** #include "Amperometric.h"
  18:Amperometric.c **** 
  19:Amperometric.c **** /* 
  20:Amperometric.c ****   Application configuration structure. Specified by user from template.
  21:Amperometric.c ****   The variables are usable in this whole application.
  22:Amperometric.c ****   It includes basic configuration for sequencer generator and application related parameters
  23:Amperometric.c **** */
  24:Amperometric.c **** AppAMPCfg_Type AppAMPCfg = 
  25:Amperometric.c **** {
  26:Amperometric.c ****   .bParaChanged = bFALSE,
  27:Amperometric.c ****   .SeqStartAddr = 0,
  28:Amperometric.c ****   .MaxSeqLen = 0,
  29:Amperometric.c ****   
  30:Amperometric.c ****   .SeqStartAddrCal = 0,
  31:Amperometric.c ****   .MaxSeqLenCal = 0,
  32:Amperometric.c ****   .FifoThresh = 5,              /* Number of points for FIFO */
  33:Amperometric.c ****   
  34:Amperometric.c ****   .SysClkFreq = 16000000.0,
  35:Amperometric.c ****   .WuptClkFreq = 32000.0,
  36:Amperometric.c ****   .AdcClkFreq = 16000000.0,
  37:Amperometric.c ****   .AmpODR = 1.0,                /* Sample time in seconds. I.e. every 5 seconds make a measurement 
  38:Amperometric.c ****   .NumOfData = -1,
  39:Amperometric.c ****   .RcalVal = 10000.0,           /* RCAL = 10kOhm */
  40:Amperometric.c ****   .PwrMod = AFEPWR_LP,
ARM GAS  C:\Users\13740\AppData\Local\Temp\ccZrwIb5.s 			page 3


  41:Amperometric.c ****   .AMPInited = bFALSE,
  42:Amperometric.c ****   .StopRequired = bFALSE,
  43:Amperometric.c ****   
  44:Amperometric.c ****   /* LPTIA Configure */
  45:Amperometric.c ****   .ExtRtia = bFALSE,            /* Set to true if using external RTIA */
  46:Amperometric.c ****   .LptiaRtiaSel = LPTIARTIA_10K, /* COnfigure RTIA */
  47:Amperometric.c ****   .LpTiaRf = LPTIARF_1M,        /* Configure LPF resistor */
  48:Amperometric.c ****   .LpTiaRl = LPTIARLOAD_100R,
  49:Amperometric.c ****   .ReDoRtiaCal = bFALSE,
  50:Amperometric.c ****   .RtiaCalValue = {10000.0, 0},
  51:Amperometric.c **** 	.ExtRtiaVal = 0,
  52:Amperometric.c ****   
  53:Amperometric.c **** /*LPDAC Configure */
  54:Amperometric.c ****   .Vzero = 1100,                /* Sets voltage on SE0 and LPTIA */
  55:Amperometric.c ****   .SensorBias = 500,            /* Sets voltage between RE0 and SE0 500*/
  56:Amperometric.c ****   
  57:Amperometric.c **** /* ADC Configure*/
  58:Amperometric.c ****   .ADCPgaGain = ADCPGA_1P5,
  59:Amperometric.c ****   .ADCSinc3Osr = ADCSINC3OSR_4,
  60:Amperometric.c ****   .ADCSinc2Osr = ADCSINC2OSR_178, //22
  61:Amperometric.c ****   .DataFifoSrc = FIFOSRC_SINC3,
  62:Amperometric.c ****   .ADCRefVolt = 1.82,			/* Measure voltage on ADCRefVolt pin and enter here*/
  63:Amperometric.c **** };
  64:Amperometric.c **** 
  65:Amperometric.c **** /**
  66:Amperometric.c ****    This function is provided for upper controllers that want to change 
  67:Amperometric.c ****    application parameters specially for user defined parameters.
  68:Amperometric.c **** */
  69:Amperometric.c **** AD5940Err AppAMPGetCfg(void *pCfg)
  70:Amperometric.c **** {
  70              		.loc 1 70 0
  71              		.cfi_startproc
  72              		@ args = 0, pretend = 0, frame = 8
  73              		@ frame_needed = 1, uses_anonymous_args = 0
  74 0000 80B5     		push	{r7, lr}
  75              		.cfi_def_cfa_offset 8
  76              		.cfi_offset 7, -8
  77              		.cfi_offset 14, -4
  78 0002 82B0     		sub	sp, sp, #8
  79              		.cfi_def_cfa_offset 16
  80 0004 00AF     		add	r7, sp, #0
  81              		.cfi_def_cfa_register 7
  82 0006 7860     		str	r0, [r7, #4]
  71:Amperometric.c ****   if(pCfg){
  83              		.loc 1 71 0
  84 0008 7B68     		ldr	r3, [r7, #4]
  85 000a 002B     		cmp	r3, #0
  86 000c 04D0     		beq	.L2
  72:Amperometric.c ****     *(AppAMPCfg_Type**)pCfg = &AppAMPCfg;
  87              		.loc 1 72 0
  88 000e 7B68     		ldr	r3, [r7, #4]
  89 0010 044A     		ldr	r2, .L4
  90 0012 1A60     		str	r2, [r3]
  73:Amperometric.c ****     return AD5940ERR_OK;
  91              		.loc 1 73 0
  92 0014 0023     		movs	r3, #0
  93 0016 01E0     		b	.L3
ARM GAS  C:\Users\13740\AppData\Local\Temp\ccZrwIb5.s 			page 4


  94              	.L2:
  74:Amperometric.c ****   }
  75:Amperometric.c ****   return AD5940ERR_PARA;
  95              		.loc 1 75 0
  96 0018 0223     		movs	r3, #2
  97 001a 5B42     		rsbs	r3, r3, #0
  98              	.L3:
  76:Amperometric.c **** }
  99              		.loc 1 76 0
 100 001c 1800     		movs	r0, r3
 101 001e BD46     		mov	sp, r7
 102 0020 02B0     		add	sp, sp, #8
 103              		@ sp needed
 104 0022 80BD     		pop	{r7, pc}
 105              	.L5:
 106              		.align	2
 107              	.L4:
 108 0024 00000000 		.word	AppAMPCfg
 109              		.cfi_endproc
 110              	.LFE1:
 111              		.size	AppAMPGetCfg, .-AppAMPGetCfg
 112              		.global	__aeabi_fmul
 113              		.global	__aeabi_f2uiz
 114              		.section	.text.AppAMPCtrl,"ax",%progbits
 115              		.align	2
 116              		.global	AppAMPCtrl
 117              		.code	16
 118              		.thumb_func
 119              		.type	AppAMPCtrl, %function
 120              	AppAMPCtrl:
 121              	.LFB2:
  77:Amperometric.c **** 
  78:Amperometric.c **** AD5940Err AppAMPCtrl(int32_t AmpCtrl, void *pPara)
  79:Amperometric.c **** {
 122              		.loc 1 79 0
 123              		.cfi_startproc
 124              		@ args = 0, pretend = 0, frame = 96
 125              		@ frame_needed = 1, uses_anonymous_args = 0
 126 0000 80B5     		push	{r7, lr}
 127              		.cfi_def_cfa_offset 8
 128              		.cfi_offset 7, -8
 129              		.cfi_offset 14, -4
 130 0002 98B0     		sub	sp, sp, #96
 131              		.cfi_def_cfa_offset 104
 132 0004 00AF     		add	r7, sp, #0
 133              		.cfi_def_cfa_register 7
 134 0006 7860     		str	r0, [r7, #4]
 135 0008 3960     		str	r1, [r7]
  80:Amperometric.c ****   switch (AmpCtrl)
 136              		.loc 1 80 0
 137 000a 7B68     		ldr	r3, [r7, #4]
 138 000c 012B     		cmp	r3, #1
 139 000e 40D0     		beq	.L8
 140 0010 02DC     		bgt	.L9
 141 0012 002B     		cmp	r3, #0
 142 0014 05D0     		beq	.L10
  81:Amperometric.c ****   {
ARM GAS  C:\Users\13740\AppData\Local\Temp\ccZrwIb5.s 			page 5


  82:Amperometric.c ****     case AMPCTRL_START:
  83:Amperometric.c ****     {
  84:Amperometric.c ****       WUPTCfg_Type wupt_cfg;
  85:Amperometric.c **** 
  86:Amperometric.c ****       AD5940_ReadReg(REG_AFE_ADCDAT); /* Any SPI Operation can wakeup AFE */
  87:Amperometric.c ****       if(AppAMPCfg.AMPInited == bFALSE)
  88:Amperometric.c ****         return AD5940ERR_APPERROR;
  89:Amperometric.c ****       /* Start it */
  90:Amperometric.c ****       wupt_cfg.WuptEn = bTRUE;
  91:Amperometric.c ****       wupt_cfg.WuptEndSeq = WUPTENDSEQ_A;
  92:Amperometric.c ****       wupt_cfg.WuptOrder[0] = SEQID_0;
  93:Amperometric.c ****       wupt_cfg.SeqxSleepTime[SEQID_0] = 4-1;
  94:Amperometric.c ****       wupt_cfg.SeqxWakeupTime[SEQID_0] = (uint32_t)(AppAMPCfg.WuptClkFreq*AppAMPCfg.AmpODR)-4-1; 
  95:Amperometric.c ****       AD5940_WUPTCfg(&wupt_cfg);
  96:Amperometric.c ****       
  97:Amperometric.c ****       AppAMPCfg.FifoDataCount = 0;  /* restart */
  98:Amperometric.c ****       break;
  99:Amperometric.c ****     }
 100:Amperometric.c ****     case AMPCTRL_STOPNOW:
 101:Amperometric.c ****     {
 102:Amperometric.c ****       AD5940_ReadReg(REG_AFE_ADCDAT); /* Any SPI Operation can wakeup AFE */
 103:Amperometric.c ****       /* Start Wupt right now */
 104:Amperometric.c ****       AD5940_WUPTCtrl(bFALSE);
 105:Amperometric.c ****       /* There is chance this operation will fail because sequencer could put AFE back 
 106:Amperometric.c ****         to hibernate mode just after waking up. Use STOPSYNC is better. */
 107:Amperometric.c ****       AD5940_WUPTCtrl(bFALSE);
 108:Amperometric.c ****       break;
 109:Amperometric.c ****     }
 110:Amperometric.c ****     case AMPCTRL_STOPSYNC:
 111:Amperometric.c ****     {
 112:Amperometric.c ****       AppAMPCfg.StopRequired = bTRUE;
 113:Amperometric.c ****       break;
 114:Amperometric.c ****     }
 115:Amperometric.c ****     case AMPCTRL_SHUTDOWN:
 116:Amperometric.c ****     {
 117:Amperometric.c ****       AppAMPCtrl(AMPCTRL_STOPNOW, 0);  /* Stop the measurement if it's running. */
 118:Amperometric.c ****       /* Turn off LPloop related blocks which are not controlled automatically by sleep operation *
 119:Amperometric.c ****       AFERefCfg_Type aferef_cfg;
 120:Amperometric.c ****       LPLoopCfg_Type lp_loop;
 121:Amperometric.c ****       memset(&aferef_cfg, 0, sizeof(aferef_cfg));
 122:Amperometric.c ****       AD5940_REFCfgS(&aferef_cfg);
 123:Amperometric.c ****       memset(&lp_loop, 0, sizeof(lp_loop));
 124:Amperometric.c ****       AD5940_LPLoopCfgS(&lp_loop);
 125:Amperometric.c ****       AD5940_EnterSleepS();  /* Enter Hibernate */
 126:Amperometric.c ****     }
 127:Amperometric.c ****     break;
 128:Amperometric.c ****     default:
 129:Amperometric.c ****     break;
 143              		.loc 1 129 0
 144 0016 6BE0     		b	.L15
 145              	.L9:
  80:Amperometric.c ****   switch (AmpCtrl)
 146              		.loc 1 80 0
 147 0018 022B     		cmp	r3, #2
 148 001a 45D0     		beq	.L11
 149 001c 042B     		cmp	r3, #4
 150 001e 48D0     		beq	.L12
ARM GAS  C:\Users\13740\AppData\Local\Temp\ccZrwIb5.s 			page 6


 151              		.loc 1 129 0
 152 0020 66E0     		b	.L15
 153              	.L10:
 154              	.LBB2:
  86:Amperometric.c ****       if(AppAMPCfg.AMPInited == bFALSE)
 155              		.loc 1 86 0
 156 0022 364B     		ldr	r3, .L16
 157 0024 1800     		movs	r0, r3
 158 0026 FFF7FEFF 		bl	AD5940_ReadReg
  87:Amperometric.c ****         return AD5940ERR_APPERROR;
 159              		.loc 1 87 0
 160 002a 354B     		ldr	r3, .L16+4
 161 002c 6C22     		movs	r2, #108
 162 002e 9B5C     		ldrb	r3, [r3, r2]
 163 0030 002B     		cmp	r3, #0
 164 0032 02D1     		bne	.L13
  88:Amperometric.c ****       /* Start it */
 165              		.loc 1 88 0
 166 0034 6423     		movs	r3, #100
 167 0036 5B42     		rsbs	r3, r3, #0
 168 0038 5BE0     		b	.L14
 169              	.L13:
  90:Amperometric.c ****       wupt_cfg.WuptEndSeq = WUPTENDSEQ_A;
 170              		.loc 1 90 0
 171 003a 0823     		movs	r3, #8
 172 003c FB18     		adds	r3, r7, r3
 173 003e 4422     		movs	r2, #68
 174 0040 0121     		movs	r1, #1
 175 0042 9954     		strb	r1, [r3, r2]
  91:Amperometric.c ****       wupt_cfg.WuptOrder[0] = SEQID_0;
 176              		.loc 1 91 0
 177 0044 0823     		movs	r3, #8
 178 0046 FB18     		adds	r3, r7, r3
 179 0048 0022     		movs	r2, #0
 180 004a 1A60     		str	r2, [r3]
  92:Amperometric.c ****       wupt_cfg.SeqxSleepTime[SEQID_0] = 4-1;
 181              		.loc 1 92 0
 182 004c 0823     		movs	r3, #8
 183 004e FB18     		adds	r3, r7, r3
 184 0050 0022     		movs	r2, #0
 185 0052 5A60     		str	r2, [r3, #4]
  93:Amperometric.c ****       wupt_cfg.SeqxWakeupTime[SEQID_0] = (uint32_t)(AppAMPCfg.WuptClkFreq*AppAMPCfg.AmpODR)-4-1; 
 186              		.loc 1 93 0
 187 0054 0823     		movs	r3, #8
 188 0056 FB18     		adds	r3, r7, r3
 189 0058 0322     		movs	r2, #3
 190 005a 5A62     		str	r2, [r3, #36]
  94:Amperometric.c ****       AD5940_WUPTCfg(&wupt_cfg);
 191              		.loc 1 94 0
 192 005c 284B     		ldr	r3, .L16+4
 193 005e DA69     		ldr	r2, [r3, #28]
 194 0060 274B     		ldr	r3, .L16+4
 195 0062 9B6A     		ldr	r3, [r3, #40]
 196 0064 191C     		adds	r1, r3, #0
 197 0066 101C     		adds	r0, r2, #0
 198 0068 FFF7FEFF 		bl	__aeabi_fmul
 199 006c 031C     		adds	r3, r0, #0
ARM GAS  C:\Users\13740\AppData\Local\Temp\ccZrwIb5.s 			page 7


 200 006e 181C     		adds	r0, r3, #0
 201 0070 FFF7FEFF 		bl	__aeabi_f2uiz
 202 0074 0300     		movs	r3, r0
 203 0076 5A1F     		subs	r2, r3, #5
 204 0078 0823     		movs	r3, #8
 205 007a FB18     		adds	r3, r7, r3
 206 007c 5A63     		str	r2, [r3, #52]
  95:Amperometric.c ****       
 207              		.loc 1 95 0
 208 007e 0823     		movs	r3, #8
 209 0080 FB18     		adds	r3, r7, r3
 210 0082 1800     		movs	r0, r3
 211 0084 FFF7FEFF 		bl	AD5940_WUPTCfg
  97:Amperometric.c ****       break;
 212              		.loc 1 97 0
 213 0088 1D4B     		ldr	r3, .L16+4
 214 008a 9C22     		movs	r2, #156
 215 008c 0021     		movs	r1, #0
 216 008e 9950     		str	r1, [r3, r2]
 217 0090 2EE0     		b	.L15
 218              	.L8:
 219              	.LBE2:
 102:Amperometric.c ****       /* Start Wupt right now */
 220              		.loc 1 102 0
 221 0092 1A4B     		ldr	r3, .L16
 222 0094 1800     		movs	r0, r3
 223 0096 FFF7FEFF 		bl	AD5940_ReadReg
 104:Amperometric.c ****       /* There is chance this operation will fail because sequencer could put AFE back 
 224              		.loc 1 104 0
 225 009a 0020     		movs	r0, #0
 226 009c FFF7FEFF 		bl	AD5940_WUPTCtrl
 107:Amperometric.c ****       break;
 227              		.loc 1 107 0
 228 00a0 0020     		movs	r0, #0
 229 00a2 FFF7FEFF 		bl	AD5940_WUPTCtrl
 108:Amperometric.c ****     }
 230              		.loc 1 108 0
 231 00a6 23E0     		b	.L15
 232              	.L11:
 112:Amperometric.c ****       break;
 233              		.loc 1 112 0
 234 00a8 154B     		ldr	r3, .L16+4
 235 00aa 9822     		movs	r2, #152
 236 00ac 0121     		movs	r1, #1
 237 00ae 9954     		strb	r1, [r3, r2]
 113:Amperometric.c ****     }
 238              		.loc 1 113 0
 239 00b0 1EE0     		b	.L15
 240              	.L12:
 241              	.LBB3:
 117:Amperometric.c ****       /* Turn off LPloop related blocks which are not controlled automatically by sleep operation *
 242              		.loc 1 117 0
 243 00b2 0021     		movs	r1, #0
 244 00b4 0120     		movs	r0, #1
 245 00b6 FFF7FEFF 		bl	AppAMPCtrl
 121:Amperometric.c ****       AD5940_REFCfgS(&aferef_cfg);
 246              		.loc 1 121 0
ARM GAS  C:\Users\13740\AppData\Local\Temp\ccZrwIb5.s 			page 8


 247 00ba 5023     		movs	r3, #80
 248 00bc FB18     		adds	r3, r7, r3
 249 00be 0D22     		movs	r2, #13
 250 00c0 0021     		movs	r1, #0
 251 00c2 1800     		movs	r0, r3
 252 00c4 FFF7FEFF 		bl	memset
 122:Amperometric.c ****       memset(&lp_loop, 0, sizeof(lp_loop));
 253              		.loc 1 122 0
 254 00c8 5023     		movs	r3, #80
 255 00ca FB18     		adds	r3, r7, r3
 256 00cc 1800     		movs	r0, r3
 257 00ce FFF7FEFF 		bl	AD5940_REFCfgS
 123:Amperometric.c ****       AD5940_LPLoopCfgS(&lp_loop);
 258              		.loc 1 123 0
 259 00d2 0823     		movs	r3, #8
 260 00d4 FB18     		adds	r3, r7, r3
 261 00d6 3C22     		movs	r2, #60
 262 00d8 0021     		movs	r1, #0
 263 00da 1800     		movs	r0, r3
 264 00dc FFF7FEFF 		bl	memset
 124:Amperometric.c ****       AD5940_EnterSleepS();  /* Enter Hibernate */
 265              		.loc 1 124 0
 266 00e0 0823     		movs	r3, #8
 267 00e2 FB18     		adds	r3, r7, r3
 268 00e4 1800     		movs	r0, r3
 269 00e6 FFF7FEFF 		bl	AD5940_LPLoopCfgS
 125:Amperometric.c ****     }
 270              		.loc 1 125 0
 271 00ea FFF7FEFF 		bl	AD5940_EnterSleepS
 272              	.LBE3:
 127:Amperometric.c ****     default:
 273              		.loc 1 127 0
 274 00ee C046     		nop
 275              	.L15:
 130:Amperometric.c ****   }
 131:Amperometric.c ****   return AD5940ERR_OK;
 276              		.loc 1 131 0
 277 00f0 0023     		movs	r3, #0
 278              	.L14:
 132:Amperometric.c **** }
 279              		.loc 1 132 0
 280 00f2 1800     		movs	r0, r3
 281 00f4 BD46     		mov	sp, r7
 282 00f6 18B0     		add	sp, sp, #96
 283              		@ sp needed
 284 00f8 80BD     		pop	{r7, pc}
 285              	.L17:
 286 00fa C046     		.align	2
 287              	.L16:
 288 00fc 74200000 		.word	8308
 289 0100 00000000 		.word	AppAMPCfg
 290              		.cfi_endproc
 291              	.LFE2:
 292              		.size	AppAMPCtrl, .-AppAMPCtrl
 293              		.global	__aeabi_fsub
 294              		.global	__aeabi_fdiv
 295              		.global	__aeabi_f2iz
ARM GAS  C:\Users\13740\AppData\Local\Temp\ccZrwIb5.s 			page 9


 296              		.section	.text.AppAMPSeqCfgGen,"ax",%progbits
 297              		.align	2
 298              		.code	16
 299              		.thumb_func
 300              		.type	AppAMPSeqCfgGen, %function
 301              	AppAMPSeqCfgGen:
 302              	.LFB3:
 133:Amperometric.c **** 
 134:Amperometric.c **** /* Generate init sequence */
 135:Amperometric.c **** static AD5940Err AppAMPSeqCfgGen(void)
 136:Amperometric.c **** {
 303              		.loc 1 136 0
 304              		.cfi_startproc
 305              		@ args = 0, pretend = 0, frame = 176
 306              		@ frame_needed = 1, uses_anonymous_args = 0
 307 0000 80B5     		push	{r7, lr}
 308              		.cfi_def_cfa_offset 8
 309              		.cfi_offset 7, -8
 310              		.cfi_offset 14, -4
 311 0002 ACB0     		sub	sp, sp, #176
 312              		.cfi_def_cfa_offset 184
 313 0004 00AF     		add	r7, sp, #0
 314              		.cfi_def_cfa_register 7
 137:Amperometric.c ****   AD5940Err error = AD5940ERR_OK;
 315              		.loc 1 137 0
 316 0006 0023     		movs	r3, #0
 317 0008 AC22     		movs	r2, #172
 318 000a BA18     		adds	r2, r7, r2
 319 000c 1360     		str	r3, [r2]
 138:Amperometric.c ****   uint32_t const *pSeqCmd;
 139:Amperometric.c ****   uint32_t SeqLen;
 140:Amperometric.c **** 
 141:Amperometric.c ****   AFERefCfg_Type aferef_cfg;
 142:Amperometric.c ****   LPLoopCfg_Type lp_loop;
 143:Amperometric.c ****   DSPCfg_Type dsp_cfg;
 144:Amperometric.c ****   SWMatrixCfg_Type sw_cfg;
 145:Amperometric.c ****   /* Start sequence generator here */
 146:Amperometric.c ****   AD5940_SEQGenCtrl(bTRUE);
 320              		.loc 1 146 0
 321 000e 0120     		movs	r0, #1
 322 0010 FFF7FEFF 		bl	AD5940_SEQGenCtrl
 147:Amperometric.c **** 
 148:Amperometric.c ****   //AD5940_AFECtrlS(AFECTRL_ALL, bFALSE);  /* Init all to disable state */
 149:Amperometric.c **** 
 150:Amperometric.c ****   aferef_cfg.HpBandgapEn = bTRUE;
 323              		.loc 1 150 0
 324 0014 9423     		movs	r3, #148
 325 0016 FB18     		adds	r3, r7, r3
 326 0018 0122     		movs	r2, #1
 327 001a 1A70     		strb	r2, [r3]
 151:Amperometric.c ****   aferef_cfg.Hp1V1BuffEn = bTRUE;
 328              		.loc 1 151 0
 329 001c 9423     		movs	r3, #148
 330 001e FB18     		adds	r3, r7, r3
 331 0020 0122     		movs	r2, #1
 332 0022 9A70     		strb	r2, [r3, #2]
 152:Amperometric.c ****   aferef_cfg.Hp1V8BuffEn = bTRUE;
ARM GAS  C:\Users\13740\AppData\Local\Temp\ccZrwIb5.s 			page 10


 333              		.loc 1 152 0
 334 0024 9423     		movs	r3, #148
 335 0026 FB18     		adds	r3, r7, r3
 336 0028 0122     		movs	r2, #1
 337 002a 5A70     		strb	r2, [r3, #1]
 153:Amperometric.c ****   aferef_cfg.Disc1V1Cap = bFALSE;
 338              		.loc 1 153 0
 339 002c 9423     		movs	r3, #148
 340 002e FB18     		adds	r3, r7, r3
 341 0030 0022     		movs	r2, #0
 342 0032 1A73     		strb	r2, [r3, #12]
 154:Amperometric.c ****   aferef_cfg.Disc1V8Cap = bFALSE;
 343              		.loc 1 154 0
 344 0034 9423     		movs	r3, #148
 345 0036 FB18     		adds	r3, r7, r3
 346 0038 0022     		movs	r2, #0
 347 003a DA72     		strb	r2, [r3, #11]
 155:Amperometric.c ****   aferef_cfg.Hp1V8ThemBuff = bFALSE;
 348              		.loc 1 155 0
 349 003c 9423     		movs	r3, #148
 350 003e FB18     		adds	r3, r7, r3
 351 0040 0022     		movs	r2, #0
 352 0042 5A72     		strb	r2, [r3, #9]
 156:Amperometric.c ****   aferef_cfg.Hp1V8Ilimit = bFALSE;
 353              		.loc 1 156 0
 354 0044 9423     		movs	r3, #148
 355 0046 FB18     		adds	r3, r7, r3
 356 0048 0022     		movs	r2, #0
 357 004a 9A72     		strb	r2, [r3, #10]
 157:Amperometric.c ****   aferef_cfg.Lp1V1BuffEn = bTRUE;
 358              		.loc 1 157 0
 359 004c 9423     		movs	r3, #148
 360 004e FB18     		adds	r3, r7, r3
 361 0050 0122     		movs	r2, #1
 362 0052 1A71     		strb	r2, [r3, #4]
 158:Amperometric.c ****   aferef_cfg.Lp1V8BuffEn = bTRUE;
 363              		.loc 1 158 0
 364 0054 9423     		movs	r3, #148
 365 0056 FB18     		adds	r3, r7, r3
 366 0058 0122     		movs	r2, #1
 367 005a DA70     		strb	r2, [r3, #3]
 159:Amperometric.c ****   /* LP reference control - turn off them to save power*/
 160:Amperometric.c ****   aferef_cfg.LpBandgapEn = bTRUE;
 368              		.loc 1 160 0
 369 005c 9423     		movs	r3, #148
 370 005e FB18     		adds	r3, r7, r3
 371 0060 0122     		movs	r2, #1
 372 0062 5A71     		strb	r2, [r3, #5]
 161:Amperometric.c ****   aferef_cfg.LpRefBufEn = bTRUE;
 373              		.loc 1 161 0
 374 0064 9423     		movs	r3, #148
 375 0066 FB18     		adds	r3, r7, r3
 376 0068 0122     		movs	r2, #1
 377 006a 9A71     		strb	r2, [r3, #6]
 162:Amperometric.c ****   aferef_cfg.LpRefBoostEn = bFALSE;
 378              		.loc 1 162 0
 379 006c 9423     		movs	r3, #148
ARM GAS  C:\Users\13740\AppData\Local\Temp\ccZrwIb5.s 			page 11


 380 006e FB18     		adds	r3, r7, r3
 381 0070 0022     		movs	r2, #0
 382 0072 DA71     		strb	r2, [r3, #7]
 163:Amperometric.c ****   AD5940_REFCfgS(&aferef_cfg);	
 383              		.loc 1 163 0
 384 0074 9423     		movs	r3, #148
 385 0076 FB18     		adds	r3, r7, r3
 386 0078 1800     		movs	r0, r3
 387 007a FFF7FEFF 		bl	AD5940_REFCfgS
 164:Amperometric.c **** 
 165:Amperometric.c **** 	lp_loop.LpDacCfg.LpdacSel = LPDAC0;
 388              		.loc 1 165 0
 389 007e 5823     		movs	r3, #88
 390 0080 FB18     		adds	r3, r7, r3
 391 0082 0022     		movs	r2, #0
 392 0084 1A60     		str	r2, [r3]
 166:Amperometric.c ****   lp_loop.LpDacCfg.LpDacSrc = LPDACSRC_MMR;
 393              		.loc 1 166 0
 394 0086 5823     		movs	r3, #88
 395 0088 FB18     		adds	r3, r7, r3
 396 008a 0022     		movs	r2, #0
 397 008c 5A60     		str	r2, [r3, #4]
 167:Amperometric.c ****   lp_loop.LpDacCfg.LpDacSW = LPDACSW_VBIAS2LPPA|LPDACSW_VBIAS2PIN|LPDACSW_VZERO2LPTIA|LPDACSW_VZERO
 398              		.loc 1 167 0
 399 008e 5823     		movs	r3, #88
 400 0090 FB18     		adds	r3, r7, r3
 401 0092 1E22     		movs	r2, #30
 402 0094 1A61     		str	r2, [r3, #16]
 168:Amperometric.c ****   lp_loop.LpDacCfg.LpDacVzeroMux = LPDACVZERO_6BIT;
 403              		.loc 1 168 0
 404 0096 5823     		movs	r3, #88
 405 0098 FB18     		adds	r3, r7, r3
 406 009a 0022     		movs	r2, #0
 407 009c 9A60     		str	r2, [r3, #8]
 169:Amperometric.c ****   lp_loop.LpDacCfg.LpDacVbiasMux = LPDACVBIAS_12BIT;
 408              		.loc 1 169 0
 409 009e 5823     		movs	r3, #88
 410 00a0 FB18     		adds	r3, r7, r3
 411 00a2 0022     		movs	r2, #0
 412 00a4 DA60     		str	r2, [r3, #12]
 170:Amperometric.c ****   lp_loop.LpDacCfg.LpDacRef = LPDACREF_2P5;
 413              		.loc 1 170 0
 414 00a6 5823     		movs	r3, #88
 415 00a8 FB18     		adds	r3, r7, r3
 416 00aa 0022     		movs	r2, #0
 417 00ac 5A61     		str	r2, [r3, #20]
 171:Amperometric.c ****   lp_loop.LpDacCfg.DataRst = bFALSE;
 418              		.loc 1 171 0
 419 00ae 5823     		movs	r3, #88
 420 00b0 FB18     		adds	r3, r7, r3
 421 00b2 0022     		movs	r2, #0
 422 00b4 1A76     		strb	r2, [r3, #24]
 172:Amperometric.c ****   lp_loop.LpDacCfg.PowerEn = bTRUE;
 423              		.loc 1 172 0
 424 00b6 5823     		movs	r3, #88
 425 00b8 FB18     		adds	r3, r7, r3
 426 00ba 0122     		movs	r2, #1
ARM GAS  C:\Users\13740\AppData\Local\Temp\ccZrwIb5.s 			page 12


 427 00bc 5A76     		strb	r2, [r3, #25]
 173:Amperometric.c ****   lp_loop.LpDacCfg.DacData6Bit = (uint32_t)((AppAMPCfg.Vzero-200)/DAC6BITVOLT_1LSB);
 428              		.loc 1 173 0
 429 00be 8F4B     		ldr	r3, .L26
 430 00c0 DB6D     		ldr	r3, [r3, #92]
 431 00c2 8F49     		ldr	r1, .L26+4
 432 00c4 181C     		adds	r0, r3, #0
 433 00c6 FFF7FEFF 		bl	__aeabi_fsub
 434 00ca 031C     		adds	r3, r0, #0
 435 00cc 8D49     		ldr	r1, .L26+8
 436 00ce 181C     		adds	r0, r3, #0
 437 00d0 FFF7FEFF 		bl	__aeabi_fdiv
 438 00d4 031C     		adds	r3, r0, #0
 439 00d6 181C     		adds	r0, r3, #0
 440 00d8 FFF7FEFF 		bl	__aeabi_f2uiz
 441 00dc 0300     		movs	r3, r0
 442 00de 9AB2     		uxth	r2, r3
 443 00e0 5823     		movs	r3, #88
 444 00e2 FB18     		adds	r3, r7, r3
 445 00e4 9A83     		strh	r2, [r3, #28]
 174:Amperometric.c **** 	lp_loop.LpDacCfg.DacData12Bit =(int32_t)((AppAMPCfg.SensorBias)/DAC12BITVOLT_1LSB) + lp_loop.LpDac
 446              		.loc 1 174 0
 447 00e6 854B     		ldr	r3, .L26
 448 00e8 1B6E     		ldr	r3, [r3, #96]
 449 00ea 8749     		ldr	r1, .L26+12
 450 00ec 181C     		adds	r0, r3, #0
 451 00ee FFF7FEFF 		bl	__aeabi_fdiv
 452 00f2 031C     		adds	r3, r0, #0
 453 00f4 181C     		adds	r0, r3, #0
 454 00f6 FFF7FEFF 		bl	__aeabi_f2iz
 455 00fa 0300     		movs	r3, r0
 456 00fc 9AB2     		uxth	r2, r3
 457 00fe 5823     		movs	r3, #88
 458 0100 FB18     		adds	r3, r7, r3
 459 0102 9B8B     		ldrh	r3, [r3, #28]
 460 0104 9B01     		lsls	r3, r3, #6
 461 0106 9BB2     		uxth	r3, r3
 462 0108 D318     		adds	r3, r2, r3
 463 010a 9AB2     		uxth	r2, r3
 464 010c 5823     		movs	r3, #88
 465 010e FB18     		adds	r3, r7, r3
 466 0110 5A83     		strh	r2, [r3, #26]
 175:Amperometric.c **** 	if(lp_loop.LpDacCfg.DacData12Bit>lp_loop.LpDacCfg.DacData6Bit*64)
 467              		.loc 1 175 0
 468 0112 5823     		movs	r3, #88
 469 0114 FB18     		adds	r3, r7, r3
 470 0116 5B8B     		ldrh	r3, [r3, #26]
 471 0118 1A00     		movs	r2, r3
 472 011a 5823     		movs	r3, #88
 473 011c FB18     		adds	r3, r7, r3
 474 011e 9B8B     		ldrh	r3, [r3, #28]
 475 0120 9B01     		lsls	r3, r3, #6
 476 0122 9A42     		cmp	r2, r3
 477 0124 07DD     		ble	.L19
 176:Amperometric.c **** 		lp_loop.LpDacCfg.DacData12Bit--;
 478              		.loc 1 176 0
 479 0126 5823     		movs	r3, #88
ARM GAS  C:\Users\13740\AppData\Local\Temp\ccZrwIb5.s 			page 13


 480 0128 FB18     		adds	r3, r7, r3
 481 012a 5B8B     		ldrh	r3, [r3, #26]
 482 012c 013B     		subs	r3, r3, #1
 483 012e 9AB2     		uxth	r2, r3
 484 0130 5823     		movs	r3, #88
 485 0132 FB18     		adds	r3, r7, r3
 486 0134 5A83     		strh	r2, [r3, #26]
 487              	.L19:
 177:Amperometric.c **** 	lp_loop.LpAmpCfg.LpAmpSel = LPAMP0;
 488              		.loc 1 177 0
 489 0136 5823     		movs	r3, #88
 490 0138 FB18     		adds	r3, r7, r3
 491 013a 0022     		movs	r2, #0
 492 013c 1A62     		str	r2, [r3, #32]
 178:Amperometric.c ****   lp_loop.LpAmpCfg.LpAmpPwrMod = LPAMPPWR_NORM;
 493              		.loc 1 178 0
 494 013e 5823     		movs	r3, #88
 495 0140 FB18     		adds	r3, r7, r3
 496 0142 0022     		movs	r2, #0
 497 0144 1A63     		str	r2, [r3, #48]
 179:Amperometric.c ****   lp_loop.LpAmpCfg.LpPaPwrEn = bTRUE;
 498              		.loc 1 179 0
 499 0146 5823     		movs	r3, #88
 500 0148 FB18     		adds	r3, r7, r3
 501 014a 3822     		movs	r2, #56
 502 014c 0121     		movs	r1, #1
 503 014e 9954     		strb	r1, [r3, r2]
 180:Amperometric.c ****   lp_loop.LpAmpCfg.LpTiaPwrEn = bTRUE;
 504              		.loc 1 180 0
 505 0150 5823     		movs	r3, #88
 506 0152 FB18     		adds	r3, r7, r3
 507 0154 3922     		movs	r2, #57
 508 0156 0121     		movs	r1, #1
 509 0158 9954     		strb	r1, [r3, r2]
 181:Amperometric.c ****   lp_loop.LpAmpCfg.LpTiaRf = AppAMPCfg.LpTiaRf;
 510              		.loc 1 181 0
 511 015a 684B     		ldr	r3, .L26
 512 015c DA6C     		ldr	r2, [r3, #76]
 513 015e 5823     		movs	r3, #88
 514 0160 FB18     		adds	r3, r7, r3
 515 0162 5A62     		str	r2, [r3, #36]
 182:Amperometric.c ****   lp_loop.LpAmpCfg.LpTiaRload = AppAMPCfg.LpTiaRl;
 516              		.loc 1 182 0
 517 0164 654B     		ldr	r3, .L26
 518 0166 1A6D     		ldr	r2, [r3, #80]
 519 0168 5823     		movs	r3, #88
 520 016a FB18     		adds	r3, r7, r3
 521 016c 9A62     		str	r2, [r3, #40]
 183:Amperometric.c ****   if(AppAMPCfg.ExtRtia == bTRUE)
 522              		.loc 1 183 0
 523 016e 634B     		ldr	r3, .L26
 524 0170 6422     		movs	r2, #100
 525 0172 9B5C     		ldrb	r3, [r3, r2]
 526 0174 012B     		cmp	r3, #1
 527 0176 08D1     		bne	.L20
 184:Amperometric.c ****   {
 185:Amperometric.c ****     lp_loop.LpAmpCfg.LpTiaRtia = LPTIARTIA_OPEN;
ARM GAS  C:\Users\13740\AppData\Local\Temp\ccZrwIb5.s 			page 14


 528              		.loc 1 185 0
 529 0178 5823     		movs	r3, #88
 530 017a FB18     		adds	r3, r7, r3
 531 017c 0022     		movs	r2, #0
 532 017e DA62     		str	r2, [r3, #44]
 186:Amperometric.c ****     lp_loop.LpAmpCfg.LpTiaSW = LPTIASW(9)|LPTIASW(2)|LPTIASW(4)|LPTIASW(5)|LPTIASW(12)|LPTIASW(13);
 533              		.loc 1 186 0
 534 0180 5823     		movs	r3, #88
 535 0182 FB18     		adds	r3, r7, r3
 536 0184 614A     		ldr	r2, .L26+16
 537 0186 5A63     		str	r2, [r3, #52]
 538 0188 08E0     		b	.L21
 539              	.L20:
 187:Amperometric.c ****   }else
 188:Amperometric.c ****   {
 189:Amperometric.c ****     lp_loop.LpAmpCfg.LpTiaRtia = AppAMPCfg.LptiaRtiaSel;
 540              		.loc 1 189 0
 541 018a 5C4B     		ldr	r3, .L26
 542 018c 9A6C     		ldr	r2, [r3, #72]
 543 018e 5823     		movs	r3, #88
 544 0190 FB18     		adds	r3, r7, r3
 545 0192 DA62     		str	r2, [r3, #44]
 190:Amperometric.c ****     lp_loop.LpAmpCfg.LpTiaSW = LPTIASW(5)|LPTIASW(2)|LPTIASW(4)|LPTIASW(12)|LPTIASW(13); 
 546              		.loc 1 190 0
 547 0194 5823     		movs	r3, #88
 548 0196 FB18     		adds	r3, r7, r3
 549 0198 5D4A     		ldr	r2, .L26+20
 550 019a 5A63     		str	r2, [r3, #52]
 551              	.L21:
 191:Amperometric.c ****   }
 192:Amperometric.c ****   AD5940_LPLoopCfgS(&lp_loop);
 552              		.loc 1 192 0
 553 019c 5823     		movs	r3, #88
 554 019e FB18     		adds	r3, r7, r3
 555 01a0 1800     		movs	r0, r3
 556 01a2 FFF7FEFF 		bl	AD5940_LPLoopCfgS
 193:Amperometric.c **** 
 194:Amperometric.c ****   
 195:Amperometric.c ****   dsp_cfg.ADCBaseCfg.ADCMuxN = ADCMUXN_VZERO0;
 557              		.loc 1 195 0
 558 01a6 1423     		movs	r3, #20
 559 01a8 FB18     		adds	r3, r7, r3
 560 01aa 1022     		movs	r2, #16
 561 01ac 5A60     		str	r2, [r3, #4]
 196:Amperometric.c ****   dsp_cfg.ADCBaseCfg.ADCMuxP = ADCMUXP_AIN4;
 562              		.loc 1 196 0
 563 01ae 1423     		movs	r3, #20
 564 01b0 FB18     		adds	r3, r7, r3
 565 01b2 1422     		movs	r2, #20
 566 01b4 1A60     		str	r2, [r3]
 197:Amperometric.c ****   dsp_cfg.ADCBaseCfg.ADCPga = AppAMPCfg.ADCPgaGain;
 567              		.loc 1 197 0
 568 01b6 514B     		ldr	r3, .L26
 569 01b8 DA6B     		ldr	r2, [r3, #60]
 570 01ba 1423     		movs	r3, #20
 571 01bc FB18     		adds	r3, r7, r3
 572 01be 9A60     		str	r2, [r3, #8]
ARM GAS  C:\Users\13740\AppData\Local\Temp\ccZrwIb5.s 			page 15


 198:Amperometric.c ****   
 199:Amperometric.c ****   memset(&dsp_cfg.ADCDigCompCfg, 0, sizeof(dsp_cfg.ADCDigCompCfg));
 573              		.loc 1 199 0
 574 01c0 1423     		movs	r3, #20
 575 01c2 FB18     		adds	r3, r7, r3
 576 01c4 2433     		adds	r3, r3, #36
 577 01c6 0822     		movs	r2, #8
 578 01c8 0021     		movs	r1, #0
 579 01ca 1800     		movs	r0, r3
 580 01cc FFF7FEFF 		bl	memset
 200:Amperometric.c ****   memset(&dsp_cfg.DftCfg, 0, sizeof(dsp_cfg.DftCfg));
 581              		.loc 1 200 0
 582 01d0 1423     		movs	r3, #20
 583 01d2 FB18     		adds	r3, r7, r3
 584 01d4 2C33     		adds	r3, r3, #44
 585 01d6 0C22     		movs	r2, #12
 586 01d8 0021     		movs	r1, #0
 587 01da 1800     		movs	r0, r3
 588 01dc FFF7FEFF 		bl	memset
 201:Amperometric.c ****   dsp_cfg.ADCFilterCfg.ADCAvgNum = ADCAVGNUM_16;  /* Don't care because it's disabled */
 589              		.loc 1 201 0
 590 01e0 1423     		movs	r3, #20
 591 01e2 FB18     		adds	r3, r7, r3
 592 01e4 0322     		movs	r2, #3
 593 01e6 5A61     		str	r2, [r3, #20]
 202:Amperometric.c ****   dsp_cfg.ADCFilterCfg.ADCRate = ADCRATE_800KHZ;	/* Tell filter block clock rate of ADC*/
 594              		.loc 1 202 0
 595 01e8 1423     		movs	r3, #20
 596 01ea FB18     		adds	r3, r7, r3
 597 01ec 0122     		movs	r2, #1
 598 01ee 9A61     		str	r2, [r3, #24]
 203:Amperometric.c ****   dsp_cfg.ADCFilterCfg.ADCSinc2Osr = AppAMPCfg.ADCSinc2Osr;
 599              		.loc 1 203 0
 600 01f0 424B     		ldr	r3, .L26
 601 01f2 4122     		movs	r2, #65
 602 01f4 9B5C     		ldrb	r3, [r3, r2]
 603 01f6 1A00     		movs	r2, r3
 604 01f8 1423     		movs	r3, #20
 605 01fa FB18     		adds	r3, r7, r3
 606 01fc 1A61     		str	r2, [r3, #16]
 204:Amperometric.c ****   dsp_cfg.ADCFilterCfg.ADCSinc3Osr = AppAMPCfg.ADCSinc3Osr;
 607              		.loc 1 204 0
 608 01fe 3F4B     		ldr	r3, .L26
 609 0200 4022     		movs	r2, #64
 610 0202 9B5C     		ldrb	r3, [r3, r2]
 611 0204 1A00     		movs	r2, r3
 612 0206 1423     		movs	r3, #20
 613 0208 FB18     		adds	r3, r7, r3
 614 020a DA60     		str	r2, [r3, #12]
 205:Amperometric.c ****   dsp_cfg.ADCFilterCfg.BpSinc3 = bFALSE;
 615              		.loc 1 205 0
 616 020c 1423     		movs	r3, #20
 617 020e FB18     		adds	r3, r7, r3
 618 0210 0022     		movs	r2, #0
 619 0212 5A77     		strb	r2, [r3, #29]
 206:Amperometric.c ****   dsp_cfg.ADCFilterCfg.BpNotch = bFALSE;
 620              		.loc 1 206 0
ARM GAS  C:\Users\13740\AppData\Local\Temp\ccZrwIb5.s 			page 16


 621 0214 1423     		movs	r3, #20
 622 0216 FB18     		adds	r3, r7, r3
 623 0218 0022     		movs	r2, #0
 624 021a 1A77     		strb	r2, [r3, #28]
 207:Amperometric.c ****   dsp_cfg.ADCFilterCfg.Sinc2NotchEnable = bTRUE;
 625              		.loc 1 207 0
 626 021c 1423     		movs	r3, #20
 627 021e FB18     		adds	r3, r7, r3
 628 0220 2022     		movs	r2, #32
 629 0222 0121     		movs	r1, #1
 630 0224 9954     		strb	r1, [r3, r2]
 208:Amperometric.c ****   
 209:Amperometric.c ****   memset(&dsp_cfg.StatCfg, 0, sizeof(dsp_cfg.StatCfg)); /* Don't care about Statistic */
 631              		.loc 1 209 0
 632 0226 1423     		movs	r3, #20
 633 0228 FB18     		adds	r3, r7, r3
 634 022a 3833     		adds	r3, r3, #56
 635 022c 0C22     		movs	r2, #12
 636 022e 0021     		movs	r1, #0
 637 0230 1800     		movs	r0, r3
 638 0232 FFF7FEFF 		bl	memset
 210:Amperometric.c ****   AD5940_DSPCfgS(&dsp_cfg);
 639              		.loc 1 210 0
 640 0236 1423     		movs	r3, #20
 641 0238 FB18     		adds	r3, r7, r3
 642 023a 1800     		movs	r0, r3
 643 023c FFF7FEFF 		bl	AD5940_DSPCfgS
 211:Amperometric.c ****   
 212:Amperometric.c ****   sw_cfg.Dswitch = 0;
 644              		.loc 1 212 0
 645 0240 3B1D     		adds	r3, r7, #4
 646 0242 0022     		movs	r2, #0
 647 0244 1A60     		str	r2, [r3]
 213:Amperometric.c ****   sw_cfg.Pswitch = 0;
 648              		.loc 1 213 0
 649 0246 3B1D     		adds	r3, r7, #4
 650 0248 0022     		movs	r2, #0
 651 024a 5A60     		str	r2, [r3, #4]
 214:Amperometric.c ****   sw_cfg.Nswitch = 0;
 652              		.loc 1 214 0
 653 024c 3B1D     		adds	r3, r7, #4
 654 024e 0022     		movs	r2, #0
 655 0250 9A60     		str	r2, [r3, #8]
 215:Amperometric.c ****   sw_cfg.Tswitch = 0; 
 656              		.loc 1 215 0
 657 0252 3B1D     		adds	r3, r7, #4
 658 0254 0022     		movs	r2, #0
 659 0256 DA60     		str	r2, [r3, #12]
 216:Amperometric.c ****   AD5940_SWMatrixCfgS(&sw_cfg);
 660              		.loc 1 216 0
 661 0258 3B1D     		adds	r3, r7, #4
 662 025a 1800     		movs	r0, r3
 663 025c FFF7FEFF 		bl	AD5940_SWMatrixCfgS
 217:Amperometric.c ****     
 218:Amperometric.c ****   /* Enable all of them. They are automatically turned off during hibernate mode to save power */
 219:Amperometric.c ****   AD5940_AFECtrlS(AFECTRL_HPREFPWR|AFECTRL_SINC2NOTCH, bTRUE);
 664              		.loc 1 219 0
ARM GAS  C:\Users\13740\AppData\Local\Temp\ccZrwIb5.s 			page 17


 665 0260 2C4B     		ldr	r3, .L26+24
 666 0262 0121     		movs	r1, #1
 667 0264 1800     		movs	r0, r3
 668 0266 FFF7FEFF 		bl	AD5940_AFECtrlS
 220:Amperometric.c ****   AD5940_AFECtrlS(AFECTRL_SINC2NOTCH, bFALSE);
 669              		.loc 1 220 0
 670 026a 8023     		movs	r3, #128
 671 026c 5B02     		lsls	r3, r3, #9
 672 026e 0021     		movs	r1, #0
 673 0270 1800     		movs	r0, r3
 674 0272 FFF7FEFF 		bl	AD5940_AFECtrlS
 221:Amperometric.c ****   AD5940_SEQGpioCtrlS(0/*AGPIO_Pin6|AGPIO_Pin5|AGPIO_Pin1*/);        //GP6->endSeq, GP5 -> AD8233=O
 675              		.loc 1 221 0
 676 0276 0020     		movs	r0, #0
 677 0278 FFF7FEFF 		bl	AD5940_SEQGpioCtrlS
 222:Amperometric.c ****   
 223:Amperometric.c ****   /* Sequence end. */
 224:Amperometric.c ****   AD5940_SEQGenInsert(SEQ_STOP()); /* Add one extra command to disable sequencer for initialization
 678              		.loc 1 224 0
 679 027c 8123     		movs	r3, #129
 680 027e 1B06     		lsls	r3, r3, #24
 681 0280 1800     		movs	r0, r3
 682 0282 FFF7FEFF 		bl	AD5940_SEQGenInsert
 225:Amperometric.c **** 
 226:Amperometric.c ****   /* Stop here */
 227:Amperometric.c ****   error = AD5940_SEQGenFetchSeq(&pSeqCmd, &SeqLen);
 683              		.loc 1 227 0
 684 0286 A423     		movs	r3, #164
 685 0288 FA18     		adds	r2, r7, r3
 686 028a A823     		movs	r3, #168
 687 028c FB18     		adds	r3, r7, r3
 688 028e 1100     		movs	r1, r2
 689 0290 1800     		movs	r0, r3
 690 0292 FFF7FEFF 		bl	AD5940_SEQGenFetchSeq
 691 0296 0300     		movs	r3, r0
 692 0298 AC22     		movs	r2, #172
 693 029a BA18     		adds	r2, r7, r2
 694 029c 1360     		str	r3, [r2]
 228:Amperometric.c ****   AD5940_SEQGenCtrl(bFALSE); /* Stop sequencer generator */
 695              		.loc 1 228 0
 696 029e 0020     		movs	r0, #0
 697 02a0 FFF7FEFF 		bl	AD5940_SEQGenCtrl
 229:Amperometric.c ****   if(error == AD5940ERR_OK)
 698              		.loc 1 229 0
 699 02a4 AC23     		movs	r3, #172
 700 02a6 FB18     		adds	r3, r7, r3
 701 02a8 1B68     		ldr	r3, [r3]
 702 02aa 002B     		cmp	r3, #0
 703 02ac 1ED1     		bne	.L22
 230:Amperometric.c ****   {
 231:Amperometric.c ****     AppAMPCfg.InitSeqInfo.SeqId = SEQID_1;
 704              		.loc 1 231 0
 705 02ae 134B     		ldr	r3, .L26
 706 02b0 0122     		movs	r2, #1
 707 02b2 1A67     		str	r2, [r3, #112]
 232:Amperometric.c ****     AppAMPCfg.InitSeqInfo.SeqRamAddr = AppAMPCfg.SeqStartAddr;
 708              		.loc 1 232 0
ARM GAS  C:\Users\13740\AppData\Local\Temp\ccZrwIb5.s 			page 18


 709 02b4 114B     		ldr	r3, .L26
 710 02b6 5A68     		ldr	r2, [r3, #4]
 711 02b8 104B     		ldr	r3, .L26
 712 02ba 5A67     		str	r2, [r3, #116]
 233:Amperometric.c ****     AppAMPCfg.InitSeqInfo.pSeqCmd = pSeqCmd;
 713              		.loc 1 233 0
 714 02bc A823     		movs	r3, #168
 715 02be FB18     		adds	r3, r7, r3
 716 02c0 1A68     		ldr	r2, [r3]
 717 02c2 0E4B     		ldr	r3, .L26
 718 02c4 8021     		movs	r1, #128
 719 02c6 5A50     		str	r2, [r3, r1]
 234:Amperometric.c ****     AppAMPCfg.InitSeqInfo.SeqLen = SeqLen;
 720              		.loc 1 234 0
 721 02c8 A423     		movs	r3, #164
 722 02ca FB18     		adds	r3, r7, r3
 723 02cc 1A68     		ldr	r2, [r3]
 724 02ce 0B4B     		ldr	r3, .L26
 725 02d0 9A67     		str	r2, [r3, #120]
 235:Amperometric.c ****     /* Write command to SRAM */
 236:Amperometric.c ****     AD5940_SEQCmdWrite(AppAMPCfg.InitSeqInfo.SeqRamAddr, pSeqCmd, SeqLen);
 726              		.loc 1 236 0
 727 02d2 0A4B     		ldr	r3, .L26
 728 02d4 5B6F     		ldr	r3, [r3, #116]
 729 02d6 A822     		movs	r2, #168
 730 02d8 BA18     		adds	r2, r7, r2
 731 02da 1168     		ldr	r1, [r2]
 732 02dc A422     		movs	r2, #164
 733 02de BA18     		adds	r2, r7, r2
 734 02e0 1268     		ldr	r2, [r2]
 735 02e2 1800     		movs	r0, r3
 736 02e4 FFF7FEFF 		bl	AD5940_SEQCmdWrite
 237:Amperometric.c ****   }
 238:Amperometric.c ****   else
 239:Amperometric.c ****     return error; /* Error */
 240:Amperometric.c ****   return AD5940ERR_OK;
 737              		.loc 1 240 0
 738 02e8 0023     		movs	r3, #0
 739 02ea 02E0     		b	.L25
 740              	.L22:
 239:Amperometric.c ****   return AD5940ERR_OK;
 741              		.loc 1 239 0
 742 02ec AC23     		movs	r3, #172
 743 02ee FB18     		adds	r3, r7, r3
 744 02f0 1B68     		ldr	r3, [r3]
 745              	.L25:
 241:Amperometric.c **** }
 746              		.loc 1 241 0 discriminator 1
 747 02f2 1800     		movs	r0, r3
 748 02f4 BD46     		mov	sp, r7
 749 02f6 2CB0     		add	sp, sp, #176
 750              		@ sp needed
 751 02f8 80BD     		pop	{r7, pc}
 752              	.L27:
 753 02fa C046     		.align	2
 754              	.L26:
 755 02fc 00000000 		.word	AppAMPCfg
ARM GAS  C:\Users\13740\AppData\Local\Temp\ccZrwIb5.s 			page 19


 756 0300 00004843 		.word	1128792064
 757 0304 99880942 		.word	1107921049
 758 0308 9988093F 		.word	1057589401
 759 030c 34320000 		.word	12852
 760 0310 34300000 		.word	12340
 761 0314 20000100 		.word	65568
 762              		.cfi_endproc
 763              	.LFE3:
 764              		.size	AppAMPSeqCfgGen, .-AppAMPSeqCfgGen
 765              		.section	.text.AppAMPSeqMeasureGen,"ax",%progbits
 766              		.align	2
 767              		.code	16
 768              		.thumb_func
 769              		.type	AppAMPSeqMeasureGen, %function
 770              	AppAMPSeqMeasureGen:
 771              	.LFB4:
 242:Amperometric.c **** 
 243:Amperometric.c **** static AD5940Err AppAMPSeqMeasureGen(void)
 244:Amperometric.c **** {
 772              		.loc 1 244 0
 773              		.cfi_startproc
 774              		@ args = 0, pretend = 0, frame = 48
 775              		@ frame_needed = 1, uses_anonymous_args = 0
 776 0000 80B5     		push	{r7, lr}
 777              		.cfi_def_cfa_offset 8
 778              		.cfi_offset 7, -8
 779              		.cfi_offset 14, -4
 780 0002 8CB0     		sub	sp, sp, #48
 781              		.cfi_def_cfa_offset 56
 782 0004 00AF     		add	r7, sp, #0
 783              		.cfi_def_cfa_register 7
 245:Amperometric.c ****   AD5940Err error = AD5940ERR_OK;
 784              		.loc 1 245 0
 785 0006 0023     		movs	r3, #0
 786 0008 FB62     		str	r3, [r7, #44]
 246:Amperometric.c ****   uint32_t const *pSeqCmd;
 247:Amperometric.c ****   uint32_t SeqLen;
 248:Amperometric.c **** 
 249:Amperometric.c ****   uint32_t WaitClks;
 250:Amperometric.c ****   ClksCalInfo_Type clks_cal;
 251:Amperometric.c ****   
 252:Amperometric.c ****   clks_cal.DataType = DATATYPE_SINC2;
 787              		.loc 1 252 0
 788 000a 3B00     		movs	r3, r7
 789 000c 0222     		movs	r2, #2
 790 000e 1A60     		str	r2, [r3]
 253:Amperometric.c ****   clks_cal.DataCount = 1;
 791              		.loc 1 253 0
 792 0010 3B00     		movs	r3, r7
 793 0012 0122     		movs	r2, #1
 794 0014 5A60     		str	r2, [r3, #4]
 254:Amperometric.c ****   clks_cal.ADCSinc2Osr = AppAMPCfg.ADCSinc2Osr;
 795              		.loc 1 254 0
 796 0016 3F4B     		ldr	r3, .L33
 797 0018 4122     		movs	r2, #65
 798 001a 9B5C     		ldrb	r3, [r3, r2]
 799 001c 1A00     		movs	r2, r3
ARM GAS  C:\Users\13740\AppData\Local\Temp\ccZrwIb5.s 			page 20


 800 001e 3B00     		movs	r3, r7
 801 0020 DA60     		str	r2, [r3, #12]
 255:Amperometric.c ****   clks_cal.ADCSinc3Osr = AppAMPCfg.ADCSinc3Osr;
 802              		.loc 1 255 0
 803 0022 3C4B     		ldr	r3, .L33
 804 0024 4022     		movs	r2, #64
 805 0026 9B5C     		ldrb	r3, [r3, r2]
 806 0028 1A00     		movs	r2, r3
 807 002a 3B00     		movs	r3, r7
 808 002c 9A60     		str	r2, [r3, #8]
 256:Amperometric.c ****   clks_cal.ADCAvgNum = 0;
 809              		.loc 1 256 0
 810 002e 3B00     		movs	r3, r7
 811 0030 0022     		movs	r2, #0
 812 0032 1A61     		str	r2, [r3, #16]
 257:Amperometric.c ****   clks_cal.RatioSys2AdcClk = AppAMPCfg.SysClkFreq/AppAMPCfg.AdcClkFreq;
 813              		.loc 1 257 0
 814 0034 374B     		ldr	r3, .L33
 815 0036 9A69     		ldr	r2, [r3, #24]
 816 0038 364B     		ldr	r3, .L33
 817 003a 1B6A     		ldr	r3, [r3, #32]
 818 003c 191C     		adds	r1, r3, #0
 819 003e 101C     		adds	r0, r2, #0
 820 0040 FFF7FEFF 		bl	__aeabi_fdiv
 821 0044 031C     		adds	r3, r0, #0
 822 0046 1A1C     		adds	r2, r3, #0
 823 0048 3B00     		movs	r3, r7
 824 004a DA61     		str	r2, [r3, #28]
 258:Amperometric.c ****   AD5940_ClksCalculate(&clks_cal, &WaitClks);
 825              		.loc 1 258 0
 826 004c 2023     		movs	r3, #32
 827 004e FA18     		adds	r2, r7, r3
 828 0050 3B00     		movs	r3, r7
 829 0052 1100     		movs	r1, r2
 830 0054 1800     		movs	r0, r3
 831 0056 FFF7FEFF 		bl	AD5940_ClksCalculate
 259:Amperometric.c **** 	WaitClks += 15;
 832              		.loc 1 259 0
 833 005a 3B6A     		ldr	r3, [r7, #32]
 834 005c 0F33     		adds	r3, r3, #15
 835 005e 3B62     		str	r3, [r7, #32]
 260:Amperometric.c ****   AD5940_SEQGenCtrl(bTRUE);
 836              		.loc 1 260 0
 837 0060 0120     		movs	r0, #1
 838 0062 FFF7FEFF 		bl	AD5940_SEQGenCtrl
 261:Amperometric.c ****   AD5940_SEQGpioCtrlS(AGPIO_Pin2);
 839              		.loc 1 261 0
 840 0066 0420     		movs	r0, #4
 841 0068 FFF7FEFF 		bl	AD5940_SEQGpioCtrlS
 262:Amperometric.c ****   AD5940_AFECtrlS(AFECTRL_ADCPWR|AFECTRL_SINC2NOTCH, bTRUE);
 842              		.loc 1 262 0
 843 006c 2A4B     		ldr	r3, .L33+4
 844 006e 0121     		movs	r1, #1
 845 0070 1800     		movs	r0, r3
 846 0072 FFF7FEFF 		bl	AD5940_AFECtrlS
 263:Amperometric.c ****   AD5940_SEQGenInsert(SEQ_WAIT(16*250));    /* wait 250us */
 847              		.loc 1 263 0
ARM GAS  C:\Users\13740\AppData\Local\Temp\ccZrwIb5.s 			page 21


 848 0076 FA23     		movs	r3, #250
 849 0078 1B01     		lsls	r3, r3, #4
 850 007a 1800     		movs	r0, r3
 851 007c FFF7FEFF 		bl	AD5940_SEQGenInsert
 264:Amperometric.c ****   AD5940_AFECtrlS(AFECTRL_ADCCNV, bTRUE);   /* Start ADC convert*/
 852              		.loc 1 264 0
 853 0080 8023     		movs	r3, #128
 854 0082 5B00     		lsls	r3, r3, #1
 855 0084 0121     		movs	r1, #1
 856 0086 1800     		movs	r0, r3
 857 0088 FFF7FEFF 		bl	AD5940_AFECtrlS
 265:Amperometric.c ****   AD5940_SEQGenInsert(SEQ_WAIT(WaitClks));  /* wait for first data ready */
 858              		.loc 1 265 0
 859 008c 3B6A     		ldr	r3, [r7, #32]
 860 008e 9B00     		lsls	r3, r3, #2
 861 0090 9B08     		lsrs	r3, r3, #2
 862 0092 1800     		movs	r0, r3
 863 0094 FFF7FEFF 		bl	AD5940_SEQGenInsert
 266:Amperometric.c ****   AD5940_AFECtrlS(AFECTRL_ADCPWR|AFECTRL_ADCCNV|AFECTRL_SINC2NOTCH, bFALSE);  /* Stop ADC */
 864              		.loc 1 266 0
 865 0098 204B     		ldr	r3, .L33+8
 866 009a 0021     		movs	r1, #0
 867 009c 1800     		movs	r0, r3
 868 009e FFF7FEFF 		bl	AD5940_AFECtrlS
 267:Amperometric.c ****   AD5940_SEQGpioCtrlS(0);
 869              		.loc 1 267 0
 870 00a2 0020     		movs	r0, #0
 871 00a4 FFF7FEFF 		bl	AD5940_SEQGpioCtrlS
 268:Amperometric.c ****   AD5940_EnterSleepS();/* Goto hibernate */
 872              		.loc 1 268 0
 873 00a8 FFF7FEFF 		bl	AD5940_EnterSleepS
 269:Amperometric.c ****   /* Sequence end. */
 270:Amperometric.c ****   error = AD5940_SEQGenFetchSeq(&pSeqCmd, &SeqLen);
 874              		.loc 1 270 0
 875 00ac 2423     		movs	r3, #36
 876 00ae FA18     		adds	r2, r7, r3
 877 00b0 2823     		movs	r3, #40
 878 00b2 FB18     		adds	r3, r7, r3
 879 00b4 1100     		movs	r1, r2
 880 00b6 1800     		movs	r0, r3
 881 00b8 FFF7FEFF 		bl	AD5940_SEQGenFetchSeq
 882 00bc 0300     		movs	r3, r0
 883 00be FB62     		str	r3, [r7, #44]
 271:Amperometric.c ****   AD5940_SEQGenCtrl(bFALSE); /* Stop sequencer generator */
 884              		.loc 1 271 0
 885 00c0 0020     		movs	r0, #0
 886 00c2 FFF7FEFF 		bl	AD5940_SEQGenCtrl
 272:Amperometric.c **** 
 273:Amperometric.c ****   if(error == AD5940ERR_OK)
 887              		.loc 1 273 0
 888 00c6 FB6A     		ldr	r3, [r7, #44]
 889 00c8 002B     		cmp	r3, #0
 890 00ca 1DD1     		bne	.L29
 274:Amperometric.c ****   {
 275:Amperometric.c ****     AppAMPCfg.MeasureSeqInfo.SeqId = SEQID_0;
 891              		.loc 1 275 0
 892 00cc 114B     		ldr	r3, .L33
ARM GAS  C:\Users\13740\AppData\Local\Temp\ccZrwIb5.s 			page 22


 893 00ce 8422     		movs	r2, #132
 894 00d0 0021     		movs	r1, #0
 895 00d2 9950     		str	r1, [r3, r2]
 276:Amperometric.c ****     AppAMPCfg.MeasureSeqInfo.SeqRamAddr = AppAMPCfg.InitSeqInfo.SeqRamAddr + AppAMPCfg.InitSeqInfo.
 896              		.loc 1 276 0
 897 00d4 0F4B     		ldr	r3, .L33
 898 00d6 5A6F     		ldr	r2, [r3, #116]
 899 00d8 0E4B     		ldr	r3, .L33
 900 00da 9B6F     		ldr	r3, [r3, #120]
 901 00dc D218     		adds	r2, r2, r3
 902 00de 0D4B     		ldr	r3, .L33
 903 00e0 8821     		movs	r1, #136
 904 00e2 5A50     		str	r2, [r3, r1]
 277:Amperometric.c ****     AppAMPCfg.MeasureSeqInfo.pSeqCmd = pSeqCmd;
 905              		.loc 1 277 0
 906 00e4 BA6A     		ldr	r2, [r7, #40]
 907 00e6 0B4B     		ldr	r3, .L33
 908 00e8 9421     		movs	r1, #148
 909 00ea 5A50     		str	r2, [r3, r1]
 278:Amperometric.c ****     AppAMPCfg.MeasureSeqInfo.SeqLen = SeqLen;
 910              		.loc 1 278 0
 911 00ec 7A6A     		ldr	r2, [r7, #36]
 912 00ee 094B     		ldr	r3, .L33
 913 00f0 8C21     		movs	r1, #140
 914 00f2 5A50     		str	r2, [r3, r1]
 279:Amperometric.c ****     /* Write command to SRAM */
 280:Amperometric.c ****     AD5940_SEQCmdWrite(AppAMPCfg.MeasureSeqInfo.SeqRamAddr, pSeqCmd, SeqLen);
 915              		.loc 1 280 0
 916 00f4 074B     		ldr	r3, .L33
 917 00f6 8822     		movs	r2, #136
 918 00f8 9B58     		ldr	r3, [r3, r2]
 919 00fa B96A     		ldr	r1, [r7, #40]
 920 00fc 7A6A     		ldr	r2, [r7, #36]
 921 00fe 1800     		movs	r0, r3
 922 0100 FFF7FEFF 		bl	AD5940_SEQCmdWrite
 281:Amperometric.c ****   }
 282:Amperometric.c ****   else
 283:Amperometric.c ****     return error; /* Error */
 284:Amperometric.c ****   return AD5940ERR_OK;
 923              		.loc 1 284 0
 924 0104 0023     		movs	r3, #0
 925 0106 00E0     		b	.L32
 926              	.L29:
 283:Amperometric.c ****   return AD5940ERR_OK;
 927              		.loc 1 283 0
 928 0108 FB6A     		ldr	r3, [r7, #44]
 929              	.L32:
 285:Amperometric.c **** }
 930              		.loc 1 285 0 discriminator 1
 931 010a 1800     		movs	r0, r3
 932 010c BD46     		mov	sp, r7
 933 010e 0CB0     		add	sp, sp, #48
 934              		@ sp needed
 935 0110 80BD     		pop	{r7, pc}
 936              	.L34:
 937 0112 C046     		.align	2
 938              	.L33:
ARM GAS  C:\Users\13740\AppData\Local\Temp\ccZrwIb5.s 			page 23


 939 0114 00000000 		.word	AppAMPCfg
 940 0118 80000100 		.word	65664
 941 011c 80010100 		.word	65920
 942              		.cfi_endproc
 943              	.LFE4:
 944              		.size	AppAMPSeqMeasureGen, .-AppAMPSeqMeasureGen
 945              		.section	.text.AppAMPRtiaCal,"ax",%progbits
 946              		.align	2
 947              		.code	16
 948              		.thumb_func
 949              		.type	AppAMPRtiaCal, %function
 950              	AppAMPRtiaCal:
 951              	.LFB5:
 286:Amperometric.c **** static AD5940Err AppAMPRtiaCal(void)
 287:Amperometric.c **** {
 952              		.loc 1 287 0
 953              		.cfi_startproc
 954              		@ args = 0, pretend = 0, frame = 64
 955              		@ frame_needed = 1, uses_anonymous_args = 0
 956 0000 80B5     		push	{r7, lr}
 957              		.cfi_def_cfa_offset 8
 958              		.cfi_offset 7, -8
 959              		.cfi_offset 14, -4
 960 0002 90B0     		sub	sp, sp, #64
 961              		.cfi_def_cfa_offset 72
 962 0004 00AF     		add	r7, sp, #0
 963              		.cfi_def_cfa_register 7
 288:Amperometric.c **** fImpPol_Type RtiaCalValue;  /* Calibration result */
 289:Amperometric.c ****   LPRTIACal_Type lprtia_cal;
 290:Amperometric.c ****   AD5940_StructInit(&lprtia_cal, sizeof(lprtia_cal));
 964              		.loc 1 290 0
 965 0006 3B00     		movs	r3, r7
 966 0008 3821     		movs	r1, #56
 967 000a 1800     		movs	r0, r3
 968 000c FFF7FEFF 		bl	AD5940_StructInit
 291:Amperometric.c **** 
 292:Amperometric.c ****   lprtia_cal.bPolarResult = bTRUE;                /* Magnitude + Phase */
 969              		.loc 1 292 0
 970 0010 3B00     		movs	r3, r7
 971 0012 0122     		movs	r2, #1
 972 0014 5A63     		str	r2, [r3, #52]
 293:Amperometric.c ****   lprtia_cal.AdcClkFreq = AppAMPCfg.AdcClkFreq;
 973              		.loc 1 293 0
 974 0016 294B     		ldr	r3, .L37
 975 0018 1A6A     		ldr	r2, [r3, #32]
 976 001a 3B00     		movs	r3, r7
 977 001c DA60     		str	r2, [r3, #12]
 294:Amperometric.c ****   lprtia_cal.SysClkFreq = AppAMPCfg.SysClkFreq;
 978              		.loc 1 294 0
 979 001e 274B     		ldr	r3, .L37
 980 0020 9A69     		ldr	r2, [r3, #24]
 981 0022 3B00     		movs	r3, r7
 982 0024 9A60     		str	r2, [r3, #8]
 295:Amperometric.c ****   lprtia_cal.ADCSinc3Osr = ADCSINC3OSR_4;
 983              		.loc 1 295 0
 984 0026 3B00     		movs	r3, r7
 985 0028 0122     		movs	r2, #1
ARM GAS  C:\Users\13740\AppData\Local\Temp\ccZrwIb5.s 			page 24


 986 002a 1A62     		str	r2, [r3, #32]
 296:Amperometric.c ****   lprtia_cal.ADCSinc2Osr = ADCSINC2OSR_22;        /* Use SINC2 data as DFT data source */
 987              		.loc 1 296 0
 988 002c 3B00     		movs	r3, r7
 989 002e 0022     		movs	r2, #0
 990 0030 5A62     		str	r2, [r3, #36]
 297:Amperometric.c ****   lprtia_cal.DftCfg.DftNum = DFTNUM_2048;         /* Maximum DFT number */
 991              		.loc 1 297 0
 992 0032 3B00     		movs	r3, r7
 993 0034 0922     		movs	r2, #9
 994 0036 9A62     		str	r2, [r3, #40]
 298:Amperometric.c ****   lprtia_cal.DftCfg.DftSrc = DFTSRC_SINC2NOTCH;   /* For frequency under 12Hz, need to optimize DFT
 995              		.loc 1 298 0
 996 0038 3B00     		movs	r3, r7
 997 003a 0022     		movs	r2, #0
 998 003c DA62     		str	r2, [r3, #44]
 299:Amperometric.c ****   lprtia_cal.DftCfg.HanWinEn = bTRUE;
 999              		.loc 1 299 0
 1000 003e 3B00     		movs	r3, r7
 1001 0040 3022     		movs	r2, #48
 1002 0042 0121     		movs	r1, #1
 1003 0044 9954     		strb	r1, [r3, r2]
 300:Amperometric.c ****   lprtia_cal.fFreq = AppAMPCfg.AdcClkFreq/4/22/2048*3;  /* Sample 3 period of signal, 13.317Hz here
 1004              		.loc 1 300 0
 1005 0046 1D4B     		ldr	r3, .L37
 1006 0048 1B6A     		ldr	r3, [r3, #32]
 1007 004a 8121     		movs	r1, #129
 1008 004c C905     		lsls	r1, r1, #23
 1009 004e 181C     		adds	r0, r3, #0
 1010 0050 FFF7FEFF 		bl	__aeabi_fdiv
 1011 0054 031C     		adds	r3, r0, #0
 1012 0056 1A49     		ldr	r1, .L37+4
 1013 0058 181C     		adds	r0, r3, #0
 1014 005a FFF7FEFF 		bl	__aeabi_fdiv
 1015 005e 031C     		adds	r3, r0, #0
 1016 0060 8A21     		movs	r1, #138
 1017 0062 C905     		lsls	r1, r1, #23
 1018 0064 181C     		adds	r0, r3, #0
 1019 0066 FFF7FEFF 		bl	__aeabi_fdiv
 1020 006a 031C     		adds	r3, r0, #0
 1021 006c 1549     		ldr	r1, .L37+8
 1022 006e 181C     		adds	r0, r3, #0
 1023 0070 FFF7FEFF 		bl	__aeabi_fmul
 1024 0074 031C     		adds	r3, r0, #0
 1025 0076 1A1C     		adds	r2, r3, #0
 1026 0078 3B00     		movs	r3, r7
 1027 007a 1A60     		str	r2, [r3]
 301:Amperometric.c ****   lprtia_cal.fRcal = AppAMPCfg.RcalVal;
 1028              		.loc 1 301 0
 1029 007c 0F4B     		ldr	r3, .L37
 1030 007e 1A6B     		ldr	r2, [r3, #48]
 1031 0080 3B00     		movs	r3, r7
 1032 0082 5A60     		str	r2, [r3, #4]
 302:Amperometric.c ****   lprtia_cal.LpTiaRtia = AppAMPCfg.LptiaRtiaSel;
 1033              		.loc 1 302 0
 1034 0084 0D4B     		ldr	r3, .L37
 1035 0086 9A6C     		ldr	r2, [r3, #72]
ARM GAS  C:\Users\13740\AppData\Local\Temp\ccZrwIb5.s 			page 25


 1036 0088 3B00     		movs	r3, r7
 1037 008a 9A61     		str	r2, [r3, #24]
 303:Amperometric.c ****   lprtia_cal.LpAmpPwrMod = LPAMPPWR_NORM;
 1038              		.loc 1 303 0
 1039 008c 3B00     		movs	r3, r7
 1040 008e 0022     		movs	r2, #0
 1041 0090 DA61     		str	r2, [r3, #28]
 304:Amperometric.c ****   lprtia_cal.bWithCtia = bFALSE;
 1042              		.loc 1 304 0
 1043 0092 3B00     		movs	r3, r7
 1044 0094 0022     		movs	r2, #0
 1045 0096 1A75     		strb	r2, [r3, #20]
 305:Amperometric.c ****   AD5940_LPRtiaCal(&lprtia_cal, &RtiaCalValue);
 1046              		.loc 1 305 0
 1047 0098 3823     		movs	r3, #56
 1048 009a FA18     		adds	r2, r7, r3
 1049 009c 3B00     		movs	r3, r7
 1050 009e 1100     		movs	r1, r2
 1051 00a0 1800     		movs	r0, r3
 1052 00a2 FFF7FEFF 		bl	AD5940_LPRtiaCal
 306:Amperometric.c ****   AppAMPCfg.RtiaCalValue = RtiaCalValue;
 1053              		.loc 1 306 0
 1054 00a6 054B     		ldr	r3, .L37
 1055 00a8 3822     		movs	r2, #56
 1056 00aa BA18     		adds	r2, r7, r2
 1057 00ac 5433     		adds	r3, r3, #84
 1058 00ae 03CA     		ldmia	r2!, {r0, r1}
 1059 00b0 03C3     		stmia	r3!, {r0, r1}
 307:Amperometric.c ****  
 308:Amperometric.c ****   return AD5940ERR_OK;
 1060              		.loc 1 308 0
 1061 00b2 0023     		movs	r3, #0
 309:Amperometric.c **** }
 1062              		.loc 1 309 0
 1063 00b4 1800     		movs	r0, r3
 1064 00b6 BD46     		mov	sp, r7
 1065 00b8 10B0     		add	sp, sp, #64
 1066              		@ sp needed
 1067 00ba 80BD     		pop	{r7, pc}
 1068              	.L38:
 1069              		.align	2
 1070              	.L37:
 1071 00bc 00000000 		.word	AppAMPCfg
 1072 00c0 0000B041 		.word	1102053376
 1073 00c4 00004040 		.word	1077936128
 1074              		.cfi_endproc
 1075              	.LFE5:
 1076              		.size	AppAMPRtiaCal, .-AppAMPRtiaCal
 1077              		.section	.text.AppAMPInit,"ax",%progbits
 1078              		.align	2
 1079              		.global	AppAMPInit
 1080              		.code	16
 1081              		.thumb_func
 1082              		.type	AppAMPInit, %function
 1083              	AppAMPInit:
 1084              	.LFB6:
 310:Amperometric.c **** /* This function provide application initialize.   */
ARM GAS  C:\Users\13740\AppData\Local\Temp\ccZrwIb5.s 			page 26


 311:Amperometric.c **** AD5940Err AppAMPInit(uint32_t *pBuffer, uint32_t BufferSize)
 312:Amperometric.c **** {
 1085              		.loc 1 312 0
 1086              		.cfi_startproc
 1087              		@ args = 0, pretend = 0, frame = 48
 1088              		@ frame_needed = 1, uses_anonymous_args = 0
 1089 0000 80B5     		push	{r7, lr}
 1090              		.cfi_def_cfa_offset 8
 1091              		.cfi_offset 7, -8
 1092              		.cfi_offset 14, -4
 1093 0002 8CB0     		sub	sp, sp, #48
 1094              		.cfi_def_cfa_offset 56
 1095 0004 00AF     		add	r7, sp, #0
 1096              		.cfi_def_cfa_register 7
 1097 0006 7860     		str	r0, [r7, #4]
 1098 0008 3960     		str	r1, [r7]
 313:Amperometric.c ****   AD5940Err error = AD5940ERR_OK;
 1099              		.loc 1 313 0
 1100 000a 0023     		movs	r3, #0
 1101 000c FB62     		str	r3, [r7, #44]
 314:Amperometric.c ****   SEQCfg_Type seq_cfg;
 315:Amperometric.c ****   FIFOCfg_Type fifo_cfg;
 316:Amperometric.c **** 
 317:Amperometric.c ****   if(AD5940_WakeUp(10) > 10)  /* Wakeup AFE by read register, read 10 times at most */
 1102              		.loc 1 317 0
 1103 000e 0A20     		movs	r0, #10
 1104 0010 FFF7FEFF 		bl	AD5940_WakeUp
 1105 0014 0300     		movs	r3, r0
 1106 0016 0A2B     		cmp	r3, #10
 1107 0018 02D9     		bls	.L40
 318:Amperometric.c ****     return AD5940ERR_WAKEUP;  /* Wakeup Failed */
 1108              		.loc 1 318 0
 1109 001a 0923     		movs	r3, #9
 1110 001c 5B42     		rsbs	r3, r3, #0
 1111 001e BFE0     		b	.L52
 1112              	.L40:
 319:Amperometric.c **** 
 320:Amperometric.c ****   /* Configure sequencer and stop it */
 321:Amperometric.c ****   seq_cfg.SeqMemSize = SEQMEMSIZE_2KB;  /* 2kB SRAM is used for sequencer, others for data FIFO */
 1113              		.loc 1 321 0
 1114 0020 2023     		movs	r3, #32
 1115 0022 FB18     		adds	r3, r7, r3
 1116 0024 0122     		movs	r2, #1
 1117 0026 1A60     		str	r2, [r3]
 322:Amperometric.c ****   seq_cfg.SeqBreakEn = bFALSE;
 1118              		.loc 1 322 0
 1119 0028 2023     		movs	r3, #32
 1120 002a FB18     		adds	r3, r7, r3
 1121 002c 0022     		movs	r2, #0
 1122 002e 5A71     		strb	r2, [r3, #5]
 323:Amperometric.c ****   seq_cfg.SeqIgnoreEn = bFALSE;
 1123              		.loc 1 323 0
 1124 0030 2023     		movs	r3, #32
 1125 0032 FB18     		adds	r3, r7, r3
 1126 0034 0022     		movs	r2, #0
 1127 0036 9A71     		strb	r2, [r3, #6]
 324:Amperometric.c ****   seq_cfg.SeqCntCRCClr = bTRUE;
ARM GAS  C:\Users\13740\AppData\Local\Temp\ccZrwIb5.s 			page 27


 1128              		.loc 1 324 0
 1129 0038 2023     		movs	r3, #32
 1130 003a FB18     		adds	r3, r7, r3
 1131 003c 0122     		movs	r2, #1
 1132 003e DA71     		strb	r2, [r3, #7]
 325:Amperometric.c ****   seq_cfg.SeqEnable = bFALSE;
 1133              		.loc 1 325 0
 1134 0040 2023     		movs	r3, #32
 1135 0042 FB18     		adds	r3, r7, r3
 1136 0044 0022     		movs	r2, #0
 1137 0046 1A71     		strb	r2, [r3, #4]
 326:Amperometric.c ****   seq_cfg.SeqWrTimer = 0;
 1138              		.loc 1 326 0
 1139 0048 2023     		movs	r3, #32
 1140 004a FB18     		adds	r3, r7, r3
 1141 004c 0022     		movs	r2, #0
 1142 004e 9A60     		str	r2, [r3, #8]
 327:Amperometric.c ****   AD5940_SEQCfg(&seq_cfg);
 1143              		.loc 1 327 0
 1144 0050 2023     		movs	r3, #32
 1145 0052 FB18     		adds	r3, r7, r3
 1146 0054 1800     		movs	r0, r3
 1147 0056 FFF7FEFF 		bl	AD5940_SEQCfg
 328:Amperometric.c **** 
 329:Amperometric.c ****   /* Do RTIA calibration */
 330:Amperometric.c ****   if(((AppAMPCfg.ReDoRtiaCal == bTRUE) || \
 1148              		.loc 1 330 0
 1149 005a 534B     		ldr	r3, .L53
 1150 005c 1B7D     		ldrb	r3, [r3, #20]
 1151 005e 012B     		cmp	r3, #1
 1152 0060 04D0     		beq	.L42
 331:Amperometric.c ****       AppAMPCfg.AMPInited == bFALSE) && AppAMPCfg.ExtRtia == bFALSE)  /* Do calibration on the firs
 1153              		.loc 1 331 0 discriminator 1
 1154 0062 514B     		ldr	r3, .L53
 1155 0064 6C22     		movs	r2, #108
 1156 0066 9B5C     		ldrb	r3, [r3, r2]
 330:Amperometric.c ****       AppAMPCfg.AMPInited == bFALSE) && AppAMPCfg.ExtRtia == bFALSE)  /* Do calibration on the firs
 1157              		.loc 1 330 0 discriminator 1
 1158 0068 002B     		cmp	r3, #0
 1159 006a 0AD1     		bne	.L43
 1160              	.L42:
 1161              		.loc 1 331 0
 1162 006c 4E4B     		ldr	r3, .L53
 1163 006e 6422     		movs	r2, #100
 1164 0070 9B5C     		ldrb	r3, [r3, r2]
 1165 0072 002B     		cmp	r3, #0
 1166 0074 05D1     		bne	.L43
 332:Amperometric.c ****   {
 333:Amperometric.c ****     AppAMPRtiaCal();
 1167              		.loc 1 333 0
 1168 0076 FFF7FEFF 		bl	AppAMPRtiaCal
 334:Amperometric.c ****     AppAMPCfg.ReDoRtiaCal = bFALSE;
 1169              		.loc 1 334 0
 1170 007a 4B4B     		ldr	r3, .L53
 1171 007c 0022     		movs	r2, #0
 1172 007e 1A75     		strb	r2, [r3, #20]
 1173 0080 03E0     		b	.L44
ARM GAS  C:\Users\13740\AppData\Local\Temp\ccZrwIb5.s 			page 28


 1174              	.L43:
 335:Amperometric.c ****   }else
 336:Amperometric.c **** 		AppAMPCfg.RtiaCalValue.Magnitude = AppAMPCfg.ExtRtiaVal;
 1175              		.loc 1 336 0
 1176 0082 494B     		ldr	r3, .L53
 1177 0084 9A6E     		ldr	r2, [r3, #104]
 1178 0086 484B     		ldr	r3, .L53
 1179 0088 5A65     		str	r2, [r3, #84]
 1180              	.L44:
 337:Amperometric.c ****   
 338:Amperometric.c **** 	/* Reconfigure FIFO */
 339:Amperometric.c ****   AD5940_FIFOCtrlS(DFTSRC_SINC3, bFALSE);									/* Disable FIFO firstly */
 1181              		.loc 1 339 0
 1182 008a 0021     		movs	r1, #0
 1183 008c 0120     		movs	r0, #1
 1184 008e FFF7FEFF 		bl	AD5940_FIFOCtrlS
 340:Amperometric.c ****   fifo_cfg.FIFOEn = bTRUE;
 1185              		.loc 1 340 0
 1186 0092 0C23     		movs	r3, #12
 1187 0094 FB18     		adds	r3, r7, r3
 1188 0096 0122     		movs	r2, #1
 1189 0098 1A70     		strb	r2, [r3]
 341:Amperometric.c ****   fifo_cfg.FIFOMode = FIFOMODE_FIFO;
 1190              		.loc 1 341 0
 1191 009a 0C23     		movs	r3, #12
 1192 009c FB18     		adds	r3, r7, r3
 1193 009e 0222     		movs	r2, #2
 1194 00a0 5A60     		str	r2, [r3, #4]
 342:Amperometric.c ****   fifo_cfg.FIFOSize = FIFOSIZE_4KB;                       /* 4kB for FIFO, The reset 2kB for sequen
 1195              		.loc 1 342 0
 1196 00a2 0C23     		movs	r3, #12
 1197 00a4 FB18     		adds	r3, r7, r3
 1198 00a6 0222     		movs	r2, #2
 1199 00a8 9A60     		str	r2, [r3, #8]
 343:Amperometric.c ****   fifo_cfg.FIFOSrc = AppAMPCfg.DataFifoSrc;
 1200              		.loc 1 343 0
 1201 00aa 3F4B     		ldr	r3, .L53
 1202 00ac 5A6C     		ldr	r2, [r3, #68]
 1203 00ae 0C23     		movs	r3, #12
 1204 00b0 FB18     		adds	r3, r7, r3
 1205 00b2 DA60     		str	r2, [r3, #12]
 344:Amperometric.c ****   fifo_cfg.FIFOThresh = AppAMPCfg.FifoThresh;              
 1206              		.loc 1 344 0
 1207 00b4 3C4B     		ldr	r3, .L53
 1208 00b6 5A6A     		ldr	r2, [r3, #36]
 1209 00b8 0C23     		movs	r3, #12
 1210 00ba FB18     		adds	r3, r7, r3
 1211 00bc 1A61     		str	r2, [r3, #16]
 345:Amperometric.c ****   AD5940_FIFOCfg(&fifo_cfg);
 1212              		.loc 1 345 0
 1213 00be 0C23     		movs	r3, #12
 1214 00c0 FB18     		adds	r3, r7, r3
 1215 00c2 1800     		movs	r0, r3
 1216 00c4 FFF7FEFF 		bl	AD5940_FIFOCfg
 346:Amperometric.c **** 
 347:Amperometric.c ****   AD5940_INTCClrFlag(AFEINTSRC_ALLINT);
 1217              		.loc 1 347 0
ARM GAS  C:\Users\13740\AppData\Local\Temp\ccZrwIb5.s 			page 29


 1218 00c8 0123     		movs	r3, #1
 1219 00ca 5B42     		rsbs	r3, r3, #0
 1220 00cc 1800     		movs	r0, r3
 1221 00ce FFF7FEFF 		bl	AD5940_INTCClrFlag
 348:Amperometric.c ****   
 349:Amperometric.c ****   /* Start sequence generator */
 350:Amperometric.c ****   /* Initialize sequencer generator */
 351:Amperometric.c ****   if((AppAMPCfg.AMPInited == bFALSE)||\
 1222              		.loc 1 351 0
 1223 00d2 354B     		ldr	r3, .L53
 1224 00d4 6C22     		movs	r2, #108
 1225 00d6 9B5C     		ldrb	r3, [r3, r2]
 1226 00d8 002B     		cmp	r3, #0
 1227 00da 03D0     		beq	.L45
 352:Amperometric.c ****        (AppAMPCfg.bParaChanged == bTRUE))
 1228              		.loc 1 352 0 discriminator 1
 1229 00dc 324B     		ldr	r3, .L53
 1230 00de 1B78     		ldrb	r3, [r3]
 351:Amperometric.c ****        (AppAMPCfg.bParaChanged == bTRUE))
 1231              		.loc 1 351 0 discriminator 1
 1232 00e0 012B     		cmp	r3, #1
 1233 00e2 26D1     		bne	.L46
 1234              	.L45:
 353:Amperometric.c ****   {
 354:Amperometric.c ****     if(pBuffer == 0)  return AD5940ERR_PARA;
 1235              		.loc 1 354 0
 1236 00e4 7B68     		ldr	r3, [r7, #4]
 1237 00e6 002B     		cmp	r3, #0
 1238 00e8 02D1     		bne	.L47
 1239              		.loc 1 354 0 is_stmt 0 discriminator 1
 1240 00ea 0223     		movs	r3, #2
 1241 00ec 5B42     		rsbs	r3, r3, #0
 1242 00ee 57E0     		b	.L52
 1243              	.L47:
 355:Amperometric.c ****     if(BufferSize == 0) return AD5940ERR_PARA;   
 1244              		.loc 1 355 0 is_stmt 1
 1245 00f0 3B68     		ldr	r3, [r7]
 1246 00f2 002B     		cmp	r3, #0
 1247 00f4 02D1     		bne	.L48
 1248              		.loc 1 355 0 is_stmt 0 discriminator 1
 1249 00f6 0223     		movs	r3, #2
 1250 00f8 5B42     		rsbs	r3, r3, #0
 1251 00fa 51E0     		b	.L52
 1252              	.L48:
 356:Amperometric.c ****     AD5940_SEQGenInit(pBuffer, BufferSize);
 1253              		.loc 1 356 0 is_stmt 1
 1254 00fc 3A68     		ldr	r2, [r7]
 1255 00fe 7B68     		ldr	r3, [r7, #4]
 1256 0100 1100     		movs	r1, r2
 1257 0102 1800     		movs	r0, r3
 1258 0104 FFF7FEFF 		bl	AD5940_SEQGenInit
 357:Amperometric.c **** 
 358:Amperometric.c ****     /* Generate initialize sequence */
 359:Amperometric.c ****     error = AppAMPSeqCfgGen(); /* Application initialization sequence using either MCU or sequencer
 1259              		.loc 1 359 0
 1260 0108 FFF7FEFF 		bl	AppAMPSeqCfgGen
 1261 010c 0300     		movs	r3, r0
ARM GAS  C:\Users\13740\AppData\Local\Temp\ccZrwIb5.s 			page 30


 1262 010e FB62     		str	r3, [r7, #44]
 360:Amperometric.c ****     if(error != AD5940ERR_OK) return error;
 1263              		.loc 1 360 0
 1264 0110 FB6A     		ldr	r3, [r7, #44]
 1265 0112 002B     		cmp	r3, #0
 1266 0114 01D0     		beq	.L49
 1267              		.loc 1 360 0 is_stmt 0 discriminator 1
 1268 0116 FB6A     		ldr	r3, [r7, #44]
 1269 0118 42E0     		b	.L52
 1270              	.L49:
 361:Amperometric.c **** 
 362:Amperometric.c ****     /* Generate measurement sequence */
 363:Amperometric.c ****     error = AppAMPSeqMeasureGen();
 1271              		.loc 1 363 0 is_stmt 1
 1272 011a FFF7FEFF 		bl	AppAMPSeqMeasureGen
 1273 011e 0300     		movs	r3, r0
 1274 0120 FB62     		str	r3, [r7, #44]
 364:Amperometric.c ****     if(error != AD5940ERR_OK) return error;
 1275              		.loc 1 364 0
 1276 0122 FB6A     		ldr	r3, [r7, #44]
 1277 0124 002B     		cmp	r3, #0
 1278 0126 01D0     		beq	.L50
 1279              		.loc 1 364 0 is_stmt 0 discriminator 1
 1280 0128 FB6A     		ldr	r3, [r7, #44]
 1281 012a 39E0     		b	.L52
 1282              	.L50:
 365:Amperometric.c **** 
 366:Amperometric.c ****     AppAMPCfg.bParaChanged = bFALSE; /* Clear this flag as we already implemented the new configura
 1283              		.loc 1 366 0 is_stmt 1
 1284 012c 1E4B     		ldr	r3, .L53
 1285 012e 0022     		movs	r2, #0
 1286 0130 1A70     		strb	r2, [r3]
 1287              	.L46:
 367:Amperometric.c ****   }
 368:Amperometric.c ****   /* Initialization sequencer  */
 369:Amperometric.c ****   AppAMPCfg.InitSeqInfo.WriteSRAM = bFALSE;
 1288              		.loc 1 369 0
 1289 0132 1D4B     		ldr	r3, .L53
 1290 0134 7C22     		movs	r2, #124
 1291 0136 0021     		movs	r1, #0
 1292 0138 9954     		strb	r1, [r3, r2]
 370:Amperometric.c ****   AD5940_SEQInfoCfg(&AppAMPCfg.InitSeqInfo);
 1293              		.loc 1 370 0
 1294 013a 1C4B     		ldr	r3, .L53+4
 1295 013c 1800     		movs	r0, r3
 1296 013e FFF7FEFF 		bl	AD5940_SEQInfoCfg
 371:Amperometric.c ****   seq_cfg.SeqEnable = bTRUE;
 1297              		.loc 1 371 0
 1298 0142 2023     		movs	r3, #32
 1299 0144 FB18     		adds	r3, r7, r3
 1300 0146 0122     		movs	r2, #1
 1301 0148 1A71     		strb	r2, [r3, #4]
 372:Amperometric.c ****   AD5940_SEQCfg(&seq_cfg);  /* Enable sequencer */
 1302              		.loc 1 372 0
 1303 014a 2023     		movs	r3, #32
 1304 014c FB18     		adds	r3, r7, r3
 1305 014e 1800     		movs	r0, r3
ARM GAS  C:\Users\13740\AppData\Local\Temp\ccZrwIb5.s 			page 31


 1306 0150 FFF7FEFF 		bl	AD5940_SEQCfg
 373:Amperometric.c ****   AD5940_SEQMmrTrig(AppAMPCfg.InitSeqInfo.SeqId);
 1307              		.loc 1 373 0
 1308 0154 144B     		ldr	r3, .L53
 1309 0156 1B6F     		ldr	r3, [r3, #112]
 1310 0158 1800     		movs	r0, r3
 1311 015a FFF7FEFF 		bl	AD5940_SEQMmrTrig
 374:Amperometric.c ****   while(AD5940_INTCTestFlag(AFEINTC_1, AFEINTSRC_ENDSEQ) == bFALSE);
 1312              		.loc 1 374 0
 1313 015e C046     		nop
 1314              	.L51:
 1315              		.loc 1 374 0 is_stmt 0 discriminator 1
 1316 0160 8023     		movs	r3, #128
 1317 0162 1B02     		lsls	r3, r3, #8
 1318 0164 1900     		movs	r1, r3
 1319 0166 0120     		movs	r0, #1
 1320 0168 FFF7FEFF 		bl	AD5940_INTCTestFlag
 1321 016c 031E     		subs	r3, r0, #0
 1322 016e F7D0     		beq	.L51
 375:Amperometric.c ****   
 376:Amperometric.c ****   /* Measurement sequence  */
 377:Amperometric.c ****   AppAMPCfg.MeasureSeqInfo.WriteSRAM = bFALSE;
 1323              		.loc 1 377 0 is_stmt 1
 1324 0170 0D4B     		ldr	r3, .L53
 1325 0172 9022     		movs	r2, #144
 1326 0174 0021     		movs	r1, #0
 1327 0176 9954     		strb	r1, [r3, r2]
 378:Amperometric.c ****   AD5940_SEQInfoCfg(&AppAMPCfg.MeasureSeqInfo);
 1328              		.loc 1 378 0
 1329 0178 0D4B     		ldr	r3, .L53+8
 1330 017a 1800     		movs	r0, r3
 1331 017c FFF7FEFF 		bl	AD5940_SEQInfoCfg
 379:Amperometric.c **** 
 380:Amperometric.c **** //  seq_cfg.SeqEnable = bTRUE;
 381:Amperometric.c **** //  AD5940_SEQCfg(&seq_cfg);  /* Enable sequencer, and wait for trigger */
 382:Amperometric.c **** 	AD5940_SEQCtrlS(bTRUE);  /* Enable sequencer, and wait for trigger. It's disabled in initializatio
 1332              		.loc 1 382 0
 1333 0180 0120     		movs	r0, #1
 1334 0182 FFF7FEFF 		bl	AD5940_SEQCtrlS
 383:Amperometric.c ****   AD5940_ClrMCUIntFlag();   /* Clear interrupt flag generated before */
 1335              		.loc 1 383 0
 1336 0186 FFF7FEFF 		bl	AD5940_ClrMCUIntFlag
 384:Amperometric.c **** 
 385:Amperometric.c ****   AD5940_AFEPwrBW(AppAMPCfg.PwrMod, AFEBW_250KHZ);
 1337              		.loc 1 385 0
 1338 018a 074B     		ldr	r3, .L53
 1339 018c 9B6B     		ldr	r3, [r3, #56]
 1340 018e 0321     		movs	r1, #3
 1341 0190 1800     		movs	r0, r3
 1342 0192 FFF7FEFF 		bl	AD5940_AFEPwrBW
 386:Amperometric.c ****   AppAMPCfg.AMPInited = bTRUE;  /* AMP application has been initialized. */
 1343              		.loc 1 386 0
 1344 0196 044B     		ldr	r3, .L53
 1345 0198 6C22     		movs	r2, #108
 1346 019a 0121     		movs	r1, #1
 1347 019c 9954     		strb	r1, [r3, r2]
 387:Amperometric.c ****   return AD5940ERR_OK;
ARM GAS  C:\Users\13740\AppData\Local\Temp\ccZrwIb5.s 			page 32


 1348              		.loc 1 387 0
 1349 019e 0023     		movs	r3, #0
 1350              	.L52:
 388:Amperometric.c **** }
 1351              		.loc 1 388 0 discriminator 1
 1352 01a0 1800     		movs	r0, r3
 1353 01a2 BD46     		mov	sp, r7
 1354 01a4 0CB0     		add	sp, sp, #48
 1355              		@ sp needed
 1356 01a6 80BD     		pop	{r7, pc}
 1357              	.L54:
 1358              		.align	2
 1359              	.L53:
 1360 01a8 00000000 		.word	AppAMPCfg
 1361 01ac 70000000 		.word	AppAMPCfg+112
 1362 01b0 84000000 		.word	AppAMPCfg+132
 1363              		.cfi_endproc
 1364              	.LFE6:
 1365              		.size	AppAMPInit, .-AppAMPInit
 1366              		.section	.text.AppAMPRegModify,"ax",%progbits
 1367              		.align	2
 1368              		.code	16
 1369              		.thumb_func
 1370              		.type	AppAMPRegModify, %function
 1371              	AppAMPRegModify:
 1372              	.LFB7:
 389:Amperometric.c **** 
 390:Amperometric.c **** /* Modify registers when AFE wakeup */
 391:Amperometric.c **** static AD5940Err AppAMPRegModify(int32_t * const pData, uint32_t *pDataCount)
 392:Amperometric.c **** {
 1373              		.loc 1 392 0
 1374              		.cfi_startproc
 1375              		@ args = 0, pretend = 0, frame = 8
 1376              		@ frame_needed = 1, uses_anonymous_args = 0
 1377 0000 80B5     		push	{r7, lr}
 1378              		.cfi_def_cfa_offset 8
 1379              		.cfi_offset 7, -8
 1380              		.cfi_offset 14, -4
 1381 0002 82B0     		sub	sp, sp, #8
 1382              		.cfi_def_cfa_offset 16
 1383 0004 00AF     		add	r7, sp, #0
 1384              		.cfi_def_cfa_register 7
 1385 0006 7860     		str	r0, [r7, #4]
 1386 0008 3960     		str	r1, [r7]
 393:Amperometric.c ****   if(AppAMPCfg.NumOfData > 0)
 1387              		.loc 1 393 0
 1388 000a 144B     		ldr	r3, .L59
 1389 000c DB6A     		ldr	r3, [r3, #44]
 1390 000e 002B     		cmp	r3, #0
 1391 0010 15DD     		ble	.L56
 394:Amperometric.c ****   {
 395:Amperometric.c ****     AppAMPCfg.FifoDataCount += *pDataCount/4;
 1392              		.loc 1 395 0
 1393 0012 124B     		ldr	r3, .L59
 1394 0014 9C22     		movs	r2, #156
 1395 0016 9A58     		ldr	r2, [r3, r2]
 1396 0018 3B68     		ldr	r3, [r7]
ARM GAS  C:\Users\13740\AppData\Local\Temp\ccZrwIb5.s 			page 33


 1397 001a 1B68     		ldr	r3, [r3]
 1398 001c 9B08     		lsrs	r3, r3, #2
 1399 001e D218     		adds	r2, r2, r3
 1400 0020 0E4B     		ldr	r3, .L59
 1401 0022 9C21     		movs	r1, #156
 1402 0024 5A50     		str	r2, [r3, r1]
 396:Amperometric.c ****     if(AppAMPCfg.FifoDataCount >= AppAMPCfg.NumOfData)
 1403              		.loc 1 396 0
 1404 0026 0D4B     		ldr	r3, .L59
 1405 0028 9C22     		movs	r2, #156
 1406 002a 9A58     		ldr	r2, [r3, r2]
 1407 002c 0B4B     		ldr	r3, .L59
 1408 002e DB6A     		ldr	r3, [r3, #44]
 1409 0030 9A42     		cmp	r2, r3
 1410 0032 04D3     		bcc	.L56
 397:Amperometric.c ****     {
 398:Amperometric.c ****       AD5940_WUPTCtrl(bFALSE);
 1411              		.loc 1 398 0
 1412 0034 0020     		movs	r0, #0
 1413 0036 FFF7FEFF 		bl	AD5940_WUPTCtrl
 399:Amperometric.c ****       return AD5940ERR_OK;
 1414              		.loc 1 399 0
 1415 003a 0023     		movs	r3, #0
 1416 003c 0AE0     		b	.L57
 1417              	.L56:
 400:Amperometric.c ****     }
 401:Amperometric.c ****   }
 402:Amperometric.c ****   if(AppAMPCfg.StopRequired == bTRUE)
 1418              		.loc 1 402 0
 1419 003e 074B     		ldr	r3, .L59
 1420 0040 9822     		movs	r2, #152
 1421 0042 9B5C     		ldrb	r3, [r3, r2]
 1422 0044 012B     		cmp	r3, #1
 1423 0046 04D1     		bne	.L58
 403:Amperometric.c ****   {
 404:Amperometric.c ****     AD5940_WUPTCtrl(bFALSE);
 1424              		.loc 1 404 0
 1425 0048 0020     		movs	r0, #0
 1426 004a FFF7FEFF 		bl	AD5940_WUPTCtrl
 405:Amperometric.c ****     return AD5940ERR_OK;
 1427              		.loc 1 405 0
 1428 004e 0023     		movs	r3, #0
 1429 0050 00E0     		b	.L57
 1430              	.L58:
 406:Amperometric.c ****   }
 407:Amperometric.c ****   
 408:Amperometric.c ****   return AD5940ERR_OK;
 1431              		.loc 1 408 0
 1432 0052 0023     		movs	r3, #0
 1433              	.L57:
 409:Amperometric.c **** }
 1434              		.loc 1 409 0
 1435 0054 1800     		movs	r0, r3
 1436 0056 BD46     		mov	sp, r7
 1437 0058 02B0     		add	sp, sp, #8
 1438              		@ sp needed
 1439 005a 80BD     		pop	{r7, pc}
ARM GAS  C:\Users\13740\AppData\Local\Temp\ccZrwIb5.s 			page 34


 1440              	.L60:
 1441              		.align	2
 1442              	.L59:
 1443 005c 00000000 		.word	AppAMPCfg
 1444              		.cfi_endproc
 1445              	.LFE7:
 1446              		.size	AppAMPRegModify, .-AppAMPRegModify
 1447              		.section	.text.AppAMPDataProcess,"ax",%progbits
 1448              		.align	2
 1449              		.code	16
 1450              		.thumb_func
 1451              		.type	AppAMPDataProcess, %function
 1452              	AppAMPDataProcess:
 1453              	.LFB8:
 410:Amperometric.c **** 
 411:Amperometric.c **** /* Depending on the data type, do appropriate data pre-process before return back to controller */
 412:Amperometric.c **** static AD5940Err AppAMPDataProcess(int32_t * const pData, uint32_t *pDataCount)
 413:Amperometric.c **** {
 1454              		.loc 1 413 0
 1455              		.cfi_startproc
 1456              		@ args = 0, pretend = 0, frame = 24
 1457              		@ frame_needed = 1, uses_anonymous_args = 0
 1458 0000 90B5     		push	{r4, r7, lr}
 1459              		.cfi_def_cfa_offset 12
 1460              		.cfi_offset 4, -12
 1461              		.cfi_offset 7, -8
 1462              		.cfi_offset 14, -4
 1463 0002 87B0     		sub	sp, sp, #28
 1464              		.cfi_def_cfa_offset 40
 1465 0004 00AF     		add	r7, sp, #0
 1466              		.cfi_def_cfa_register 7
 1467 0006 7860     		str	r0, [r7, #4]
 1468 0008 3960     		str	r1, [r7]
 414:Amperometric.c ****   uint32_t i, datacount;
 415:Amperometric.c ****   datacount = *pDataCount;
 1469              		.loc 1 415 0
 1470 000a 3B68     		ldr	r3, [r7]
 1471 000c 1B68     		ldr	r3, [r3]
 1472 000e 3B61     		str	r3, [r7, #16]
 416:Amperometric.c ****   float *pOut = (float *)pData;
 1473              		.loc 1 416 0
 1474 0010 7B68     		ldr	r3, [r7, #4]
 1475 0012 FB60     		str	r3, [r7, #12]
 417:Amperometric.c ****   for(i=0;i<datacount;i++)
 1476              		.loc 1 417 0
 1477 0014 0023     		movs	r3, #0
 1478 0016 7B61     		str	r3, [r7, #20]
 1479 0018 1CE0     		b	.L62
 1480              	.L63:
 418:Amperometric.c ****   {
 419:Amperometric.c ****     pData[i] &= 0xffff;
 1481              		.loc 1 419 0 discriminator 3
 1482 001a 7B69     		ldr	r3, [r7, #20]
 1483 001c 9B00     		lsls	r3, r3, #2
 1484 001e 7A68     		ldr	r2, [r7, #4]
 1485 0020 D318     		adds	r3, r2, r3
 1486 0022 7A69     		ldr	r2, [r7, #20]
ARM GAS  C:\Users\13740\AppData\Local\Temp\ccZrwIb5.s 			page 35


 1487 0024 9200     		lsls	r2, r2, #2
 1488 0026 7968     		ldr	r1, [r7, #4]
 1489 0028 8A18     		adds	r2, r1, r2
 1490 002a 1268     		ldr	r2, [r2]
 1491 002c 1204     		lsls	r2, r2, #16
 1492 002e 120C     		lsrs	r2, r2, #16
 1493 0030 1A60     		str	r2, [r3]
 420:Amperometric.c ****     pOut[i] = AppAMPCalcCurrent(pData[i]);
 1494              		.loc 1 420 0 discriminator 3
 1495 0032 7B69     		ldr	r3, [r7, #20]
 1496 0034 9B00     		lsls	r3, r3, #2
 1497 0036 FA68     		ldr	r2, [r7, #12]
 1498 0038 D418     		adds	r4, r2, r3
 1499 003a 7B69     		ldr	r3, [r7, #20]
 1500 003c 9B00     		lsls	r3, r3, #2
 1501 003e 7A68     		ldr	r2, [r7, #4]
 1502 0040 D318     		adds	r3, r2, r3
 1503 0042 1B68     		ldr	r3, [r3]
 1504 0044 1800     		movs	r0, r3
 1505 0046 FFF7FEFF 		bl	AppAMPCalcCurrent
 1506 004a 031C     		adds	r3, r0, #0
 1507 004c 2360     		str	r3, [r4]
 417:Amperometric.c ****   for(i=0;i<datacount;i++)
 1508              		.loc 1 417 0 discriminator 3
 1509 004e 7B69     		ldr	r3, [r7, #20]
 1510 0050 0133     		adds	r3, r3, #1
 1511 0052 7B61     		str	r3, [r7, #20]
 1512              	.L62:
 417:Amperometric.c ****   for(i=0;i<datacount;i++)
 1513              		.loc 1 417 0 is_stmt 0 discriminator 1
 1514 0054 7A69     		ldr	r2, [r7, #20]
 1515 0056 3B69     		ldr	r3, [r7, #16]
 1516 0058 9A42     		cmp	r2, r3
 1517 005a DED3     		bcc	.L63
 421:Amperometric.c ****   }
 422:Amperometric.c ****   return AD5940ERR_OK;
 1518              		.loc 1 422 0 is_stmt 1
 1519 005c 0023     		movs	r3, #0
 423:Amperometric.c **** }
 1520              		.loc 1 423 0
 1521 005e 1800     		movs	r0, r3
 1522 0060 BD46     		mov	sp, r7
 1523 0062 07B0     		add	sp, sp, #28
 1524              		@ sp needed
 1525 0064 90BD     		pop	{r4, r7, pc}
 1526              		.cfi_endproc
 1527              	.LFE8:
 1528              		.size	AppAMPDataProcess, .-AppAMPDataProcess
 1529 0066 C046     		.section	.text.AppAMPISR,"ax",%progbits
 1530              		.align	2
 1531              		.global	AppAMPISR
 1532              		.code	16
 1533              		.thumb_func
 1534              		.type	AppAMPISR, %function
 1535              	AppAMPISR:
 1536              	.LFB9:
 424:Amperometric.c **** 
ARM GAS  C:\Users\13740\AppData\Local\Temp\ccZrwIb5.s 			page 36


 425:Amperometric.c **** /**
 426:Amperometric.c **** 
 427:Amperometric.c **** */
 428:Amperometric.c **** AD5940Err AppAMPISR(void *pBuff, uint32_t *pCount)
 429:Amperometric.c **** {
 1537              		.loc 1 429 0
 1538              		.cfi_startproc
 1539              		@ args = 0, pretend = 0, frame = 16
 1540              		@ frame_needed = 1, uses_anonymous_args = 0
 1541 0000 80B5     		push	{r7, lr}
 1542              		.cfi_def_cfa_offset 8
 1543              		.cfi_offset 7, -8
 1544              		.cfi_offset 14, -4
 1545 0002 84B0     		sub	sp, sp, #16
 1546              		.cfi_def_cfa_offset 24
 1547 0004 00AF     		add	r7, sp, #0
 1548              		.cfi_def_cfa_register 7
 1549 0006 7860     		str	r0, [r7, #4]
 1550 0008 3960     		str	r1, [r7]
 430:Amperometric.c ****   uint32_t FifoCnt;
 431:Amperometric.c ****   if(AD5940_WakeUp(10) > 10)  /* Wakeup AFE by read register, read 10 times at most */
 1551              		.loc 1 431 0
 1552 000a 0A20     		movs	r0, #10
 1553 000c FFF7FEFF 		bl	AD5940_WakeUp
 1554 0010 0300     		movs	r3, r0
 1555 0012 0A2B     		cmp	r3, #10
 1556 0014 02D9     		bls	.L66
 432:Amperometric.c ****     return AD5940ERR_WAKEUP;  /* Wakeup Failed */
 1557              		.loc 1 432 0
 1558 0016 0923     		movs	r3, #9
 1559 0018 5B42     		rsbs	r3, r3, #0
 1560 001a 35E0     		b	.L69
 1561              	.L66:
 433:Amperometric.c ****   AD5940_SleepKeyCtrlS(SLPKEY_LOCK);
 1562              		.loc 1 433 0
 1563 001c 0020     		movs	r0, #0
 1564 001e FFF7FEFF 		bl	AD5940_SleepKeyCtrlS
 434:Amperometric.c **** 	
 435:Amperometric.c ****   *pCount = 0;  
 1565              		.loc 1 435 0
 1566 0022 3B68     		ldr	r3, [r7]
 1567 0024 0022     		movs	r2, #0
 1568 0026 1A60     		str	r2, [r3]
 436:Amperometric.c ****   if(AD5940_INTCTestFlag(AFEINTC_0, AFEINTSRC_DATAFIFOTHRESH) == bTRUE)
 1569              		.loc 1 436 0
 1570 0028 8023     		movs	r3, #128
 1571 002a 9B04     		lsls	r3, r3, #18
 1572 002c 1900     		movs	r1, r3
 1573 002e 0020     		movs	r0, #0
 1574 0030 FFF7FEFF 		bl	AD5940_INTCTestFlag
 1575 0034 0300     		movs	r3, r0
 1576 0036 012B     		cmp	r3, #1
 1577 0038 25D1     		bne	.L68
 437:Amperometric.c ****   {
 438:Amperometric.c ****     FifoCnt = AD5940_FIFOGetCnt();
 1578              		.loc 1 438 0
 1579 003a FFF7FEFF 		bl	AD5940_FIFOGetCnt
ARM GAS  C:\Users\13740\AppData\Local\Temp\ccZrwIb5.s 			page 37


 1580 003e 0300     		movs	r3, r0
 1581 0040 FB60     		str	r3, [r7, #12]
 439:Amperometric.c ****     AD5940_FIFORd((uint32_t *)pBuff, FifoCnt);
 1582              		.loc 1 439 0
 1583 0042 FA68     		ldr	r2, [r7, #12]
 1584 0044 7B68     		ldr	r3, [r7, #4]
 1585 0046 1100     		movs	r1, r2
 1586 0048 1800     		movs	r0, r3
 1587 004a FFF7FEFF 		bl	AD5940_FIFORd
 440:Amperometric.c ****     AD5940_INTCClrFlag(AFEINTSRC_DATAFIFOTHRESH);
 1588              		.loc 1 440 0
 1589 004e 8023     		movs	r3, #128
 1590 0050 9B04     		lsls	r3, r3, #18
 1591 0052 1800     		movs	r0, r3
 1592 0054 FFF7FEFF 		bl	AD5940_INTCClrFlag
 441:Amperometric.c ****     AppAMPRegModify(pBuff, &FifoCnt);   /* If there is need to do AFE re-configure, do it here when
 1593              		.loc 1 441 0
 1594 0058 0C23     		movs	r3, #12
 1595 005a FA18     		adds	r2, r7, r3
 1596 005c 7B68     		ldr	r3, [r7, #4]
 1597 005e 1100     		movs	r1, r2
 1598 0060 1800     		movs	r0, r3
 1599 0062 FFF7FEFF 		bl	AppAMPRegModify
 442:Amperometric.c **** 		AD5940_SleepKeyCtrlS(SLPKEY_UNLOCK); 
 1600              		.loc 1 442 0
 1601 0066 0A4B     		ldr	r3, .L70
 1602 0068 1800     		movs	r0, r3
 1603 006a FFF7FEFF 		bl	AD5940_SleepKeyCtrlS
 443:Amperometric.c ****     //AD5940_EnterSleepS();  /* Manually put AFE back to hibernate mode. This operation only takes 
 444:Amperometric.c **** 
 445:Amperometric.c ****     /* Process data */ 
 446:Amperometric.c ****     AppAMPDataProcess((int32_t*)pBuff,&FifoCnt); 
 1604              		.loc 1 446 0
 1605 006e 0C23     		movs	r3, #12
 1606 0070 FA18     		adds	r2, r7, r3
 1607 0072 7B68     		ldr	r3, [r7, #4]
 1608 0074 1100     		movs	r1, r2
 1609 0076 1800     		movs	r0, r3
 1610 0078 FFF7FEFF 		bl	AppAMPDataProcess
 447:Amperometric.c ****     *pCount = FifoCnt;
 1611              		.loc 1 447 0
 1612 007c FA68     		ldr	r2, [r7, #12]
 1613 007e 3B68     		ldr	r3, [r7]
 1614 0080 1A60     		str	r2, [r3]
 448:Amperometric.c ****     return 0;
 1615              		.loc 1 448 0
 1616 0082 0023     		movs	r3, #0
 1617 0084 00E0     		b	.L69
 1618              	.L68:
 449:Amperometric.c ****   }
 450:Amperometric.c ****   
 451:Amperometric.c ****   return 0;
 1619              		.loc 1 451 0
 1620 0086 0023     		movs	r3, #0
 1621              	.L69:
 452:Amperometric.c **** } 
 1622              		.loc 1 452 0 discriminator 1
ARM GAS  C:\Users\13740\AppData\Local\Temp\ccZrwIb5.s 			page 38


 1623 0088 1800     		movs	r0, r3
 1624 008a BD46     		mov	sp, r7
 1625 008c 04B0     		add	sp, sp, #16
 1626              		@ sp needed
 1627 008e 80BD     		pop	{r7, pc}
 1628              	.L71:
 1629              		.align	2
 1630              	.L70:
 1631 0090 E5470A00 		.word	673765
 1632              		.cfi_endproc
 1633              	.LFE9:
 1634              		.size	AppAMPISR, .-AppAMPISR
 1635              		.global	__aeabi_i2f
 1636              		.section	.text.AppAMPCalcVoltage,"ax",%progbits
 1637              		.align	2
 1638              		.global	AppAMPCalcVoltage
 1639              		.code	16
 1640              		.thumb_func
 1641              		.type	AppAMPCalcVoltage, %function
 1642              	AppAMPCalcVoltage:
 1643              	.LFB10:
 453:Amperometric.c **** 
 454:Amperometric.c **** /* Calculate voltage */
 455:Amperometric.c **** float AppAMPCalcVoltage(uint32_t ADCcode)
 456:Amperometric.c **** {
 1644              		.loc 1 456 0
 1645              		.cfi_startproc
 1646              		@ args = 0, pretend = 0, frame = 24
 1647              		@ frame_needed = 1, uses_anonymous_args = 0
 1648 0000 90B5     		push	{r4, r7, lr}
 1649              		.cfi_def_cfa_offset 12
 1650              		.cfi_offset 4, -12
 1651              		.cfi_offset 7, -8
 1652              		.cfi_offset 14, -4
 1653 0002 87B0     		sub	sp, sp, #28
 1654              		.cfi_def_cfa_offset 40
 1655 0004 00AF     		add	r7, sp, #0
 1656              		.cfi_def_cfa_register 7
 1657 0006 7860     		str	r0, [r7, #4]
 457:Amperometric.c ****   float kFactor = 1.835/1.82;
 1658              		.loc 1 457 0
 1659 0008 564B     		ldr	r3, .L81
 1660 000a 3B61     		str	r3, [r7, #16]
 458:Amperometric.c ****   float fVolt = 0.0;
 1661              		.loc 1 458 0
 1662 000c 0023     		movs	r3, #0
 1663 000e 7B61     		str	r3, [r7, #20]
 459:Amperometric.c ****   int32_t tmp = 0;
 1664              		.loc 1 459 0
 1665 0010 0023     		movs	r3, #0
 1666 0012 FB60     		str	r3, [r7, #12]
 460:Amperometric.c ****   tmp = ADCcode - 32768;
 1667              		.loc 1 460 0
 1668 0014 7B68     		ldr	r3, [r7, #4]
 1669 0016 544A     		ldr	r2, .L81+4
 1670 0018 9446     		mov	ip, r2
 1671 001a 6344     		add	r3, r3, ip
ARM GAS  C:\Users\13740\AppData\Local\Temp\ccZrwIb5.s 			page 39


 1672 001c FB60     		str	r3, [r7, #12]
 461:Amperometric.c ****   switch(AppAMPCfg.ADCPgaGain)
 1673              		.loc 1 461 0
 1674 001e 534B     		ldr	r3, .L81+8
 1675 0020 DB6B     		ldr	r3, [r3, #60]
 1676 0022 042B     		cmp	r3, #4
 1677 0024 00D9     		bls	.LCB1388
 1678 0026 98E0     		b	.L73	@long jump
 1679              	.LCB1388:
 1680 0028 9A00     		lsls	r2, r3, #2
 1681 002a 514B     		ldr	r3, .L81+12
 1682 002c D318     		adds	r3, r2, r3
 1683 002e 1B68     		ldr	r3, [r3]
 1684 0030 9F46     		mov	pc, r3
 1685              		.section	.rodata
 1686              		.align	2
 1687              	.L75:
 1688 0000 32000000 		.word	.L74
 1689 0004 64000000 		.word	.L76
 1690 0008 A2000000 		.word	.L77
 1691 000c E0000000 		.word	.L78
 1692 0010 1E010000 		.word	.L79
 1693              		.section	.text.AppAMPCalcVoltage
 1694              	.L74:
 462:Amperometric.c ****   {
 463:Amperometric.c ****     case ADCPGA_1:
 464:Amperometric.c ****       fVolt = ((float)(tmp)/32768)*(AppAMPCfg.ADCRefVolt/1)*kFactor;
 1695              		.loc 1 464 0
 1696 0032 F868     		ldr	r0, [r7, #12]
 1697 0034 FFF7FEFF 		bl	__aeabi_i2f
 1698 0038 031C     		adds	r3, r0, #0
 1699 003a 8E21     		movs	r1, #142
 1700 003c C905     		lsls	r1, r1, #23
 1701 003e 181C     		adds	r0, r3, #0
 1702 0040 FFF7FEFF 		bl	__aeabi_fdiv
 1703 0044 031C     		adds	r3, r0, #0
 1704 0046 1A1C     		adds	r2, r3, #0
 1705 0048 484B     		ldr	r3, .L81+8
 1706 004a 5B6B     		ldr	r3, [r3, #52]
 1707 004c 191C     		adds	r1, r3, #0
 1708 004e 101C     		adds	r0, r2, #0
 1709 0050 FFF7FEFF 		bl	__aeabi_fmul
 1710 0054 031C     		adds	r3, r0, #0
 1711 0056 3969     		ldr	r1, [r7, #16]
 1712 0058 181C     		adds	r0, r3, #0
 1713 005a FFF7FEFF 		bl	__aeabi_fmul
 1714 005e 031C     		adds	r3, r0, #0
 1715 0060 7B61     		str	r3, [r7, #20]
 465:Amperometric.c ****       break;
 1716              		.loc 1 465 0
 1717 0062 7AE0     		b	.L73
 1718              	.L76:
 466:Amperometric.c ****     case ADCPGA_1P5:
 467:Amperometric.c ****       fVolt = ((float)(tmp)/32768)*(AppAMPCfg.ADCRefVolt/1.5f)*kFactor;
 1719              		.loc 1 467 0
 1720 0064 F868     		ldr	r0, [r7, #12]
 1721 0066 FFF7FEFF 		bl	__aeabi_i2f
ARM GAS  C:\Users\13740\AppData\Local\Temp\ccZrwIb5.s 			page 40


 1722 006a 031C     		adds	r3, r0, #0
 1723 006c 8E21     		movs	r1, #142
 1724 006e C905     		lsls	r1, r1, #23
 1725 0070 181C     		adds	r0, r3, #0
 1726 0072 FFF7FEFF 		bl	__aeabi_fdiv
 1727 0076 031C     		adds	r3, r0, #0
 1728 0078 1C1C     		adds	r4, r3, #0
 1729 007a 3C4B     		ldr	r3, .L81+8
 1730 007c 5B6B     		ldr	r3, [r3, #52]
 1731 007e FF21     		movs	r1, #255
 1732 0080 8905     		lsls	r1, r1, #22
 1733 0082 181C     		adds	r0, r3, #0
 1734 0084 FFF7FEFF 		bl	__aeabi_fdiv
 1735 0088 031C     		adds	r3, r0, #0
 1736 008a 191C     		adds	r1, r3, #0
 1737 008c 201C     		adds	r0, r4, #0
 1738 008e FFF7FEFF 		bl	__aeabi_fmul
 1739 0092 031C     		adds	r3, r0, #0
 1740 0094 3969     		ldr	r1, [r7, #16]
 1741 0096 181C     		adds	r0, r3, #0
 1742 0098 FFF7FEFF 		bl	__aeabi_fmul
 1743 009c 031C     		adds	r3, r0, #0
 1744 009e 7B61     		str	r3, [r7, #20]
 468:Amperometric.c ****       break;
 1745              		.loc 1 468 0
 1746 00a0 5BE0     		b	.L73
 1747              	.L77:
 469:Amperometric.c ****     case ADCPGA_2:
 470:Amperometric.c ****       fVolt = ((float)(tmp)/32768)*(AppAMPCfg.ADCRefVolt/2)*kFactor;
 1748              		.loc 1 470 0
 1749 00a2 F868     		ldr	r0, [r7, #12]
 1750 00a4 FFF7FEFF 		bl	__aeabi_i2f
 1751 00a8 031C     		adds	r3, r0, #0
 1752 00aa 8E21     		movs	r1, #142
 1753 00ac C905     		lsls	r1, r1, #23
 1754 00ae 181C     		adds	r0, r3, #0
 1755 00b0 FFF7FEFF 		bl	__aeabi_fdiv
 1756 00b4 031C     		adds	r3, r0, #0
 1757 00b6 1C1C     		adds	r4, r3, #0
 1758 00b8 2C4B     		ldr	r3, .L81+8
 1759 00ba 5B6B     		ldr	r3, [r3, #52]
 1760 00bc 8021     		movs	r1, #128
 1761 00be C905     		lsls	r1, r1, #23
 1762 00c0 181C     		adds	r0, r3, #0
 1763 00c2 FFF7FEFF 		bl	__aeabi_fdiv
 1764 00c6 031C     		adds	r3, r0, #0
 1765 00c8 191C     		adds	r1, r3, #0
 1766 00ca 201C     		adds	r0, r4, #0
 1767 00cc FFF7FEFF 		bl	__aeabi_fmul
 1768 00d0 031C     		adds	r3, r0, #0
 1769 00d2 3969     		ldr	r1, [r7, #16]
 1770 00d4 181C     		adds	r0, r3, #0
 1771 00d6 FFF7FEFF 		bl	__aeabi_fmul
 1772 00da 031C     		adds	r3, r0, #0
 1773 00dc 7B61     		str	r3, [r7, #20]
 471:Amperometric.c ****       break;
 1774              		.loc 1 471 0
ARM GAS  C:\Users\13740\AppData\Local\Temp\ccZrwIb5.s 			page 41


 1775 00de 3CE0     		b	.L73
 1776              	.L78:
 472:Amperometric.c ****     case ADCPGA_4:
 473:Amperometric.c ****       fVolt = ((float)(tmp)/32768)*(AppAMPCfg.ADCRefVolt/4)*kFactor;
 1777              		.loc 1 473 0
 1778 00e0 F868     		ldr	r0, [r7, #12]
 1779 00e2 FFF7FEFF 		bl	__aeabi_i2f
 1780 00e6 031C     		adds	r3, r0, #0
 1781 00e8 8E21     		movs	r1, #142
 1782 00ea C905     		lsls	r1, r1, #23
 1783 00ec 181C     		adds	r0, r3, #0
 1784 00ee FFF7FEFF 		bl	__aeabi_fdiv
 1785 00f2 031C     		adds	r3, r0, #0
 1786 00f4 1C1C     		adds	r4, r3, #0
 1787 00f6 1D4B     		ldr	r3, .L81+8
 1788 00f8 5B6B     		ldr	r3, [r3, #52]
 1789 00fa 8121     		movs	r1, #129
 1790 00fc C905     		lsls	r1, r1, #23
 1791 00fe 181C     		adds	r0, r3, #0
 1792 0100 FFF7FEFF 		bl	__aeabi_fdiv
 1793 0104 031C     		adds	r3, r0, #0
 1794 0106 191C     		adds	r1, r3, #0
 1795 0108 201C     		adds	r0, r4, #0
 1796 010a FFF7FEFF 		bl	__aeabi_fmul
 1797 010e 031C     		adds	r3, r0, #0
 1798 0110 3969     		ldr	r1, [r7, #16]
 1799 0112 181C     		adds	r0, r3, #0
 1800 0114 FFF7FEFF 		bl	__aeabi_fmul
 1801 0118 031C     		adds	r3, r0, #0
 1802 011a 7B61     		str	r3, [r7, #20]
 474:Amperometric.c ****       break;
 1803              		.loc 1 474 0
 1804 011c 1DE0     		b	.L73
 1805              	.L79:
 475:Amperometric.c ****     case ADCPGA_9:
 476:Amperometric.c ****       fVolt = ((float)(tmp)/32768)*(AppAMPCfg.ADCRefVolt/9)*kFactor;
 1806              		.loc 1 476 0
 1807 011e F868     		ldr	r0, [r7, #12]
 1808 0120 FFF7FEFF 		bl	__aeabi_i2f
 1809 0124 031C     		adds	r3, r0, #0
 1810 0126 8E21     		movs	r1, #142
 1811 0128 C905     		lsls	r1, r1, #23
 1812 012a 181C     		adds	r0, r3, #0
 1813 012c FFF7FEFF 		bl	__aeabi_fdiv
 1814 0130 031C     		adds	r3, r0, #0
 1815 0132 1C1C     		adds	r4, r3, #0
 1816 0134 0D4B     		ldr	r3, .L81+8
 1817 0136 5B6B     		ldr	r3, [r3, #52]
 1818 0138 0E49     		ldr	r1, .L81+16
 1819 013a 181C     		adds	r0, r3, #0
 1820 013c FFF7FEFF 		bl	__aeabi_fdiv
 1821 0140 031C     		adds	r3, r0, #0
 1822 0142 191C     		adds	r1, r3, #0
 1823 0144 201C     		adds	r0, r4, #0
 1824 0146 FFF7FEFF 		bl	__aeabi_fmul
 1825 014a 031C     		adds	r3, r0, #0
 1826 014c 3969     		ldr	r1, [r7, #16]
ARM GAS  C:\Users\13740\AppData\Local\Temp\ccZrwIb5.s 			page 42


 1827 014e 181C     		adds	r0, r3, #0
 1828 0150 FFF7FEFF 		bl	__aeabi_fmul
 1829 0154 031C     		adds	r3, r0, #0
 1830 0156 7B61     		str	r3, [r7, #20]
 477:Amperometric.c ****       break;
 1831              		.loc 1 477 0
 1832 0158 C046     		nop
 1833              	.L73:
 478:Amperometric.c ****   } 
 479:Amperometric.c ****   return fVolt;
 1834              		.loc 1 479 0
 1835 015a 7B69     		ldr	r3, [r7, #20]
 480:Amperometric.c **** }
 1836              		.loc 1 480 0
 1837 015c 181C     		adds	r0, r3, #0
 1838 015e BD46     		mov	sp, r7
 1839 0160 07B0     		add	sp, sp, #28
 1840              		@ sp needed
 1841 0162 90BD     		pop	{r4, r7, pc}
 1842              	.L82:
 1843              		.align	2
 1844              	.L81:
 1845 0164 110E813F 		.word	1065422353
 1846 0168 0080FFFF 		.word	-32768
 1847 016c 00000000 		.word	AppAMPCfg
 1848 0170 00000000 		.word	.L75
 1849 0174 00001041 		.word	1091567616
 1850              		.cfi_endproc
 1851              	.LFE10:
 1852              		.size	AppAMPCalcVoltage, .-AppAMPCalcVoltage
 1853              		.global	__aeabi_ui2f
 1854              		.section	.text.AppAMPCalcCurrent,"ax",%progbits
 1855              		.align	2
 1856              		.global	AppAMPCalcCurrent
 1857              		.code	16
 1858              		.thumb_func
 1859              		.type	AppAMPCalcCurrent, %function
 1860              	AppAMPCalcCurrent:
 1861              	.LFB11:
 481:Amperometric.c **** /* Calculate current in uA */
 482:Amperometric.c **** float AppAMPCalcCurrent(uint32_t ADCcode)
 483:Amperometric.c **** {
 1862              		.loc 1 483 0
 1863              		.cfi_startproc
 1864              		@ args = 0, pretend = 0, frame = 8
 1865              		@ frame_needed = 1, uses_anonymous_args = 0
 1866 0000 80B5     		push	{r7, lr}
 1867              		.cfi_def_cfa_offset 8
 1868              		.cfi_offset 7, -8
 1869              		.cfi_offset 14, -4
 1870 0002 82B0     		sub	sp, sp, #8
 1871              		.cfi_def_cfa_offset 16
 1872 0004 00AF     		add	r7, sp, #0
 1873              		.cfi_def_cfa_register 7
 1874 0006 7860     		str	r0, [r7, #4]
 484:Amperometric.c ****    /*
 485:Amperometric.c **** float fCurrent, fVoltage = 0.0;
ARM GAS  C:\Users\13740\AppData\Local\Temp\ccZrwIb5.s 			page 43


 486:Amperometric.c ****   fVoltage = AppAMPCalcVoltage(ADCcode);
 487:Amperometric.c **** 
 488:Amperometric.c ****   //  10K 
 489:Amperometric.c ****   float magnitude = AppAMPCfg.RtiaCalValue.Magnitude;
 490:Amperometric.c ****   if(magnitude < 1.0) magnitude = 10000.0; //  10kOhm 
 491:Amperometric.c **** 
 492:Amperometric.c ****   fCurrent = fVoltage / magnitude;
 493:Amperometric.c ****   return -fCurrent*1000000;
 494:Amperometric.c ****     */
 495:Amperometric.c ****     return (float)ADCcode;
 1875              		.loc 1 495 0
 1876 0008 7868     		ldr	r0, [r7, #4]
 1877 000a FFF7FEFF 		bl	__aeabi_ui2f
 1878 000e 031C     		adds	r3, r0, #0
 496:Amperometric.c **** }
 1879              		.loc 1 496 0
 1880 0010 181C     		adds	r0, r3, #0
 1881 0012 BD46     		mov	sp, r7
 1882 0014 02B0     		add	sp, sp, #8
 1883              		@ sp needed
 1884 0016 80BD     		pop	{r7, pc}
 1885              		.cfi_endproc
 1886              	.LFE11:
 1887              		.size	AppAMPCalcCurrent, .-AppAMPCalcCurrent
 1888              		.text
 1889              	.Letext0:
 1890              		.file 2 "f:\\infineon\\psoc creator\\4.4\\psoc creator\\import\\gnu\\arm\\5.4.1\\arm-none-eabi\\in
 1891              		.file 3 "f:\\infineon\\psoc creator\\4.4\\psoc creator\\import\\gnu\\arm\\5.4.1\\arm-none-eabi\\in
 1892              		.file 4 "AD5940.H"
 1893              		.file 5 "Amperometric.h"
 1894              		.section	.debug_info,"",%progbits
 1895              	.Ldebug_info0:
 1896 0000 A90D0000 		.4byte	0xda9
 1897 0004 0400     		.2byte	0x4
 1898 0006 00000000 		.4byte	.Ldebug_abbrev0
 1899 000a 04       		.byte	0x4
 1900 000b 01       		.uleb128 0x1
 1901 000c AF000000 		.4byte	.LASF207
 1902 0010 0C       		.byte	0xc
 1903 0011 52090000 		.4byte	.LASF208
 1904 0015 85080000 		.4byte	.LASF209
 1905 0019 00000000 		.4byte	.Ldebug_ranges0+0
 1906 001d 00000000 		.4byte	0
 1907 0021 00000000 		.4byte	.Ldebug_line0
 1908 0025 02       		.uleb128 0x2
 1909 0026 04       		.byte	0x4
 1910 0027 05       		.byte	0x5
 1911 0028 696E7400 		.ascii	"int\000"
 1912 002c 03       		.uleb128 0x3
 1913 002d 04       		.byte	0x4
 1914 002e 07       		.byte	0x7
 1915 002f 66000000 		.4byte	.LASF0
 1916 0033 03       		.uleb128 0x3
 1917 0034 08       		.byte	0x8
 1918 0035 05       		.byte	0x5
 1919 0036 F1040000 		.4byte	.LASF1
 1920 003a 03       		.uleb128 0x3
ARM GAS  C:\Users\13740\AppData\Local\Temp\ccZrwIb5.s 			page 44


 1921 003b 08       		.byte	0x8
 1922 003c 04       		.byte	0x4
 1923 003d C2050000 		.4byte	.LASF2
 1924 0041 03       		.uleb128 0x3
 1925 0042 01       		.byte	0x1
 1926 0043 06       		.byte	0x6
 1927 0044 4C080000 		.4byte	.LASF3
 1928 0048 04       		.uleb128 0x4
 1929 0049 0D070000 		.4byte	.LASF6
 1930 004d 02       		.byte	0x2
 1931 004e 1D       		.byte	0x1d
 1932 004f 53000000 		.4byte	0x53
 1933 0053 03       		.uleb128 0x3
 1934 0054 01       		.byte	0x1
 1935 0055 08       		.byte	0x8
 1936 0056 CB070000 		.4byte	.LASF4
 1937 005a 03       		.uleb128 0x3
 1938 005b 02       		.byte	0x2
 1939 005c 05       		.byte	0x5
 1940 005d 55060000 		.4byte	.LASF5
 1941 0061 04       		.uleb128 0x4
 1942 0062 DF020000 		.4byte	.LASF7
 1943 0066 02       		.byte	0x2
 1944 0067 2B       		.byte	0x2b
 1945 0068 6C000000 		.4byte	0x6c
 1946 006c 03       		.uleb128 0x3
 1947 006d 02       		.byte	0x2
 1948 006e 07       		.byte	0x7
 1949 006f 72080000 		.4byte	.LASF8
 1950 0073 04       		.uleb128 0x4
 1951 0074 A5000000 		.4byte	.LASF9
 1952 0078 02       		.byte	0x2
 1953 0079 3F       		.byte	0x3f
 1954 007a 7E000000 		.4byte	0x7e
 1955 007e 03       		.uleb128 0x3
 1956 007f 04       		.byte	0x4
 1957 0080 05       		.byte	0x5
 1958 0081 8E060000 		.4byte	.LASF10
 1959 0085 04       		.uleb128 0x4
 1960 0086 D9070000 		.4byte	.LASF11
 1961 008a 02       		.byte	0x2
 1962 008b 41       		.byte	0x41
 1963 008c 90000000 		.4byte	0x90
 1964 0090 03       		.uleb128 0x3
 1965 0091 04       		.byte	0x4
 1966 0092 07       		.byte	0x7
 1967 0093 6C070000 		.4byte	.LASF12
 1968 0097 03       		.uleb128 0x3
 1969 0098 08       		.byte	0x8
 1970 0099 07       		.byte	0x7
 1971 009a AC020000 		.4byte	.LASF13
 1972 009e 03       		.uleb128 0x3
 1973 009f 04       		.byte	0x4
 1974 00a0 07       		.byte	0x7
 1975 00a1 5C070000 		.4byte	.LASF14
 1976 00a5 05       		.uleb128 0x5
 1977 00a6 04       		.byte	0x4
ARM GAS  C:\Users\13740\AppData\Local\Temp\ccZrwIb5.s 			page 45


 1978 00a7 03       		.uleb128 0x3
 1979 00a8 01       		.byte	0x1
 1980 00a9 08       		.byte	0x8
 1981 00aa 2E040000 		.4byte	.LASF15
 1982 00ae 03       		.uleb128 0x3
 1983 00af 08       		.byte	0x8
 1984 00b0 04       		.byte	0x4
 1985 00b1 EE080000 		.4byte	.LASF16
 1986 00b5 03       		.uleb128 0x3
 1987 00b6 04       		.byte	0x4
 1988 00b7 04       		.byte	0x4
 1989 00b8 6E020000 		.4byte	.LASF17
 1990 00bc 04       		.uleb128 0x4
 1991 00bd A0040000 		.4byte	.LASF18
 1992 00c1 03       		.byte	0x3
 1993 00c2 18       		.byte	0x18
 1994 00c3 48000000 		.4byte	0x48
 1995 00c7 04       		.uleb128 0x4
 1996 00c8 E0050000 		.4byte	.LASF19
 1997 00cc 03       		.byte	0x3
 1998 00cd 24       		.byte	0x24
 1999 00ce 61000000 		.4byte	0x61
 2000 00d2 04       		.uleb128 0x4
 2001 00d3 8E070000 		.4byte	.LASF20
 2002 00d7 03       		.byte	0x3
 2003 00d8 2C       		.byte	0x2c
 2004 00d9 73000000 		.4byte	0x73
 2005 00dd 04       		.uleb128 0x4
 2006 00de 39020000 		.4byte	.LASF21
 2007 00e2 03       		.byte	0x3
 2008 00e3 30       		.byte	0x30
 2009 00e4 85000000 		.4byte	0x85
 2010 00e8 06       		.uleb128 0x6
 2011 00e9 2D090000 		.4byte	.LASF22
 2012 00ed 04       		.byte	0x4
 2013 00ee 7110     		.2byte	0x1071
 2014 00f0 D2000000 		.4byte	0xd2
 2015 00f4 07       		.uleb128 0x7
 2016 00f5 01       		.byte	0x1
 2017 00f6 53000000 		.4byte	0x53
 2018 00fa 04       		.byte	0x4
 2019 00fb 7710     		.2byte	0x1077
 2020 00fd 0E010000 		.4byte	0x10e
 2021 0101 08       		.uleb128 0x8
 2022 0102 43050000 		.4byte	.LASF23
 2023 0106 00       		.byte	0
 2024 0107 08       		.uleb128 0x8
 2025 0108 62040000 		.4byte	.LASF24
 2026 010c 01       		.byte	0x1
 2027 010d 00       		.byte	0
 2028 010e 06       		.uleb128 0x6
 2029 010f 94050000 		.4byte	.LASF25
 2030 0113 04       		.byte	0x4
 2031 0114 7910     		.2byte	0x1079
 2032 0116 F4000000 		.4byte	0xf4
 2033 011a 09       		.uleb128 0x9
 2034 011b 0D       		.byte	0xd
ARM GAS  C:\Users\13740\AppData\Local\Temp\ccZrwIb5.s 			page 46


 2035 011c 04       		.byte	0x4
 2036 011d 7B10     		.2byte	0x107b
 2037 011f CD010000 		.4byte	0x1cd
 2038 0123 0A       		.uleb128 0xa
 2039 0124 41000000 		.4byte	.LASF26
 2040 0128 04       		.byte	0x4
 2041 0129 7E10     		.2byte	0x107e
 2042 012b 0E010000 		.4byte	0x10e
 2043 012f 00       		.byte	0
 2044 0130 0A       		.uleb128 0xa
 2045 0131 94040000 		.4byte	.LASF27
 2046 0135 04       		.byte	0x4
 2047 0136 7F10     		.2byte	0x107f
 2048 0138 0E010000 		.4byte	0x10e
 2049 013c 01       		.byte	0x1
 2050 013d 0A       		.uleb128 0xa
 2051 013e 00060000 		.4byte	.LASF28
 2052 0142 04       		.byte	0x4
 2053 0143 8010     		.2byte	0x1080
 2054 0145 0E010000 		.4byte	0x10e
 2055 0149 02       		.byte	0x2
 2056 014a 0A       		.uleb128 0xa
 2057 014b B6070000 		.4byte	.LASF29
 2058 014f 04       		.byte	0x4
 2059 0150 8110     		.2byte	0x1081
 2060 0152 0E010000 		.4byte	0x10e
 2061 0156 03       		.byte	0x3
 2062 0157 0A       		.uleb128 0xa
 2063 0158 61090000 		.4byte	.LASF30
 2064 015c 04       		.byte	0x4
 2065 015d 8210     		.2byte	0x1082
 2066 015f 0E010000 		.4byte	0x10e
 2067 0163 04       		.byte	0x4
 2068 0164 0A       		.uleb128 0xa
 2069 0165 D9030000 		.4byte	.LASF31
 2070 0169 04       		.byte	0x4
 2071 016a 8410     		.2byte	0x1084
 2072 016c 0E010000 		.4byte	0x10e
 2073 0170 05       		.byte	0x5
 2074 0171 0A       		.uleb128 0xa
 2075 0172 FB070000 		.4byte	.LASF32
 2076 0176 04       		.byte	0x4
 2077 0177 8510     		.2byte	0x1085
 2078 0179 0E010000 		.4byte	0x10e
 2079 017d 06       		.byte	0x6
 2080 017e 0A       		.uleb128 0xa
 2081 017f FF010000 		.4byte	.LASF33
 2082 0183 04       		.byte	0x4
 2083 0184 8610     		.2byte	0x1086
 2084 0186 0E010000 		.4byte	0x10e
 2085 018a 07       		.byte	0x7
 2086 018b 0A       		.uleb128 0xa
 2087 018c DC040000 		.4byte	.LASF34
 2088 0190 04       		.byte	0x4
 2089 0191 8810     		.2byte	0x1088
 2090 0193 0E010000 		.4byte	0x10e
 2091 0197 08       		.byte	0x8
ARM GAS  C:\Users\13740\AppData\Local\Temp\ccZrwIb5.s 			page 47


 2092 0198 0A       		.uleb128 0xa
 2093 0199 80020000 		.4byte	.LASF35
 2094 019d 04       		.byte	0x4
 2095 019e 8A10     		.2byte	0x108a
 2096 01a0 0E010000 		.4byte	0x10e
 2097 01a4 09       		.byte	0x9
 2098 01a5 0A       		.uleb128 0xa
 2099 01a6 2A070000 		.4byte	.LASF36
 2100 01aa 04       		.byte	0x4
 2101 01ab 8B10     		.2byte	0x108b
 2102 01ad 0E010000 		.4byte	0x10e
 2103 01b1 0A       		.byte	0xa
 2104 01b2 0A       		.uleb128 0xa
 2105 01b3 9D050000 		.4byte	.LASF37
 2106 01b7 04       		.byte	0x4
 2107 01b8 8C10     		.2byte	0x108c
 2108 01ba 0E010000 		.4byte	0x10e
 2109 01be 0B       		.byte	0xb
 2110 01bf 0A       		.uleb128 0xa
 2111 01c0 38050000 		.4byte	.LASF38
 2112 01c4 04       		.byte	0x4
 2113 01c5 8D10     		.2byte	0x108d
 2114 01c7 0E010000 		.4byte	0x10e
 2115 01cb 0C       		.byte	0xc
 2116 01cc 00       		.byte	0
 2117 01cd 06       		.uleb128 0x6
 2118 01ce FD030000 		.4byte	.LASF39
 2119 01d2 04       		.byte	0x4
 2120 01d3 8E10     		.2byte	0x108e
 2121 01d5 1A010000 		.4byte	0x11a
 2122 01d9 09       		.uleb128 0x9
 2123 01da 0C       		.byte	0xc
 2124 01db 04       		.byte	0x4
 2125 01dc 9810     		.2byte	0x1098
 2126 01de 0A020000 		.4byte	0x20a
 2127 01e2 0A       		.uleb128 0xa
 2128 01e3 D1030000 		.4byte	.LASF40
 2129 01e7 04       		.byte	0x4
 2130 01e8 9A10     		.2byte	0x109a
 2131 01ea DD000000 		.4byte	0xdd
 2132 01ee 00       		.byte	0
 2133 01ef 0A       		.uleb128 0xa
 2134 01f0 BE030000 		.4byte	.LASF41
 2135 01f4 04       		.byte	0x4
 2136 01f5 9B10     		.2byte	0x109b
 2137 01f7 DD000000 		.4byte	0xdd
 2138 01fb 04       		.byte	0x4
 2139 01fc 0A       		.uleb128 0xa
 2140 01fd 75040000 		.4byte	.LASF42
 2141 0201 04       		.byte	0x4
 2142 0202 9C10     		.2byte	0x109c
 2143 0204 DD000000 		.4byte	0xdd
 2144 0208 08       		.byte	0x8
 2145 0209 00       		.byte	0
 2146 020a 06       		.uleb128 0x6
 2147 020b 2D080000 		.4byte	.LASF43
 2148 020f 04       		.byte	0x4
ARM GAS  C:\Users\13740\AppData\Local\Temp\ccZrwIb5.s 			page 48


 2149 0210 9D10     		.2byte	0x109d
 2150 0212 D9010000 		.4byte	0x1d9
 2151 0216 09       		.uleb128 0x9
 2152 0217 18       		.byte	0x18
 2153 0218 04       		.byte	0x4
 2154 0219 A210     		.2byte	0x10a2
 2155 021b AF020000 		.4byte	0x2af
 2156 021f 0A       		.uleb128 0xa
 2157 0220 74020000 		.4byte	.LASF44
 2158 0224 04       		.byte	0x4
 2159 0225 A410     		.2byte	0x10a4
 2160 0227 DD000000 		.4byte	0xdd
 2161 022b 00       		.byte	0
 2162 022c 0A       		.uleb128 0xa
 2163 022d E9050000 		.4byte	.LASF45
 2164 0231 04       		.byte	0x4
 2165 0232 A510     		.2byte	0x10a5
 2166 0234 DD000000 		.4byte	0xdd
 2167 0238 04       		.byte	0x4
 2168 0239 0A       		.uleb128 0xa
 2169 023a 8F010000 		.4byte	.LASF46
 2170 023e 04       		.byte	0x4
 2171 023f A610     		.2byte	0x10a6
 2172 0241 DD000000 		.4byte	0xdd
 2173 0245 08       		.byte	0x8
 2174 0246 0A       		.uleb128 0xa
 2175 0247 7F000000 		.4byte	.LASF47
 2176 024b 04       		.byte	0x4
 2177 024c A710     		.2byte	0x10a7
 2178 024e DD000000 		.4byte	0xdd
 2179 0252 0C       		.byte	0xc
 2180 0253 0A       		.uleb128 0xa
 2181 0254 67050000 		.4byte	.LASF48
 2182 0258 04       		.byte	0x4
 2183 0259 A810     		.2byte	0x10a8
 2184 025b 0E010000 		.4byte	0x10e
 2185 025f 10       		.byte	0x10
 2186 0260 0A       		.uleb128 0xa
 2187 0261 F5080000 		.4byte	.LASF49
 2188 0265 04       		.byte	0x4
 2189 0266 A910     		.2byte	0x10a9
 2190 0268 0E010000 		.4byte	0x10e
 2191 026c 11       		.byte	0x11
 2192 026d 0A       		.uleb128 0xa
 2193 026e C5080000 		.4byte	.LASF50
 2194 0272 04       		.byte	0x4
 2195 0273 AA10     		.2byte	0x10aa
 2196 0275 0E010000 		.4byte	0x10e
 2197 0279 12       		.byte	0x12
 2198 027a 0A       		.uleb128 0xa
 2199 027b 36070000 		.4byte	.LASF51
 2200 027f 04       		.byte	0x4
 2201 0280 AB10     		.2byte	0x10ab
 2202 0282 0E010000 		.4byte	0x10e
 2203 0286 13       		.byte	0x13
 2204 0287 0A       		.uleb128 0xa
 2205 0288 6F050000 		.4byte	.LASF52
ARM GAS  C:\Users\13740\AppData\Local\Temp\ccZrwIb5.s 			page 49


 2206 028c 04       		.byte	0x4
 2207 028d AC10     		.2byte	0x10ac
 2208 028f 0E010000 		.4byte	0x10e
 2209 0293 14       		.byte	0x14
 2210 0294 0A       		.uleb128 0xa
 2211 0295 68040000 		.4byte	.LASF53
 2212 0299 04       		.byte	0x4
 2213 029a AD10     		.2byte	0x10ad
 2214 029c 0E010000 		.4byte	0x10e
 2215 02a0 15       		.byte	0x15
 2216 02a1 0A       		.uleb128 0xa
 2217 02a2 62020000 		.4byte	.LASF54
 2218 02a6 04       		.byte	0x4
 2219 02a7 AE10     		.2byte	0x10ae
 2220 02a9 0E010000 		.4byte	0x10e
 2221 02ad 16       		.byte	0x16
 2222 02ae 00       		.byte	0
 2223 02af 06       		.uleb128 0x6
 2224 02b0 AC030000 		.4byte	.LASF55
 2225 02b4 04       		.byte	0x4
 2226 02b5 AF10     		.2byte	0x10af
 2227 02b7 16020000 		.4byte	0x216
 2228 02bb 09       		.uleb128 0x9
 2229 02bc 0C       		.byte	0xc
 2230 02bd 04       		.byte	0x4
 2231 02be B510     		.2byte	0x10b5
 2232 02c0 EC020000 		.4byte	0x2ec
 2233 02c4 0A       		.uleb128 0xa
 2234 02c5 87070000 		.4byte	.LASF56
 2235 02c9 04       		.byte	0x4
 2236 02ca B710     		.2byte	0x10b7
 2237 02cc DD000000 		.4byte	0xdd
 2238 02d0 00       		.byte	0
 2239 02d1 0A       		.uleb128 0xa
 2240 02d2 4A050000 		.4byte	.LASF57
 2241 02d6 04       		.byte	0x4
 2242 02d7 B810     		.2byte	0x10b8
 2243 02d9 DD000000 		.4byte	0xdd
 2244 02dd 04       		.byte	0x4
 2245 02de 0A       		.uleb128 0xa
 2246 02df 7E070000 		.4byte	.LASF58
 2247 02e3 04       		.byte	0x4
 2248 02e4 B910     		.2byte	0x10b9
 2249 02e6 0E010000 		.4byte	0x10e
 2250 02ea 08       		.byte	0x8
 2251 02eb 00       		.byte	0
 2252 02ec 06       		.uleb128 0x6
 2253 02ed D6010000 		.4byte	.LASF59
 2254 02f1 04       		.byte	0x4
 2255 02f2 BA10     		.2byte	0x10ba
 2256 02f4 BB020000 		.4byte	0x2bb
 2257 02f8 09       		.uleb128 0x9
 2258 02f9 08       		.byte	0x8
 2259 02fa 04       		.byte	0x4
 2260 02fb BF10     		.2byte	0x10bf
 2261 02fd 36030000 		.4byte	0x336
 2262 0301 0A       		.uleb128 0xa
ARM GAS  C:\Users\13740\AppData\Local\Temp\ccZrwIb5.s 			page 50


 2263 0302 E5030000 		.4byte	.LASF60
 2264 0306 04       		.byte	0x4
 2265 0307 C110     		.2byte	0x10c1
 2266 0309 C7000000 		.4byte	0xc7
 2267 030d 00       		.byte	0
 2268 030e 0A       		.uleb128 0xa
 2269 030f E4070000 		.4byte	.LASF61
 2270 0313 04       		.byte	0x4
 2271 0314 C210     		.2byte	0x10c2
 2272 0316 C7000000 		.4byte	0xc7
 2273 031a 02       		.byte	0x2
 2274 031b 0A       		.uleb128 0xa
 2275 031c 19080000 		.4byte	.LASF62
 2276 0320 04       		.byte	0x4
 2277 0321 C310     		.2byte	0x10c3
 2278 0323 C7000000 		.4byte	0xc7
 2279 0327 04       		.byte	0x4
 2280 0328 0A       		.uleb128 0xa
 2281 0329 24040000 		.4byte	.LASF63
 2282 032d 04       		.byte	0x4
 2283 032e C410     		.2byte	0x10c4
 2284 0330 C7000000 		.4byte	0xc7
 2285 0334 06       		.byte	0x6
 2286 0335 00       		.byte	0
 2287 0336 06       		.uleb128 0x6
 2288 0337 37090000 		.4byte	.LASF64
 2289 033b 04       		.byte	0x4
 2290 033c C510     		.2byte	0x10c5
 2291 033e F8020000 		.4byte	0x2f8
 2292 0342 09       		.uleb128 0x9
 2293 0343 0C       		.byte	0xc
 2294 0344 04       		.byte	0x4
 2295 0345 CA10     		.2byte	0x10ca
 2296 0347 73030000 		.4byte	0x373
 2297 034b 0A       		.uleb128 0xa
 2298 034c 4A070000 		.4byte	.LASF65
 2299 0350 04       		.byte	0x4
 2300 0351 CC10     		.2byte	0x10cc
 2301 0353 DD000000 		.4byte	0xdd
 2302 0357 00       		.byte	0
 2303 0358 0A       		.uleb128 0xa
 2304 0359 5B000000 		.4byte	.LASF66
 2305 035d 04       		.byte	0x4
 2306 035e CD10     		.2byte	0x10cd
 2307 0360 DD000000 		.4byte	0xdd
 2308 0364 04       		.byte	0x4
 2309 0365 0A       		.uleb128 0xa
 2310 0366 F5050000 		.4byte	.LASF67
 2311 036a 04       		.byte	0x4
 2312 036b CE10     		.2byte	0x10ce
 2313 036d 0E010000 		.4byte	0x10e
 2314 0371 08       		.byte	0x8
 2315 0372 00       		.byte	0
 2316 0373 06       		.uleb128 0x6
 2317 0374 D4080000 		.4byte	.LASF68
 2318 0378 04       		.byte	0x4
 2319 0379 CF10     		.2byte	0x10cf
ARM GAS  C:\Users\13740\AppData\Local\Temp\ccZrwIb5.s 			page 51


 2320 037b 42030000 		.4byte	0x342
 2321 037f 09       		.uleb128 0x9
 2322 0380 10       		.byte	0x10
 2323 0381 04       		.byte	0x4
 2324 0382 D310     		.2byte	0x10d3
 2325 0384 BD030000 		.4byte	0x3bd
 2326 0388 0A       		.uleb128 0xa
 2327 0389 22070000 		.4byte	.LASF69
 2328 038d 04       		.byte	0x4
 2329 038e D510     		.2byte	0x10d5
 2330 0390 DD000000 		.4byte	0xdd
 2331 0394 00       		.byte	0
 2332 0395 0A       		.uleb128 0xa
 2333 0396 52040000 		.4byte	.LASF70
 2334 039a 04       		.byte	0x4
 2335 039b D610     		.2byte	0x10d6
 2336 039d DD000000 		.4byte	0xdd
 2337 03a1 04       		.byte	0x4
 2338 03a2 0A       		.uleb128 0xa
 2339 03a3 07030000 		.4byte	.LASF71
 2340 03a7 04       		.byte	0x4
 2341 03a8 D710     		.2byte	0x10d7
 2342 03aa DD000000 		.4byte	0xdd
 2343 03ae 08       		.byte	0x8
 2344 03af 0A       		.uleb128 0xa
 2345 03b0 CB040000 		.4byte	.LASF72
 2346 03b4 04       		.byte	0x4
 2347 03b5 D810     		.2byte	0x10d8
 2348 03b7 DD000000 		.4byte	0xdd
 2349 03bb 0C       		.byte	0xc
 2350 03bc 00       		.byte	0
 2351 03bd 06       		.uleb128 0x6
 2352 03be 1C090000 		.4byte	.LASF73
 2353 03c2 04       		.byte	0x4
 2354 03c3 D910     		.2byte	0x10d9
 2355 03c5 7F030000 		.4byte	0x37f
 2356 03c9 09       		.uleb128 0x9
 2357 03ca 20       		.byte	0x20
 2358 03cb 04       		.byte	0x4
 2359 03cc 0111     		.2byte	0x1101
 2360 03ce 55040000 		.4byte	0x455
 2361 03d2 0A       		.uleb128 0xa
 2362 03d3 20000000 		.4byte	.LASF74
 2363 03d7 04       		.byte	0x4
 2364 03d8 0311     		.2byte	0x1103
 2365 03da DD000000 		.4byte	0xdd
 2366 03de 00       		.byte	0
 2367 03df 0A       		.uleb128 0xa
 2368 03e0 D3040000 		.4byte	.LASF75
 2369 03e4 04       		.byte	0x4
 2370 03e5 0411     		.2byte	0x1104
 2371 03e7 DD000000 		.4byte	0xdd
 2372 03eb 04       		.byte	0x4
 2373 03ec 0A       		.uleb128 0xa
 2374 03ed 2B020000 		.4byte	.LASF76
 2375 03f1 04       		.byte	0x4
 2376 03f2 0511     		.2byte	0x1105
ARM GAS  C:\Users\13740\AppData\Local\Temp\ccZrwIb5.s 			page 52


 2377 03f4 DD000000 		.4byte	0xdd
 2378 03f8 08       		.byte	0x8
 2379 03f9 0A       		.uleb128 0xa
 2380 03fa F9020000 		.4byte	.LASF77
 2381 03fe 04       		.byte	0x4
 2382 03ff 0611     		.2byte	0x1106
 2383 0401 DD000000 		.4byte	0xdd
 2384 0405 0C       		.byte	0xc
 2385 0406 0A       		.uleb128 0xa
 2386 0407 B1060000 		.4byte	.LASF78
 2387 040b 04       		.byte	0x4
 2388 040c 0711     		.2byte	0x1107
 2389 040e DD000000 		.4byte	0xdd
 2390 0412 10       		.byte	0x10
 2391 0413 0A       		.uleb128 0xa
 2392 0414 9B020000 		.4byte	.LASF79
 2393 0418 04       		.byte	0x4
 2394 0419 0811     		.2byte	0x1108
 2395 041b DD000000 		.4byte	0xdd
 2396 041f 14       		.byte	0x14
 2397 0420 0A       		.uleb128 0xa
 2398 0421 96070000 		.4byte	.LASF80
 2399 0425 04       		.byte	0x4
 2400 0426 0911     		.2byte	0x1109
 2401 0428 0E010000 		.4byte	0x10e
 2402 042c 18       		.byte	0x18
 2403 042d 0A       		.uleb128 0xa
 2404 042e 62080000 		.4byte	.LASF81
 2405 0432 04       		.byte	0x4
 2406 0433 0A11     		.2byte	0x110a
 2407 0435 0E010000 		.4byte	0x10e
 2408 0439 19       		.byte	0x19
 2409 043a 0A       		.uleb128 0xa
 2410 043b EE070000 		.4byte	.LASF82
 2411 043f 04       		.byte	0x4
 2412 0440 0B11     		.2byte	0x110b
 2413 0442 C7000000 		.4byte	0xc7
 2414 0446 1A       		.byte	0x1a
 2415 0447 0A       		.uleb128 0xa
 2416 0448 99000000 		.4byte	.LASF83
 2417 044c 04       		.byte	0x4
 2418 044d 0C11     		.2byte	0x110c
 2419 044f C7000000 		.4byte	0xc7
 2420 0453 1C       		.byte	0x1c
 2421 0454 00       		.byte	0
 2422 0455 06       		.uleb128 0x6
 2423 0456 1F030000 		.4byte	.LASF84
 2424 045a 04       		.byte	0x4
 2425 045b 0D11     		.2byte	0x110d
 2426 045d C9030000 		.4byte	0x3c9
 2427 0461 09       		.uleb128 0x9
 2428 0462 1C       		.byte	0x1c
 2429 0463 04       		.byte	0x4
 2430 0464 1211     		.2byte	0x1112
 2431 0466 D3040000 		.4byte	0x4d3
 2432 046a 0A       		.uleb128 0xa
 2433 046b 99010000 		.4byte	.LASF85
ARM GAS  C:\Users\13740\AppData\Local\Temp\ccZrwIb5.s 			page 53


 2434 046f 04       		.byte	0x4
 2435 0470 1411     		.2byte	0x1114
 2436 0472 DD000000 		.4byte	0xdd
 2437 0476 00       		.byte	0
 2438 0477 0A       		.uleb128 0xa
 2439 0478 3D010000 		.4byte	.LASF86
 2440 047c 04       		.byte	0x4
 2441 047d 1511     		.2byte	0x1115
 2442 047f DD000000 		.4byte	0xdd
 2443 0483 04       		.byte	0x4
 2444 0484 0A       		.uleb128 0xa
 2445 0485 19040000 		.4byte	.LASF87
 2446 0489 04       		.byte	0x4
 2447 048a 1611     		.2byte	0x1116
 2448 048c DD000000 		.4byte	0xdd
 2449 0490 08       		.byte	0x8
 2450 0491 0A       		.uleb128 0xa
 2451 0492 33040000 		.4byte	.LASF88
 2452 0496 04       		.byte	0x4
 2453 0497 1711     		.2byte	0x1117
 2454 0499 DD000000 		.4byte	0xdd
 2455 049d 0C       		.byte	0xc
 2456 049e 0A       		.uleb128 0xa
 2457 049f 51050000 		.4byte	.LASF89
 2458 04a3 04       		.byte	0x4
 2459 04a4 1811     		.2byte	0x1118
 2460 04a6 DD000000 		.4byte	0xdd
 2461 04aa 10       		.byte	0x10
 2462 04ab 0A       		.uleb128 0xa
 2463 04ac 05090000 		.4byte	.LASF90
 2464 04b0 04       		.byte	0x4
 2465 04b1 1911     		.2byte	0x1119
 2466 04b3 DD000000 		.4byte	0xdd
 2467 04b7 14       		.byte	0x14
 2468 04b8 0A       		.uleb128 0xa
 2469 04b9 E7040000 		.4byte	.LASF91
 2470 04bd 04       		.byte	0x4
 2471 04be 1A11     		.2byte	0x111a
 2472 04c0 0E010000 		.4byte	0x10e
 2473 04c4 18       		.byte	0x18
 2474 04c5 0A       		.uleb128 0xa
 2475 04c6 9E070000 		.4byte	.LASF92
 2476 04ca 04       		.byte	0x4
 2477 04cb 1B11     		.2byte	0x111b
 2478 04cd 0E010000 		.4byte	0x10e
 2479 04d1 19       		.byte	0x19
 2480 04d2 00       		.byte	0
 2481 04d3 06       		.uleb128 0x6
 2482 04d4 0C020000 		.4byte	.LASF93
 2483 04d8 04       		.byte	0x4
 2484 04d9 1C11     		.2byte	0x111c
 2485 04db 61040000 		.4byte	0x461
 2486 04df 09       		.uleb128 0x9
 2487 04e0 3C       		.byte	0x3c
 2488 04e1 04       		.byte	0x4
 2489 04e2 6111     		.2byte	0x1161
 2490 04e4 03050000 		.4byte	0x503
ARM GAS  C:\Users\13740\AppData\Local\Temp\ccZrwIb5.s 			page 54


 2491 04e8 0A       		.uleb128 0xa
 2492 04e9 7F030000 		.4byte	.LASF94
 2493 04ed 04       		.byte	0x4
 2494 04ee 6311     		.2byte	0x1163
 2495 04f0 55040000 		.4byte	0x455
 2496 04f4 00       		.byte	0
 2497 04f5 0A       		.uleb128 0xa
 2498 04f6 06080000 		.4byte	.LASF95
 2499 04fa 04       		.byte	0x4
 2500 04fb 6411     		.2byte	0x1164
 2501 04fd D3040000 		.4byte	0x4d3
 2502 0501 20       		.byte	0x20
 2503 0502 00       		.byte	0
 2504 0503 06       		.uleb128 0x6
 2505 0504 EA020000 		.4byte	.LASF96
 2506 0508 04       		.byte	0x4
 2507 0509 6511     		.2byte	0x1165
 2508 050b DF040000 		.4byte	0x4df
 2509 050f 09       		.uleb128 0x9
 2510 0510 44       		.byte	0x44
 2511 0511 04       		.byte	0x4
 2512 0512 6A11     		.2byte	0x116a
 2513 0514 5A050000 		.4byte	0x55a
 2514 0518 0A       		.uleb128 0xa
 2515 0519 0C060000 		.4byte	.LASF97
 2516 051d 04       		.byte	0x4
 2517 051e 6C11     		.2byte	0x116c
 2518 0520 0A020000 		.4byte	0x20a
 2519 0524 00       		.byte	0
 2520 0525 0A       		.uleb128 0xa
 2521 0526 E8060000 		.4byte	.LASF98
 2522 052a 04       		.byte	0x4
 2523 052b 6D11     		.2byte	0x116d
 2524 052d AF020000 		.4byte	0x2af
 2525 0531 0C       		.byte	0xc
 2526 0532 0A       		.uleb128 0xa
 2527 0533 67010000 		.4byte	.LASF99
 2528 0537 04       		.byte	0x4
 2529 0538 6E11     		.2byte	0x116e
 2530 053a 36030000 		.4byte	0x336
 2531 053e 24       		.byte	0x24
 2532 053f 0A       		.uleb128 0xa
 2533 0540 87040000 		.4byte	.LASF100
 2534 0544 04       		.byte	0x4
 2535 0545 6F11     		.2byte	0x116f
 2536 0547 EC020000 		.4byte	0x2ec
 2537 054b 2C       		.byte	0x2c
 2538 054c 0A       		.uleb128 0xa
 2539 054d 5A040000 		.4byte	.LASF101
 2540 0551 04       		.byte	0x4
 2541 0552 7011     		.2byte	0x1170
 2542 0554 73030000 		.4byte	0x373
 2543 0558 38       		.byte	0x38
 2544 0559 00       		.byte	0
 2545 055a 06       		.uleb128 0x6
 2546 055b 73000000 		.4byte	.LASF102
 2547 055f 04       		.byte	0x4
ARM GAS  C:\Users\13740\AppData\Local\Temp\ccZrwIb5.s 			page 55


 2548 0560 7111     		.2byte	0x1171
 2549 0562 0F050000 		.4byte	0x50f
 2550 0566 09       		.uleb128 0x9
 2551 0567 14       		.byte	0x14
 2552 0568 04       		.byte	0x4
 2553 0569 8211     		.2byte	0x1182
 2554 056b B1050000 		.4byte	0x5b1
 2555 056f 0A       		.uleb128 0xa
 2556 0570 65070000 		.4byte	.LASF103
 2557 0574 04       		.byte	0x4
 2558 0575 8411     		.2byte	0x1184
 2559 0577 0E010000 		.4byte	0x10e
 2560 057b 00       		.byte	0
 2561 057c 0A       		.uleb128 0xa
 2562 057d A8050000 		.4byte	.LASF104
 2563 0581 04       		.byte	0x4
 2564 0582 8511     		.2byte	0x1185
 2565 0584 DD000000 		.4byte	0xdd
 2566 0588 04       		.byte	0x4
 2567 0589 0A       		.uleb128 0xa
 2568 058a 75010000 		.4byte	.LASF105
 2569 058e 04       		.byte	0x4
 2570 058f 8611     		.2byte	0x1186
 2571 0591 DD000000 		.4byte	0xdd
 2572 0595 08       		.byte	0x8
 2573 0596 0A       		.uleb128 0xa
 2574 0597 3D040000 		.4byte	.LASF106
 2575 059b 04       		.byte	0x4
 2576 059c 8711     		.2byte	0x1187
 2577 059e DD000000 		.4byte	0xdd
 2578 05a2 0C       		.byte	0xc
 2579 05a3 0A       		.uleb128 0xa
 2580 05a4 C6030000 		.4byte	.LASF107
 2581 05a8 04       		.byte	0x4
 2582 05a9 8811     		.2byte	0x1188
 2583 05ab DD000000 		.4byte	0xdd
 2584 05af 10       		.byte	0x10
 2585 05b0 00       		.byte	0
 2586 05b1 06       		.uleb128 0x6
 2587 05b2 A9070000 		.4byte	.LASF108
 2588 05b6 04       		.byte	0x4
 2589 05b7 8911     		.2byte	0x1189
 2590 05b9 66050000 		.4byte	0x566
 2591 05bd 09       		.uleb128 0x9
 2592 05be 0C       		.byte	0xc
 2593 05bf 04       		.byte	0x4
 2594 05c0 8E11     		.2byte	0x118e
 2595 05c2 15060000 		.4byte	0x615
 2596 05c6 0A       		.uleb128 0xa
 2597 05c7 0F030000 		.4byte	.LASF109
 2598 05cb 04       		.byte	0x4
 2599 05cc 9011     		.2byte	0x1190
 2600 05ce DD000000 		.4byte	0xdd
 2601 05d2 00       		.byte	0
 2602 05d3 0A       		.uleb128 0xa
 2603 05d4 10000000 		.4byte	.LASF110
 2604 05d8 04       		.byte	0x4
ARM GAS  C:\Users\13740\AppData\Local\Temp\ccZrwIb5.s 			page 56


 2605 05d9 9111     		.2byte	0x1191
 2606 05db 0E010000 		.4byte	0x10e
 2607 05df 04       		.byte	0x4
 2608 05e0 0A       		.uleb128 0xa
 2609 05e1 17060000 		.4byte	.LASF111
 2610 05e5 04       		.byte	0x4
 2611 05e6 9211     		.2byte	0x1192
 2612 05e8 0E010000 		.4byte	0x10e
 2613 05ec 05       		.byte	0x5
 2614 05ed 0A       		.uleb128 0xa
 2615 05ee B5010000 		.4byte	.LASF112
 2616 05f2 04       		.byte	0x4
 2617 05f3 9311     		.2byte	0x1193
 2618 05f5 0E010000 		.4byte	0x10e
 2619 05f9 06       		.byte	0x6
 2620 05fa 0A       		.uleb128 0xa
 2621 05fb 20080000 		.4byte	.LASF113
 2622 05ff 04       		.byte	0x4
 2623 0600 9411     		.2byte	0x1194
 2624 0602 0E010000 		.4byte	0x10e
 2625 0606 07       		.byte	0x7
 2626 0607 0A       		.uleb128 0xa
 2627 0608 C5060000 		.4byte	.LASF114
 2628 060c 04       		.byte	0x4
 2629 060d 9511     		.2byte	0x1195
 2630 060f DD000000 		.4byte	0xdd
 2631 0613 08       		.byte	0x8
 2632 0614 00       		.byte	0
 2633 0615 06       		.uleb128 0x6
 2634 0616 CA010000 		.4byte	.LASF115
 2635 061a 04       		.byte	0x4
 2636 061b 9611     		.2byte	0x1196
 2637 061d BD050000 		.4byte	0x5bd
 2638 0621 09       		.uleb128 0x9
 2639 0622 14       		.byte	0x14
 2640 0623 04       		.byte	0x4
 2641 0624 9B11     		.2byte	0x119b
 2642 0626 6C060000 		.4byte	0x66c
 2643 062a 0A       		.uleb128 0xa
 2644 062b 00000000 		.4byte	.LASF116
 2645 062f 04       		.byte	0x4
 2646 0630 9D11     		.2byte	0x119d
 2647 0632 DD000000 		.4byte	0xdd
 2648 0636 00       		.byte	0
 2649 0637 0A       		.uleb128 0xa
 2650 0638 D4020000 		.4byte	.LASF117
 2651 063c 04       		.byte	0x4
 2652 063d 9E11     		.2byte	0x119e
 2653 063f DD000000 		.4byte	0xdd
 2654 0643 04       		.byte	0x4
 2655 0644 0A       		.uleb128 0xa
 2656 0645 BB050000 		.4byte	.LASF118
 2657 0649 04       		.byte	0x4
 2658 064a 9F11     		.2byte	0x119f
 2659 064c DD000000 		.4byte	0xdd
 2660 0650 08       		.byte	0x8
 2661 0651 0A       		.uleb128 0xa
ARM GAS  C:\Users\13740\AppData\Local\Temp\ccZrwIb5.s 			page 57


 2662 0652 A7060000 		.4byte	.LASF119
 2663 0656 04       		.byte	0x4
 2664 0657 A011     		.2byte	0x11a0
 2665 0659 0E010000 		.4byte	0x10e
 2666 065d 0C       		.byte	0xc
 2667 065e 0A       		.uleb128 0xa
 2668 065f 7A090000 		.4byte	.LASF120
 2669 0663 04       		.byte	0x4
 2670 0664 A111     		.2byte	0x11a1
 2671 0666 6C060000 		.4byte	0x66c
 2672 066a 10       		.byte	0x10
 2673 066b 00       		.byte	0
 2674 066c 0B       		.uleb128 0xb
 2675 066d 04       		.byte	0x4
 2676 066e 72060000 		.4byte	0x672
 2677 0672 0C       		.uleb128 0xc
 2678 0673 DD000000 		.4byte	0xdd
 2679 0677 06       		.uleb128 0x6
 2680 0678 88030000 		.4byte	.LASF121
 2681 067c 04       		.byte	0x4
 2682 067d A211     		.2byte	0x11a2
 2683 067f 21060000 		.4byte	0x621
 2684 0683 09       		.uleb128 0x9
 2685 0684 48       		.byte	0x48
 2686 0685 04       		.byte	0x4
 2687 0686 AE11     		.2byte	0x11ae
 2688 0688 CE060000 		.4byte	0x6ce
 2689 068c 0A       		.uleb128 0xa
 2690 068d 80050000 		.4byte	.LASF122
 2691 0691 04       		.byte	0x4
 2692 0692 B011     		.2byte	0x11b0
 2693 0694 DD000000 		.4byte	0xdd
 2694 0698 00       		.byte	0
 2695 0699 0A       		.uleb128 0xa
 2696 069a BB080000 		.4byte	.LASF123
 2697 069e 04       		.byte	0x4
 2698 069f B111     		.2byte	0x11b1
 2699 06a1 CE060000 		.4byte	0x6ce
 2700 06a5 04       		.byte	0x4
 2701 06a6 0A       		.uleb128 0xa
 2702 06a7 BD040000 		.4byte	.LASF124
 2703 06ab 04       		.byte	0x4
 2704 06ac B211     		.2byte	0x11b2
 2705 06ae DE060000 		.4byte	0x6de
 2706 06b2 24       		.byte	0x24
 2707 06b3 0A       		.uleb128 0xa
 2708 06b4 48030000 		.4byte	.LASF125
 2709 06b8 04       		.byte	0x4
 2710 06b9 B311     		.2byte	0x11b3
 2711 06bb DE060000 		.4byte	0x6de
 2712 06bf 34       		.byte	0x34
 2713 06c0 0A       		.uleb128 0xa
 2714 06c1 6A060000 		.4byte	.LASF126
 2715 06c5 04       		.byte	0x4
 2716 06c6 B411     		.2byte	0x11b4
 2717 06c8 0E010000 		.4byte	0x10e
 2718 06cc 44       		.byte	0x44
ARM GAS  C:\Users\13740\AppData\Local\Temp\ccZrwIb5.s 			page 58


 2719 06cd 00       		.byte	0
 2720 06ce 0D       		.uleb128 0xd
 2721 06cf DD000000 		.4byte	0xdd
 2722 06d3 DE060000 		.4byte	0x6de
 2723 06d7 0E       		.uleb128 0xe
 2724 06d8 9E000000 		.4byte	0x9e
 2725 06dc 07       		.byte	0x7
 2726 06dd 00       		.byte	0
 2727 06de 0D       		.uleb128 0xd
 2728 06df DD000000 		.4byte	0xdd
 2729 06e3 EE060000 		.4byte	0x6ee
 2730 06e7 0E       		.uleb128 0xe
 2731 06e8 9E000000 		.4byte	0x9e
 2732 06ec 03       		.byte	0x3
 2733 06ed 00       		.byte	0
 2734 06ee 06       		.uleb128 0x6
 2735 06ef 45040000 		.4byte	.LASF127
 2736 06f3 04       		.byte	0x4
 2737 06f4 B511     		.2byte	0x11b5
 2738 06f6 83060000 		.4byte	0x683
 2739 06fa 09       		.uleb128 0x9
 2740 06fb 38       		.byte	0x38
 2741 06fc 04       		.byte	0x4
 2742 06fd DB11     		.2byte	0x11db
 2743 06ff A0070000 		.4byte	0x7a0
 2744 0703 0A       		.uleb128 0xa
 2745 0704 F5060000 		.4byte	.LASF128
 2746 0708 04       		.byte	0x4
 2747 0709 DD11     		.2byte	0x11dd
 2748 070b B5000000 		.4byte	0xb5
 2749 070f 00       		.byte	0
 2750 0710 0A       		.uleb128 0xa
 2751 0711 8E040000 		.4byte	.LASF129
 2752 0715 04       		.byte	0x4
 2753 0716 DE11     		.2byte	0x11de
 2754 0718 B5000000 		.4byte	0xb5
 2755 071c 04       		.byte	0x4
 2756 071d 0A       		.uleb128 0xa
 2757 071e 1A020000 		.4byte	.LASF130
 2758 0722 04       		.byte	0x4
 2759 0723 DF11     		.2byte	0x11df
 2760 0725 B5000000 		.4byte	0xb5
 2761 0729 08       		.byte	0x8
 2762 072a 0A       		.uleb128 0xa
 2763 072b F4010000 		.4byte	.LASF131
 2764 072f 04       		.byte	0x4
 2765 0730 E011     		.2byte	0x11e0
 2766 0732 B5000000 		.4byte	0xb5
 2767 0736 0C       		.byte	0xc
 2768 0737 0A       		.uleb128 0xa
 2769 0738 99010000 		.4byte	.LASF85
 2770 073c 04       		.byte	0x4
 2771 073d E211     		.2byte	0x11e2
 2772 073f DD000000 		.4byte	0xdd
 2773 0743 10       		.byte	0x10
 2774 0744 0A       		.uleb128 0xa
 2775 0745 58080000 		.4byte	.LASF132
ARM GAS  C:\Users\13740\AppData\Local\Temp\ccZrwIb5.s 			page 59


 2776 0749 04       		.byte	0x4
 2777 074a E311     		.2byte	0x11e3
 2778 074c 0E010000 		.4byte	0x10e
 2779 0750 14       		.byte	0x14
 2780 0751 0A       		.uleb128 0xa
 2781 0752 33040000 		.4byte	.LASF88
 2782 0756 04       		.byte	0x4
 2783 0757 E411     		.2byte	0x11e4
 2784 0759 DD000000 		.4byte	0xdd
 2785 075d 18       		.byte	0x18
 2786 075e 0A       		.uleb128 0xa
 2787 075f 51050000 		.4byte	.LASF89
 2788 0763 04       		.byte	0x4
 2789 0764 E511     		.2byte	0x11e5
 2790 0766 DD000000 		.4byte	0xdd
 2791 076a 1C       		.byte	0x1c
 2792 076b 0A       		.uleb128 0xa
 2793 076c 74020000 		.4byte	.LASF44
 2794 0770 04       		.byte	0x4
 2795 0771 E611     		.2byte	0x11e6
 2796 0773 DD000000 		.4byte	0xdd
 2797 0777 20       		.byte	0x20
 2798 0778 0A       		.uleb128 0xa
 2799 0779 E9050000 		.4byte	.LASF45
 2800 077d 04       		.byte	0x4
 2801 077e E711     		.2byte	0x11e7
 2802 0780 DD000000 		.4byte	0xdd
 2803 0784 24       		.byte	0x24
 2804 0785 0A       		.uleb128 0xa
 2805 0786 87040000 		.4byte	.LASF100
 2806 078a 04       		.byte	0x4
 2807 078b E811     		.2byte	0x11e8
 2808 078d EC020000 		.4byte	0x2ec
 2809 0791 28       		.byte	0x28
 2810 0792 0A       		.uleb128 0xa
 2811 0793 55020000 		.4byte	.LASF133
 2812 0797 04       		.byte	0x4
 2813 0798 E911     		.2byte	0x11e9
 2814 079a DD000000 		.4byte	0xdd
 2815 079e 34       		.byte	0x34
 2816 079f 00       		.byte	0
 2817 07a0 06       		.uleb128 0x6
 2818 07a1 70030000 		.4byte	.LASF134
 2819 07a5 04       		.byte	0x4
 2820 07a6 EA11     		.2byte	0x11ea
 2821 07a8 FA060000 		.4byte	0x6fa
 2822 07ac 09       		.uleb128 0x9
 2823 07ad 20       		.byte	0x20
 2824 07ae 04       		.byte	0x4
 2825 07af 5612     		.2byte	0x1256
 2826 07b1 2B080000 		.4byte	0x82b
 2827 07b5 0A       		.uleb128 0xa
 2828 07b6 8B050000 		.4byte	.LASF135
 2829 07ba 04       		.byte	0x4
 2830 07bb 5812     		.2byte	0x1258
 2831 07bd DD000000 		.4byte	0xdd
 2832 07c1 00       		.byte	0
ARM GAS  C:\Users\13740\AppData\Local\Temp\ccZrwIb5.s 			page 60


 2833 07c2 0A       		.uleb128 0xa
 2834 07c3 5D050000 		.4byte	.LASF136
 2835 07c7 04       		.byte	0x4
 2836 07c8 5912     		.2byte	0x1259
 2837 07ca DD000000 		.4byte	0xdd
 2838 07ce 04       		.byte	0x4
 2839 07cf 0A       		.uleb128 0xa
 2840 07d0 74020000 		.4byte	.LASF44
 2841 07d4 04       		.byte	0x4
 2842 07d5 5A12     		.2byte	0x125a
 2843 07d7 DD000000 		.4byte	0xdd
 2844 07db 08       		.byte	0x8
 2845 07dc 0A       		.uleb128 0xa
 2846 07dd E9050000 		.4byte	.LASF45
 2847 07e1 04       		.byte	0x4
 2848 07e2 5B12     		.2byte	0x125b
 2849 07e4 DD000000 		.4byte	0xdd
 2850 07e8 0C       		.byte	0xc
 2851 07e9 0A       		.uleb128 0xa
 2852 07ea 8F010000 		.4byte	.LASF46
 2853 07ee 04       		.byte	0x4
 2854 07ef 5C12     		.2byte	0x125c
 2855 07f1 DD000000 		.4byte	0xdd
 2856 07f5 10       		.byte	0x10
 2857 07f6 0A       		.uleb128 0xa
 2858 07f7 4A050000 		.4byte	.LASF57
 2859 07fb 04       		.byte	0x4
 2860 07fc 5D12     		.2byte	0x125d
 2861 07fe DD000000 		.4byte	0xdd
 2862 0802 14       		.byte	0x14
 2863 0803 0A       		.uleb128 0xa
 2864 0804 7F000000 		.4byte	.LASF47
 2865 0808 04       		.byte	0x4
 2866 0809 5E12     		.2byte	0x125e
 2867 080b BC000000 		.4byte	0xbc
 2868 080f 18       		.byte	0x18
 2869 0810 0A       		.uleb128 0xa
 2870 0811 67050000 		.4byte	.LASF48
 2871 0815 04       		.byte	0x4
 2872 0816 5F12     		.2byte	0x125f
 2873 0818 0E010000 		.4byte	0x10e
 2874 081c 19       		.byte	0x19
 2875 081d 0A       		.uleb128 0xa
 2876 081e 71060000 		.4byte	.LASF137
 2877 0822 04       		.byte	0x4
 2878 0823 6012     		.2byte	0x1260
 2879 0825 B5000000 		.4byte	0xb5
 2880 0829 1C       		.byte	0x1c
 2881 082a 00       		.byte	0
 2882 082b 06       		.uleb128 0x6
 2883 082c 0F050000 		.4byte	.LASF138
 2884 0830 04       		.byte	0x4
 2885 0831 6112     		.2byte	0x1261
 2886 0833 AC070000 		.4byte	0x7ac
 2887 0837 09       		.uleb128 0x9
 2888 0838 08       		.byte	0x8
 2889 0839 04       		.byte	0x4
ARM GAS  C:\Users\13740\AppData\Local\Temp\ccZrwIb5.s 			page 61


 2890 083a 7312     		.2byte	0x1273
 2891 083c 5B080000 		.4byte	0x85b
 2892 0840 0A       		.uleb128 0xa
 2893 0841 52070000 		.4byte	.LASF139
 2894 0845 04       		.byte	0x4
 2895 0846 7512     		.2byte	0x1275
 2896 0848 B5000000 		.4byte	0xb5
 2897 084c 00       		.byte	0
 2898 084d 0A       		.uleb128 0xa
 2899 084e 25020000 		.4byte	.LASF140
 2900 0852 04       		.byte	0x4
 2901 0853 7612     		.2byte	0x1276
 2902 0855 B5000000 		.4byte	0xb5
 2903 0859 04       		.byte	0x4
 2904 085a 00       		.byte	0
 2905 085b 06       		.uleb128 0x6
 2906 085c A8040000 		.4byte	.LASF141
 2907 0860 04       		.byte	0x4
 2908 0861 7712     		.2byte	0x1277
 2909 0863 37080000 		.4byte	0x837
 2910 0867 0F       		.uleb128 0xf
 2911 0868 A0       		.byte	0xa0
 2912 0869 05       		.byte	0x5
 2913 086a 1F       		.byte	0x1f
 2914 086b F0090000 		.4byte	0x9f0
 2915 086f 10       		.uleb128 0x10
 2916 0870 8E020000 		.4byte	.LASF142
 2917 0874 05       		.byte	0x5
 2918 0875 22       		.byte	0x22
 2919 0876 0E010000 		.4byte	0x10e
 2920 087a 00       		.byte	0
 2921 087b 10       		.uleb128 0x10
 2922 087c 6D090000 		.4byte	.LASF143
 2923 0880 05       		.byte	0x5
 2924 0881 23       		.byte	0x23
 2925 0882 DD000000 		.4byte	0xdd
 2926 0886 04       		.byte	0x4
 2927 0887 10       		.uleb128 0x10
 2928 0888 3E030000 		.4byte	.LASF144
 2929 088c 05       		.byte	0x5
 2930 088d 24       		.byte	0x24
 2931 088e DD000000 		.4byte	0xdd
 2932 0892 08       		.byte	0x8
 2933 0893 10       		.uleb128 0x10
 2934 0894 97060000 		.4byte	.LASF145
 2935 0898 05       		.byte	0x5
 2936 0899 25       		.byte	0x25
 2937 089a DD000000 		.4byte	0xdd
 2938 089e 0C       		.byte	0xc
 2939 089f 10       		.uleb128 0x10
 2940 08a0 81060000 		.4byte	.LASF146
 2941 08a4 05       		.byte	0x5
 2942 08a5 26       		.byte	0x26
 2943 08a6 DD000000 		.4byte	0xdd
 2944 08aa 10       		.byte	0x10
 2945 08ab 10       		.uleb128 0x10
 2946 08ac B9060000 		.4byte	.LASF147
ARM GAS  C:\Users\13740\AppData\Local\Temp\ccZrwIb5.s 			page 62


 2947 08b0 05       		.byte	0x5
 2948 08b1 29       		.byte	0x29
 2949 08b2 0E010000 		.4byte	0x10e
 2950 08b6 14       		.byte	0x14
 2951 08b7 10       		.uleb128 0x10
 2952 08b8 1A020000 		.4byte	.LASF130
 2953 08bc 05       		.byte	0x5
 2954 08bd 2A       		.byte	0x2a
 2955 08be B5000000 		.4byte	0xb5
 2956 08c2 18       		.byte	0x18
 2957 08c3 10       		.uleb128 0x10
 2958 08c4 27050000 		.4byte	.LASF148
 2959 08c8 05       		.byte	0x5
 2960 08c9 2B       		.byte	0x2b
 2961 08ca B5000000 		.4byte	0xb5
 2962 08ce 1C       		.byte	0x1c
 2963 08cf 10       		.uleb128 0x10
 2964 08d0 F4010000 		.4byte	.LASF131
 2965 08d4 05       		.byte	0x5
 2966 08d5 2C       		.byte	0x2c
 2967 08d6 B5000000 		.4byte	0xb5
 2968 08da 20       		.byte	0x20
 2969 08db 10       		.uleb128 0x10
 2970 08dc 47090000 		.4byte	.LASF149
 2971 08e0 05       		.byte	0x5
 2972 08e1 2D       		.byte	0x2d
 2973 08e2 DD000000 		.4byte	0xdd
 2974 08e6 24       		.byte	0x24
 2975 08e7 10       		.uleb128 0x10
 2976 08e8 EC030000 		.4byte	.LASF150
 2977 08ec 05       		.byte	0x5
 2978 08ed 2E       		.byte	0x2e
 2979 08ee B5000000 		.4byte	0xb5
 2980 08f2 28       		.byte	0x28
 2981 08f3 10       		.uleb128 0x10
 2982 08f4 95030000 		.4byte	.LASF151
 2983 08f8 05       		.byte	0x5
 2984 08f9 2F       		.byte	0x2f
 2985 08fa D2000000 		.4byte	0xd2
 2986 08fe 2C       		.byte	0x2c
 2987 08ff 10       		.uleb128 0x10
 2988 0900 A4020000 		.4byte	.LASF152
 2989 0904 05       		.byte	0x5
 2990 0905 30       		.byte	0x30
 2991 0906 B5000000 		.4byte	0xb5
 2992 090a 30       		.byte	0x30
 2993 090b 10       		.uleb128 0x10
 2994 090c 17070000 		.4byte	.LASF153
 2995 0910 05       		.byte	0x5
 2996 0911 31       		.byte	0x31
 2997 0912 B5000000 		.4byte	0xb5
 2998 0916 34       		.byte	0x34
 2999 0917 10       		.uleb128 0x10
 3000 0918 A2010000 		.4byte	.LASF154
 3001 091c 05       		.byte	0x5
 3002 091d 32       		.byte	0x32
 3003 091e DD000000 		.4byte	0xdd
ARM GAS  C:\Users\13740\AppData\Local\Temp\ccZrwIb5.s 			page 63


 3004 0922 38       		.byte	0x38
 3005 0923 10       		.uleb128 0x10
 3006 0924 84010000 		.4byte	.LASF155
 3007 0928 05       		.byte	0x5
 3008 0929 33       		.byte	0x33
 3009 092a DD000000 		.4byte	0xdd
 3010 092e 3C       		.byte	0x3c
 3011 092f 10       		.uleb128 0x10
 3012 0930 74020000 		.4byte	.LASF44
 3013 0934 05       		.byte	0x5
 3014 0935 34       		.byte	0x34
 3015 0936 BC000000 		.4byte	0xbc
 3016 093a 40       		.byte	0x40
 3017 093b 10       		.uleb128 0x10
 3018 093c E9050000 		.4byte	.LASF45
 3019 0940 05       		.byte	0x5
 3020 0941 35       		.byte	0x35
 3021 0942 BC000000 		.4byte	0xbc
 3022 0946 41       		.byte	0x41
 3023 0947 10       		.uleb128 0x10
 3024 0948 A9010000 		.4byte	.LASF156
 3025 094c 05       		.byte	0x5
 3026 094d 36       		.byte	0x36
 3027 094e DD000000 		.4byte	0xdd
 3028 0952 44       		.byte	0x44
 3029 0953 10       		.uleb128 0x10
 3030 0954 9F030000 		.4byte	.LASF157
 3031 0958 05       		.byte	0x5
 3032 0959 37       		.byte	0x37
 3033 095a DD000000 		.4byte	0xdd
 3034 095e 48       		.byte	0x48
 3035 095f 10       		.uleb128 0x10
 3036 0960 3D010000 		.4byte	.LASF86
 3037 0964 05       		.byte	0x5
 3038 0965 38       		.byte	0x38
 3039 0966 DD000000 		.4byte	0xdd
 3040 096a 4C       		.byte	0x4c
 3041 096b 10       		.uleb128 0x10
 3042 096c 6A080000 		.4byte	.LASF158
 3043 0970 05       		.byte	0x5
 3044 0971 39       		.byte	0x39
 3045 0972 DD000000 		.4byte	0xdd
 3046 0976 50       		.byte	0x50
 3047 0977 10       		.uleb128 0x10
 3048 0978 34000000 		.4byte	.LASF159
 3049 097c 05       		.byte	0x5
 3050 097d 3A       		.byte	0x3a
 3051 097e 5B080000 		.4byte	0x85b
 3052 0982 54       		.byte	0x54
 3053 0983 10       		.uleb128 0x10
 3054 0984 1A000000 		.4byte	.LASF160
 3055 0988 05       		.byte	0x5
 3056 0989 3B       		.byte	0x3b
 3057 098a B5000000 		.4byte	0xb5
 3058 098e 5C       		.byte	0x5c
 3059 098f 10       		.uleb128 0x10
 3060 0990 5F060000 		.4byte	.LASF161
ARM GAS  C:\Users\13740\AppData\Local\Temp\ccZrwIb5.s 			page 64


 3061 0994 05       		.byte	0x5
 3062 0995 3C       		.byte	0x3c
 3063 0996 B5000000 		.4byte	0xb5
 3064 099a 60       		.byte	0x60
 3065 099b 10       		.uleb128 0x10
 3066 099c B5040000 		.4byte	.LASF162
 3067 09a0 05       		.byte	0x5
 3068 09a1 3D       		.byte	0x3d
 3069 09a2 0E010000 		.4byte	0x10e
 3070 09a6 64       		.byte	0x64
 3071 09a7 10       		.uleb128 0x10
 3072 09a8 29000000 		.4byte	.LASF163
 3073 09ac 05       		.byte	0x5
 3074 09ad 3E       		.byte	0x3e
 3075 09ae B5000000 		.4byte	0xb5
 3076 09b2 68       		.byte	0x68
 3077 09b3 10       		.uleb128 0x10
 3078 09b4 F3030000 		.4byte	.LASF164
 3079 09b8 05       		.byte	0x5
 3080 09b9 3F       		.byte	0x3f
 3081 09ba 0E010000 		.4byte	0x10e
 3082 09be 6C       		.byte	0x6c
 3083 09bf 10       		.uleb128 0x10
 3084 09c0 4D010000 		.4byte	.LASF165
 3085 09c4 05       		.byte	0x5
 3086 09c5 40       		.byte	0x40
 3087 09c6 77060000 		.4byte	0x677
 3088 09ca 70       		.byte	0x70
 3089 09cb 10       		.uleb128 0x10
 3090 09cc 36060000 		.4byte	.LASF166
 3091 09d0 05       		.byte	0x5
 3092 09d1 41       		.byte	0x41
 3093 09d2 77060000 		.4byte	0x677
 3094 09d6 84       		.byte	0x84
 3095 09d7 10       		.uleb128 0x10
 3096 09d8 E1080000 		.4byte	.LASF167
 3097 09dc 05       		.byte	0x5
 3098 09dd 42       		.byte	0x42
 3099 09de 0E010000 		.4byte	0x10e
 3100 09e2 98       		.byte	0x98
 3101 09e3 10       		.uleb128 0x10
 3102 09e4 4D000000 		.4byte	.LASF168
 3103 09e8 05       		.byte	0x5
 3104 09e9 43       		.byte	0x43
 3105 09ea DD000000 		.4byte	0xdd
 3106 09ee 9C       		.byte	0x9c
 3107 09ef 00       		.byte	0
 3108 09f0 04       		.uleb128 0x4
 3109 09f1 0D090000 		.4byte	.LASF169
 3110 09f5 05       		.byte	0x5
 3111 09f6 45       		.byte	0x45
 3112 09f7 67080000 		.4byte	0x867
 3113 09fb 11       		.uleb128 0x11
 3114 09fc 0C040000 		.4byte	.LASF170
 3115 0a00 01       		.byte	0x1
 3116 0a01 45       		.byte	0x45
 3117 0a02 E8000000 		.4byte	0xe8
ARM GAS  C:\Users\13740\AppData\Local\Temp\ccZrwIb5.s 			page 65


 3118 0a06 00000000 		.4byte	.LFB1
 3119 0a0a 28000000 		.4byte	.LFE1-.LFB1
 3120 0a0e 01       		.uleb128 0x1
 3121 0a0f 9C       		.byte	0x9c
 3122 0a10 230A0000 		.4byte	0xa23
 3123 0a14 12       		.uleb128 0x12
 3124 0a15 33050000 		.4byte	.LASF172
 3125 0a19 01       		.byte	0x1
 3126 0a1a 45       		.byte	0x45
 3127 0a1b A5000000 		.4byte	0xa5
 3128 0a1f 02       		.uleb128 0x2
 3129 0a20 91       		.byte	0x91
 3130 0a21 74       		.sleb128 -12
 3131 0a22 00       		.byte	0
 3132 0a23 13       		.uleb128 0x13
 3133 0a24 02070000 		.4byte	.LASF171
 3134 0a28 01       		.byte	0x1
 3135 0a29 4E       		.byte	0x4e
 3136 0a2a E8000000 		.4byte	0xe8
 3137 0a2e 00000000 		.4byte	.LFB2
 3138 0a32 04010000 		.4byte	.LFE2-.LFB2
 3139 0a36 01       		.uleb128 0x1
 3140 0a37 9C       		.byte	0x9c
 3141 0a38 9F0A0000 		.4byte	0xa9f
 3142 0a3c 12       		.uleb128 0x12
 3143 0a3d FD080000 		.4byte	.LASF173
 3144 0a41 01       		.byte	0x1
 3145 0a42 4E       		.byte	0x4e
 3146 0a43 D2000000 		.4byte	0xd2
 3147 0a47 03       		.uleb128 0x3
 3148 0a48 91       		.byte	0x91
 3149 0a49 9C7F     		.sleb128 -100
 3150 0a4b 12       		.uleb128 0x12
 3151 0a4c 61010000 		.4byte	.LASF174
 3152 0a50 01       		.byte	0x1
 3153 0a51 4E       		.byte	0x4e
 3154 0a52 A5000000 		.4byte	0xa5
 3155 0a56 03       		.uleb128 0x3
 3156 0a57 91       		.byte	0x91
 3157 0a58 987F     		.sleb128 -104
 3158 0a5a 14       		.uleb128 0x14
 3159 0a5b 22000000 		.4byte	.LBB2
 3160 0a5f 70000000 		.4byte	.LBE2-.LBB2
 3161 0a63 770A0000 		.4byte	0xa77
 3162 0a67 15       		.uleb128 0x15
 3163 0a68 C1010000 		.4byte	.LASF175
 3164 0a6c 01       		.byte	0x1
 3165 0a6d 54       		.byte	0x54
 3166 0a6e EE060000 		.4byte	0x6ee
 3167 0a72 03       		.uleb128 0x3
 3168 0a73 91       		.byte	0x91
 3169 0a74 A07F     		.sleb128 -96
 3170 0a76 00       		.byte	0
 3171 0a77 16       		.uleb128 0x16
 3172 0a78 B2000000 		.4byte	.LBB3
 3173 0a7c 3C000000 		.4byte	.LBE3-.LBB3
 3174 0a80 15       		.uleb128 0x15
ARM GAS  C:\Users\13740\AppData\Local\Temp\ccZrwIb5.s 			page 66


 3175 0a81 42020000 		.4byte	.LASF176
 3176 0a85 01       		.byte	0x1
 3177 0a86 77       		.byte	0x77
 3178 0a87 CD010000 		.4byte	0x1cd
 3179 0a8b 02       		.uleb128 0x2
 3180 0a8c 91       		.byte	0x91
 3181 0a8d 68       		.sleb128 -24
 3182 0a8e 15       		.uleb128 0x15
 3183 0a8f 45010000 		.4byte	.LASF177
 3184 0a93 01       		.byte	0x1
 3185 0a94 78       		.byte	0x78
 3186 0a95 03050000 		.4byte	0x503
 3187 0a99 03       		.uleb128 0x3
 3188 0a9a 91       		.byte	0x91
 3189 0a9b A07F     		.sleb128 -96
 3190 0a9d 00       		.byte	0
 3191 0a9e 00       		.byte	0
 3192 0a9f 17       		.uleb128 0x17
 3193 0aa0 D8060000 		.4byte	.LASF181
 3194 0aa4 01       		.byte	0x1
 3195 0aa5 87       		.byte	0x87
 3196 0aa6 E8000000 		.4byte	0xe8
 3197 0aaa 00000000 		.4byte	.LFB3
 3198 0aae 18030000 		.4byte	.LFE3-.LFB3
 3199 0ab2 01       		.uleb128 0x1
 3200 0ab3 9C       		.byte	0x9c
 3201 0ab4 1E0B0000 		.4byte	0xb1e
 3202 0ab8 15       		.uleb128 0x15
 3203 0ab9 7E010000 		.4byte	.LASF178
 3204 0abd 01       		.byte	0x1
 3205 0abe 89       		.byte	0x89
 3206 0abf E8000000 		.4byte	0xe8
 3207 0ac3 02       		.uleb128 0x2
 3208 0ac4 91       		.byte	0x91
 3209 0ac5 74       		.sleb128 -12
 3210 0ac6 15       		.uleb128 0x15
 3211 0ac7 7A090000 		.4byte	.LASF120
 3212 0acb 01       		.byte	0x1
 3213 0acc 8A       		.byte	0x8a
 3214 0acd 6C060000 		.4byte	0x66c
 3215 0ad1 02       		.uleb128 0x2
 3216 0ad2 91       		.byte	0x91
 3217 0ad3 70       		.sleb128 -16
 3218 0ad4 15       		.uleb128 0x15
 3219 0ad5 BB050000 		.4byte	.LASF118
 3220 0ad9 01       		.byte	0x1
 3221 0ada 8B       		.byte	0x8b
 3222 0adb DD000000 		.4byte	0xdd
 3223 0adf 02       		.uleb128 0x2
 3224 0ae0 91       		.byte	0x91
 3225 0ae1 6C       		.sleb128 -20
 3226 0ae2 15       		.uleb128 0x15
 3227 0ae3 42020000 		.4byte	.LASF176
 3228 0ae7 01       		.byte	0x1
 3229 0ae8 8D       		.byte	0x8d
 3230 0ae9 CD010000 		.4byte	0x1cd
 3231 0aed 02       		.uleb128 0x2
ARM GAS  C:\Users\13740\AppData\Local\Temp\ccZrwIb5.s 			page 67


 3232 0aee 91       		.byte	0x91
 3233 0aef 5C       		.sleb128 -36
 3234 0af0 15       		.uleb128 0x15
 3235 0af1 45010000 		.4byte	.LASF177
 3236 0af5 01       		.byte	0x1
 3237 0af6 8E       		.byte	0x8e
 3238 0af7 03050000 		.4byte	0x503
 3239 0afb 03       		.uleb128 0x3
 3240 0afc 91       		.byte	0x91
 3241 0afd A07F     		.sleb128 -96
 3242 0aff 15       		.uleb128 0x15
 3243 0b00 D0060000 		.4byte	.LASF179
 3244 0b04 01       		.byte	0x1
 3245 0b05 8F       		.byte	0x8f
 3246 0b06 5A050000 		.4byte	0x55a
 3247 0b0a 03       		.uleb128 0x3
 3248 0b0b 91       		.byte	0x91
 3249 0b0c DC7E     		.sleb128 -164
 3250 0b0e 15       		.uleb128 0x15
 3251 0b0f 20050000 		.4byte	.LASF180
 3252 0b13 01       		.byte	0x1
 3253 0b14 90       		.byte	0x90
 3254 0b15 BD030000 		.4byte	0x3bd
 3255 0b19 03       		.uleb128 0x3
 3256 0b1a 91       		.byte	0x91
 3257 0b1b CC7E     		.sleb128 -180
 3258 0b1d 00       		.byte	0
 3259 0b1e 17       		.uleb128 0x17
 3260 0b1f 22060000 		.4byte	.LASF182
 3261 0b23 01       		.byte	0x1
 3262 0b24 F3       		.byte	0xf3
 3263 0b25 E8000000 		.4byte	0xe8
 3264 0b29 00000000 		.4byte	.LFB4
 3265 0b2d 20010000 		.4byte	.LFE4-.LFB4
 3266 0b31 01       		.uleb128 0x1
 3267 0b32 9C       		.byte	0x9c
 3268 0b33 7E0B0000 		.4byte	0xb7e
 3269 0b37 15       		.uleb128 0x15
 3270 0b38 7E010000 		.4byte	.LASF178
 3271 0b3c 01       		.byte	0x1
 3272 0b3d F5       		.byte	0xf5
 3273 0b3e E8000000 		.4byte	0xe8
 3274 0b42 02       		.uleb128 0x2
 3275 0b43 91       		.byte	0x91
 3276 0b44 74       		.sleb128 -12
 3277 0b45 15       		.uleb128 0x15
 3278 0b46 7A090000 		.4byte	.LASF120
 3279 0b4a 01       		.byte	0x1
 3280 0b4b F6       		.byte	0xf6
 3281 0b4c 6C060000 		.4byte	0x66c
 3282 0b50 02       		.uleb128 0x2
 3283 0b51 91       		.byte	0x91
 3284 0b52 70       		.sleb128 -16
 3285 0b53 15       		.uleb128 0x15
 3286 0b54 BB050000 		.4byte	.LASF118
 3287 0b58 01       		.byte	0x1
 3288 0b59 F7       		.byte	0xf7
ARM GAS  C:\Users\13740\AppData\Local\Temp\ccZrwIb5.s 			page 68


 3289 0b5a DD000000 		.4byte	0xdd
 3290 0b5e 02       		.uleb128 0x2
 3291 0b5f 91       		.byte	0x91
 3292 0b60 6C       		.sleb128 -20
 3293 0b61 15       		.uleb128 0x15
 3294 0b62 3D080000 		.4byte	.LASF183
 3295 0b66 01       		.byte	0x1
 3296 0b67 F9       		.byte	0xf9
 3297 0b68 DD000000 		.4byte	0xdd
 3298 0b6c 02       		.uleb128 0x2
 3299 0b6d 91       		.byte	0x91
 3300 0b6e 68       		.sleb128 -24
 3301 0b6f 15       		.uleb128 0x15
 3302 0b70 C2070000 		.4byte	.LASF184
 3303 0b74 01       		.byte	0x1
 3304 0b75 FA       		.byte	0xfa
 3305 0b76 2B080000 		.4byte	0x82b
 3306 0b7a 02       		.uleb128 0x2
 3307 0b7b 91       		.byte	0x91
 3308 0b7c 48       		.sleb128 -56
 3309 0b7d 00       		.byte	0
 3310 0b7e 18       		.uleb128 0x18
 3311 0b7f 57030000 		.4byte	.LASF185
 3312 0b83 01       		.byte	0x1
 3313 0b84 1E01     		.2byte	0x11e
 3314 0b86 E8000000 		.4byte	0xe8
 3315 0b8a 00000000 		.4byte	.LFB5
 3316 0b8e C8000000 		.4byte	.LFE5-.LFB5
 3317 0b92 01       		.uleb128 0x1
 3318 0b93 9C       		.byte	0x9c
 3319 0b94 B80B0000 		.4byte	0xbb8
 3320 0b98 19       		.uleb128 0x19
 3321 0b99 34000000 		.4byte	.LASF159
 3322 0b9d 01       		.byte	0x1
 3323 0b9e 2001     		.2byte	0x120
 3324 0ba0 5B080000 		.4byte	0x85b
 3325 0ba4 02       		.uleb128 0x2
 3326 0ba5 91       		.byte	0x91
 3327 0ba6 70       		.sleb128 -16
 3328 0ba7 19       		.uleb128 0x19
 3329 0ba8 33030000 		.4byte	.LASF186
 3330 0bac 01       		.byte	0x1
 3331 0bad 2101     		.2byte	0x121
 3332 0baf A0070000 		.4byte	0x7a0
 3333 0bb3 03       		.uleb128 0x3
 3334 0bb4 91       		.byte	0x91
 3335 0bb5 B87F     		.sleb128 -72
 3336 0bb7 00       		.byte	0
 3337 0bb8 1A       		.uleb128 0x1a
 3338 0bb9 C3020000 		.4byte	.LASF187
 3339 0bbd 01       		.byte	0x1
 3340 0bbe 3701     		.2byte	0x137
 3341 0bc0 E8000000 		.4byte	0xe8
 3342 0bc4 00000000 		.4byte	.LFB6
 3343 0bc8 B4010000 		.4byte	.LFE6-.LFB6
 3344 0bcc 01       		.uleb128 0x1
 3345 0bcd 9C       		.byte	0x9c
ARM GAS  C:\Users\13740\AppData\Local\Temp\ccZrwIb5.s 			page 69


 3346 0bce 1E0C0000 		.4byte	0xc1e
 3347 0bd2 1B       		.uleb128 0x1b
 3348 0bd3 59010000 		.4byte	.LASF188
 3349 0bd7 01       		.byte	0x1
 3350 0bd8 3701     		.2byte	0x137
 3351 0bda 1E0C0000 		.4byte	0xc1e
 3352 0bde 02       		.uleb128 0x2
 3353 0bdf 91       		.byte	0x91
 3354 0be0 4C       		.sleb128 -52
 3355 0be1 1B       		.uleb128 0x1b
 3356 0be2 7C040000 		.4byte	.LASF189
 3357 0be6 01       		.byte	0x1
 3358 0be7 3701     		.2byte	0x137
 3359 0be9 DD000000 		.4byte	0xdd
 3360 0bed 02       		.uleb128 0x2
 3361 0bee 91       		.byte	0x91
 3362 0bef 48       		.sleb128 -56
 3363 0bf0 19       		.uleb128 0x19
 3364 0bf1 7E010000 		.4byte	.LASF178
 3365 0bf5 01       		.byte	0x1
 3366 0bf6 3901     		.2byte	0x139
 3367 0bf8 E8000000 		.4byte	0xe8
 3368 0bfc 02       		.uleb128 0x2
 3369 0bfd 91       		.byte	0x91
 3370 0bfe 74       		.sleb128 -12
 3371 0bff 19       		.uleb128 0x19
 3372 0c00 B3080000 		.4byte	.LASF190
 3373 0c04 01       		.byte	0x1
 3374 0c05 3A01     		.2byte	0x13a
 3375 0c07 15060000 		.4byte	0x615
 3376 0c0b 02       		.uleb128 0x2
 3377 0c0c 91       		.byte	0x91
 3378 0c0d 68       		.sleb128 -24
 3379 0c0e 19       		.uleb128 0x19
 3380 0c0f 82090000 		.4byte	.LASF191
 3381 0c13 01       		.byte	0x1
 3382 0c14 3B01     		.2byte	0x13b
 3383 0c16 B1050000 		.4byte	0x5b1
 3384 0c1a 02       		.uleb128 0x2
 3385 0c1b 91       		.byte	0x91
 3386 0c1c 54       		.sleb128 -44
 3387 0c1d 00       		.byte	0
 3388 0c1e 0B       		.uleb128 0xb
 3389 0c1f 04       		.byte	0x4
 3390 0c20 DD000000 		.4byte	0xdd
 3391 0c24 18       		.uleb128 0x18
 3392 0c25 45060000 		.4byte	.LASF192
 3393 0c29 01       		.byte	0x1
 3394 0c2a 8701     		.2byte	0x187
 3395 0c2c E8000000 		.4byte	0xe8
 3396 0c30 00000000 		.4byte	.LFB7
 3397 0c34 60000000 		.4byte	.LFE7-.LFB7
 3398 0c38 01       		.uleb128 0x1
 3399 0c39 9C       		.byte	0x9c
 3400 0c3a 5D0C0000 		.4byte	0xc5d
 3401 0c3e 1B       		.uleb128 0x1b
 3402 0c3f 2D030000 		.4byte	.LASF193
ARM GAS  C:\Users\13740\AppData\Local\Temp\ccZrwIb5.s 			page 70


 3403 0c43 01       		.byte	0x1
 3404 0c44 8701     		.2byte	0x187
 3405 0c46 630C0000 		.4byte	0xc63
 3406 0c4a 02       		.uleb128 0x2
 3407 0c4b 91       		.byte	0x91
 3408 0c4c 74       		.sleb128 -12
 3409 0c4d 1B       		.uleb128 0x1b
 3410 0c4e 65030000 		.4byte	.LASF194
 3411 0c52 01       		.byte	0x1
 3412 0c53 8701     		.2byte	0x187
 3413 0c55 1E0C0000 		.4byte	0xc1e
 3414 0c59 02       		.uleb128 0x2
 3415 0c5a 91       		.byte	0x91
 3416 0c5b 70       		.sleb128 -16
 3417 0c5c 00       		.byte	0
 3418 0c5d 0B       		.uleb128 0xb
 3419 0c5e 04       		.byte	0x4
 3420 0c5f D2000000 		.4byte	0xd2
 3421 0c63 0C       		.uleb128 0xc
 3422 0c64 5D0C0000 		.4byte	0xc5d
 3423 0c68 18       		.uleb128 0x18
 3424 0c69 CE050000 		.4byte	.LASF195
 3425 0c6d 01       		.byte	0x1
 3426 0c6e 9C01     		.2byte	0x19c
 3427 0c70 E8000000 		.4byte	0xe8
 3428 0c74 00000000 		.4byte	.LFB8
 3429 0c78 66000000 		.4byte	.LFE8-.LFB8
 3430 0c7c 01       		.uleb128 0x1
 3431 0c7d 9C       		.byte	0x9c
 3432 0c7e CC0C0000 		.4byte	0xccc
 3433 0c82 1B       		.uleb128 0x1b
 3434 0c83 2D030000 		.4byte	.LASF193
 3435 0c87 01       		.byte	0x1
 3436 0c88 9C01     		.2byte	0x19c
 3437 0c8a 630C0000 		.4byte	0xc63
 3438 0c8e 02       		.uleb128 0x2
 3439 0c8f 91       		.byte	0x91
 3440 0c90 5C       		.sleb128 -36
 3441 0c91 1B       		.uleb128 0x1b
 3442 0c92 65030000 		.4byte	.LASF194
 3443 0c96 01       		.byte	0x1
 3444 0c97 9C01     		.2byte	0x19c
 3445 0c99 1E0C0000 		.4byte	0xc1e
 3446 0c9d 02       		.uleb128 0x2
 3447 0c9e 91       		.byte	0x91
 3448 0c9f 58       		.sleb128 -40
 3449 0ca0 1C       		.uleb128 0x1c
 3450 0ca1 6900     		.ascii	"i\000"
 3451 0ca3 01       		.byte	0x1
 3452 0ca4 9E01     		.2byte	0x19e
 3453 0ca6 DD000000 		.4byte	0xdd
 3454 0caa 02       		.uleb128 0x2
 3455 0cab 91       		.byte	0x91
 3456 0cac 6C       		.sleb128 -20
 3457 0cad 19       		.uleb128 0x19
 3458 0cae B1050000 		.4byte	.LASF196
 3459 0cb2 01       		.byte	0x1
ARM GAS  C:\Users\13740\AppData\Local\Temp\ccZrwIb5.s 			page 71


 3460 0cb3 9E01     		.2byte	0x19e
 3461 0cb5 DD000000 		.4byte	0xdd
 3462 0cb9 02       		.uleb128 0x2
 3463 0cba 91       		.byte	0x91
 3464 0cbb 68       		.sleb128 -24
 3465 0cbc 19       		.uleb128 0x19
 3466 0cbd 1A030000 		.4byte	.LASF197
 3467 0cc1 01       		.byte	0x1
 3468 0cc2 A001     		.2byte	0x1a0
 3469 0cc4 CC0C0000 		.4byte	0xccc
 3470 0cc8 02       		.uleb128 0x2
 3471 0cc9 91       		.byte	0x91
 3472 0cca 64       		.sleb128 -28
 3473 0ccb 00       		.byte	0
 3474 0ccc 0B       		.uleb128 0xb
 3475 0ccd 04       		.byte	0x4
 3476 0cce B5000000 		.4byte	0xb5
 3477 0cd2 1A       		.uleb128 0x1a
 3478 0cd3 06000000 		.4byte	.LASF198
 3479 0cd7 01       		.byte	0x1
 3480 0cd8 AC01     		.2byte	0x1ac
 3481 0cda E8000000 		.4byte	0xe8
 3482 0cde 00000000 		.4byte	.LFB9
 3483 0ce2 94000000 		.4byte	.LFE9-.LFB9
 3484 0ce6 01       		.uleb128 0x1
 3485 0ce7 9C       		.byte	0x9c
 3486 0ce8 1A0D0000 		.4byte	0xd1a
 3487 0cec 1B       		.uleb128 0x1b
 3488 0ced 46080000 		.4byte	.LASF199
 3489 0cf1 01       		.byte	0x1
 3490 0cf2 AC01     		.2byte	0x1ac
 3491 0cf4 A5000000 		.4byte	0xa5
 3492 0cf8 02       		.uleb128 0x2
 3493 0cf9 91       		.byte	0x91
 3494 0cfa 6C       		.sleb128 -20
 3495 0cfb 1B       		.uleb128 0x1b
 3496 0cfc FB060000 		.4byte	.LASF200
 3497 0d00 01       		.byte	0x1
 3498 0d01 AC01     		.2byte	0x1ac
 3499 0d03 1E0C0000 		.4byte	0xc1e
 3500 0d07 02       		.uleb128 0x2
 3501 0d08 91       		.byte	0x91
 3502 0d09 68       		.sleb128 -24
 3503 0d0a 19       		.uleb128 0x19
 3504 0d0b 07050000 		.4byte	.LASF201
 3505 0d0f 01       		.byte	0x1
 3506 0d10 AE01     		.2byte	0x1ae
 3507 0d12 DD000000 		.4byte	0xdd
 3508 0d16 02       		.uleb128 0x2
 3509 0d17 91       		.byte	0x91
 3510 0d18 74       		.sleb128 -12
 3511 0d19 00       		.byte	0
 3512 0d1a 1A       		.uleb128 0x1a
 3513 0d1b E2010000 		.4byte	.LASF202
 3514 0d1f 01       		.byte	0x1
 3515 0d20 C701     		.2byte	0x1c7
 3516 0d22 B5000000 		.4byte	0xb5
ARM GAS  C:\Users\13740\AppData\Local\Temp\ccZrwIb5.s 			page 72


 3517 0d26 00000000 		.4byte	.LFB10
 3518 0d2a 78010000 		.4byte	.LFE10-.LFB10
 3519 0d2e 01       		.uleb128 0x1
 3520 0d2f 9C       		.byte	0x9c
 3521 0d30 710D0000 		.4byte	0xd71
 3522 0d34 1B       		.uleb128 0x1b
 3523 0d35 FF040000 		.4byte	.LASF203
 3524 0d39 01       		.byte	0x1
 3525 0d3a C701     		.2byte	0x1c7
 3526 0d3c DD000000 		.4byte	0xdd
 3527 0d40 02       		.uleb128 0x2
 3528 0d41 91       		.byte	0x91
 3529 0d42 5C       		.sleb128 -36
 3530 0d43 19       		.uleb128 0x19
 3531 0d44 4D020000 		.4byte	.LASF204
 3532 0d48 01       		.byte	0x1
 3533 0d49 C901     		.2byte	0x1c9
 3534 0d4b B5000000 		.4byte	0xb5
 3535 0d4f 02       		.uleb128 0x2
 3536 0d50 91       		.byte	0x91
 3537 0d51 68       		.sleb128 -24
 3538 0d52 19       		.uleb128 0x19
 3539 0d53 CE020000 		.4byte	.LASF205
 3540 0d57 01       		.byte	0x1
 3541 0d58 CA01     		.2byte	0x1ca
 3542 0d5a B5000000 		.4byte	0xb5
 3543 0d5e 02       		.uleb128 0x2
 3544 0d5f 91       		.byte	0x91
 3545 0d60 6C       		.sleb128 -20
 3546 0d61 1C       		.uleb128 0x1c
 3547 0d62 746D7000 		.ascii	"tmp\000"
 3548 0d66 01       		.byte	0x1
 3549 0d67 CB01     		.2byte	0x1cb
 3550 0d69 D2000000 		.4byte	0xd2
 3551 0d6d 02       		.uleb128 0x2
 3552 0d6e 91       		.byte	0x91
 3553 0d6f 64       		.sleb128 -28
 3554 0d70 00       		.byte	0
 3555 0d71 1A       		.uleb128 0x1a
 3556 0d72 87000000 		.4byte	.LASF206
 3557 0d76 01       		.byte	0x1
 3558 0d77 E201     		.2byte	0x1e2
 3559 0d79 B5000000 		.4byte	0xb5
 3560 0d7d 00000000 		.4byte	.LFB11
 3561 0d81 18000000 		.4byte	.LFE11-.LFB11
 3562 0d85 01       		.uleb128 0x1
 3563 0d86 9C       		.byte	0x9c
 3564 0d87 9B0D0000 		.4byte	0xd9b
 3565 0d8b 1B       		.uleb128 0x1b
 3566 0d8c FF040000 		.4byte	.LASF203
 3567 0d90 01       		.byte	0x1
 3568 0d91 E201     		.2byte	0x1e2
 3569 0d93 DD000000 		.4byte	0xdd
 3570 0d97 02       		.uleb128 0x2
 3571 0d98 91       		.byte	0x91
 3572 0d99 74       		.sleb128 -12
 3573 0d9a 00       		.byte	0
ARM GAS  C:\Users\13740\AppData\Local\Temp\ccZrwIb5.s 			page 73


 3574 0d9b 1D       		.uleb128 0x1d
 3575 0d9c 0F080000 		.4byte	.LASF210
 3576 0da0 01       		.byte	0x1
 3577 0da1 18       		.byte	0x18
 3578 0da2 F0090000 		.4byte	0x9f0
 3579 0da6 05       		.uleb128 0x5
 3580 0da7 03       		.byte	0x3
 3581 0da8 00000000 		.4byte	AppAMPCfg
 3582 0dac 00       		.byte	0
 3583              		.section	.debug_abbrev,"",%progbits
 3584              	.Ldebug_abbrev0:
 3585 0000 01       		.uleb128 0x1
 3586 0001 11       		.uleb128 0x11
 3587 0002 01       		.byte	0x1
 3588 0003 25       		.uleb128 0x25
 3589 0004 0E       		.uleb128 0xe
 3590 0005 13       		.uleb128 0x13
 3591 0006 0B       		.uleb128 0xb
 3592 0007 03       		.uleb128 0x3
 3593 0008 0E       		.uleb128 0xe
 3594 0009 1B       		.uleb128 0x1b
 3595 000a 0E       		.uleb128 0xe
 3596 000b 55       		.uleb128 0x55
 3597 000c 17       		.uleb128 0x17
 3598 000d 11       		.uleb128 0x11
 3599 000e 01       		.uleb128 0x1
 3600 000f 10       		.uleb128 0x10
 3601 0010 17       		.uleb128 0x17
 3602 0011 00       		.byte	0
 3603 0012 00       		.byte	0
 3604 0013 02       		.uleb128 0x2
 3605 0014 24       		.uleb128 0x24
 3606 0015 00       		.byte	0
 3607 0016 0B       		.uleb128 0xb
 3608 0017 0B       		.uleb128 0xb
 3609 0018 3E       		.uleb128 0x3e
 3610 0019 0B       		.uleb128 0xb
 3611 001a 03       		.uleb128 0x3
 3612 001b 08       		.uleb128 0x8
 3613 001c 00       		.byte	0
 3614 001d 00       		.byte	0
 3615 001e 03       		.uleb128 0x3
 3616 001f 24       		.uleb128 0x24
 3617 0020 00       		.byte	0
 3618 0021 0B       		.uleb128 0xb
 3619 0022 0B       		.uleb128 0xb
 3620 0023 3E       		.uleb128 0x3e
 3621 0024 0B       		.uleb128 0xb
 3622 0025 03       		.uleb128 0x3
 3623 0026 0E       		.uleb128 0xe
 3624 0027 00       		.byte	0
 3625 0028 00       		.byte	0
 3626 0029 04       		.uleb128 0x4
 3627 002a 16       		.uleb128 0x16
 3628 002b 00       		.byte	0
 3629 002c 03       		.uleb128 0x3
 3630 002d 0E       		.uleb128 0xe
ARM GAS  C:\Users\13740\AppData\Local\Temp\ccZrwIb5.s 			page 74


 3631 002e 3A       		.uleb128 0x3a
 3632 002f 0B       		.uleb128 0xb
 3633 0030 3B       		.uleb128 0x3b
 3634 0031 0B       		.uleb128 0xb
 3635 0032 49       		.uleb128 0x49
 3636 0033 13       		.uleb128 0x13
 3637 0034 00       		.byte	0
 3638 0035 00       		.byte	0
 3639 0036 05       		.uleb128 0x5
 3640 0037 0F       		.uleb128 0xf
 3641 0038 00       		.byte	0
 3642 0039 0B       		.uleb128 0xb
 3643 003a 0B       		.uleb128 0xb
 3644 003b 00       		.byte	0
 3645 003c 00       		.byte	0
 3646 003d 06       		.uleb128 0x6
 3647 003e 16       		.uleb128 0x16
 3648 003f 00       		.byte	0
 3649 0040 03       		.uleb128 0x3
 3650 0041 0E       		.uleb128 0xe
 3651 0042 3A       		.uleb128 0x3a
 3652 0043 0B       		.uleb128 0xb
 3653 0044 3B       		.uleb128 0x3b
 3654 0045 05       		.uleb128 0x5
 3655 0046 49       		.uleb128 0x49
 3656 0047 13       		.uleb128 0x13
 3657 0048 00       		.byte	0
 3658 0049 00       		.byte	0
 3659 004a 07       		.uleb128 0x7
 3660 004b 04       		.uleb128 0x4
 3661 004c 01       		.byte	0x1
 3662 004d 0B       		.uleb128 0xb
 3663 004e 0B       		.uleb128 0xb
 3664 004f 49       		.uleb128 0x49
 3665 0050 13       		.uleb128 0x13
 3666 0051 3A       		.uleb128 0x3a
 3667 0052 0B       		.uleb128 0xb
 3668 0053 3B       		.uleb128 0x3b
 3669 0054 05       		.uleb128 0x5
 3670 0055 01       		.uleb128 0x1
 3671 0056 13       		.uleb128 0x13
 3672 0057 00       		.byte	0
 3673 0058 00       		.byte	0
 3674 0059 08       		.uleb128 0x8
 3675 005a 28       		.uleb128 0x28
 3676 005b 00       		.byte	0
 3677 005c 03       		.uleb128 0x3
 3678 005d 0E       		.uleb128 0xe
 3679 005e 1C       		.uleb128 0x1c
 3680 005f 0B       		.uleb128 0xb
 3681 0060 00       		.byte	0
 3682 0061 00       		.byte	0
 3683 0062 09       		.uleb128 0x9
 3684 0063 13       		.uleb128 0x13
 3685 0064 01       		.byte	0x1
 3686 0065 0B       		.uleb128 0xb
 3687 0066 0B       		.uleb128 0xb
ARM GAS  C:\Users\13740\AppData\Local\Temp\ccZrwIb5.s 			page 75


 3688 0067 3A       		.uleb128 0x3a
 3689 0068 0B       		.uleb128 0xb
 3690 0069 3B       		.uleb128 0x3b
 3691 006a 05       		.uleb128 0x5
 3692 006b 01       		.uleb128 0x1
 3693 006c 13       		.uleb128 0x13
 3694 006d 00       		.byte	0
 3695 006e 00       		.byte	0
 3696 006f 0A       		.uleb128 0xa
 3697 0070 0D       		.uleb128 0xd
 3698 0071 00       		.byte	0
 3699 0072 03       		.uleb128 0x3
 3700 0073 0E       		.uleb128 0xe
 3701 0074 3A       		.uleb128 0x3a
 3702 0075 0B       		.uleb128 0xb
 3703 0076 3B       		.uleb128 0x3b
 3704 0077 05       		.uleb128 0x5
 3705 0078 49       		.uleb128 0x49
 3706 0079 13       		.uleb128 0x13
 3707 007a 38       		.uleb128 0x38
 3708 007b 0B       		.uleb128 0xb
 3709 007c 00       		.byte	0
 3710 007d 00       		.byte	0
 3711 007e 0B       		.uleb128 0xb
 3712 007f 0F       		.uleb128 0xf
 3713 0080 00       		.byte	0
 3714 0081 0B       		.uleb128 0xb
 3715 0082 0B       		.uleb128 0xb
 3716 0083 49       		.uleb128 0x49
 3717 0084 13       		.uleb128 0x13
 3718 0085 00       		.byte	0
 3719 0086 00       		.byte	0
 3720 0087 0C       		.uleb128 0xc
 3721 0088 26       		.uleb128 0x26
 3722 0089 00       		.byte	0
 3723 008a 49       		.uleb128 0x49
 3724 008b 13       		.uleb128 0x13
 3725 008c 00       		.byte	0
 3726 008d 00       		.byte	0
 3727 008e 0D       		.uleb128 0xd
 3728 008f 01       		.uleb128 0x1
 3729 0090 01       		.byte	0x1
 3730 0091 49       		.uleb128 0x49
 3731 0092 13       		.uleb128 0x13
 3732 0093 01       		.uleb128 0x1
 3733 0094 13       		.uleb128 0x13
 3734 0095 00       		.byte	0
 3735 0096 00       		.byte	0
 3736 0097 0E       		.uleb128 0xe
 3737 0098 21       		.uleb128 0x21
 3738 0099 00       		.byte	0
 3739 009a 49       		.uleb128 0x49
 3740 009b 13       		.uleb128 0x13
 3741 009c 2F       		.uleb128 0x2f
 3742 009d 0B       		.uleb128 0xb
 3743 009e 00       		.byte	0
 3744 009f 00       		.byte	0
ARM GAS  C:\Users\13740\AppData\Local\Temp\ccZrwIb5.s 			page 76


 3745 00a0 0F       		.uleb128 0xf
 3746 00a1 13       		.uleb128 0x13
 3747 00a2 01       		.byte	0x1
 3748 00a3 0B       		.uleb128 0xb
 3749 00a4 0B       		.uleb128 0xb
 3750 00a5 3A       		.uleb128 0x3a
 3751 00a6 0B       		.uleb128 0xb
 3752 00a7 3B       		.uleb128 0x3b
 3753 00a8 0B       		.uleb128 0xb
 3754 00a9 01       		.uleb128 0x1
 3755 00aa 13       		.uleb128 0x13
 3756 00ab 00       		.byte	0
 3757 00ac 00       		.byte	0
 3758 00ad 10       		.uleb128 0x10
 3759 00ae 0D       		.uleb128 0xd
 3760 00af 00       		.byte	0
 3761 00b0 03       		.uleb128 0x3
 3762 00b1 0E       		.uleb128 0xe
 3763 00b2 3A       		.uleb128 0x3a
 3764 00b3 0B       		.uleb128 0xb
 3765 00b4 3B       		.uleb128 0x3b
 3766 00b5 0B       		.uleb128 0xb
 3767 00b6 49       		.uleb128 0x49
 3768 00b7 13       		.uleb128 0x13
 3769 00b8 38       		.uleb128 0x38
 3770 00b9 0B       		.uleb128 0xb
 3771 00ba 00       		.byte	0
 3772 00bb 00       		.byte	0
 3773 00bc 11       		.uleb128 0x11
 3774 00bd 2E       		.uleb128 0x2e
 3775 00be 01       		.byte	0x1
 3776 00bf 3F       		.uleb128 0x3f
 3777 00c0 19       		.uleb128 0x19
 3778 00c1 03       		.uleb128 0x3
 3779 00c2 0E       		.uleb128 0xe
 3780 00c3 3A       		.uleb128 0x3a
 3781 00c4 0B       		.uleb128 0xb
 3782 00c5 3B       		.uleb128 0x3b
 3783 00c6 0B       		.uleb128 0xb
 3784 00c7 27       		.uleb128 0x27
 3785 00c8 19       		.uleb128 0x19
 3786 00c9 49       		.uleb128 0x49
 3787 00ca 13       		.uleb128 0x13
 3788 00cb 11       		.uleb128 0x11
 3789 00cc 01       		.uleb128 0x1
 3790 00cd 12       		.uleb128 0x12
 3791 00ce 06       		.uleb128 0x6
 3792 00cf 40       		.uleb128 0x40
 3793 00d0 18       		.uleb128 0x18
 3794 00d1 9742     		.uleb128 0x2117
 3795 00d3 19       		.uleb128 0x19
 3796 00d4 01       		.uleb128 0x1
 3797 00d5 13       		.uleb128 0x13
 3798 00d6 00       		.byte	0
 3799 00d7 00       		.byte	0
 3800 00d8 12       		.uleb128 0x12
 3801 00d9 05       		.uleb128 0x5
ARM GAS  C:\Users\13740\AppData\Local\Temp\ccZrwIb5.s 			page 77


 3802 00da 00       		.byte	0
 3803 00db 03       		.uleb128 0x3
 3804 00dc 0E       		.uleb128 0xe
 3805 00dd 3A       		.uleb128 0x3a
 3806 00de 0B       		.uleb128 0xb
 3807 00df 3B       		.uleb128 0x3b
 3808 00e0 0B       		.uleb128 0xb
 3809 00e1 49       		.uleb128 0x49
 3810 00e2 13       		.uleb128 0x13
 3811 00e3 02       		.uleb128 0x2
 3812 00e4 18       		.uleb128 0x18
 3813 00e5 00       		.byte	0
 3814 00e6 00       		.byte	0
 3815 00e7 13       		.uleb128 0x13
 3816 00e8 2E       		.uleb128 0x2e
 3817 00e9 01       		.byte	0x1
 3818 00ea 3F       		.uleb128 0x3f
 3819 00eb 19       		.uleb128 0x19
 3820 00ec 03       		.uleb128 0x3
 3821 00ed 0E       		.uleb128 0xe
 3822 00ee 3A       		.uleb128 0x3a
 3823 00ef 0B       		.uleb128 0xb
 3824 00f0 3B       		.uleb128 0x3b
 3825 00f1 0B       		.uleb128 0xb
 3826 00f2 27       		.uleb128 0x27
 3827 00f3 19       		.uleb128 0x19
 3828 00f4 49       		.uleb128 0x49
 3829 00f5 13       		.uleb128 0x13
 3830 00f6 11       		.uleb128 0x11
 3831 00f7 01       		.uleb128 0x1
 3832 00f8 12       		.uleb128 0x12
 3833 00f9 06       		.uleb128 0x6
 3834 00fa 40       		.uleb128 0x40
 3835 00fb 18       		.uleb128 0x18
 3836 00fc 9642     		.uleb128 0x2116
 3837 00fe 19       		.uleb128 0x19
 3838 00ff 01       		.uleb128 0x1
 3839 0100 13       		.uleb128 0x13
 3840 0101 00       		.byte	0
 3841 0102 00       		.byte	0
 3842 0103 14       		.uleb128 0x14
 3843 0104 0B       		.uleb128 0xb
 3844 0105 01       		.byte	0x1
 3845 0106 11       		.uleb128 0x11
 3846 0107 01       		.uleb128 0x1
 3847 0108 12       		.uleb128 0x12
 3848 0109 06       		.uleb128 0x6
 3849 010a 01       		.uleb128 0x1
 3850 010b 13       		.uleb128 0x13
 3851 010c 00       		.byte	0
 3852 010d 00       		.byte	0
 3853 010e 15       		.uleb128 0x15
 3854 010f 34       		.uleb128 0x34
 3855 0110 00       		.byte	0
 3856 0111 03       		.uleb128 0x3
 3857 0112 0E       		.uleb128 0xe
 3858 0113 3A       		.uleb128 0x3a
ARM GAS  C:\Users\13740\AppData\Local\Temp\ccZrwIb5.s 			page 78


 3859 0114 0B       		.uleb128 0xb
 3860 0115 3B       		.uleb128 0x3b
 3861 0116 0B       		.uleb128 0xb
 3862 0117 49       		.uleb128 0x49
 3863 0118 13       		.uleb128 0x13
 3864 0119 02       		.uleb128 0x2
 3865 011a 18       		.uleb128 0x18
 3866 011b 00       		.byte	0
 3867 011c 00       		.byte	0
 3868 011d 16       		.uleb128 0x16
 3869 011e 0B       		.uleb128 0xb
 3870 011f 01       		.byte	0x1
 3871 0120 11       		.uleb128 0x11
 3872 0121 01       		.uleb128 0x1
 3873 0122 12       		.uleb128 0x12
 3874 0123 06       		.uleb128 0x6
 3875 0124 00       		.byte	0
 3876 0125 00       		.byte	0
 3877 0126 17       		.uleb128 0x17
 3878 0127 2E       		.uleb128 0x2e
 3879 0128 01       		.byte	0x1
 3880 0129 03       		.uleb128 0x3
 3881 012a 0E       		.uleb128 0xe
 3882 012b 3A       		.uleb128 0x3a
 3883 012c 0B       		.uleb128 0xb
 3884 012d 3B       		.uleb128 0x3b
 3885 012e 0B       		.uleb128 0xb
 3886 012f 27       		.uleb128 0x27
 3887 0130 19       		.uleb128 0x19
 3888 0131 49       		.uleb128 0x49
 3889 0132 13       		.uleb128 0x13
 3890 0133 11       		.uleb128 0x11
 3891 0134 01       		.uleb128 0x1
 3892 0135 12       		.uleb128 0x12
 3893 0136 06       		.uleb128 0x6
 3894 0137 40       		.uleb128 0x40
 3895 0138 18       		.uleb128 0x18
 3896 0139 9642     		.uleb128 0x2116
 3897 013b 19       		.uleb128 0x19
 3898 013c 01       		.uleb128 0x1
 3899 013d 13       		.uleb128 0x13
 3900 013e 00       		.byte	0
 3901 013f 00       		.byte	0
 3902 0140 18       		.uleb128 0x18
 3903 0141 2E       		.uleb128 0x2e
 3904 0142 01       		.byte	0x1
 3905 0143 03       		.uleb128 0x3
 3906 0144 0E       		.uleb128 0xe
 3907 0145 3A       		.uleb128 0x3a
 3908 0146 0B       		.uleb128 0xb
 3909 0147 3B       		.uleb128 0x3b
 3910 0148 05       		.uleb128 0x5
 3911 0149 27       		.uleb128 0x27
 3912 014a 19       		.uleb128 0x19
 3913 014b 49       		.uleb128 0x49
 3914 014c 13       		.uleb128 0x13
 3915 014d 11       		.uleb128 0x11
ARM GAS  C:\Users\13740\AppData\Local\Temp\ccZrwIb5.s 			page 79


 3916 014e 01       		.uleb128 0x1
 3917 014f 12       		.uleb128 0x12
 3918 0150 06       		.uleb128 0x6
 3919 0151 40       		.uleb128 0x40
 3920 0152 18       		.uleb128 0x18
 3921 0153 9642     		.uleb128 0x2116
 3922 0155 19       		.uleb128 0x19
 3923 0156 01       		.uleb128 0x1
 3924 0157 13       		.uleb128 0x13
 3925 0158 00       		.byte	0
 3926 0159 00       		.byte	0
 3927 015a 19       		.uleb128 0x19
 3928 015b 34       		.uleb128 0x34
 3929 015c 00       		.byte	0
 3930 015d 03       		.uleb128 0x3
 3931 015e 0E       		.uleb128 0xe
 3932 015f 3A       		.uleb128 0x3a
 3933 0160 0B       		.uleb128 0xb
 3934 0161 3B       		.uleb128 0x3b
 3935 0162 05       		.uleb128 0x5
 3936 0163 49       		.uleb128 0x49
 3937 0164 13       		.uleb128 0x13
 3938 0165 02       		.uleb128 0x2
 3939 0166 18       		.uleb128 0x18
 3940 0167 00       		.byte	0
 3941 0168 00       		.byte	0
 3942 0169 1A       		.uleb128 0x1a
 3943 016a 2E       		.uleb128 0x2e
 3944 016b 01       		.byte	0x1
 3945 016c 3F       		.uleb128 0x3f
 3946 016d 19       		.uleb128 0x19
 3947 016e 03       		.uleb128 0x3
 3948 016f 0E       		.uleb128 0xe
 3949 0170 3A       		.uleb128 0x3a
 3950 0171 0B       		.uleb128 0xb
 3951 0172 3B       		.uleb128 0x3b
 3952 0173 05       		.uleb128 0x5
 3953 0174 27       		.uleb128 0x27
 3954 0175 19       		.uleb128 0x19
 3955 0176 49       		.uleb128 0x49
 3956 0177 13       		.uleb128 0x13
 3957 0178 11       		.uleb128 0x11
 3958 0179 01       		.uleb128 0x1
 3959 017a 12       		.uleb128 0x12
 3960 017b 06       		.uleb128 0x6
 3961 017c 40       		.uleb128 0x40
 3962 017d 18       		.uleb128 0x18
 3963 017e 9642     		.uleb128 0x2116
 3964 0180 19       		.uleb128 0x19
 3965 0181 01       		.uleb128 0x1
 3966 0182 13       		.uleb128 0x13
 3967 0183 00       		.byte	0
 3968 0184 00       		.byte	0
 3969 0185 1B       		.uleb128 0x1b
 3970 0186 05       		.uleb128 0x5
 3971 0187 00       		.byte	0
 3972 0188 03       		.uleb128 0x3
ARM GAS  C:\Users\13740\AppData\Local\Temp\ccZrwIb5.s 			page 80


 3973 0189 0E       		.uleb128 0xe
 3974 018a 3A       		.uleb128 0x3a
 3975 018b 0B       		.uleb128 0xb
 3976 018c 3B       		.uleb128 0x3b
 3977 018d 05       		.uleb128 0x5
 3978 018e 49       		.uleb128 0x49
 3979 018f 13       		.uleb128 0x13
 3980 0190 02       		.uleb128 0x2
 3981 0191 18       		.uleb128 0x18
 3982 0192 00       		.byte	0
 3983 0193 00       		.byte	0
 3984 0194 1C       		.uleb128 0x1c
 3985 0195 34       		.uleb128 0x34
 3986 0196 00       		.byte	0
 3987 0197 03       		.uleb128 0x3
 3988 0198 08       		.uleb128 0x8
 3989 0199 3A       		.uleb128 0x3a
 3990 019a 0B       		.uleb128 0xb
 3991 019b 3B       		.uleb128 0x3b
 3992 019c 05       		.uleb128 0x5
 3993 019d 49       		.uleb128 0x49
 3994 019e 13       		.uleb128 0x13
 3995 019f 02       		.uleb128 0x2
 3996 01a0 18       		.uleb128 0x18
 3997 01a1 00       		.byte	0
 3998 01a2 00       		.byte	0
 3999 01a3 1D       		.uleb128 0x1d
 4000 01a4 34       		.uleb128 0x34
 4001 01a5 00       		.byte	0
 4002 01a6 03       		.uleb128 0x3
 4003 01a7 0E       		.uleb128 0xe
 4004 01a8 3A       		.uleb128 0x3a
 4005 01a9 0B       		.uleb128 0xb
 4006 01aa 3B       		.uleb128 0x3b
 4007 01ab 0B       		.uleb128 0xb
 4008 01ac 49       		.uleb128 0x49
 4009 01ad 13       		.uleb128 0x13
 4010 01ae 3F       		.uleb128 0x3f
 4011 01af 19       		.uleb128 0x19
 4012 01b0 02       		.uleb128 0x2
 4013 01b1 18       		.uleb128 0x18
 4014 01b2 00       		.byte	0
 4015 01b3 00       		.byte	0
 4016 01b4 00       		.byte	0
 4017              		.section	.debug_aranges,"",%progbits
 4018 0000 6C000000 		.4byte	0x6c
 4019 0004 0200     		.2byte	0x2
 4020 0006 00000000 		.4byte	.Ldebug_info0
 4021 000a 04       		.byte	0x4
 4022 000b 00       		.byte	0
 4023 000c 0000     		.2byte	0
 4024 000e 0000     		.2byte	0
 4025 0010 00000000 		.4byte	.LFB1
 4026 0014 28000000 		.4byte	.LFE1-.LFB1
 4027 0018 00000000 		.4byte	.LFB2
 4028 001c 04010000 		.4byte	.LFE2-.LFB2
 4029 0020 00000000 		.4byte	.LFB3
ARM GAS  C:\Users\13740\AppData\Local\Temp\ccZrwIb5.s 			page 81


 4030 0024 18030000 		.4byte	.LFE3-.LFB3
 4031 0028 00000000 		.4byte	.LFB4
 4032 002c 20010000 		.4byte	.LFE4-.LFB4
 4033 0030 00000000 		.4byte	.LFB5
 4034 0034 C8000000 		.4byte	.LFE5-.LFB5
 4035 0038 00000000 		.4byte	.LFB6
 4036 003c B4010000 		.4byte	.LFE6-.LFB6
 4037 0040 00000000 		.4byte	.LFB7
 4038 0044 60000000 		.4byte	.LFE7-.LFB7
 4039 0048 00000000 		.4byte	.LFB8
 4040 004c 66000000 		.4byte	.LFE8-.LFB8
 4041 0050 00000000 		.4byte	.LFB9
 4042 0054 94000000 		.4byte	.LFE9-.LFB9
 4043 0058 00000000 		.4byte	.LFB10
 4044 005c 78010000 		.4byte	.LFE10-.LFB10
 4045 0060 00000000 		.4byte	.LFB11
 4046 0064 18000000 		.4byte	.LFE11-.LFB11
 4047 0068 00000000 		.4byte	0
 4048 006c 00000000 		.4byte	0
 4049              		.section	.debug_ranges,"",%progbits
 4050              	.Ldebug_ranges0:
 4051 0000 00000000 		.4byte	.LFB1
 4052 0004 28000000 		.4byte	.LFE1
 4053 0008 00000000 		.4byte	.LFB2
 4054 000c 04010000 		.4byte	.LFE2
 4055 0010 00000000 		.4byte	.LFB3
 4056 0014 18030000 		.4byte	.LFE3
 4057 0018 00000000 		.4byte	.LFB4
 4058 001c 20010000 		.4byte	.LFE4
 4059 0020 00000000 		.4byte	.LFB5
 4060 0024 C8000000 		.4byte	.LFE5
 4061 0028 00000000 		.4byte	.LFB6
 4062 002c B4010000 		.4byte	.LFE6
 4063 0030 00000000 		.4byte	.LFB7
 4064 0034 60000000 		.4byte	.LFE7
 4065 0038 00000000 		.4byte	.LFB8
 4066 003c 66000000 		.4byte	.LFE8
 4067 0040 00000000 		.4byte	.LFB9
 4068 0044 94000000 		.4byte	.LFE9
 4069 0048 00000000 		.4byte	.LFB10
 4070 004c 78010000 		.4byte	.LFE10
 4071 0050 00000000 		.4byte	.LFB11
 4072 0054 18000000 		.4byte	.LFE11
 4073 0058 00000000 		.4byte	0
 4074 005c 00000000 		.4byte	0
 4075              		.section	.debug_line,"",%progbits
 4076              	.Ldebug_line0:
 4077 0000 3B030000 		.section	.debug_str,"MS",%progbits,1
 4077      02001A01 
 4077      00000201 
 4077      FB0E0D00 
 4077      01010101 
 4078              	.LASF116:
 4079 0000 53657149 		.ascii	"SeqId\000"
 4079      6400
 4080              	.LASF198:
 4081 0006 41707041 		.ascii	"AppAMPISR\000"
ARM GAS  C:\Users\13740\AppData\Local\Temp\ccZrwIb5.s 			page 82


 4081      4D504953 
 4081      5200
 4082              	.LASF110:
 4083 0010 53657145 		.ascii	"SeqEnable\000"
 4083      6E61626C 
 4083      6500
 4084              	.LASF160:
 4085 001a 567A6572 		.ascii	"Vzero\000"
 4085      6F00
 4086              	.LASF74:
 4087 0020 4C706461 		.ascii	"LpdacSel\000"
 4087      6353656C 
 4087      00
 4088              	.LASF163:
 4089 0029 45787452 		.ascii	"ExtRtiaVal\000"
 4089      74696156 
 4089      616C00
 4090              	.LASF159:
 4091 0034 52746961 		.ascii	"RtiaCalValue\000"
 4091      43616C56 
 4091      616C7565 
 4091      00
 4092              	.LASF26:
 4093 0041 48704261 		.ascii	"HpBandgapEn\000"
 4093      6E646761 
 4093      70456E00 
 4094              	.LASF168:
 4095 004d 4669666F 		.ascii	"FifoDataCount\000"
 4095      44617461 
 4095      436F756E 
 4095      7400
 4096              	.LASF66:
 4097 005b 53746174 		.ascii	"StatSample\000"
 4097      53616D70 
 4097      6C6500
 4098              	.LASF0:
 4099 0066 756E7369 		.ascii	"unsigned int\000"
 4099      676E6564 
 4099      20696E74 
 4099      00
 4100              	.LASF102:
 4101 0073 44535043 		.ascii	"DSPCfg_Type\000"
 4101      66675F54 
 4101      79706500 
 4102              	.LASF47:
 4103 007f 41444352 		.ascii	"ADCRate\000"
 4103      61746500 
 4104              	.LASF206:
 4105 0087 41707041 		.ascii	"AppAMPCalcCurrent\000"
 4105      4D504361 
 4105      6C634375 
 4105      7272656E 
 4105      7400
 4106              	.LASF83:
 4107 0099 44616344 		.ascii	"DacData6Bit\000"
 4107      61746136 
 4107      42697400 
ARM GAS  C:\Users\13740\AppData\Local\Temp\ccZrwIb5.s 			page 83


 4108              	.LASF9:
 4109 00a5 5F5F696E 		.ascii	"__int32_t\000"
 4109      7433325F 
 4109      7400
 4110              	.LASF207:
 4111 00af 474E5520 		.ascii	"GNU C11 5.4.1 20160609 (release) [ARM/embedded-5-br"
 4111      43313120 
 4111      352E342E 
 4111      31203230 
 4111      31363036 
 4112 00e2 616E6368 		.ascii	"anch revision 237715] -mcpu=cortex-m0 -mthumb -g -O"
 4112      20726576 
 4112      6973696F 
 4112      6E203233 
 4112      37373135 
 4113 0115 30202D66 		.ascii	"0 -ffunction-sections -ffat-lto-objects\000"
 4113      66756E63 
 4113      74696F6E 
 4113      2D736563 
 4113      74696F6E 
 4114              	.LASF86:
 4115 013d 4C705469 		.ascii	"LpTiaRf\000"
 4115      61526600 
 4116              	.LASF177:
 4117 0145 6C705F6C 		.ascii	"lp_loop\000"
 4117      6F6F7000 
 4118              	.LASF165:
 4119 014d 496E6974 		.ascii	"InitSeqInfo\000"
 4119      53657149 
 4119      6E666F00 
 4120              	.LASF188:
 4121 0159 70427566 		.ascii	"pBuffer\000"
 4121      66657200 
 4122              	.LASF174:
 4123 0161 70506172 		.ascii	"pPara\000"
 4123      6100
 4124              	.LASF99:
 4125 0167 41444344 		.ascii	"ADCDigCompCfg\000"
 4125      6967436F 
 4125      6D704366 
 4125      6700
 4126              	.LASF105:
 4127 0175 4649464F 		.ascii	"FIFOSize\000"
 4127      53697A65 
 4127      00
 4128              	.LASF178:
 4129 017e 6572726F 		.ascii	"error\000"
 4129      7200
 4130              	.LASF155:
 4131 0184 41444350 		.ascii	"ADCPgaGain\000"
 4131      67614761 
 4131      696E00
 4132              	.LASF46:
 4133 018f 41444341 		.ascii	"ADCAvgNum\000"
 4133      76674E75 
 4133      6D00
 4134              	.LASF85:
ARM GAS  C:\Users\13740\AppData\Local\Temp\ccZrwIb5.s 			page 84


 4135 0199 4C70416D 		.ascii	"LpAmpSel\000"
 4135      7053656C 
 4135      00
 4136              	.LASF154:
 4137 01a2 5077724D 		.ascii	"PwrMod\000"
 4137      6F6400
 4138              	.LASF156:
 4139 01a9 44617461 		.ascii	"DataFifoSrc\000"
 4139      4669666F 
 4139      53726300 
 4140              	.LASF112:
 4141 01b5 53657149 		.ascii	"SeqIgnoreEn\000"
 4141      676E6F72 
 4141      65456E00 
 4142              	.LASF175:
 4143 01c1 77757074 		.ascii	"wupt_cfg\000"
 4143      5F636667 
 4143      00
 4144              	.LASF115:
 4145 01ca 53455143 		.ascii	"SEQCfg_Type\000"
 4145      66675F54 
 4145      79706500 
 4146              	.LASF59:
 4147 01d6 44465443 		.ascii	"DFTCfg_Type\000"
 4147      66675F54 
 4147      79706500 
 4148              	.LASF202:
 4149 01e2 41707041 		.ascii	"AppAMPCalcVoltage\000"
 4149      4D504361 
 4149      6C63566F 
 4149      6C746167 
 4149      6500
 4150              	.LASF131:
 4151 01f4 41646343 		.ascii	"AdcClkFreq\000"
 4151      6C6B4672 
 4151      657100
 4152              	.LASF33:
 4153 01ff 4C705265 		.ascii	"LpRefBoostEn\000"
 4153      66426F6F 
 4153      7374456E 
 4153      00
 4154              	.LASF93:
 4155 020c 4C50416D 		.ascii	"LPAmpCfg_Type\000"
 4155      70436667 
 4155      5F547970 
 4155      6500
 4156              	.LASF130:
 4157 021a 53797343 		.ascii	"SysClkFreq\000"
 4157      6C6B4672 
 4157      657100
 4158              	.LASF140:
 4159 0225 50686173 		.ascii	"Phase\000"
 4159      6500
 4160              	.LASF76:
 4161 022b 4C704461 		.ascii	"LpDacVzeroMux\000"
 4161      63567A65 
 4161      726F4D75 
ARM GAS  C:\Users\13740\AppData\Local\Temp\ccZrwIb5.s 			page 85


 4161      7800
 4162              	.LASF21:
 4163 0239 75696E74 		.ascii	"uint32_t\000"
 4163      33325F74 
 4163      00
 4164              	.LASF176:
 4165 0242 61666572 		.ascii	"aferef_cfg\000"
 4165      65665F63 
 4165      666700
 4166              	.LASF204:
 4167 024d 6B466163 		.ascii	"kFactor\000"
 4167      746F7200 
 4168              	.LASF133:
 4169 0255 62506F6C 		.ascii	"bPolarResult\000"
 4169      61725265 
 4169      73756C74 
 4169      00
 4170              	.LASF54:
 4171 0262 5747436C 		.ascii	"WGClkEnable\000"
 4171      6B456E61 
 4171      626C6500 
 4172              	.LASF17:
 4173 026e 666C6F61 		.ascii	"float\000"
 4173      7400
 4174              	.LASF44:
 4175 0274 41444353 		.ascii	"ADCSinc3Osr\000"
 4175      696E6333 
 4175      4F737200 
 4176              	.LASF35:
 4177 0280 48703156 		.ascii	"Hp1V8ThemBuff\000"
 4177      38546865 
 4177      6D427566 
 4177      6600
 4178              	.LASF142:
 4179 028e 62506172 		.ascii	"bParaChanged\000"
 4179      61436861 
 4179      6E676564 
 4179      00
 4180              	.LASF79:
 4181 029b 4C704461 		.ascii	"LpDacRef\000"
 4181      63526566 
 4181      00
 4182              	.LASF152:
 4183 02a4 5263616C 		.ascii	"RcalVal\000"
 4183      56616C00 
 4184              	.LASF13:
 4185 02ac 6C6F6E67 		.ascii	"long long unsigned int\000"
 4185      206C6F6E 
 4185      6720756E 
 4185      7369676E 
 4185      65642069 
 4186              	.LASF187:
 4187 02c3 41707041 		.ascii	"AppAMPInit\000"
 4187      4D50496E 
 4187      697400
 4188              	.LASF205:
 4189 02ce 66566F6C 		.ascii	"fVolt\000"
ARM GAS  C:\Users\13740\AppData\Local\Temp\ccZrwIb5.s 			page 86


 4189      7400
 4190              	.LASF117:
 4191 02d4 53657152 		.ascii	"SeqRamAddr\000"
 4191      616D4164 
 4191      647200
 4192              	.LASF7:
 4193 02df 5F5F7569 		.ascii	"__uint16_t\000"
 4193      6E743136 
 4193      5F7400
 4194              	.LASF96:
 4195 02ea 4C504C6F 		.ascii	"LPLoopCfg_Type\000"
 4195      6F704366 
 4195      675F5479 
 4195      706500
 4196              	.LASF77:
 4197 02f9 4C704461 		.ascii	"LpDacVbiasMux\000"
 4197      63566269 
 4197      61734D75 
 4197      7800
 4198              	.LASF71:
 4199 0307 4E737769 		.ascii	"Nswitch\000"
 4199      74636800 
 4200              	.LASF109:
 4201 030f 5365714D 		.ascii	"SeqMemSize\000"
 4201      656D5369 
 4201      7A6500
 4202              	.LASF197:
 4203 031a 704F7574 		.ascii	"pOut\000"
 4203      00
 4204              	.LASF84:
 4205 031f 4C504441 		.ascii	"LPDACCfg_Type\000"
 4205      43436667 
 4205      5F547970 
 4205      6500
 4206              	.LASF193:
 4207 032d 70446174 		.ascii	"pData\000"
 4207      6100
 4208              	.LASF186:
 4209 0333 6C707274 		.ascii	"lprtia_cal\000"
 4209      69615F63 
 4209      616C00
 4210              	.LASF144:
 4211 033e 4D617853 		.ascii	"MaxSeqLen\000"
 4211      65714C65 
 4211      6E00
 4212              	.LASF125:
 4213 0348 53657178 		.ascii	"SeqxWakeupTime\000"
 4213      57616B65 
 4213      75705469 
 4213      6D6500
 4214              	.LASF185:
 4215 0357 41707041 		.ascii	"AppAMPRtiaCal\000"
 4215      4D505274 
 4215      69614361 
 4215      6C00
 4216              	.LASF194:
 4217 0365 70446174 		.ascii	"pDataCount\000"
ARM GAS  C:\Users\13740\AppData\Local\Temp\ccZrwIb5.s 			page 87


 4217      61436F75 
 4217      6E7400
 4218              	.LASF134:
 4219 0370 4C505254 		.ascii	"LPRTIACal_Type\000"
 4219      49414361 
 4219      6C5F5479 
 4219      706500
 4220              	.LASF94:
 4221 037f 4C704461 		.ascii	"LpDacCfg\000"
 4221      63436667 
 4221      00
 4222              	.LASF121:
 4223 0388 53455149 		.ascii	"SEQInfo_Type\000"
 4223      6E666F5F 
 4223      54797065 
 4223      00
 4224              	.LASF151:
 4225 0395 4E756D4F 		.ascii	"NumOfData\000"
 4225      66446174 
 4225      6100
 4226              	.LASF157:
 4227 039f 4C707469 		.ascii	"LptiaRtiaSel\000"
 4227      61527469 
 4227      6153656C 
 4227      00
 4228              	.LASF55:
 4229 03ac 41444346 		.ascii	"ADCFilterCfg_Type\000"
 4229      696C7465 
 4229      72436667 
 4229      5F547970 
 4229      6500
 4230              	.LASF41:
 4231 03be 4144434D 		.ascii	"ADCMuxN\000"
 4231      75784E00 
 4232              	.LASF107:
 4233 03c6 4649464F 		.ascii	"FIFOThresh\000"
 4233      54687265 
 4233      736800
 4234              	.LASF40:
 4235 03d1 4144434D 		.ascii	"ADCMuxP\000"
 4235      75785000 
 4236              	.LASF31:
 4237 03d9 4C704261 		.ascii	"LpBandgapEn\000"
 4237      6E646761 
 4237      70456E00 
 4238              	.LASF60:
 4239 03e5 4144434D 		.ascii	"ADCMin\000"
 4239      696E00
 4240              	.LASF150:
 4241 03ec 416D704F 		.ascii	"AmpODR\000"
 4241      445200
 4242              	.LASF164:
 4243 03f3 414D5049 		.ascii	"AMPInited\000"
 4243      6E697465 
 4243      6400
 4244              	.LASF39:
 4245 03fd 41464552 		.ascii	"AFERefCfg_Type\000"
ARM GAS  C:\Users\13740\AppData\Local\Temp\ccZrwIb5.s 			page 88


 4245      65664366 
 4245      675F5479 
 4245      706500
 4246              	.LASF170:
 4247 040c 41707041 		.ascii	"AppAMPGetCfg\000"
 4247      4D504765 
 4247      74436667 
 4247      00
 4248              	.LASF87:
 4249 0419 4C705469 		.ascii	"LpTiaRload\000"
 4249      61526C6F 
 4249      616400
 4250              	.LASF63:
 4251 0424 4144434D 		.ascii	"ADCMaxHys\000"
 4251      61784879 
 4251      7300
 4252              	.LASF15:
 4253 042e 63686172 		.ascii	"char\000"
 4253      00
 4254              	.LASF88:
 4255 0433 4C705469 		.ascii	"LpTiaRtia\000"
 4255      61527469 
 4255      6100
 4256              	.LASF106:
 4257 043d 4649464F 		.ascii	"FIFOSrc\000"
 4257      53726300 
 4258              	.LASF127:
 4259 0445 57555054 		.ascii	"WUPTCfg_Type\000"
 4259      4366675F 
 4259      54797065 
 4259      00
 4260              	.LASF70:
 4261 0452 50737769 		.ascii	"Pswitch\000"
 4261      74636800 
 4262              	.LASF101:
 4263 045a 53746174 		.ascii	"StatCfg\000"
 4263      43666700 
 4264              	.LASF24:
 4265 0462 62545255 		.ascii	"bTRUE\000"
 4265      4500
 4266              	.LASF53:
 4267 0468 44465443 		.ascii	"DFTClkEnable\000"
 4267      6C6B456E 
 4267      61626C65 
 4267      00
 4268              	.LASF42:
 4269 0475 41444350 		.ascii	"ADCPga\000"
 4269      676100
 4270              	.LASF189:
 4271 047c 42756666 		.ascii	"BufferSize\000"
 4271      65725369 
 4271      7A6500
 4272              	.LASF100:
 4273 0487 44667443 		.ascii	"DftCfg\000"
 4273      666700
 4274              	.LASF129:
 4275 048e 66526361 		.ascii	"fRcal\000"
ARM GAS  C:\Users\13740\AppData\Local\Temp\ccZrwIb5.s 			page 89


 4275      6C00
 4276              	.LASF27:
 4277 0494 48703156 		.ascii	"Hp1V8BuffEn\000"
 4277      38427566 
 4277      66456E00 
 4278              	.LASF18:
 4279 04a0 75696E74 		.ascii	"uint8_t\000"
 4279      385F7400 
 4280              	.LASF141:
 4281 04a8 66496D70 		.ascii	"fImpPol_Type\000"
 4281      506F6C5F 
 4281      54797065 
 4281      00
 4282              	.LASF162:
 4283 04b5 45787452 		.ascii	"ExtRtia\000"
 4283      74696100 
 4284              	.LASF124:
 4285 04bd 53657178 		.ascii	"SeqxSleepTime\000"
 4285      536C6565 
 4285      7054696D 
 4285      6500
 4286              	.LASF72:
 4287 04cb 54737769 		.ascii	"Tswitch\000"
 4287      74636800 
 4288              	.LASF75:
 4289 04d3 4C704461 		.ascii	"LpDacSrc\000"
 4289      63537263 
 4289      00
 4290              	.LASF34:
 4291 04dc 48534441 		.ascii	"HSDACRefEn\000"
 4291      43526566 
 4291      456E00
 4292              	.LASF91:
 4293 04e7 4C705061 		.ascii	"LpPaPwrEn\000"
 4293      50777245 
 4293      6E00
 4294              	.LASF1:
 4295 04f1 6C6F6E67 		.ascii	"long long int\000"
 4295      206C6F6E 
 4295      6720696E 
 4295      7400
 4296              	.LASF203:
 4297 04ff 41444363 		.ascii	"ADCcode\000"
 4297      6F646500 
 4298              	.LASF201:
 4299 0507 4669666F 		.ascii	"FifoCnt\000"
 4299      436E7400 
 4300              	.LASF138:
 4301 050f 436C6B73 		.ascii	"ClksCalInfo_Type\000"
 4301      43616C49 
 4301      6E666F5F 
 4301      54797065 
 4301      00
 4302              	.LASF180:
 4303 0520 73775F63 		.ascii	"sw_cfg\000"
 4303      666700
 4304              	.LASF148:
ARM GAS  C:\Users\13740\AppData\Local\Temp\ccZrwIb5.s 			page 90


 4305 0527 57757074 		.ascii	"WuptClkFreq\000"
 4305      436C6B46 
 4305      72657100 
 4306              	.LASF172:
 4307 0533 70436667 		.ascii	"pCfg\000"
 4307      00
 4308              	.LASF38:
 4309 0538 44697363 		.ascii	"Disc1V1Cap\000"
 4309      31563143 
 4309      617000
 4310              	.LASF23:
 4311 0543 6246414C 		.ascii	"bFALSE\000"
 4311      534500
 4312              	.LASF57:
 4313 054a 44667453 		.ascii	"DftSrc\000"
 4313      726300
 4314              	.LASF89:
 4315 0551 4C70416D 		.ascii	"LpAmpPwrMod\000"
 4315      70507772 
 4315      4D6F6400 
 4316              	.LASF136:
 4317 055d 44617461 		.ascii	"DataCount\000"
 4317      436F756E 
 4317      7400
 4318              	.LASF48:
 4319 0567 42704E6F 		.ascii	"BpNotch\000"
 4319      74636800 
 4320              	.LASF52:
 4321 056f 53696E63 		.ascii	"Sinc2NotchEnable\000"
 4321      324E6F74 
 4321      6368456E 
 4321      61626C65 
 4321      00
 4322              	.LASF122:
 4323 0580 57757074 		.ascii	"WuptEndSeq\000"
 4323      456E6453 
 4323      657100
 4324              	.LASF135:
 4325 058b 44617461 		.ascii	"DataType\000"
 4325      54797065 
 4325      00
 4326              	.LASF25:
 4327 0594 426F6F6C 		.ascii	"BoolFlag\000"
 4327      466C6167 
 4327      00
 4328              	.LASF37:
 4329 059d 44697363 		.ascii	"Disc1V8Cap\000"
 4329      31563843 
 4329      617000
 4330              	.LASF104:
 4331 05a8 4649464F 		.ascii	"FIFOMode\000"
 4331      4D6F6465 
 4331      00
 4332              	.LASF196:
 4333 05b1 64617461 		.ascii	"datacount\000"
 4333      636F756E 
 4333      7400
ARM GAS  C:\Users\13740\AppData\Local\Temp\ccZrwIb5.s 			page 91


 4334              	.LASF118:
 4335 05bb 5365714C 		.ascii	"SeqLen\000"
 4335      656E00
 4336              	.LASF2:
 4337 05c2 6C6F6E67 		.ascii	"long double\000"
 4337      20646F75 
 4337      626C6500 
 4338              	.LASF195:
 4339 05ce 41707041 		.ascii	"AppAMPDataProcess\000"
 4339      4D504461 
 4339      74615072 
 4339      6F636573 
 4339      7300
 4340              	.LASF19:
 4341 05e0 75696E74 		.ascii	"uint16_t\000"
 4341      31365F74 
 4341      00
 4342              	.LASF45:
 4343 05e9 41444353 		.ascii	"ADCSinc2Osr\000"
 4343      696E6332 
 4343      4F737200 
 4344              	.LASF67:
 4345 05f5 53746174 		.ascii	"StatEnable\000"
 4345      456E6162 
 4345      6C6500
 4346              	.LASF28:
 4347 0600 48703156 		.ascii	"Hp1V1BuffEn\000"
 4347      31427566 
 4347      66456E00 
 4348              	.LASF97:
 4349 060c 41444342 		.ascii	"ADCBaseCfg\000"
 4349      61736543 
 4349      666700
 4350              	.LASF111:
 4351 0617 53657142 		.ascii	"SeqBreakEn\000"
 4351      7265616B 
 4351      456E00
 4352              	.LASF182:
 4353 0622 41707041 		.ascii	"AppAMPSeqMeasureGen\000"
 4353      4D505365 
 4353      714D6561 
 4353      73757265 
 4353      47656E00 
 4354              	.LASF166:
 4355 0636 4D656173 		.ascii	"MeasureSeqInfo\000"
 4355      75726553 
 4355      6571496E 
 4355      666F00
 4356              	.LASF192:
 4357 0645 41707041 		.ascii	"AppAMPRegModify\000"
 4357      4D505265 
 4357      674D6F64 
 4357      69667900 
 4358              	.LASF5:
 4359 0655 73686F72 		.ascii	"short int\000"
 4359      7420696E 
 4359      7400
ARM GAS  C:\Users\13740\AppData\Local\Temp\ccZrwIb5.s 			page 92


 4360              	.LASF161:
 4361 065f 53656E73 		.ascii	"SensorBias\000"
 4361      6F724269 
 4361      617300
 4362              	.LASF126:
 4363 066a 57757074 		.ascii	"WuptEn\000"
 4363      456E00
 4364              	.LASF137:
 4365 0671 52617469 		.ascii	"RatioSys2AdcClk\000"
 4365      6F537973 
 4365      32416463 
 4365      436C6B00 
 4366              	.LASF146:
 4367 0681 4D617853 		.ascii	"MaxSeqLenCal\000"
 4367      65714C65 
 4367      6E43616C 
 4367      00
 4368              	.LASF10:
 4369 068e 6C6F6E67 		.ascii	"long int\000"
 4369      20696E74 
 4369      00
 4370              	.LASF145:
 4371 0697 53657153 		.ascii	"SeqStartAddrCal\000"
 4371      74617274 
 4371      41646472 
 4371      43616C00 
 4372              	.LASF119:
 4373 06a7 57726974 		.ascii	"WriteSRAM\000"
 4373      65535241 
 4373      4D00
 4374              	.LASF78:
 4375 06b1 4C704461 		.ascii	"LpDacSW\000"
 4375      63535700 
 4376              	.LASF147:
 4377 06b9 5265446F 		.ascii	"ReDoRtiaCal\000"
 4377      52746961 
 4377      43616C00 
 4378              	.LASF114:
 4379 06c5 53657157 		.ascii	"SeqWrTimer\000"
 4379      7254696D 
 4379      657200
 4380              	.LASF179:
 4381 06d0 6473705F 		.ascii	"dsp_cfg\000"
 4381      63666700 
 4382              	.LASF181:
 4383 06d8 41707041 		.ascii	"AppAMPSeqCfgGen\000"
 4383      4D505365 
 4383      71436667 
 4383      47656E00 
 4384              	.LASF98:
 4385 06e8 41444346 		.ascii	"ADCFilterCfg\000"
 4385      696C7465 
 4385      72436667 
 4385      00
 4386              	.LASF128:
 4387 06f5 66467265 		.ascii	"fFreq\000"
 4387      7100
ARM GAS  C:\Users\13740\AppData\Local\Temp\ccZrwIb5.s 			page 93


 4388              	.LASF200:
 4389 06fb 70436F75 		.ascii	"pCount\000"
 4389      6E7400
 4390              	.LASF171:
 4391 0702 41707041 		.ascii	"AppAMPCtrl\000"
 4391      4D504374 
 4391      726C00
 4392              	.LASF6:
 4393 070d 5F5F7569 		.ascii	"__uint8_t\000"
 4393      6E74385F 
 4393      7400
 4394              	.LASF153:
 4395 0717 41444352 		.ascii	"ADCRefVolt\000"
 4395      6566566F 
 4395      6C7400
 4396              	.LASF69:
 4397 0722 44737769 		.ascii	"Dswitch\000"
 4397      74636800 
 4398              	.LASF36:
 4399 072a 48703156 		.ascii	"Hp1V8Ilimit\000"
 4399      38496C69 
 4399      6D697400 
 4400              	.LASF51:
 4401 0736 53696E63 		.ascii	"Sinc2NotchClkEnable\000"
 4401      324E6F74 
 4401      6368436C 
 4401      6B456E61 
 4401      626C6500 
 4402              	.LASF65:
 4403 074a 53746174 		.ascii	"StatDev\000"
 4403      44657600 
 4404              	.LASF139:
 4405 0752 4D61676E 		.ascii	"Magnitude\000"
 4405      69747564 
 4405      6500
 4406              	.LASF14:
 4407 075c 73697A65 		.ascii	"sizetype\000"
 4407      74797065 
 4407      00
 4408              	.LASF103:
 4409 0765 4649464F 		.ascii	"FIFOEn\000"
 4409      456E00
 4410              	.LASF12:
 4411 076c 6C6F6E67 		.ascii	"long unsigned int\000"
 4411      20756E73 
 4411      69676E65 
 4411      6420696E 
 4411      7400
 4412              	.LASF58:
 4413 077e 48616E57 		.ascii	"HanWinEn\000"
 4413      696E456E 
 4413      00
 4414              	.LASF56:
 4415 0787 4466744E 		.ascii	"DftNum\000"
 4415      756D00
 4416              	.LASF20:
 4417 078e 696E7433 		.ascii	"int32_t\000"
ARM GAS  C:\Users\13740\AppData\Local\Temp\ccZrwIb5.s 			page 94


 4417      325F7400 
 4418              	.LASF80:
 4419 0796 44617461 		.ascii	"DataRst\000"
 4419      52737400 
 4420              	.LASF92:
 4421 079e 4C705469 		.ascii	"LpTiaPwrEn\000"
 4421      61507772 
 4421      456E00
 4422              	.LASF108:
 4423 07a9 4649464F 		.ascii	"FIFOCfg_Type\000"
 4423      4366675F 
 4423      54797065 
 4423      00
 4424              	.LASF29:
 4425 07b6 4C703156 		.ascii	"Lp1V8BuffEn\000"
 4425      38427566 
 4425      66456E00 
 4426              	.LASF184:
 4427 07c2 636C6B73 		.ascii	"clks_cal\000"
 4427      5F63616C 
 4427      00
 4428              	.LASF4:
 4429 07cb 756E7369 		.ascii	"unsigned char\000"
 4429      676E6564 
 4429      20636861 
 4429      7200
 4430              	.LASF11:
 4431 07d9 5F5F7569 		.ascii	"__uint32_t\000"
 4431      6E743332 
 4431      5F7400
 4432              	.LASF61:
 4433 07e4 4144434D 		.ascii	"ADCMinHys\000"
 4433      696E4879 
 4433      7300
 4434              	.LASF82:
 4435 07ee 44616344 		.ascii	"DacData12Bit\000"
 4435      61746131 
 4435      32426974 
 4435      00
 4436              	.LASF32:
 4437 07fb 4C705265 		.ascii	"LpRefBufEn\000"
 4437      66427566 
 4437      456E00
 4438              	.LASF95:
 4439 0806 4C70416D 		.ascii	"LpAmpCfg\000"
 4439      70436667 
 4439      00
 4440              	.LASF210:
 4441 080f 41707041 		.ascii	"AppAMPCfg\000"
 4441      4D504366 
 4441      6700
 4442              	.LASF62:
 4443 0819 4144434D 		.ascii	"ADCMax\000"
 4443      617800
 4444              	.LASF113:
 4445 0820 53657143 		.ascii	"SeqCntCRCClr\000"
 4445      6E744352 
ARM GAS  C:\Users\13740\AppData\Local\Temp\ccZrwIb5.s 			page 95


 4445      43436C72 
 4445      00
 4446              	.LASF43:
 4447 082d 41444342 		.ascii	"ADCBaseCfg_Type\000"
 4447      61736543 
 4447      66675F54 
 4447      79706500 
 4448              	.LASF183:
 4449 083d 57616974 		.ascii	"WaitClks\000"
 4449      436C6B73 
 4449      00
 4450              	.LASF199:
 4451 0846 70427566 		.ascii	"pBuff\000"
 4451      6600
 4452              	.LASF3:
 4453 084c 7369676E 		.ascii	"signed char\000"
 4453      65642063 
 4453      68617200 
 4454              	.LASF132:
 4455 0858 62576974 		.ascii	"bWithCtia\000"
 4455      68437469 
 4455      6100
 4456              	.LASF81:
 4457 0862 506F7765 		.ascii	"PowerEn\000"
 4457      72456E00 
 4458              	.LASF158:
 4459 086a 4C705469 		.ascii	"LpTiaRl\000"
 4459      61526C00 
 4460              	.LASF8:
 4461 0872 73686F72 		.ascii	"short unsigned int\000"
 4461      7420756E 
 4461      7369676E 
 4461      65642069 
 4461      6E7400
 4462              	.LASF209:
 4463 0885 453A5C64 		.ascii	"E:\\desktop\\bu\\eda\\Transistor\\Transistor.cydsn\000"
 4463      65736B74 
 4463      6F705C62 
 4463      755C6564 
 4463      615C5472 
 4464              	.LASF190:
 4465 08b3 7365715F 		.ascii	"seq_cfg\000"
 4465      63666700 
 4466              	.LASF123:
 4467 08bb 57757074 		.ascii	"WuptOrder\000"
 4467      4F726465 
 4467      7200
 4468              	.LASF50:
 4469 08c5 53696E63 		.ascii	"Sinc3ClkEnable\000"
 4469      33436C6B 
 4469      456E6162 
 4469      6C6500
 4470              	.LASF68:
 4471 08d4 53746174 		.ascii	"StatCfg_Type\000"
 4471      4366675F 
 4471      54797065 
 4471      00
ARM GAS  C:\Users\13740\AppData\Local\Temp\ccZrwIb5.s 			page 96


 4472              	.LASF167:
 4473 08e1 53746F70 		.ascii	"StopRequired\000"
 4473      52657175 
 4473      69726564 
 4473      00
 4474              	.LASF16:
 4475 08ee 646F7562 		.ascii	"double\000"
 4475      6C6500
 4476              	.LASF49:
 4477 08f5 42705369 		.ascii	"BpSinc3\000"
 4477      6E633300 
 4478              	.LASF173:
 4479 08fd 416D7043 		.ascii	"AmpCtrl\000"
 4479      74726C00 
 4480              	.LASF90:
 4481 0905 4C705469 		.ascii	"LpTiaSW\000"
 4481      61535700 
 4482              	.LASF169:
 4483 090d 41707041 		.ascii	"AppAMPCfg_Type\000"
 4483      4D504366 
 4483      675F5479 
 4483      706500
 4484              	.LASF73:
 4485 091c 53574D61 		.ascii	"SWMatrixCfg_Type\000"
 4485      74726978 
 4485      4366675F 
 4485      54797065 
 4485      00
 4486              	.LASF22:
 4487 092d 41443539 		.ascii	"AD5940Err\000"
 4487      34304572 
 4487      7200
 4488              	.LASF64:
 4489 0937 41444344 		.ascii	"ADCDigComp_Type\000"
 4489      6967436F 
 4489      6D705F54 
 4489      79706500 
 4490              	.LASF149:
 4491 0947 4669666F 		.ascii	"FifoThresh\000"
 4491      54687265 
 4491      736800
 4492              	.LASF208:
 4493 0952 416D7065 		.ascii	"Amperometric.c\000"
 4493      726F6D65 
 4493      74726963 
 4493      2E6300
 4494              	.LASF30:
 4495 0961 4C703156 		.ascii	"Lp1V1BuffEn\000"
 4495      31427566 
 4495      66456E00 
 4496              	.LASF143:
 4497 096d 53657153 		.ascii	"SeqStartAddr\000"
 4497      74617274 
 4497      41646472 
 4497      00
 4498              	.LASF120:
 4499 097a 70536571 		.ascii	"pSeqCmd\000"
ARM GAS  C:\Users\13740\AppData\Local\Temp\ccZrwIb5.s 			page 97


 4499      436D6400 
 4500              	.LASF191:
 4501 0982 6669666F 		.ascii	"fifo_cfg\000"
 4501      5F636667 
 4501      00
 4502              		.ident	"GCC: (GNU Tools for ARM Embedded Processors) 5.4.1 20160609 (release) [ARM/embedded-5-bran
