ARM GAS  C:\Users\13740\AppData\Local\Temp\ccgjAoJh.s 			page 1


   1              		.syntax unified
   2              		.cpu cortex-m0
   3              		.fpu softvfp
   4              		.eabi_attribute 20, 1
   5              		.eabi_attribute 21, 1
   6              		.eabi_attribute 23, 3
   7              		.eabi_attribute 24, 1
   8              		.eabi_attribute 25, 1
   9              		.eabi_attribute 26, 1
  10              		.eabi_attribute 30, 6
  11              		.eabi_attribute 34, 0
  12              		.eabi_attribute 18, 4
  13              		.thumb
  14              		.syntax unified
  15              		.file	"Amperometric.c"
  16              		.text
  17              	.Ltext0:
  18              		.cfi_sections	.debug_frame
  19              		.global	AppAMPCfg
  20              		.data
  21              		.align	2
  22              		.type	AppAMPCfg, %object
  23              		.size	AppAMPCfg, 160
  24              	AppAMPCfg:
  25 0000 00       		.byte	0
  26 0001 000000   		.space	3
  27 0004 00000000 		.word	0
  28 0008 00000000 		.word	0
  29 000c 00000000 		.word	0
  30 0010 00000000 		.word	0
  31 0014 01       		.byte	1
  32 0015 000000   		.space	3
  33 0018 0024744B 		.word	1265902592
  34 001c 0000FA46 		.word	1190789120
  35 0020 0024744B 		.word	1265902592
  36 0024 05000000 		.word	5
  37 0028 0000803F 		.word	1065353216
  38 002c FFFFFFFF 		.word	-1
  39 0030 00401C46 		.word	1176256512
  40 0034 3E79E83F 		.word	1072199998
  41 0038 00000000 		.word	0
  42 003c 01000000 		.word	1
  43 0040 01       		.byte	1
  44 0041 00       		.byte	0
  45 0042 0000     		.space	2
  46 0044 03000000 		.word	3
  47 0048 05000000 		.word	5
  48 004c 07000000 		.word	7
  49 0050 04000000 		.word	4
  50 0054 00000000 		.word	0
  51 0058 00000000 		.space	4
  52 005c 00808944 		.word	1149861888
  53 0060 0000FA43 		.word	1140457472
  54 0064 00       		.byte	0
  55 0065 000000   		.space	3
  56 0068 00000000 		.word	0
  57 006c 00       		.byte	0
ARM GAS  C:\Users\13740\AppData\Local\Temp\ccgjAoJh.s 			page 2


  58 006d 00000000 		.space	43
  58      00000000 
  58      00000000 
  58      00000000 
  58      00000000 
  59 0098 00       		.byte	0
  60 0099 00000000 		.space	7
  60      000000
  61              		.section	.text.AppAMPGetCfg,"ax",%progbits
  62              		.align	2
  63              		.global	AppAMPGetCfg
  64              		.code	16
  65              		.thumb_func
  66              		.type	AppAMPGetCfg, %function
  67              	AppAMPGetCfg:
  68              	.LFB1:
  69              		.file 1 "Amperometric.c"
   1:Amperometric.c **** /*!
   2:Amperometric.c ****  *****************************************************************************
   3:Amperometric.c ****  @file:    Amperometric.c
   4:Amperometric.c ****  @author:  $Author: mlambe $
   5:Amperometric.c ****  @brief:   Amperometric measurement.
   6:Amperometric.c ****  @version: $Revision: 766 $
   7:Amperometric.c ****  @date:    $Date: 2018-03-21 14:09:35 +0100 (Wed, 21 Mar 2018) $
   8:Amperometric.c ****  -----------------------------------------------------------------------------
   9:Amperometric.c **** 
  10:Amperometric.c **** Copyright (c) 2017-2019 Analog Devices, Inc. All Rights Reserved.
  11:Amperometric.c **** 
  12:Amperometric.c **** This software is proprietary to Analog Devices, Inc. and its licensors.
  13:Amperometric.c **** By using this software you agree to the terms of the associated
  14:Amperometric.c **** Analog Devices Software License Agreement.
  15:Amperometric.c ****  
  16:Amperometric.c **** *****************************************************************************/
  17:Amperometric.c **** #include "Amperometric.h"
  18:Amperometric.c **** 
  19:Amperometric.c **** /* 
  20:Amperometric.c ****   Application configuration structure. Specified by user from template.
  21:Amperometric.c ****   The variables are usable in this whole application.
  22:Amperometric.c ****   It includes basic configuration for sequencer generator and application related parameters
  23:Amperometric.c **** */
  24:Amperometric.c **** AppAMPCfg_Type AppAMPCfg = 
  25:Amperometric.c **** {
  26:Amperometric.c ****   .bParaChanged = bFALSE,
  27:Amperometric.c ****   .SeqStartAddr = 0,
  28:Amperometric.c ****   .MaxSeqLen = 0,
  29:Amperometric.c ****   
  30:Amperometric.c ****   .SeqStartAddrCal = 0,
  31:Amperometric.c ****   .MaxSeqLenCal = 0,
  32:Amperometric.c ****   .FifoThresh = 5,              /* Number of points for FIFO */
  33:Amperometric.c ****   
  34:Amperometric.c ****   .SysClkFreq = 16000000.0,
  35:Amperometric.c ****   .WuptClkFreq = 32000.0,
  36:Amperometric.c ****   .AdcClkFreq = 16000000.0,
  37:Amperometric.c ****   .AmpODR = 1.0,                /* Sample time in seconds. I.e. every 5 seconds make a measurement 
  38:Amperometric.c ****   .NumOfData = -1,
  39:Amperometric.c ****   .RcalVal = 10000.0,           /* RCAL = 10kOhm */
  40:Amperometric.c ****   .PwrMod = AFEPWR_LP,
ARM GAS  C:\Users\13740\AppData\Local\Temp\ccgjAoJh.s 			page 3


  41:Amperometric.c ****   .AMPInited = bFALSE,
  42:Amperometric.c ****   .StopRequired = bFALSE,
  43:Amperometric.c ****   
  44:Amperometric.c ****   /* LPTIA Configure */
  45:Amperometric.c ****   .ExtRtia = bFALSE,            /* Set to true if using external RTIA */
  46:Amperometric.c ****   .LptiaRtiaSel = LPTIARTIA_4K, /* COnfigure RTIA */
  47:Amperometric.c ****   .LpTiaRf = LPTIARF_1M,        /* Configure LPF resistor */
  48:Amperometric.c ****   .LpTiaRl = LPTIARLOAD_100R,
  49:Amperometric.c ****   .ReDoRtiaCal = bTRUE,
  50:Amperometric.c ****   .RtiaCalValue = 0,
  51:Amperometric.c **** 	.ExtRtiaVal = 0,
  52:Amperometric.c ****   
  53:Amperometric.c **** /*LPDAC Configure */
  54:Amperometric.c ****   .Vzero = 1100,                /* Sets voltage on SE0 and LPTIA */
  55:Amperometric.c ****   .SensorBias = 500,            /* Sets voltage between RE0 and SE0 */
  56:Amperometric.c ****   
  57:Amperometric.c **** /* ADC Configure*/
  58:Amperometric.c ****   .ADCPgaGain = ADCPGA_1P5,
  59:Amperometric.c ****   .ADCSinc3Osr = ADCSINC3OSR_4,
  60:Amperometric.c ****   .ADCSinc2Osr = ADCSINC2OSR_22,
  61:Amperometric.c ****   .DataFifoSrc = FIFOSRC_SINC2NOTCH,
  62:Amperometric.c ****   .ADCRefVolt = 1.8162,			/* Measure voltage on ADCRefVolt pin and enter here*/
  63:Amperometric.c **** };
  64:Amperometric.c **** 
  65:Amperometric.c **** /**
  66:Amperometric.c ****    This function is provided for upper controllers that want to change 
  67:Amperometric.c ****    application parameters specially for user defined parameters.
  68:Amperometric.c **** */
  69:Amperometric.c **** AD5940Err AppAMPGetCfg(void *pCfg)
  70:Amperometric.c **** {
  70              		.loc 1 70 0
  71              		.cfi_startproc
  72              		@ args = 0, pretend = 0, frame = 8
  73              		@ frame_needed = 1, uses_anonymous_args = 0
  74 0000 80B5     		push	{r7, lr}
  75              		.cfi_def_cfa_offset 8
  76              		.cfi_offset 7, -8
  77              		.cfi_offset 14, -4
  78 0002 82B0     		sub	sp, sp, #8
  79              		.cfi_def_cfa_offset 16
  80 0004 00AF     		add	r7, sp, #0
  81              		.cfi_def_cfa_register 7
  82 0006 7860     		str	r0, [r7, #4]
  71:Amperometric.c ****   if(pCfg){
  83              		.loc 1 71 0
  84 0008 7B68     		ldr	r3, [r7, #4]
  85 000a 002B     		cmp	r3, #0
  86 000c 04D0     		beq	.L2
  72:Amperometric.c ****     *(AppAMPCfg_Type**)pCfg = &AppAMPCfg;
  87              		.loc 1 72 0
  88 000e 7B68     		ldr	r3, [r7, #4]
  89 0010 044A     		ldr	r2, .L4
  90 0012 1A60     		str	r2, [r3]
  73:Amperometric.c ****     return AD5940ERR_OK;
  91              		.loc 1 73 0
  92 0014 0023     		movs	r3, #0
  93 0016 01E0     		b	.L3
ARM GAS  C:\Users\13740\AppData\Local\Temp\ccgjAoJh.s 			page 4


  94              	.L2:
  74:Amperometric.c ****   }
  75:Amperometric.c ****   return AD5940ERR_PARA;
  95              		.loc 1 75 0
  96 0018 0223     		movs	r3, #2
  97 001a 5B42     		rsbs	r3, r3, #0
  98              	.L3:
  76:Amperometric.c **** }
  99              		.loc 1 76 0
 100 001c 1800     		movs	r0, r3
 101 001e BD46     		mov	sp, r7
 102 0020 02B0     		add	sp, sp, #8
 103              		@ sp needed
 104 0022 80BD     		pop	{r7, pc}
 105              	.L5:
 106              		.align	2
 107              	.L4:
 108 0024 00000000 		.word	AppAMPCfg
 109              		.cfi_endproc
 110              	.LFE1:
 111              		.size	AppAMPGetCfg, .-AppAMPGetCfg
 112              		.global	__aeabi_fmul
 113              		.global	__aeabi_f2uiz
 114              		.section	.text.AppAMPCtrl,"ax",%progbits
 115              		.align	2
 116              		.global	AppAMPCtrl
 117              		.code	16
 118              		.thumb_func
 119              		.type	AppAMPCtrl, %function
 120              	AppAMPCtrl:
 121              	.LFB2:
  77:Amperometric.c **** 
  78:Amperometric.c **** AD5940Err AppAMPCtrl(int32_t AmpCtrl, void *pPara)
  79:Amperometric.c **** {
 122              		.loc 1 79 0
 123              		.cfi_startproc
 124              		@ args = 0, pretend = 0, frame = 96
 125              		@ frame_needed = 1, uses_anonymous_args = 0
 126 0000 80B5     		push	{r7, lr}
 127              		.cfi_def_cfa_offset 8
 128              		.cfi_offset 7, -8
 129              		.cfi_offset 14, -4
 130 0002 98B0     		sub	sp, sp, #96
 131              		.cfi_def_cfa_offset 104
 132 0004 00AF     		add	r7, sp, #0
 133              		.cfi_def_cfa_register 7
 134 0006 7860     		str	r0, [r7, #4]
 135 0008 3960     		str	r1, [r7]
  80:Amperometric.c ****   switch (AmpCtrl)
 136              		.loc 1 80 0
 137 000a 7B68     		ldr	r3, [r7, #4]
 138 000c 012B     		cmp	r3, #1
 139 000e 40D0     		beq	.L8
 140 0010 02DC     		bgt	.L9
 141 0012 002B     		cmp	r3, #0
 142 0014 05D0     		beq	.L10
  81:Amperometric.c ****   {
ARM GAS  C:\Users\13740\AppData\Local\Temp\ccgjAoJh.s 			page 5


  82:Amperometric.c ****     case AMPCTRL_START:
  83:Amperometric.c ****     {
  84:Amperometric.c ****       WUPTCfg_Type wupt_cfg;
  85:Amperometric.c **** 
  86:Amperometric.c ****       AD5940_ReadReg(REG_AFE_ADCDAT); /* Any SPI Operation can wakeup AFE */
  87:Amperometric.c ****       if(AppAMPCfg.AMPInited == bFALSE)
  88:Amperometric.c ****         return AD5940ERR_APPERROR;
  89:Amperometric.c ****       /* Start it */
  90:Amperometric.c ****       wupt_cfg.WuptEn = bTRUE;
  91:Amperometric.c ****       wupt_cfg.WuptEndSeq = WUPTENDSEQ_A;
  92:Amperometric.c ****       wupt_cfg.WuptOrder[0] = SEQID_0;
  93:Amperometric.c ****       wupt_cfg.SeqxSleepTime[SEQID_0] = 4-1;
  94:Amperometric.c ****       wupt_cfg.SeqxWakeupTime[SEQID_0] = (uint32_t)(AppAMPCfg.WuptClkFreq*AppAMPCfg.AmpODR)-4-1; 
  95:Amperometric.c ****       AD5940_WUPTCfg(&wupt_cfg);
  96:Amperometric.c ****       
  97:Amperometric.c ****       AppAMPCfg.FifoDataCount = 0;  /* restart */
  98:Amperometric.c ****       break;
  99:Amperometric.c ****     }
 100:Amperometric.c ****     case AMPCTRL_STOPNOW:
 101:Amperometric.c ****     {
 102:Amperometric.c ****       AD5940_ReadReg(REG_AFE_ADCDAT); /* Any SPI Operation can wakeup AFE */
 103:Amperometric.c ****       /* Start Wupt right now */
 104:Amperometric.c ****       AD5940_WUPTCtrl(bFALSE);
 105:Amperometric.c ****       /* There is chance this operation will fail because sequencer could put AFE back 
 106:Amperometric.c ****         to hibernate mode just after waking up. Use STOPSYNC is better. */
 107:Amperometric.c ****       AD5940_WUPTCtrl(bFALSE);
 108:Amperometric.c ****       break;
 109:Amperometric.c ****     }
 110:Amperometric.c ****     case AMPCTRL_STOPSYNC:
 111:Amperometric.c ****     {
 112:Amperometric.c ****       AppAMPCfg.StopRequired = bTRUE;
 113:Amperometric.c ****       break;
 114:Amperometric.c ****     }
 115:Amperometric.c ****     case AMPCTRL_SHUTDOWN:
 116:Amperometric.c ****     {
 117:Amperometric.c ****       AppAMPCtrl(AMPCTRL_STOPNOW, 0);  /* Stop the measurement if it's running. */
 118:Amperometric.c ****       /* Turn off LPloop related blocks which are not controlled automatically by sleep operation *
 119:Amperometric.c ****       AFERefCfg_Type aferef_cfg;
 120:Amperometric.c ****       LPLoopCfg_Type lp_loop;
 121:Amperometric.c ****       memset(&aferef_cfg, 0, sizeof(aferef_cfg));
 122:Amperometric.c ****       AD5940_REFCfgS(&aferef_cfg);
 123:Amperometric.c ****       memset(&lp_loop, 0, sizeof(lp_loop));
 124:Amperometric.c ****       AD5940_LPLoopCfgS(&lp_loop);
 125:Amperometric.c ****       AD5940_EnterSleepS();  /* Enter Hibernate */
 126:Amperometric.c ****     }
 127:Amperometric.c ****     break;
 128:Amperometric.c ****     default:
 129:Amperometric.c ****     break;
 143              		.loc 1 129 0
 144 0016 6BE0     		b	.L15
 145              	.L9:
  80:Amperometric.c ****   switch (AmpCtrl)
 146              		.loc 1 80 0
 147 0018 022B     		cmp	r3, #2
 148 001a 45D0     		beq	.L11
 149 001c 042B     		cmp	r3, #4
 150 001e 48D0     		beq	.L12
ARM GAS  C:\Users\13740\AppData\Local\Temp\ccgjAoJh.s 			page 6


 151              		.loc 1 129 0
 152 0020 66E0     		b	.L15
 153              	.L10:
 154              	.LBB2:
  86:Amperometric.c ****       if(AppAMPCfg.AMPInited == bFALSE)
 155              		.loc 1 86 0
 156 0022 364B     		ldr	r3, .L16
 157 0024 1800     		movs	r0, r3
 158 0026 FFF7FEFF 		bl	AD5940_ReadReg
  87:Amperometric.c ****         return AD5940ERR_APPERROR;
 159              		.loc 1 87 0
 160 002a 354B     		ldr	r3, .L16+4
 161 002c 6C22     		movs	r2, #108
 162 002e 9B5C     		ldrb	r3, [r3, r2]
 163 0030 002B     		cmp	r3, #0
 164 0032 02D1     		bne	.L13
  88:Amperometric.c ****       /* Start it */
 165              		.loc 1 88 0
 166 0034 6423     		movs	r3, #100
 167 0036 5B42     		rsbs	r3, r3, #0
 168 0038 5BE0     		b	.L14
 169              	.L13:
  90:Amperometric.c ****       wupt_cfg.WuptEndSeq = WUPTENDSEQ_A;
 170              		.loc 1 90 0
 171 003a 0823     		movs	r3, #8
 172 003c FB18     		adds	r3, r7, r3
 173 003e 4422     		movs	r2, #68
 174 0040 0121     		movs	r1, #1
 175 0042 9954     		strb	r1, [r3, r2]
  91:Amperometric.c ****       wupt_cfg.WuptOrder[0] = SEQID_0;
 176              		.loc 1 91 0
 177 0044 0823     		movs	r3, #8
 178 0046 FB18     		adds	r3, r7, r3
 179 0048 0022     		movs	r2, #0
 180 004a 1A60     		str	r2, [r3]
  92:Amperometric.c ****       wupt_cfg.SeqxSleepTime[SEQID_0] = 4-1;
 181              		.loc 1 92 0
 182 004c 0823     		movs	r3, #8
 183 004e FB18     		adds	r3, r7, r3
 184 0050 0022     		movs	r2, #0
 185 0052 5A60     		str	r2, [r3, #4]
  93:Amperometric.c ****       wupt_cfg.SeqxWakeupTime[SEQID_0] = (uint32_t)(AppAMPCfg.WuptClkFreq*AppAMPCfg.AmpODR)-4-1; 
 186              		.loc 1 93 0
 187 0054 0823     		movs	r3, #8
 188 0056 FB18     		adds	r3, r7, r3
 189 0058 0322     		movs	r2, #3
 190 005a 5A62     		str	r2, [r3, #36]
  94:Amperometric.c ****       AD5940_WUPTCfg(&wupt_cfg);
 191              		.loc 1 94 0
 192 005c 284B     		ldr	r3, .L16+4
 193 005e DA69     		ldr	r2, [r3, #28]
 194 0060 274B     		ldr	r3, .L16+4
 195 0062 9B6A     		ldr	r3, [r3, #40]
 196 0064 191C     		adds	r1, r3, #0
 197 0066 101C     		adds	r0, r2, #0
 198 0068 FFF7FEFF 		bl	__aeabi_fmul
 199 006c 031C     		adds	r3, r0, #0
ARM GAS  C:\Users\13740\AppData\Local\Temp\ccgjAoJh.s 			page 7


 200 006e 181C     		adds	r0, r3, #0
 201 0070 FFF7FEFF 		bl	__aeabi_f2uiz
 202 0074 0300     		movs	r3, r0
 203 0076 5A1F     		subs	r2, r3, #5
 204 0078 0823     		movs	r3, #8
 205 007a FB18     		adds	r3, r7, r3
 206 007c 5A63     		str	r2, [r3, #52]
  95:Amperometric.c ****       
 207              		.loc 1 95 0
 208 007e 0823     		movs	r3, #8
 209 0080 FB18     		adds	r3, r7, r3
 210 0082 1800     		movs	r0, r3
 211 0084 FFF7FEFF 		bl	AD5940_WUPTCfg
  97:Amperometric.c ****       break;
 212              		.loc 1 97 0
 213 0088 1D4B     		ldr	r3, .L16+4
 214 008a 9C22     		movs	r2, #156
 215 008c 0021     		movs	r1, #0
 216 008e 9950     		str	r1, [r3, r2]
 217 0090 2EE0     		b	.L15
 218              	.L8:
 219              	.LBE2:
 102:Amperometric.c ****       /* Start Wupt right now */
 220              		.loc 1 102 0
 221 0092 1A4B     		ldr	r3, .L16
 222 0094 1800     		movs	r0, r3
 223 0096 FFF7FEFF 		bl	AD5940_ReadReg
 104:Amperometric.c ****       /* There is chance this operation will fail because sequencer could put AFE back 
 224              		.loc 1 104 0
 225 009a 0020     		movs	r0, #0
 226 009c FFF7FEFF 		bl	AD5940_WUPTCtrl
 107:Amperometric.c ****       break;
 227              		.loc 1 107 0
 228 00a0 0020     		movs	r0, #0
 229 00a2 FFF7FEFF 		bl	AD5940_WUPTCtrl
 108:Amperometric.c ****     }
 230              		.loc 1 108 0
 231 00a6 23E0     		b	.L15
 232              	.L11:
 112:Amperometric.c ****       break;
 233              		.loc 1 112 0
 234 00a8 154B     		ldr	r3, .L16+4
 235 00aa 9822     		movs	r2, #152
 236 00ac 0121     		movs	r1, #1
 237 00ae 9954     		strb	r1, [r3, r2]
 113:Amperometric.c ****     }
 238              		.loc 1 113 0
 239 00b0 1EE0     		b	.L15
 240              	.L12:
 241              	.LBB3:
 117:Amperometric.c ****       /* Turn off LPloop related blocks which are not controlled automatically by sleep operation *
 242              		.loc 1 117 0
 243 00b2 0021     		movs	r1, #0
 244 00b4 0120     		movs	r0, #1
 245 00b6 FFF7FEFF 		bl	AppAMPCtrl
 121:Amperometric.c ****       AD5940_REFCfgS(&aferef_cfg);
 246              		.loc 1 121 0
ARM GAS  C:\Users\13740\AppData\Local\Temp\ccgjAoJh.s 			page 8


 247 00ba 5023     		movs	r3, #80
 248 00bc FB18     		adds	r3, r7, r3
 249 00be 0D22     		movs	r2, #13
 250 00c0 0021     		movs	r1, #0
 251 00c2 1800     		movs	r0, r3
 252 00c4 FFF7FEFF 		bl	memset
 122:Amperometric.c ****       memset(&lp_loop, 0, sizeof(lp_loop));
 253              		.loc 1 122 0
 254 00c8 5023     		movs	r3, #80
 255 00ca FB18     		adds	r3, r7, r3
 256 00cc 1800     		movs	r0, r3
 257 00ce FFF7FEFF 		bl	AD5940_REFCfgS
 123:Amperometric.c ****       AD5940_LPLoopCfgS(&lp_loop);
 258              		.loc 1 123 0
 259 00d2 0823     		movs	r3, #8
 260 00d4 FB18     		adds	r3, r7, r3
 261 00d6 3C22     		movs	r2, #60
 262 00d8 0021     		movs	r1, #0
 263 00da 1800     		movs	r0, r3
 264 00dc FFF7FEFF 		bl	memset
 124:Amperometric.c ****       AD5940_EnterSleepS();  /* Enter Hibernate */
 265              		.loc 1 124 0
 266 00e0 0823     		movs	r3, #8
 267 00e2 FB18     		adds	r3, r7, r3
 268 00e4 1800     		movs	r0, r3
 269 00e6 FFF7FEFF 		bl	AD5940_LPLoopCfgS
 125:Amperometric.c ****     }
 270              		.loc 1 125 0
 271 00ea FFF7FEFF 		bl	AD5940_EnterSleepS
 272              	.LBE3:
 127:Amperometric.c ****     default:
 273              		.loc 1 127 0
 274 00ee C046     		nop
 275              	.L15:
 130:Amperometric.c ****   }
 131:Amperometric.c ****   return AD5940ERR_OK;
 276              		.loc 1 131 0
 277 00f0 0023     		movs	r3, #0
 278              	.L14:
 132:Amperometric.c **** }
 279              		.loc 1 132 0
 280 00f2 1800     		movs	r0, r3
 281 00f4 BD46     		mov	sp, r7
 282 00f6 18B0     		add	sp, sp, #96
 283              		@ sp needed
 284 00f8 80BD     		pop	{r7, pc}
 285              	.L17:
 286 00fa C046     		.align	2
 287              	.L16:
 288 00fc 74200000 		.word	8308
 289 0100 00000000 		.word	AppAMPCfg
 290              		.cfi_endproc
 291              	.LFE2:
 292              		.size	AppAMPCtrl, .-AppAMPCtrl
 293              		.global	__aeabi_fsub
 294              		.global	__aeabi_fdiv
 295              		.global	__aeabi_f2iz
ARM GAS  C:\Users\13740\AppData\Local\Temp\ccgjAoJh.s 			page 9


 296              		.section	.text.AppAMPSeqCfgGen,"ax",%progbits
 297              		.align	2
 298              		.code	16
 299              		.thumb_func
 300              		.type	AppAMPSeqCfgGen, %function
 301              	AppAMPSeqCfgGen:
 302              	.LFB3:
 133:Amperometric.c **** 
 134:Amperometric.c **** /* Generate init sequence */
 135:Amperometric.c **** static AD5940Err AppAMPSeqCfgGen(void)
 136:Amperometric.c **** {
 303              		.loc 1 136 0
 304              		.cfi_startproc
 305              		@ args = 0, pretend = 0, frame = 176
 306              		@ frame_needed = 1, uses_anonymous_args = 0
 307 0000 80B5     		push	{r7, lr}
 308              		.cfi_def_cfa_offset 8
 309              		.cfi_offset 7, -8
 310              		.cfi_offset 14, -4
 311 0002 ACB0     		sub	sp, sp, #176
 312              		.cfi_def_cfa_offset 184
 313 0004 00AF     		add	r7, sp, #0
 314              		.cfi_def_cfa_register 7
 137:Amperometric.c ****   AD5940Err error = AD5940ERR_OK;
 315              		.loc 1 137 0
 316 0006 0023     		movs	r3, #0
 317 0008 AC22     		movs	r2, #172
 318 000a BA18     		adds	r2, r7, r2
 319 000c 1360     		str	r3, [r2]
 138:Amperometric.c ****   uint32_t const *pSeqCmd;
 139:Amperometric.c ****   uint32_t SeqLen;
 140:Amperometric.c **** 
 141:Amperometric.c ****   AFERefCfg_Type aferef_cfg;
 142:Amperometric.c ****   LPLoopCfg_Type lp_loop;
 143:Amperometric.c ****   DSPCfg_Type dsp_cfg;
 144:Amperometric.c ****   SWMatrixCfg_Type sw_cfg;
 145:Amperometric.c ****   /* Start sequence generator here */
 146:Amperometric.c ****   AD5940_SEQGenCtrl(bTRUE);
 320              		.loc 1 146 0
 321 000e 0120     		movs	r0, #1
 322 0010 FFF7FEFF 		bl	AD5940_SEQGenCtrl
 147:Amperometric.c **** 
 148:Amperometric.c ****   //AD5940_AFECtrlS(AFECTRL_ALL, bFALSE);  /* Init all to disable state */
 149:Amperometric.c **** 
 150:Amperometric.c ****   aferef_cfg.HpBandgapEn = bTRUE;
 323              		.loc 1 150 0
 324 0014 9423     		movs	r3, #148
 325 0016 FB18     		adds	r3, r7, r3
 326 0018 0122     		movs	r2, #1
 327 001a 1A70     		strb	r2, [r3]
 151:Amperometric.c ****   aferef_cfg.Hp1V1BuffEn = bTRUE;
 328              		.loc 1 151 0
 329 001c 9423     		movs	r3, #148
 330 001e FB18     		adds	r3, r7, r3
 331 0020 0122     		movs	r2, #1
 332 0022 9A70     		strb	r2, [r3, #2]
 152:Amperometric.c ****   aferef_cfg.Hp1V8BuffEn = bTRUE;
ARM GAS  C:\Users\13740\AppData\Local\Temp\ccgjAoJh.s 			page 10


 333              		.loc 1 152 0
 334 0024 9423     		movs	r3, #148
 335 0026 FB18     		adds	r3, r7, r3
 336 0028 0122     		movs	r2, #1
 337 002a 5A70     		strb	r2, [r3, #1]
 153:Amperometric.c ****   aferef_cfg.Disc1V1Cap = bFALSE;
 338              		.loc 1 153 0
 339 002c 9423     		movs	r3, #148
 340 002e FB18     		adds	r3, r7, r3
 341 0030 0022     		movs	r2, #0
 342 0032 1A73     		strb	r2, [r3, #12]
 154:Amperometric.c ****   aferef_cfg.Disc1V8Cap = bFALSE;
 343              		.loc 1 154 0
 344 0034 9423     		movs	r3, #148
 345 0036 FB18     		adds	r3, r7, r3
 346 0038 0022     		movs	r2, #0
 347 003a DA72     		strb	r2, [r3, #11]
 155:Amperometric.c ****   aferef_cfg.Hp1V8ThemBuff = bFALSE;
 348              		.loc 1 155 0
 349 003c 9423     		movs	r3, #148
 350 003e FB18     		adds	r3, r7, r3
 351 0040 0022     		movs	r2, #0
 352 0042 5A72     		strb	r2, [r3, #9]
 156:Amperometric.c ****   aferef_cfg.Hp1V8Ilimit = bFALSE;
 353              		.loc 1 156 0
 354 0044 9423     		movs	r3, #148
 355 0046 FB18     		adds	r3, r7, r3
 356 0048 0022     		movs	r2, #0
 357 004a 9A72     		strb	r2, [r3, #10]
 157:Amperometric.c ****   aferef_cfg.Lp1V1BuffEn = bTRUE;
 358              		.loc 1 157 0
 359 004c 9423     		movs	r3, #148
 360 004e FB18     		adds	r3, r7, r3
 361 0050 0122     		movs	r2, #1
 362 0052 1A71     		strb	r2, [r3, #4]
 158:Amperometric.c ****   aferef_cfg.Lp1V8BuffEn = bTRUE;
 363              		.loc 1 158 0
 364 0054 9423     		movs	r3, #148
 365 0056 FB18     		adds	r3, r7, r3
 366 0058 0122     		movs	r2, #1
 367 005a DA70     		strb	r2, [r3, #3]
 159:Amperometric.c ****   /* LP reference control - turn off them to save power*/
 160:Amperometric.c ****   aferef_cfg.LpBandgapEn = bTRUE;
 368              		.loc 1 160 0
 369 005c 9423     		movs	r3, #148
 370 005e FB18     		adds	r3, r7, r3
 371 0060 0122     		movs	r2, #1
 372 0062 5A71     		strb	r2, [r3, #5]
 161:Amperometric.c ****   aferef_cfg.LpRefBufEn = bTRUE;
 373              		.loc 1 161 0
 374 0064 9423     		movs	r3, #148
 375 0066 FB18     		adds	r3, r7, r3
 376 0068 0122     		movs	r2, #1
 377 006a 9A71     		strb	r2, [r3, #6]
 162:Amperometric.c ****   aferef_cfg.LpRefBoostEn = bFALSE;
 378              		.loc 1 162 0
 379 006c 9423     		movs	r3, #148
ARM GAS  C:\Users\13740\AppData\Local\Temp\ccgjAoJh.s 			page 11


 380 006e FB18     		adds	r3, r7, r3
 381 0070 0022     		movs	r2, #0
 382 0072 DA71     		strb	r2, [r3, #7]
 163:Amperometric.c ****   AD5940_REFCfgS(&aferef_cfg);	
 383              		.loc 1 163 0
 384 0074 9423     		movs	r3, #148
 385 0076 FB18     		adds	r3, r7, r3
 386 0078 1800     		movs	r0, r3
 387 007a FFF7FEFF 		bl	AD5940_REFCfgS
 164:Amperometric.c **** 
 165:Amperometric.c **** 	lp_loop.LpDacCfg.LpdacSel = LPDAC0;
 388              		.loc 1 165 0
 389 007e 5823     		movs	r3, #88
 390 0080 FB18     		adds	r3, r7, r3
 391 0082 0022     		movs	r2, #0
 392 0084 1A60     		str	r2, [r3]
 166:Amperometric.c ****   lp_loop.LpDacCfg.LpDacSrc = LPDACSRC_MMR;
 393              		.loc 1 166 0
 394 0086 5823     		movs	r3, #88
 395 0088 FB18     		adds	r3, r7, r3
 396 008a 0022     		movs	r2, #0
 397 008c 5A60     		str	r2, [r3, #4]
 167:Amperometric.c ****   lp_loop.LpDacCfg.LpDacSW = LPDACSW_VBIAS2LPPA|LPDACSW_VBIAS2PIN|LPDACSW_VZERO2LPTIA|LPDACSW_VZERO
 398              		.loc 1 167 0
 399 008e 5823     		movs	r3, #88
 400 0090 FB18     		adds	r3, r7, r3
 401 0092 1E22     		movs	r2, #30
 402 0094 1A61     		str	r2, [r3, #16]
 168:Amperometric.c ****   lp_loop.LpDacCfg.LpDacVzeroMux = LPDACVZERO_6BIT;
 403              		.loc 1 168 0
 404 0096 5823     		movs	r3, #88
 405 0098 FB18     		adds	r3, r7, r3
 406 009a 0022     		movs	r2, #0
 407 009c 9A60     		str	r2, [r3, #8]
 169:Amperometric.c ****   lp_loop.LpDacCfg.LpDacVbiasMux = LPDACVBIAS_12BIT;
 408              		.loc 1 169 0
 409 009e 5823     		movs	r3, #88
 410 00a0 FB18     		adds	r3, r7, r3
 411 00a2 0022     		movs	r2, #0
 412 00a4 DA60     		str	r2, [r3, #12]
 170:Amperometric.c ****   lp_loop.LpDacCfg.LpDacRef = LPDACREF_2P5;
 413              		.loc 1 170 0
 414 00a6 5823     		movs	r3, #88
 415 00a8 FB18     		adds	r3, r7, r3
 416 00aa 0022     		movs	r2, #0
 417 00ac 5A61     		str	r2, [r3, #20]
 171:Amperometric.c ****   lp_loop.LpDacCfg.DataRst = bFALSE;
 418              		.loc 1 171 0
 419 00ae 5823     		movs	r3, #88
 420 00b0 FB18     		adds	r3, r7, r3
 421 00b2 0022     		movs	r2, #0
 422 00b4 1A76     		strb	r2, [r3, #24]
 172:Amperometric.c ****   lp_loop.LpDacCfg.PowerEn = bTRUE;
 423              		.loc 1 172 0
 424 00b6 5823     		movs	r3, #88
 425 00b8 FB18     		adds	r3, r7, r3
 426 00ba 0122     		movs	r2, #1
ARM GAS  C:\Users\13740\AppData\Local\Temp\ccgjAoJh.s 			page 12


 427 00bc 5A76     		strb	r2, [r3, #25]
 173:Amperometric.c ****   lp_loop.LpDacCfg.DacData6Bit = (uint32_t)((AppAMPCfg.Vzero-200)/DAC6BITVOLT_1LSB);
 428              		.loc 1 173 0
 429 00be 8F4B     		ldr	r3, .L26
 430 00c0 DB6D     		ldr	r3, [r3, #92]
 431 00c2 8F49     		ldr	r1, .L26+4
 432 00c4 181C     		adds	r0, r3, #0
 433 00c6 FFF7FEFF 		bl	__aeabi_fsub
 434 00ca 031C     		adds	r3, r0, #0
 435 00cc 8D49     		ldr	r1, .L26+8
 436 00ce 181C     		adds	r0, r3, #0
 437 00d0 FFF7FEFF 		bl	__aeabi_fdiv
 438 00d4 031C     		adds	r3, r0, #0
 439 00d6 181C     		adds	r0, r3, #0
 440 00d8 FFF7FEFF 		bl	__aeabi_f2uiz
 441 00dc 0300     		movs	r3, r0
 442 00de 9AB2     		uxth	r2, r3
 443 00e0 5823     		movs	r3, #88
 444 00e2 FB18     		adds	r3, r7, r3
 445 00e4 9A83     		strh	r2, [r3, #28]
 174:Amperometric.c **** 	lp_loop.LpDacCfg.DacData12Bit =(int32_t)((AppAMPCfg.SensorBias)/DAC12BITVOLT_1LSB) + lp_loop.LpDac
 446              		.loc 1 174 0
 447 00e6 854B     		ldr	r3, .L26
 448 00e8 1B6E     		ldr	r3, [r3, #96]
 449 00ea 8749     		ldr	r1, .L26+12
 450 00ec 181C     		adds	r0, r3, #0
 451 00ee FFF7FEFF 		bl	__aeabi_fdiv
 452 00f2 031C     		adds	r3, r0, #0
 453 00f4 181C     		adds	r0, r3, #0
 454 00f6 FFF7FEFF 		bl	__aeabi_f2iz
 455 00fa 0300     		movs	r3, r0
 456 00fc 9AB2     		uxth	r2, r3
 457 00fe 5823     		movs	r3, #88
 458 0100 FB18     		adds	r3, r7, r3
 459 0102 9B8B     		ldrh	r3, [r3, #28]
 460 0104 9B01     		lsls	r3, r3, #6
 461 0106 9BB2     		uxth	r3, r3
 462 0108 D318     		adds	r3, r2, r3
 463 010a 9AB2     		uxth	r2, r3
 464 010c 5823     		movs	r3, #88
 465 010e FB18     		adds	r3, r7, r3
 466 0110 5A83     		strh	r2, [r3, #26]
 175:Amperometric.c **** 	if(lp_loop.LpDacCfg.DacData12Bit>lp_loop.LpDacCfg.DacData6Bit*64)
 467              		.loc 1 175 0
 468 0112 5823     		movs	r3, #88
 469 0114 FB18     		adds	r3, r7, r3
 470 0116 5B8B     		ldrh	r3, [r3, #26]
 471 0118 1A00     		movs	r2, r3
 472 011a 5823     		movs	r3, #88
 473 011c FB18     		adds	r3, r7, r3
 474 011e 9B8B     		ldrh	r3, [r3, #28]
 475 0120 9B01     		lsls	r3, r3, #6
 476 0122 9A42     		cmp	r2, r3
 477 0124 07DD     		ble	.L19
 176:Amperometric.c **** 		lp_loop.LpDacCfg.DacData12Bit--;
 478              		.loc 1 176 0
 479 0126 5823     		movs	r3, #88
ARM GAS  C:\Users\13740\AppData\Local\Temp\ccgjAoJh.s 			page 13


 480 0128 FB18     		adds	r3, r7, r3
 481 012a 5B8B     		ldrh	r3, [r3, #26]
 482 012c 013B     		subs	r3, r3, #1
 483 012e 9AB2     		uxth	r2, r3
 484 0130 5823     		movs	r3, #88
 485 0132 FB18     		adds	r3, r7, r3
 486 0134 5A83     		strh	r2, [r3, #26]
 487              	.L19:
 177:Amperometric.c **** 	lp_loop.LpAmpCfg.LpAmpSel = LPAMP0;
 488              		.loc 1 177 0
 489 0136 5823     		movs	r3, #88
 490 0138 FB18     		adds	r3, r7, r3
 491 013a 0022     		movs	r2, #0
 492 013c 1A62     		str	r2, [r3, #32]
 178:Amperometric.c ****   lp_loop.LpAmpCfg.LpAmpPwrMod = LPAMPPWR_NORM;
 493              		.loc 1 178 0
 494 013e 5823     		movs	r3, #88
 495 0140 FB18     		adds	r3, r7, r3
 496 0142 0022     		movs	r2, #0
 497 0144 1A63     		str	r2, [r3, #48]
 179:Amperometric.c ****   lp_loop.LpAmpCfg.LpPaPwrEn = bTRUE;
 498              		.loc 1 179 0
 499 0146 5823     		movs	r3, #88
 500 0148 FB18     		adds	r3, r7, r3
 501 014a 3822     		movs	r2, #56
 502 014c 0121     		movs	r1, #1
 503 014e 9954     		strb	r1, [r3, r2]
 180:Amperometric.c ****   lp_loop.LpAmpCfg.LpTiaPwrEn = bTRUE;
 504              		.loc 1 180 0
 505 0150 5823     		movs	r3, #88
 506 0152 FB18     		adds	r3, r7, r3
 507 0154 3922     		movs	r2, #57
 508 0156 0121     		movs	r1, #1
 509 0158 9954     		strb	r1, [r3, r2]
 181:Amperometric.c ****   lp_loop.LpAmpCfg.LpTiaRf = AppAMPCfg.LpTiaRf;
 510              		.loc 1 181 0
 511 015a 684B     		ldr	r3, .L26
 512 015c DA6C     		ldr	r2, [r3, #76]
 513 015e 5823     		movs	r3, #88
 514 0160 FB18     		adds	r3, r7, r3
 515 0162 5A62     		str	r2, [r3, #36]
 182:Amperometric.c ****   lp_loop.LpAmpCfg.LpTiaRload = AppAMPCfg.LpTiaRl;
 516              		.loc 1 182 0
 517 0164 654B     		ldr	r3, .L26
 518 0166 1A6D     		ldr	r2, [r3, #80]
 519 0168 5823     		movs	r3, #88
 520 016a FB18     		adds	r3, r7, r3
 521 016c 9A62     		str	r2, [r3, #40]
 183:Amperometric.c ****   if(AppAMPCfg.ExtRtia == bTRUE)
 522              		.loc 1 183 0
 523 016e 634B     		ldr	r3, .L26
 524 0170 6422     		movs	r2, #100
 525 0172 9B5C     		ldrb	r3, [r3, r2]
 526 0174 012B     		cmp	r3, #1
 527 0176 08D1     		bne	.L20
 184:Amperometric.c ****   {
 185:Amperometric.c ****     lp_loop.LpAmpCfg.LpTiaRtia = LPTIARTIA_OPEN;
ARM GAS  C:\Users\13740\AppData\Local\Temp\ccgjAoJh.s 			page 14


 528              		.loc 1 185 0
 529 0178 5823     		movs	r3, #88
 530 017a FB18     		adds	r3, r7, r3
 531 017c 0022     		movs	r2, #0
 532 017e DA62     		str	r2, [r3, #44]
 186:Amperometric.c ****     lp_loop.LpAmpCfg.LpTiaSW = LPTIASW(9)|LPTIASW(2)|LPTIASW(4)|LPTIASW(5)|LPTIASW(12)|LPTIASW(13);
 533              		.loc 1 186 0
 534 0180 5823     		movs	r3, #88
 535 0182 FB18     		adds	r3, r7, r3
 536 0184 614A     		ldr	r2, .L26+16
 537 0186 5A63     		str	r2, [r3, #52]
 538 0188 08E0     		b	.L21
 539              	.L20:
 187:Amperometric.c ****   }else
 188:Amperometric.c ****   {
 189:Amperometric.c ****     lp_loop.LpAmpCfg.LpTiaRtia = AppAMPCfg.LptiaRtiaSel;
 540              		.loc 1 189 0
 541 018a 5C4B     		ldr	r3, .L26
 542 018c 9A6C     		ldr	r2, [r3, #72]
 543 018e 5823     		movs	r3, #88
 544 0190 FB18     		adds	r3, r7, r3
 545 0192 DA62     		str	r2, [r3, #44]
 190:Amperometric.c ****     lp_loop.LpAmpCfg.LpTiaSW = LPTIASW(5)|LPTIASW(2)|LPTIASW(4)|LPTIASW(12)|LPTIASW(13); 
 546              		.loc 1 190 0
 547 0194 5823     		movs	r3, #88
 548 0196 FB18     		adds	r3, r7, r3
 549 0198 5D4A     		ldr	r2, .L26+20
 550 019a 5A63     		str	r2, [r3, #52]
 551              	.L21:
 191:Amperometric.c ****   }
 192:Amperometric.c ****   AD5940_LPLoopCfgS(&lp_loop);
 552              		.loc 1 192 0
 553 019c 5823     		movs	r3, #88
 554 019e FB18     		adds	r3, r7, r3
 555 01a0 1800     		movs	r0, r3
 556 01a2 FFF7FEFF 		bl	AD5940_LPLoopCfgS
 193:Amperometric.c **** 
 194:Amperometric.c ****   
 195:Amperometric.c ****   dsp_cfg.ADCBaseCfg.ADCMuxN = ADCMUXN_VZERO0;
 557              		.loc 1 195 0
 558 01a6 1423     		movs	r3, #20
 559 01a8 FB18     		adds	r3, r7, r3
 560 01aa 1022     		movs	r2, #16
 561 01ac 5A60     		str	r2, [r3, #4]
 196:Amperometric.c ****   dsp_cfg.ADCBaseCfg.ADCMuxP = ADCMUXP_AIN4;
 562              		.loc 1 196 0
 563 01ae 1423     		movs	r3, #20
 564 01b0 FB18     		adds	r3, r7, r3
 565 01b2 1422     		movs	r2, #20
 566 01b4 1A60     		str	r2, [r3]
 197:Amperometric.c ****   dsp_cfg.ADCBaseCfg.ADCPga = AppAMPCfg.ADCPgaGain;
 567              		.loc 1 197 0
 568 01b6 514B     		ldr	r3, .L26
 569 01b8 DA6B     		ldr	r2, [r3, #60]
 570 01ba 1423     		movs	r3, #20
 571 01bc FB18     		adds	r3, r7, r3
 572 01be 9A60     		str	r2, [r3, #8]
ARM GAS  C:\Users\13740\AppData\Local\Temp\ccgjAoJh.s 			page 15


 198:Amperometric.c ****   
 199:Amperometric.c ****   memset(&dsp_cfg.ADCDigCompCfg, 0, sizeof(dsp_cfg.ADCDigCompCfg));
 573              		.loc 1 199 0
 574 01c0 1423     		movs	r3, #20
 575 01c2 FB18     		adds	r3, r7, r3
 576 01c4 2433     		adds	r3, r3, #36
 577 01c6 0822     		movs	r2, #8
 578 01c8 0021     		movs	r1, #0
 579 01ca 1800     		movs	r0, r3
 580 01cc FFF7FEFF 		bl	memset
 200:Amperometric.c ****   memset(&dsp_cfg.DftCfg, 0, sizeof(dsp_cfg.DftCfg));
 581              		.loc 1 200 0
 582 01d0 1423     		movs	r3, #20
 583 01d2 FB18     		adds	r3, r7, r3
 584 01d4 2C33     		adds	r3, r3, #44
 585 01d6 0C22     		movs	r2, #12
 586 01d8 0021     		movs	r1, #0
 587 01da 1800     		movs	r0, r3
 588 01dc FFF7FEFF 		bl	memset
 201:Amperometric.c ****   dsp_cfg.ADCFilterCfg.ADCAvgNum = ADCAVGNUM_16;  /* Don't care because it's disabled */
 589              		.loc 1 201 0
 590 01e0 1423     		movs	r3, #20
 591 01e2 FB18     		adds	r3, r7, r3
 592 01e4 0322     		movs	r2, #3
 593 01e6 5A61     		str	r2, [r3, #20]
 202:Amperometric.c ****   dsp_cfg.ADCFilterCfg.ADCRate = ADCRATE_800KHZ;	/* Tell filter block clock rate of ADC*/
 594              		.loc 1 202 0
 595 01e8 1423     		movs	r3, #20
 596 01ea FB18     		adds	r3, r7, r3
 597 01ec 0122     		movs	r2, #1
 598 01ee 9A61     		str	r2, [r3, #24]
 203:Amperometric.c ****   dsp_cfg.ADCFilterCfg.ADCSinc2Osr = AppAMPCfg.ADCSinc2Osr;
 599              		.loc 1 203 0
 600 01f0 424B     		ldr	r3, .L26
 601 01f2 4122     		movs	r2, #65
 602 01f4 9B5C     		ldrb	r3, [r3, r2]
 603 01f6 1A00     		movs	r2, r3
 604 01f8 1423     		movs	r3, #20
 605 01fa FB18     		adds	r3, r7, r3
 606 01fc 1A61     		str	r2, [r3, #16]
 204:Amperometric.c ****   dsp_cfg.ADCFilterCfg.ADCSinc3Osr = AppAMPCfg.ADCSinc3Osr;
 607              		.loc 1 204 0
 608 01fe 3F4B     		ldr	r3, .L26
 609 0200 4022     		movs	r2, #64
 610 0202 9B5C     		ldrb	r3, [r3, r2]
 611 0204 1A00     		movs	r2, r3
 612 0206 1423     		movs	r3, #20
 613 0208 FB18     		adds	r3, r7, r3
 614 020a DA60     		str	r2, [r3, #12]
 205:Amperometric.c ****   dsp_cfg.ADCFilterCfg.BpSinc3 = bFALSE;
 615              		.loc 1 205 0
 616 020c 1423     		movs	r3, #20
 617 020e FB18     		adds	r3, r7, r3
 618 0210 0022     		movs	r2, #0
 619 0212 5A77     		strb	r2, [r3, #29]
 206:Amperometric.c ****   dsp_cfg.ADCFilterCfg.BpNotch = bFALSE;
 620              		.loc 1 206 0
ARM GAS  C:\Users\13740\AppData\Local\Temp\ccgjAoJh.s 			page 16


 621 0214 1423     		movs	r3, #20
 622 0216 FB18     		adds	r3, r7, r3
 623 0218 0022     		movs	r2, #0
 624 021a 1A77     		strb	r2, [r3, #28]
 207:Amperometric.c ****   dsp_cfg.ADCFilterCfg.Sinc2NotchEnable = bTRUE;
 625              		.loc 1 207 0
 626 021c 1423     		movs	r3, #20
 627 021e FB18     		adds	r3, r7, r3
 628 0220 2022     		movs	r2, #32
 629 0222 0121     		movs	r1, #1
 630 0224 9954     		strb	r1, [r3, r2]
 208:Amperometric.c ****   
 209:Amperometric.c ****   memset(&dsp_cfg.StatCfg, 0, sizeof(dsp_cfg.StatCfg)); /* Don't care about Statistic */
 631              		.loc 1 209 0
 632 0226 1423     		movs	r3, #20
 633 0228 FB18     		adds	r3, r7, r3
 634 022a 3833     		adds	r3, r3, #56
 635 022c 0C22     		movs	r2, #12
 636 022e 0021     		movs	r1, #0
 637 0230 1800     		movs	r0, r3
 638 0232 FFF7FEFF 		bl	memset
 210:Amperometric.c ****   AD5940_DSPCfgS(&dsp_cfg);
 639              		.loc 1 210 0
 640 0236 1423     		movs	r3, #20
 641 0238 FB18     		adds	r3, r7, r3
 642 023a 1800     		movs	r0, r3
 643 023c FFF7FEFF 		bl	AD5940_DSPCfgS
 211:Amperometric.c ****   
 212:Amperometric.c ****   sw_cfg.Dswitch = 0;
 644              		.loc 1 212 0
 645 0240 3B1D     		adds	r3, r7, #4
 646 0242 0022     		movs	r2, #0
 647 0244 1A60     		str	r2, [r3]
 213:Amperometric.c ****   sw_cfg.Pswitch = 0;
 648              		.loc 1 213 0
 649 0246 3B1D     		adds	r3, r7, #4
 650 0248 0022     		movs	r2, #0
 651 024a 5A60     		str	r2, [r3, #4]
 214:Amperometric.c ****   sw_cfg.Nswitch = 0;
 652              		.loc 1 214 0
 653 024c 3B1D     		adds	r3, r7, #4
 654 024e 0022     		movs	r2, #0
 655 0250 9A60     		str	r2, [r3, #8]
 215:Amperometric.c ****   sw_cfg.Tswitch = 0; 
 656              		.loc 1 215 0
 657 0252 3B1D     		adds	r3, r7, #4
 658 0254 0022     		movs	r2, #0
 659 0256 DA60     		str	r2, [r3, #12]
 216:Amperometric.c ****   AD5940_SWMatrixCfgS(&sw_cfg);
 660              		.loc 1 216 0
 661 0258 3B1D     		adds	r3, r7, #4
 662 025a 1800     		movs	r0, r3
 663 025c FFF7FEFF 		bl	AD5940_SWMatrixCfgS
 217:Amperometric.c ****     
 218:Amperometric.c ****   /* Enable all of them. They are automatically turned off during hibernate mode to save power */
 219:Amperometric.c ****   AD5940_AFECtrlS(AFECTRL_HPREFPWR|AFECTRL_SINC2NOTCH, bTRUE);
 664              		.loc 1 219 0
ARM GAS  C:\Users\13740\AppData\Local\Temp\ccgjAoJh.s 			page 17


 665 0260 2C4B     		ldr	r3, .L26+24
 666 0262 0121     		movs	r1, #1
 667 0264 1800     		movs	r0, r3
 668 0266 FFF7FEFF 		bl	AD5940_AFECtrlS
 220:Amperometric.c ****   AD5940_AFECtrlS(AFECTRL_SINC2NOTCH, bFALSE);
 669              		.loc 1 220 0
 670 026a 8023     		movs	r3, #128
 671 026c 5B02     		lsls	r3, r3, #9
 672 026e 0021     		movs	r1, #0
 673 0270 1800     		movs	r0, r3
 674 0272 FFF7FEFF 		bl	AD5940_AFECtrlS
 221:Amperometric.c ****   AD5940_SEQGpioCtrlS(0/*AGPIO_Pin6|AGPIO_Pin5|AGPIO_Pin1*/);        //GP6->endSeq, GP5 -> AD8233=O
 675              		.loc 1 221 0
 676 0276 0020     		movs	r0, #0
 677 0278 FFF7FEFF 		bl	AD5940_SEQGpioCtrlS
 222:Amperometric.c ****   
 223:Amperometric.c ****   /* Sequence end. */
 224:Amperometric.c ****   AD5940_SEQGenInsert(SEQ_STOP()); /* Add one extra command to disable sequencer for initialization
 678              		.loc 1 224 0
 679 027c 8123     		movs	r3, #129
 680 027e 1B06     		lsls	r3, r3, #24
 681 0280 1800     		movs	r0, r3
 682 0282 FFF7FEFF 		bl	AD5940_SEQGenInsert
 225:Amperometric.c **** 
 226:Amperometric.c ****   /* Stop here */
 227:Amperometric.c ****   error = AD5940_SEQGenFetchSeq(&pSeqCmd, &SeqLen);
 683              		.loc 1 227 0
 684 0286 A423     		movs	r3, #164
 685 0288 FA18     		adds	r2, r7, r3
 686 028a A823     		movs	r3, #168
 687 028c FB18     		adds	r3, r7, r3
 688 028e 1100     		movs	r1, r2
 689 0290 1800     		movs	r0, r3
 690 0292 FFF7FEFF 		bl	AD5940_SEQGenFetchSeq
 691 0296 0300     		movs	r3, r0
 692 0298 AC22     		movs	r2, #172
 693 029a BA18     		adds	r2, r7, r2
 694 029c 1360     		str	r3, [r2]
 228:Amperometric.c ****   AD5940_SEQGenCtrl(bFALSE); /* Stop sequencer generator */
 695              		.loc 1 228 0
 696 029e 0020     		movs	r0, #0
 697 02a0 FFF7FEFF 		bl	AD5940_SEQGenCtrl
 229:Amperometric.c ****   if(error == AD5940ERR_OK)
 698              		.loc 1 229 0
 699 02a4 AC23     		movs	r3, #172
 700 02a6 FB18     		adds	r3, r7, r3
 701 02a8 1B68     		ldr	r3, [r3]
 702 02aa 002B     		cmp	r3, #0
 703 02ac 1ED1     		bne	.L22
 230:Amperometric.c ****   {
 231:Amperometric.c ****     AppAMPCfg.InitSeqInfo.SeqId = SEQID_1;
 704              		.loc 1 231 0
 705 02ae 134B     		ldr	r3, .L26
 706 02b0 0122     		movs	r2, #1
 707 02b2 1A67     		str	r2, [r3, #112]
 232:Amperometric.c ****     AppAMPCfg.InitSeqInfo.SeqRamAddr = AppAMPCfg.SeqStartAddr;
 708              		.loc 1 232 0
ARM GAS  C:\Users\13740\AppData\Local\Temp\ccgjAoJh.s 			page 18


 709 02b4 114B     		ldr	r3, .L26
 710 02b6 5A68     		ldr	r2, [r3, #4]
 711 02b8 104B     		ldr	r3, .L26
 712 02ba 5A67     		str	r2, [r3, #116]
 233:Amperometric.c ****     AppAMPCfg.InitSeqInfo.pSeqCmd = pSeqCmd;
 713              		.loc 1 233 0
 714 02bc A823     		movs	r3, #168
 715 02be FB18     		adds	r3, r7, r3
 716 02c0 1A68     		ldr	r2, [r3]
 717 02c2 0E4B     		ldr	r3, .L26
 718 02c4 8021     		movs	r1, #128
 719 02c6 5A50     		str	r2, [r3, r1]
 234:Amperometric.c ****     AppAMPCfg.InitSeqInfo.SeqLen = SeqLen;
 720              		.loc 1 234 0
 721 02c8 A423     		movs	r3, #164
 722 02ca FB18     		adds	r3, r7, r3
 723 02cc 1A68     		ldr	r2, [r3]
 724 02ce 0B4B     		ldr	r3, .L26
 725 02d0 9A67     		str	r2, [r3, #120]
 235:Amperometric.c ****     /* Write command to SRAM */
 236:Amperometric.c ****     AD5940_SEQCmdWrite(AppAMPCfg.InitSeqInfo.SeqRamAddr, pSeqCmd, SeqLen);
 726              		.loc 1 236 0
 727 02d2 0A4B     		ldr	r3, .L26
 728 02d4 5B6F     		ldr	r3, [r3, #116]
 729 02d6 A822     		movs	r2, #168
 730 02d8 BA18     		adds	r2, r7, r2
 731 02da 1168     		ldr	r1, [r2]
 732 02dc A422     		movs	r2, #164
 733 02de BA18     		adds	r2, r7, r2
 734 02e0 1268     		ldr	r2, [r2]
 735 02e2 1800     		movs	r0, r3
 736 02e4 FFF7FEFF 		bl	AD5940_SEQCmdWrite
 237:Amperometric.c ****   }
 238:Amperometric.c ****   else
 239:Amperometric.c ****     return error; /* Error */
 240:Amperometric.c ****   return AD5940ERR_OK;
 737              		.loc 1 240 0
 738 02e8 0023     		movs	r3, #0
 739 02ea 02E0     		b	.L25
 740              	.L22:
 239:Amperometric.c ****   return AD5940ERR_OK;
 741              		.loc 1 239 0
 742 02ec AC23     		movs	r3, #172
 743 02ee FB18     		adds	r3, r7, r3
 744 02f0 1B68     		ldr	r3, [r3]
 745              	.L25:
 241:Amperometric.c **** }
 746              		.loc 1 241 0 discriminator 1
 747 02f2 1800     		movs	r0, r3
 748 02f4 BD46     		mov	sp, r7
 749 02f6 2CB0     		add	sp, sp, #176
 750              		@ sp needed
 751 02f8 80BD     		pop	{r7, pc}
 752              	.L27:
 753 02fa C046     		.align	2
 754              	.L26:
 755 02fc 00000000 		.word	AppAMPCfg
ARM GAS  C:\Users\13740\AppData\Local\Temp\ccgjAoJh.s 			page 19


 756 0300 00004843 		.word	1128792064
 757 0304 99880942 		.word	1107921049
 758 0308 9988093F 		.word	1057589401
 759 030c 34320000 		.word	12852
 760 0310 34300000 		.word	12340
 761 0314 20000100 		.word	65568
 762              		.cfi_endproc
 763              	.LFE3:
 764              		.size	AppAMPSeqCfgGen, .-AppAMPSeqCfgGen
 765              		.section	.text.AppAMPSeqMeasureGen,"ax",%progbits
 766              		.align	2
 767              		.code	16
 768              		.thumb_func
 769              		.type	AppAMPSeqMeasureGen, %function
 770              	AppAMPSeqMeasureGen:
 771              	.LFB4:
 242:Amperometric.c **** 
 243:Amperometric.c **** static AD5940Err AppAMPSeqMeasureGen(void)
 244:Amperometric.c **** {
 772              		.loc 1 244 0
 773              		.cfi_startproc
 774              		@ args = 0, pretend = 0, frame = 48
 775              		@ frame_needed = 1, uses_anonymous_args = 0
 776 0000 80B5     		push	{r7, lr}
 777              		.cfi_def_cfa_offset 8
 778              		.cfi_offset 7, -8
 779              		.cfi_offset 14, -4
 780 0002 8CB0     		sub	sp, sp, #48
 781              		.cfi_def_cfa_offset 56
 782 0004 00AF     		add	r7, sp, #0
 783              		.cfi_def_cfa_register 7
 245:Amperometric.c ****   AD5940Err error = AD5940ERR_OK;
 784              		.loc 1 245 0
 785 0006 0023     		movs	r3, #0
 786 0008 FB62     		str	r3, [r7, #44]
 246:Amperometric.c ****   uint32_t const *pSeqCmd;
 247:Amperometric.c ****   uint32_t SeqLen;
 248:Amperometric.c **** 
 249:Amperometric.c ****   uint32_t WaitClks;
 250:Amperometric.c ****   ClksCalInfo_Type clks_cal;
 251:Amperometric.c ****   
 252:Amperometric.c ****   clks_cal.DataType = DATATYPE_SINC2;
 787              		.loc 1 252 0
 788 000a 3B00     		movs	r3, r7
 789 000c 0222     		movs	r2, #2
 790 000e 1A60     		str	r2, [r3]
 253:Amperometric.c ****   clks_cal.DataCount = 1;
 791              		.loc 1 253 0
 792 0010 3B00     		movs	r3, r7
 793 0012 0122     		movs	r2, #1
 794 0014 5A60     		str	r2, [r3, #4]
 254:Amperometric.c ****   clks_cal.ADCSinc2Osr = AppAMPCfg.ADCSinc2Osr;
 795              		.loc 1 254 0
 796 0016 3F4B     		ldr	r3, .L33
 797 0018 4122     		movs	r2, #65
 798 001a 9B5C     		ldrb	r3, [r3, r2]
 799 001c 1A00     		movs	r2, r3
ARM GAS  C:\Users\13740\AppData\Local\Temp\ccgjAoJh.s 			page 20


 800 001e 3B00     		movs	r3, r7
 801 0020 DA60     		str	r2, [r3, #12]
 255:Amperometric.c ****   clks_cal.ADCSinc3Osr = AppAMPCfg.ADCSinc3Osr;
 802              		.loc 1 255 0
 803 0022 3C4B     		ldr	r3, .L33
 804 0024 4022     		movs	r2, #64
 805 0026 9B5C     		ldrb	r3, [r3, r2]
 806 0028 1A00     		movs	r2, r3
 807 002a 3B00     		movs	r3, r7
 808 002c 9A60     		str	r2, [r3, #8]
 256:Amperometric.c ****   clks_cal.ADCAvgNum = 0;
 809              		.loc 1 256 0
 810 002e 3B00     		movs	r3, r7
 811 0030 0022     		movs	r2, #0
 812 0032 1A61     		str	r2, [r3, #16]
 257:Amperometric.c ****   clks_cal.RatioSys2AdcClk = AppAMPCfg.SysClkFreq/AppAMPCfg.AdcClkFreq;
 813              		.loc 1 257 0
 814 0034 374B     		ldr	r3, .L33
 815 0036 9A69     		ldr	r2, [r3, #24]
 816 0038 364B     		ldr	r3, .L33
 817 003a 1B6A     		ldr	r3, [r3, #32]
 818 003c 191C     		adds	r1, r3, #0
 819 003e 101C     		adds	r0, r2, #0
 820 0040 FFF7FEFF 		bl	__aeabi_fdiv
 821 0044 031C     		adds	r3, r0, #0
 822 0046 1A1C     		adds	r2, r3, #0
 823 0048 3B00     		movs	r3, r7
 824 004a DA61     		str	r2, [r3, #28]
 258:Amperometric.c ****   AD5940_ClksCalculate(&clks_cal, &WaitClks);
 825              		.loc 1 258 0
 826 004c 2023     		movs	r3, #32
 827 004e FA18     		adds	r2, r7, r3
 828 0050 3B00     		movs	r3, r7
 829 0052 1100     		movs	r1, r2
 830 0054 1800     		movs	r0, r3
 831 0056 FFF7FEFF 		bl	AD5940_ClksCalculate
 259:Amperometric.c **** 	WaitClks += 15;
 832              		.loc 1 259 0
 833 005a 3B6A     		ldr	r3, [r7, #32]
 834 005c 0F33     		adds	r3, r3, #15
 835 005e 3B62     		str	r3, [r7, #32]
 260:Amperometric.c ****   AD5940_SEQGenCtrl(bTRUE);
 836              		.loc 1 260 0
 837 0060 0120     		movs	r0, #1
 838 0062 FFF7FEFF 		bl	AD5940_SEQGenCtrl
 261:Amperometric.c ****   AD5940_SEQGpioCtrlS(AGPIO_Pin2);
 839              		.loc 1 261 0
 840 0066 0420     		movs	r0, #4
 841 0068 FFF7FEFF 		bl	AD5940_SEQGpioCtrlS
 262:Amperometric.c ****   AD5940_AFECtrlS(AFECTRL_ADCPWR|AFECTRL_SINC2NOTCH, bTRUE);
 842              		.loc 1 262 0
 843 006c 2A4B     		ldr	r3, .L33+4
 844 006e 0121     		movs	r1, #1
 845 0070 1800     		movs	r0, r3
 846 0072 FFF7FEFF 		bl	AD5940_AFECtrlS
 263:Amperometric.c ****   AD5940_SEQGenInsert(SEQ_WAIT(16*250));    /* wait 250us */
 847              		.loc 1 263 0
ARM GAS  C:\Users\13740\AppData\Local\Temp\ccgjAoJh.s 			page 21


 848 0076 FA23     		movs	r3, #250
 849 0078 1B01     		lsls	r3, r3, #4
 850 007a 1800     		movs	r0, r3
 851 007c FFF7FEFF 		bl	AD5940_SEQGenInsert
 264:Amperometric.c ****   AD5940_AFECtrlS(AFECTRL_ADCCNV, bTRUE);   /* Start ADC convert*/
 852              		.loc 1 264 0
 853 0080 8023     		movs	r3, #128
 854 0082 5B00     		lsls	r3, r3, #1
 855 0084 0121     		movs	r1, #1
 856 0086 1800     		movs	r0, r3
 857 0088 FFF7FEFF 		bl	AD5940_AFECtrlS
 265:Amperometric.c ****   AD5940_SEQGenInsert(SEQ_WAIT(WaitClks));  /* wait for first data ready */
 858              		.loc 1 265 0
 859 008c 3B6A     		ldr	r3, [r7, #32]
 860 008e 9B00     		lsls	r3, r3, #2
 861 0090 9B08     		lsrs	r3, r3, #2
 862 0092 1800     		movs	r0, r3
 863 0094 FFF7FEFF 		bl	AD5940_SEQGenInsert
 266:Amperometric.c ****   AD5940_AFECtrlS(AFECTRL_ADCPWR|AFECTRL_ADCCNV|AFECTRL_SINC2NOTCH, bFALSE);  /* Stop ADC */
 864              		.loc 1 266 0
 865 0098 204B     		ldr	r3, .L33+8
 866 009a 0021     		movs	r1, #0
 867 009c 1800     		movs	r0, r3
 868 009e FFF7FEFF 		bl	AD5940_AFECtrlS
 267:Amperometric.c ****   AD5940_SEQGpioCtrlS(0);
 869              		.loc 1 267 0
 870 00a2 0020     		movs	r0, #0
 871 00a4 FFF7FEFF 		bl	AD5940_SEQGpioCtrlS
 268:Amperometric.c ****   AD5940_EnterSleepS();/* Goto hibernate */
 872              		.loc 1 268 0
 873 00a8 FFF7FEFF 		bl	AD5940_EnterSleepS
 269:Amperometric.c ****   /* Sequence end. */
 270:Amperometric.c ****   error = AD5940_SEQGenFetchSeq(&pSeqCmd, &SeqLen);
 874              		.loc 1 270 0
 875 00ac 2423     		movs	r3, #36
 876 00ae FA18     		adds	r2, r7, r3
 877 00b0 2823     		movs	r3, #40
 878 00b2 FB18     		adds	r3, r7, r3
 879 00b4 1100     		movs	r1, r2
 880 00b6 1800     		movs	r0, r3
 881 00b8 FFF7FEFF 		bl	AD5940_SEQGenFetchSeq
 882 00bc 0300     		movs	r3, r0
 883 00be FB62     		str	r3, [r7, #44]
 271:Amperometric.c ****   AD5940_SEQGenCtrl(bFALSE); /* Stop sequencer generator */
 884              		.loc 1 271 0
 885 00c0 0020     		movs	r0, #0
 886 00c2 FFF7FEFF 		bl	AD5940_SEQGenCtrl
 272:Amperometric.c **** 
 273:Amperometric.c ****   if(error == AD5940ERR_OK)
 887              		.loc 1 273 0
 888 00c6 FB6A     		ldr	r3, [r7, #44]
 889 00c8 002B     		cmp	r3, #0
 890 00ca 1DD1     		bne	.L29
 274:Amperometric.c ****   {
 275:Amperometric.c ****     AppAMPCfg.MeasureSeqInfo.SeqId = SEQID_0;
 891              		.loc 1 275 0
 892 00cc 114B     		ldr	r3, .L33
ARM GAS  C:\Users\13740\AppData\Local\Temp\ccgjAoJh.s 			page 22


 893 00ce 8422     		movs	r2, #132
 894 00d0 0021     		movs	r1, #0
 895 00d2 9950     		str	r1, [r3, r2]
 276:Amperometric.c ****     AppAMPCfg.MeasureSeqInfo.SeqRamAddr = AppAMPCfg.InitSeqInfo.SeqRamAddr + AppAMPCfg.InitSeqInfo.
 896              		.loc 1 276 0
 897 00d4 0F4B     		ldr	r3, .L33
 898 00d6 5A6F     		ldr	r2, [r3, #116]
 899 00d8 0E4B     		ldr	r3, .L33
 900 00da 9B6F     		ldr	r3, [r3, #120]
 901 00dc D218     		adds	r2, r2, r3
 902 00de 0D4B     		ldr	r3, .L33
 903 00e0 8821     		movs	r1, #136
 904 00e2 5A50     		str	r2, [r3, r1]
 277:Amperometric.c ****     AppAMPCfg.MeasureSeqInfo.pSeqCmd = pSeqCmd;
 905              		.loc 1 277 0
 906 00e4 BA6A     		ldr	r2, [r7, #40]
 907 00e6 0B4B     		ldr	r3, .L33
 908 00e8 9421     		movs	r1, #148
 909 00ea 5A50     		str	r2, [r3, r1]
 278:Amperometric.c ****     AppAMPCfg.MeasureSeqInfo.SeqLen = SeqLen;
 910              		.loc 1 278 0
 911 00ec 7A6A     		ldr	r2, [r7, #36]
 912 00ee 094B     		ldr	r3, .L33
 913 00f0 8C21     		movs	r1, #140
 914 00f2 5A50     		str	r2, [r3, r1]
 279:Amperometric.c ****     /* Write command to SRAM */
 280:Amperometric.c ****     AD5940_SEQCmdWrite(AppAMPCfg.MeasureSeqInfo.SeqRamAddr, pSeqCmd, SeqLen);
 915              		.loc 1 280 0
 916 00f4 074B     		ldr	r3, .L33
 917 00f6 8822     		movs	r2, #136
 918 00f8 9B58     		ldr	r3, [r3, r2]
 919 00fa B96A     		ldr	r1, [r7, #40]
 920 00fc 7A6A     		ldr	r2, [r7, #36]
 921 00fe 1800     		movs	r0, r3
 922 0100 FFF7FEFF 		bl	AD5940_SEQCmdWrite
 281:Amperometric.c ****   }
 282:Amperometric.c ****   else
 283:Amperometric.c ****     return error; /* Error */
 284:Amperometric.c ****   return AD5940ERR_OK;
 923              		.loc 1 284 0
 924 0104 0023     		movs	r3, #0
 925 0106 00E0     		b	.L32
 926              	.L29:
 283:Amperometric.c ****   return AD5940ERR_OK;
 927              		.loc 1 283 0
 928 0108 FB6A     		ldr	r3, [r7, #44]
 929              	.L32:
 285:Amperometric.c **** }
 930              		.loc 1 285 0 discriminator 1
 931 010a 1800     		movs	r0, r3
 932 010c BD46     		mov	sp, r7
 933 010e 0CB0     		add	sp, sp, #48
 934              		@ sp needed
 935 0110 80BD     		pop	{r7, pc}
 936              	.L34:
 937 0112 C046     		.align	2
 938              	.L33:
ARM GAS  C:\Users\13740\AppData\Local\Temp\ccgjAoJh.s 			page 23


 939 0114 00000000 		.word	AppAMPCfg
 940 0118 80000100 		.word	65664
 941 011c 80010100 		.word	65920
 942              		.cfi_endproc
 943              	.LFE4:
 944              		.size	AppAMPSeqMeasureGen, .-AppAMPSeqMeasureGen
 945              		.section	.text.AppAMPRtiaCal,"ax",%progbits
 946              		.align	2
 947              		.code	16
 948              		.thumb_func
 949              		.type	AppAMPRtiaCal, %function
 950              	AppAMPRtiaCal:
 951              	.LFB5:
 286:Amperometric.c **** static AD5940Err AppAMPRtiaCal(void)
 287:Amperometric.c **** {
 952              		.loc 1 287 0
 953              		.cfi_startproc
 954              		@ args = 0, pretend = 0, frame = 64
 955              		@ frame_needed = 1, uses_anonymous_args = 0
 956 0000 80B5     		push	{r7, lr}
 957              		.cfi_def_cfa_offset 8
 958              		.cfi_offset 7, -8
 959              		.cfi_offset 14, -4
 960 0002 90B0     		sub	sp, sp, #64
 961              		.cfi_def_cfa_offset 72
 962 0004 00AF     		add	r7, sp, #0
 963              		.cfi_def_cfa_register 7
 288:Amperometric.c **** fImpPol_Type RtiaCalValue;  /* Calibration result */
 289:Amperometric.c ****   LPRTIACal_Type lprtia_cal;
 290:Amperometric.c ****   AD5940_StructInit(&lprtia_cal, sizeof(lprtia_cal));
 964              		.loc 1 290 0
 965 0006 3B00     		movs	r3, r7
 966 0008 3821     		movs	r1, #56
 967 000a 1800     		movs	r0, r3
 968 000c FFF7FEFF 		bl	AD5940_StructInit
 291:Amperometric.c **** 
 292:Amperometric.c ****   lprtia_cal.bPolarResult = bTRUE;                /* Magnitude + Phase */
 969              		.loc 1 292 0
 970 0010 3B00     		movs	r3, r7
 971 0012 0122     		movs	r2, #1
 972 0014 5A63     		str	r2, [r3, #52]
 293:Amperometric.c ****   lprtia_cal.AdcClkFreq = AppAMPCfg.AdcClkFreq;
 973              		.loc 1 293 0
 974 0016 294B     		ldr	r3, .L37
 975 0018 1A6A     		ldr	r2, [r3, #32]
 976 001a 3B00     		movs	r3, r7
 977 001c DA60     		str	r2, [r3, #12]
 294:Amperometric.c ****   lprtia_cal.SysClkFreq = AppAMPCfg.SysClkFreq;
 978              		.loc 1 294 0
 979 001e 274B     		ldr	r3, .L37
 980 0020 9A69     		ldr	r2, [r3, #24]
 981 0022 3B00     		movs	r3, r7
 982 0024 9A60     		str	r2, [r3, #8]
 295:Amperometric.c ****   lprtia_cal.ADCSinc3Osr = ADCSINC3OSR_4;
 983              		.loc 1 295 0
 984 0026 3B00     		movs	r3, r7
 985 0028 0122     		movs	r2, #1
ARM GAS  C:\Users\13740\AppData\Local\Temp\ccgjAoJh.s 			page 24


 986 002a 1A62     		str	r2, [r3, #32]
 296:Amperometric.c ****   lprtia_cal.ADCSinc2Osr = ADCSINC2OSR_22;        /* Use SINC2 data as DFT data source */
 987              		.loc 1 296 0
 988 002c 3B00     		movs	r3, r7
 989 002e 0022     		movs	r2, #0
 990 0030 5A62     		str	r2, [r3, #36]
 297:Amperometric.c ****   lprtia_cal.DftCfg.DftNum = DFTNUM_2048;         /* Maximum DFT number */
 991              		.loc 1 297 0
 992 0032 3B00     		movs	r3, r7
 993 0034 0922     		movs	r2, #9
 994 0036 9A62     		str	r2, [r3, #40]
 298:Amperometric.c ****   lprtia_cal.DftCfg.DftSrc = DFTSRC_SINC2NOTCH;   /* For frequency under 12Hz, need to optimize DFT
 995              		.loc 1 298 0
 996 0038 3B00     		movs	r3, r7
 997 003a 0022     		movs	r2, #0
 998 003c DA62     		str	r2, [r3, #44]
 299:Amperometric.c ****   lprtia_cal.DftCfg.HanWinEn = bTRUE;
 999              		.loc 1 299 0
 1000 003e 3B00     		movs	r3, r7
 1001 0040 3022     		movs	r2, #48
 1002 0042 0121     		movs	r1, #1
 1003 0044 9954     		strb	r1, [r3, r2]
 300:Amperometric.c ****   lprtia_cal.fFreq = AppAMPCfg.AdcClkFreq/4/22/2048*3;  /* Sample 3 period of signal, 13.317Hz here
 1004              		.loc 1 300 0
 1005 0046 1D4B     		ldr	r3, .L37
 1006 0048 1B6A     		ldr	r3, [r3, #32]
 1007 004a 8121     		movs	r1, #129
 1008 004c C905     		lsls	r1, r1, #23
 1009 004e 181C     		adds	r0, r3, #0
 1010 0050 FFF7FEFF 		bl	__aeabi_fdiv
 1011 0054 031C     		adds	r3, r0, #0
 1012 0056 1A49     		ldr	r1, .L37+4
 1013 0058 181C     		adds	r0, r3, #0
 1014 005a FFF7FEFF 		bl	__aeabi_fdiv
 1015 005e 031C     		adds	r3, r0, #0
 1016 0060 8A21     		movs	r1, #138
 1017 0062 C905     		lsls	r1, r1, #23
 1018 0064 181C     		adds	r0, r3, #0
 1019 0066 FFF7FEFF 		bl	__aeabi_fdiv
 1020 006a 031C     		adds	r3, r0, #0
 1021 006c 1549     		ldr	r1, .L37+8
 1022 006e 181C     		adds	r0, r3, #0
 1023 0070 FFF7FEFF 		bl	__aeabi_fmul
 1024 0074 031C     		adds	r3, r0, #0
 1025 0076 1A1C     		adds	r2, r3, #0
 1026 0078 3B00     		movs	r3, r7
 1027 007a 1A60     		str	r2, [r3]
 301:Amperometric.c ****   lprtia_cal.fRcal = AppAMPCfg.RcalVal;
 1028              		.loc 1 301 0
 1029 007c 0F4B     		ldr	r3, .L37
 1030 007e 1A6B     		ldr	r2, [r3, #48]
 1031 0080 3B00     		movs	r3, r7
 1032 0082 5A60     		str	r2, [r3, #4]
 302:Amperometric.c ****   lprtia_cal.LpTiaRtia = AppAMPCfg.LptiaRtiaSel;
 1033              		.loc 1 302 0
 1034 0084 0D4B     		ldr	r3, .L37
 1035 0086 9A6C     		ldr	r2, [r3, #72]
ARM GAS  C:\Users\13740\AppData\Local\Temp\ccgjAoJh.s 			page 25


 1036 0088 3B00     		movs	r3, r7
 1037 008a 9A61     		str	r2, [r3, #24]
 303:Amperometric.c ****   lprtia_cal.LpAmpPwrMod = LPAMPPWR_NORM;
 1038              		.loc 1 303 0
 1039 008c 3B00     		movs	r3, r7
 1040 008e 0022     		movs	r2, #0
 1041 0090 DA61     		str	r2, [r3, #28]
 304:Amperometric.c ****   lprtia_cal.bWithCtia = bFALSE;
 1042              		.loc 1 304 0
 1043 0092 3B00     		movs	r3, r7
 1044 0094 0022     		movs	r2, #0
 1045 0096 1A75     		strb	r2, [r3, #20]
 305:Amperometric.c ****   AD5940_LPRtiaCal(&lprtia_cal, &RtiaCalValue);
 1046              		.loc 1 305 0
 1047 0098 3823     		movs	r3, #56
 1048 009a FA18     		adds	r2, r7, r3
 1049 009c 3B00     		movs	r3, r7
 1050 009e 1100     		movs	r1, r2
 1051 00a0 1800     		movs	r0, r3
 1052 00a2 FFF7FEFF 		bl	AD5940_LPRtiaCal
 306:Amperometric.c ****   AppAMPCfg.RtiaCalValue = RtiaCalValue;
 1053              		.loc 1 306 0
 1054 00a6 054B     		ldr	r3, .L37
 1055 00a8 3822     		movs	r2, #56
 1056 00aa BA18     		adds	r2, r7, r2
 1057 00ac 5433     		adds	r3, r3, #84
 1058 00ae 03CA     		ldmia	r2!, {r0, r1}
 1059 00b0 03C3     		stmia	r3!, {r0, r1}
 307:Amperometric.c ****  
 308:Amperometric.c ****   return AD5940ERR_OK;
 1060              		.loc 1 308 0
 1061 00b2 0023     		movs	r3, #0
 309:Amperometric.c **** }
 1062              		.loc 1 309 0
 1063 00b4 1800     		movs	r0, r3
 1064 00b6 BD46     		mov	sp, r7
 1065 00b8 10B0     		add	sp, sp, #64
 1066              		@ sp needed
 1067 00ba 80BD     		pop	{r7, pc}
 1068              	.L38:
 1069              		.align	2
 1070              	.L37:
 1071 00bc 00000000 		.word	AppAMPCfg
 1072 00c0 0000B041 		.word	1102053376
 1073 00c4 00004040 		.word	1077936128
 1074              		.cfi_endproc
 1075              	.LFE5:
 1076              		.size	AppAMPRtiaCal, .-AppAMPRtiaCal
 1077              		.section	.text.AppAMPInit,"ax",%progbits
 1078              		.align	2
 1079              		.global	AppAMPInit
 1080              		.code	16
 1081              		.thumb_func
 1082              		.type	AppAMPInit, %function
 1083              	AppAMPInit:
 1084              	.LFB6:
 310:Amperometric.c **** /* This function provide application initialize.   */
ARM GAS  C:\Users\13740\AppData\Local\Temp\ccgjAoJh.s 			page 26


 311:Amperometric.c **** AD5940Err AppAMPInit(uint32_t *pBuffer, uint32_t BufferSize)
 312:Amperometric.c **** {
 1085              		.loc 1 312 0
 1086              		.cfi_startproc
 1087              		@ args = 0, pretend = 0, frame = 48
 1088              		@ frame_needed = 1, uses_anonymous_args = 0
 1089 0000 80B5     		push	{r7, lr}
 1090              		.cfi_def_cfa_offset 8
 1091              		.cfi_offset 7, -8
 1092              		.cfi_offset 14, -4
 1093 0002 8CB0     		sub	sp, sp, #48
 1094              		.cfi_def_cfa_offset 56
 1095 0004 00AF     		add	r7, sp, #0
 1096              		.cfi_def_cfa_register 7
 1097 0006 7860     		str	r0, [r7, #4]
 1098 0008 3960     		str	r1, [r7]
 313:Amperometric.c ****   AD5940Err error = AD5940ERR_OK;
 1099              		.loc 1 313 0
 1100 000a 0023     		movs	r3, #0
 1101 000c FB62     		str	r3, [r7, #44]
 314:Amperometric.c ****   SEQCfg_Type seq_cfg;
 315:Amperometric.c ****   FIFOCfg_Type fifo_cfg;
 316:Amperometric.c **** 
 317:Amperometric.c ****   if(AD5940_WakeUp(10) > 10)  /* Wakeup AFE by read register, read 10 times at most */
 1102              		.loc 1 317 0
 1103 000e 0A20     		movs	r0, #10
 1104 0010 FFF7FEFF 		bl	AD5940_WakeUp
 1105 0014 0300     		movs	r3, r0
 1106 0016 0A2B     		cmp	r3, #10
 1107 0018 02D9     		bls	.L40
 318:Amperometric.c ****     return AD5940ERR_WAKEUP;  /* Wakeup Failed */
 1108              		.loc 1 318 0
 1109 001a 0923     		movs	r3, #9
 1110 001c 5B42     		rsbs	r3, r3, #0
 1111 001e BFE0     		b	.L52
 1112              	.L40:
 319:Amperometric.c **** 
 320:Amperometric.c ****   /* Configure sequencer and stop it */
 321:Amperometric.c ****   seq_cfg.SeqMemSize = SEQMEMSIZE_2KB;  /* 2kB SRAM is used for sequencer, others for data FIFO */
 1113              		.loc 1 321 0
 1114 0020 2023     		movs	r3, #32
 1115 0022 FB18     		adds	r3, r7, r3
 1116 0024 0122     		movs	r2, #1
 1117 0026 1A60     		str	r2, [r3]
 322:Amperometric.c ****   seq_cfg.SeqBreakEn = bFALSE;
 1118              		.loc 1 322 0
 1119 0028 2023     		movs	r3, #32
 1120 002a FB18     		adds	r3, r7, r3
 1121 002c 0022     		movs	r2, #0
 1122 002e 5A71     		strb	r2, [r3, #5]
 323:Amperometric.c ****   seq_cfg.SeqIgnoreEn = bFALSE;
 1123              		.loc 1 323 0
 1124 0030 2023     		movs	r3, #32
 1125 0032 FB18     		adds	r3, r7, r3
 1126 0034 0022     		movs	r2, #0
 1127 0036 9A71     		strb	r2, [r3, #6]
 324:Amperometric.c ****   seq_cfg.SeqCntCRCClr = bTRUE;
ARM GAS  C:\Users\13740\AppData\Local\Temp\ccgjAoJh.s 			page 27


 1128              		.loc 1 324 0
 1129 0038 2023     		movs	r3, #32
 1130 003a FB18     		adds	r3, r7, r3
 1131 003c 0122     		movs	r2, #1
 1132 003e DA71     		strb	r2, [r3, #7]
 325:Amperometric.c ****   seq_cfg.SeqEnable = bFALSE;
 1133              		.loc 1 325 0
 1134 0040 2023     		movs	r3, #32
 1135 0042 FB18     		adds	r3, r7, r3
 1136 0044 0022     		movs	r2, #0
 1137 0046 1A71     		strb	r2, [r3, #4]
 326:Amperometric.c ****   seq_cfg.SeqWrTimer = 0;
 1138              		.loc 1 326 0
 1139 0048 2023     		movs	r3, #32
 1140 004a FB18     		adds	r3, r7, r3
 1141 004c 0022     		movs	r2, #0
 1142 004e 9A60     		str	r2, [r3, #8]
 327:Amperometric.c ****   AD5940_SEQCfg(&seq_cfg);
 1143              		.loc 1 327 0
 1144 0050 2023     		movs	r3, #32
 1145 0052 FB18     		adds	r3, r7, r3
 1146 0054 1800     		movs	r0, r3
 1147 0056 FFF7FEFF 		bl	AD5940_SEQCfg
 328:Amperometric.c **** 
 329:Amperometric.c ****   /* Do RTIA calibration */
 330:Amperometric.c ****   if(((AppAMPCfg.ReDoRtiaCal == bTRUE) || \
 1148              		.loc 1 330 0
 1149 005a 534B     		ldr	r3, .L53
 1150 005c 1B7D     		ldrb	r3, [r3, #20]
 1151 005e 012B     		cmp	r3, #1
 1152 0060 04D0     		beq	.L42
 331:Amperometric.c ****       AppAMPCfg.AMPInited == bFALSE) && AppAMPCfg.ExtRtia == bFALSE)  /* Do calibration on the firs
 1153              		.loc 1 331 0 discriminator 1
 1154 0062 514B     		ldr	r3, .L53
 1155 0064 6C22     		movs	r2, #108
 1156 0066 9B5C     		ldrb	r3, [r3, r2]
 330:Amperometric.c ****       AppAMPCfg.AMPInited == bFALSE) && AppAMPCfg.ExtRtia == bFALSE)  /* Do calibration on the firs
 1157              		.loc 1 330 0 discriminator 1
 1158 0068 002B     		cmp	r3, #0
 1159 006a 0AD1     		bne	.L43
 1160              	.L42:
 1161              		.loc 1 331 0
 1162 006c 4E4B     		ldr	r3, .L53
 1163 006e 6422     		movs	r2, #100
 1164 0070 9B5C     		ldrb	r3, [r3, r2]
 1165 0072 002B     		cmp	r3, #0
 1166 0074 05D1     		bne	.L43
 332:Amperometric.c ****   {
 333:Amperometric.c ****     AppAMPRtiaCal();
 1167              		.loc 1 333 0
 1168 0076 FFF7FEFF 		bl	AppAMPRtiaCal
 334:Amperometric.c ****     AppAMPCfg.ReDoRtiaCal = bFALSE;
 1169              		.loc 1 334 0
 1170 007a 4B4B     		ldr	r3, .L53
 1171 007c 0022     		movs	r2, #0
 1172 007e 1A75     		strb	r2, [r3, #20]
 1173 0080 03E0     		b	.L44
ARM GAS  C:\Users\13740\AppData\Local\Temp\ccgjAoJh.s 			page 28


 1174              	.L43:
 335:Amperometric.c ****   }else
 336:Amperometric.c **** 		AppAMPCfg.RtiaCalValue.Magnitude = AppAMPCfg.ExtRtiaVal;
 1175              		.loc 1 336 0
 1176 0082 494B     		ldr	r3, .L53
 1177 0084 9A6E     		ldr	r2, [r3, #104]
 1178 0086 484B     		ldr	r3, .L53
 1179 0088 5A65     		str	r2, [r3, #84]
 1180              	.L44:
 337:Amperometric.c ****   
 338:Amperometric.c **** 	/* Reconfigure FIFO */
 339:Amperometric.c ****   AD5940_FIFOCtrlS(DFTSRC_SINC3, bFALSE);									/* Disable FIFO firstly */
 1181              		.loc 1 339 0
 1182 008a 0021     		movs	r1, #0
 1183 008c 0120     		movs	r0, #1
 1184 008e FFF7FEFF 		bl	AD5940_FIFOCtrlS
 340:Amperometric.c ****   fifo_cfg.FIFOEn = bTRUE;
 1185              		.loc 1 340 0
 1186 0092 0C23     		movs	r3, #12
 1187 0094 FB18     		adds	r3, r7, r3
 1188 0096 0122     		movs	r2, #1
 1189 0098 1A70     		strb	r2, [r3]
 341:Amperometric.c ****   fifo_cfg.FIFOMode = FIFOMODE_FIFO;
 1190              		.loc 1 341 0
 1191 009a 0C23     		movs	r3, #12
 1192 009c FB18     		adds	r3, r7, r3
 1193 009e 0222     		movs	r2, #2
 1194 00a0 5A60     		str	r2, [r3, #4]
 342:Amperometric.c ****   fifo_cfg.FIFOSize = FIFOSIZE_4KB;                       /* 4kB for FIFO, The reset 2kB for sequen
 1195              		.loc 1 342 0
 1196 00a2 0C23     		movs	r3, #12
 1197 00a4 FB18     		adds	r3, r7, r3
 1198 00a6 0222     		movs	r2, #2
 1199 00a8 9A60     		str	r2, [r3, #8]
 343:Amperometric.c ****   fifo_cfg.FIFOSrc = AppAMPCfg.DataFifoSrc;
 1200              		.loc 1 343 0
 1201 00aa 3F4B     		ldr	r3, .L53
 1202 00ac 5A6C     		ldr	r2, [r3, #68]
 1203 00ae 0C23     		movs	r3, #12
 1204 00b0 FB18     		adds	r3, r7, r3
 1205 00b2 DA60     		str	r2, [r3, #12]
 344:Amperometric.c ****   fifo_cfg.FIFOThresh = AppAMPCfg.FifoThresh;              
 1206              		.loc 1 344 0
 1207 00b4 3C4B     		ldr	r3, .L53
 1208 00b6 5A6A     		ldr	r2, [r3, #36]
 1209 00b8 0C23     		movs	r3, #12
 1210 00ba FB18     		adds	r3, r7, r3
 1211 00bc 1A61     		str	r2, [r3, #16]
 345:Amperometric.c ****   AD5940_FIFOCfg(&fifo_cfg);
 1212              		.loc 1 345 0
 1213 00be 0C23     		movs	r3, #12
 1214 00c0 FB18     		adds	r3, r7, r3
 1215 00c2 1800     		movs	r0, r3
 1216 00c4 FFF7FEFF 		bl	AD5940_FIFOCfg
 346:Amperometric.c **** 
 347:Amperometric.c ****   AD5940_INTCClrFlag(AFEINTSRC_ALLINT);
 1217              		.loc 1 347 0
ARM GAS  C:\Users\13740\AppData\Local\Temp\ccgjAoJh.s 			page 29


 1218 00c8 0123     		movs	r3, #1
 1219 00ca 5B42     		rsbs	r3, r3, #0
 1220 00cc 1800     		movs	r0, r3
 1221 00ce FFF7FEFF 		bl	AD5940_INTCClrFlag
 348:Amperometric.c ****   
 349:Amperometric.c ****   /* Start sequence generator */
 350:Amperometric.c ****   /* Initialize sequencer generator */
 351:Amperometric.c ****   if((AppAMPCfg.AMPInited == bFALSE)||\
 1222              		.loc 1 351 0
 1223 00d2 354B     		ldr	r3, .L53
 1224 00d4 6C22     		movs	r2, #108
 1225 00d6 9B5C     		ldrb	r3, [r3, r2]
 1226 00d8 002B     		cmp	r3, #0
 1227 00da 03D0     		beq	.L45
 352:Amperometric.c ****        (AppAMPCfg.bParaChanged == bTRUE))
 1228              		.loc 1 352 0 discriminator 1
 1229 00dc 324B     		ldr	r3, .L53
 1230 00de 1B78     		ldrb	r3, [r3]
 351:Amperometric.c ****        (AppAMPCfg.bParaChanged == bTRUE))
 1231              		.loc 1 351 0 discriminator 1
 1232 00e0 012B     		cmp	r3, #1
 1233 00e2 26D1     		bne	.L46
 1234              	.L45:
 353:Amperometric.c ****   {
 354:Amperometric.c ****     if(pBuffer == 0)  return AD5940ERR_PARA;
 1235              		.loc 1 354 0
 1236 00e4 7B68     		ldr	r3, [r7, #4]
 1237 00e6 002B     		cmp	r3, #0
 1238 00e8 02D1     		bne	.L47
 1239              		.loc 1 354 0 is_stmt 0 discriminator 1
 1240 00ea 0223     		movs	r3, #2
 1241 00ec 5B42     		rsbs	r3, r3, #0
 1242 00ee 57E0     		b	.L52
 1243              	.L47:
 355:Amperometric.c ****     if(BufferSize == 0) return AD5940ERR_PARA;   
 1244              		.loc 1 355 0 is_stmt 1
 1245 00f0 3B68     		ldr	r3, [r7]
 1246 00f2 002B     		cmp	r3, #0
 1247 00f4 02D1     		bne	.L48
 1248              		.loc 1 355 0 is_stmt 0 discriminator 1
 1249 00f6 0223     		movs	r3, #2
 1250 00f8 5B42     		rsbs	r3, r3, #0
 1251 00fa 51E0     		b	.L52
 1252              	.L48:
 356:Amperometric.c ****     AD5940_SEQGenInit(pBuffer, BufferSize);
 1253              		.loc 1 356 0 is_stmt 1
 1254 00fc 3A68     		ldr	r2, [r7]
 1255 00fe 7B68     		ldr	r3, [r7, #4]
 1256 0100 1100     		movs	r1, r2
 1257 0102 1800     		movs	r0, r3
 1258 0104 FFF7FEFF 		bl	AD5940_SEQGenInit
 357:Amperometric.c **** 
 358:Amperometric.c ****     /* Generate initialize sequence */
 359:Amperometric.c ****     error = AppAMPSeqCfgGen(); /* Application initialization sequence using either MCU or sequencer
 1259              		.loc 1 359 0
 1260 0108 FFF7FEFF 		bl	AppAMPSeqCfgGen
 1261 010c 0300     		movs	r3, r0
ARM GAS  C:\Users\13740\AppData\Local\Temp\ccgjAoJh.s 			page 30


 1262 010e FB62     		str	r3, [r7, #44]
 360:Amperometric.c ****     if(error != AD5940ERR_OK) return error;
 1263              		.loc 1 360 0
 1264 0110 FB6A     		ldr	r3, [r7, #44]
 1265 0112 002B     		cmp	r3, #0
 1266 0114 01D0     		beq	.L49
 1267              		.loc 1 360 0 is_stmt 0 discriminator 1
 1268 0116 FB6A     		ldr	r3, [r7, #44]
 1269 0118 42E0     		b	.L52
 1270              	.L49:
 361:Amperometric.c **** 
 362:Amperometric.c ****     /* Generate measurement sequence */
 363:Amperometric.c ****     error = AppAMPSeqMeasureGen();
 1271              		.loc 1 363 0 is_stmt 1
 1272 011a FFF7FEFF 		bl	AppAMPSeqMeasureGen
 1273 011e 0300     		movs	r3, r0
 1274 0120 FB62     		str	r3, [r7, #44]
 364:Amperometric.c ****     if(error != AD5940ERR_OK) return error;
 1275              		.loc 1 364 0
 1276 0122 FB6A     		ldr	r3, [r7, #44]
 1277 0124 002B     		cmp	r3, #0
 1278 0126 01D0     		beq	.L50
 1279              		.loc 1 364 0 is_stmt 0 discriminator 1
 1280 0128 FB6A     		ldr	r3, [r7, #44]
 1281 012a 39E0     		b	.L52
 1282              	.L50:
 365:Amperometric.c **** 
 366:Amperometric.c ****     AppAMPCfg.bParaChanged = bFALSE; /* Clear this flag as we already implemented the new configura
 1283              		.loc 1 366 0 is_stmt 1
 1284 012c 1E4B     		ldr	r3, .L53
 1285 012e 0022     		movs	r2, #0
 1286 0130 1A70     		strb	r2, [r3]
 1287              	.L46:
 367:Amperometric.c ****   }
 368:Amperometric.c ****   /* Initialization sequencer  */
 369:Amperometric.c ****   AppAMPCfg.InitSeqInfo.WriteSRAM = bFALSE;
 1288              		.loc 1 369 0
 1289 0132 1D4B     		ldr	r3, .L53
 1290 0134 7C22     		movs	r2, #124
 1291 0136 0021     		movs	r1, #0
 1292 0138 9954     		strb	r1, [r3, r2]
 370:Amperometric.c ****   AD5940_SEQInfoCfg(&AppAMPCfg.InitSeqInfo);
 1293              		.loc 1 370 0
 1294 013a 1C4B     		ldr	r3, .L53+4
 1295 013c 1800     		movs	r0, r3
 1296 013e FFF7FEFF 		bl	AD5940_SEQInfoCfg
 371:Amperometric.c ****   seq_cfg.SeqEnable = bTRUE;
 1297              		.loc 1 371 0
 1298 0142 2023     		movs	r3, #32
 1299 0144 FB18     		adds	r3, r7, r3
 1300 0146 0122     		movs	r2, #1
 1301 0148 1A71     		strb	r2, [r3, #4]
 372:Amperometric.c ****   AD5940_SEQCfg(&seq_cfg);  /* Enable sequencer */
 1302              		.loc 1 372 0
 1303 014a 2023     		movs	r3, #32
 1304 014c FB18     		adds	r3, r7, r3
 1305 014e 1800     		movs	r0, r3
ARM GAS  C:\Users\13740\AppData\Local\Temp\ccgjAoJh.s 			page 31


 1306 0150 FFF7FEFF 		bl	AD5940_SEQCfg
 373:Amperometric.c ****   AD5940_SEQMmrTrig(AppAMPCfg.InitSeqInfo.SeqId);
 1307              		.loc 1 373 0
 1308 0154 144B     		ldr	r3, .L53
 1309 0156 1B6F     		ldr	r3, [r3, #112]
 1310 0158 1800     		movs	r0, r3
 1311 015a FFF7FEFF 		bl	AD5940_SEQMmrTrig
 374:Amperometric.c ****   while(AD5940_INTCTestFlag(AFEINTC_1, AFEINTSRC_ENDSEQ) == bFALSE);
 1312              		.loc 1 374 0
 1313 015e C046     		nop
 1314              	.L51:
 1315              		.loc 1 374 0 is_stmt 0 discriminator 1
 1316 0160 8023     		movs	r3, #128
 1317 0162 1B02     		lsls	r3, r3, #8
 1318 0164 1900     		movs	r1, r3
 1319 0166 0120     		movs	r0, #1
 1320 0168 FFF7FEFF 		bl	AD5940_INTCTestFlag
 1321 016c 031E     		subs	r3, r0, #0
 1322 016e F7D0     		beq	.L51
 375:Amperometric.c ****   
 376:Amperometric.c ****   /* Measurement sequence  */
 377:Amperometric.c ****   AppAMPCfg.MeasureSeqInfo.WriteSRAM = bFALSE;
 1323              		.loc 1 377 0 is_stmt 1
 1324 0170 0D4B     		ldr	r3, .L53
 1325 0172 9022     		movs	r2, #144
 1326 0174 0021     		movs	r1, #0
 1327 0176 9954     		strb	r1, [r3, r2]
 378:Amperometric.c ****   AD5940_SEQInfoCfg(&AppAMPCfg.MeasureSeqInfo);
 1328              		.loc 1 378 0
 1329 0178 0D4B     		ldr	r3, .L53+8
 1330 017a 1800     		movs	r0, r3
 1331 017c FFF7FEFF 		bl	AD5940_SEQInfoCfg
 379:Amperometric.c **** 
 380:Amperometric.c **** //  seq_cfg.SeqEnable = bTRUE;
 381:Amperometric.c **** //  AD5940_SEQCfg(&seq_cfg);  /* Enable sequencer, and wait for trigger */
 382:Amperometric.c **** 	AD5940_SEQCtrlS(bTRUE);  /* Enable sequencer, and wait for trigger. It's disabled in initializatio
 1332              		.loc 1 382 0
 1333 0180 0120     		movs	r0, #1
 1334 0182 FFF7FEFF 		bl	AD5940_SEQCtrlS
 383:Amperometric.c ****   AD5940_ClrMCUIntFlag();   /* Clear interrupt flag generated before */
 1335              		.loc 1 383 0
 1336 0186 FFF7FEFF 		bl	AD5940_ClrMCUIntFlag
 384:Amperometric.c **** 
 385:Amperometric.c ****   AD5940_AFEPwrBW(AppAMPCfg.PwrMod, AFEBW_250KHZ);
 1337              		.loc 1 385 0
 1338 018a 074B     		ldr	r3, .L53
 1339 018c 9B6B     		ldr	r3, [r3, #56]
 1340 018e 0321     		movs	r1, #3
 1341 0190 1800     		movs	r0, r3
 1342 0192 FFF7FEFF 		bl	AD5940_AFEPwrBW
 386:Amperometric.c ****   AppAMPCfg.AMPInited = bTRUE;  /* AMP application has been initialized. */
 1343              		.loc 1 386 0
 1344 0196 044B     		ldr	r3, .L53
 1345 0198 6C22     		movs	r2, #108
 1346 019a 0121     		movs	r1, #1
 1347 019c 9954     		strb	r1, [r3, r2]
 387:Amperometric.c ****   return AD5940ERR_OK;
ARM GAS  C:\Users\13740\AppData\Local\Temp\ccgjAoJh.s 			page 32


 1348              		.loc 1 387 0
 1349 019e 0023     		movs	r3, #0
 1350              	.L52:
 388:Amperometric.c **** }
 1351              		.loc 1 388 0 discriminator 1
 1352 01a0 1800     		movs	r0, r3
 1353 01a2 BD46     		mov	sp, r7
 1354 01a4 0CB0     		add	sp, sp, #48
 1355              		@ sp needed
 1356 01a6 80BD     		pop	{r7, pc}
 1357              	.L54:
 1358              		.align	2
 1359              	.L53:
 1360 01a8 00000000 		.word	AppAMPCfg
 1361 01ac 70000000 		.word	AppAMPCfg+112
 1362 01b0 84000000 		.word	AppAMPCfg+132
 1363              		.cfi_endproc
 1364              	.LFE6:
 1365              		.size	AppAMPInit, .-AppAMPInit
 1366              		.section	.text.AppAMPRegModify,"ax",%progbits
 1367              		.align	2
 1368              		.code	16
 1369              		.thumb_func
 1370              		.type	AppAMPRegModify, %function
 1371              	AppAMPRegModify:
 1372              	.LFB7:
 389:Amperometric.c **** 
 390:Amperometric.c **** /* Modify registers when AFE wakeup */
 391:Amperometric.c **** static AD5940Err AppAMPRegModify(int32_t * const pData, uint32_t *pDataCount)
 392:Amperometric.c **** {
 1373              		.loc 1 392 0
 1374              		.cfi_startproc
 1375              		@ args = 0, pretend = 0, frame = 8
 1376              		@ frame_needed = 1, uses_anonymous_args = 0
 1377 0000 80B5     		push	{r7, lr}
 1378              		.cfi_def_cfa_offset 8
 1379              		.cfi_offset 7, -8
 1380              		.cfi_offset 14, -4
 1381 0002 82B0     		sub	sp, sp, #8
 1382              		.cfi_def_cfa_offset 16
 1383 0004 00AF     		add	r7, sp, #0
 1384              		.cfi_def_cfa_register 7
 1385 0006 7860     		str	r0, [r7, #4]
 1386 0008 3960     		str	r1, [r7]
 393:Amperometric.c ****   if(AppAMPCfg.NumOfData > 0)
 1387              		.loc 1 393 0
 1388 000a 144B     		ldr	r3, .L59
 1389 000c DB6A     		ldr	r3, [r3, #44]
 1390 000e 002B     		cmp	r3, #0
 1391 0010 15DD     		ble	.L56
 394:Amperometric.c ****   {
 395:Amperometric.c ****     AppAMPCfg.FifoDataCount += *pDataCount/4;
 1392              		.loc 1 395 0
 1393 0012 124B     		ldr	r3, .L59
 1394 0014 9C22     		movs	r2, #156
 1395 0016 9A58     		ldr	r2, [r3, r2]
 1396 0018 3B68     		ldr	r3, [r7]
ARM GAS  C:\Users\13740\AppData\Local\Temp\ccgjAoJh.s 			page 33


 1397 001a 1B68     		ldr	r3, [r3]
 1398 001c 9B08     		lsrs	r3, r3, #2
 1399 001e D218     		adds	r2, r2, r3
 1400 0020 0E4B     		ldr	r3, .L59
 1401 0022 9C21     		movs	r1, #156
 1402 0024 5A50     		str	r2, [r3, r1]
 396:Amperometric.c ****     if(AppAMPCfg.FifoDataCount >= AppAMPCfg.NumOfData)
 1403              		.loc 1 396 0
 1404 0026 0D4B     		ldr	r3, .L59
 1405 0028 9C22     		movs	r2, #156
 1406 002a 9A58     		ldr	r2, [r3, r2]
 1407 002c 0B4B     		ldr	r3, .L59
 1408 002e DB6A     		ldr	r3, [r3, #44]
 1409 0030 9A42     		cmp	r2, r3
 1410 0032 04D3     		bcc	.L56
 397:Amperometric.c ****     {
 398:Amperometric.c ****       AD5940_WUPTCtrl(bFALSE);
 1411              		.loc 1 398 0
 1412 0034 0020     		movs	r0, #0
 1413 0036 FFF7FEFF 		bl	AD5940_WUPTCtrl
 399:Amperometric.c ****       return AD5940ERR_OK;
 1414              		.loc 1 399 0
 1415 003a 0023     		movs	r3, #0
 1416 003c 0AE0     		b	.L57
 1417              	.L56:
 400:Amperometric.c ****     }
 401:Amperometric.c ****   }
 402:Amperometric.c ****   if(AppAMPCfg.StopRequired == bTRUE)
 1418              		.loc 1 402 0
 1419 003e 074B     		ldr	r3, .L59
 1420 0040 9822     		movs	r2, #152
 1421 0042 9B5C     		ldrb	r3, [r3, r2]
 1422 0044 012B     		cmp	r3, #1
 1423 0046 04D1     		bne	.L58
 403:Amperometric.c ****   {
 404:Amperometric.c ****     AD5940_WUPTCtrl(bFALSE);
 1424              		.loc 1 404 0
 1425 0048 0020     		movs	r0, #0
 1426 004a FFF7FEFF 		bl	AD5940_WUPTCtrl
 405:Amperometric.c ****     return AD5940ERR_OK;
 1427              		.loc 1 405 0
 1428 004e 0023     		movs	r3, #0
 1429 0050 00E0     		b	.L57
 1430              	.L58:
 406:Amperometric.c ****   }
 407:Amperometric.c ****   
 408:Amperometric.c ****   return AD5940ERR_OK;
 1431              		.loc 1 408 0
 1432 0052 0023     		movs	r3, #0
 1433              	.L57:
 409:Amperometric.c **** }
 1434              		.loc 1 409 0
 1435 0054 1800     		movs	r0, r3
 1436 0056 BD46     		mov	sp, r7
 1437 0058 02B0     		add	sp, sp, #8
 1438              		@ sp needed
 1439 005a 80BD     		pop	{r7, pc}
ARM GAS  C:\Users\13740\AppData\Local\Temp\ccgjAoJh.s 			page 34


 1440              	.L60:
 1441              		.align	2
 1442              	.L59:
 1443 005c 00000000 		.word	AppAMPCfg
 1444              		.cfi_endproc
 1445              	.LFE7:
 1446              		.size	AppAMPRegModify, .-AppAMPRegModify
 1447              		.section	.text.AppAMPDataProcess,"ax",%progbits
 1448              		.align	2
 1449              		.code	16
 1450              		.thumb_func
 1451              		.type	AppAMPDataProcess, %function
 1452              	AppAMPDataProcess:
 1453              	.LFB8:
 410:Amperometric.c **** 
 411:Amperometric.c **** /* Depending on the data type, do appropriate data pre-process before return back to controller */
 412:Amperometric.c **** static AD5940Err AppAMPDataProcess(int32_t * const pData, uint32_t *pDataCount)
 413:Amperometric.c **** {
 1454              		.loc 1 413 0
 1455              		.cfi_startproc
 1456              		@ args = 0, pretend = 0, frame = 24
 1457              		@ frame_needed = 1, uses_anonymous_args = 0
 1458 0000 90B5     		push	{r4, r7, lr}
 1459              		.cfi_def_cfa_offset 12
 1460              		.cfi_offset 4, -12
 1461              		.cfi_offset 7, -8
 1462              		.cfi_offset 14, -4
 1463 0002 87B0     		sub	sp, sp, #28
 1464              		.cfi_def_cfa_offset 40
 1465 0004 00AF     		add	r7, sp, #0
 1466              		.cfi_def_cfa_register 7
 1467 0006 7860     		str	r0, [r7, #4]
 1468 0008 3960     		str	r1, [r7]
 414:Amperometric.c ****   uint32_t i, datacount;
 415:Amperometric.c ****   datacount = *pDataCount;
 1469              		.loc 1 415 0
 1470 000a 3B68     		ldr	r3, [r7]
 1471 000c 1B68     		ldr	r3, [r3]
 1472 000e 3B61     		str	r3, [r7, #16]
 416:Amperometric.c ****   float *pOut = (float *)pData;
 1473              		.loc 1 416 0
 1474 0010 7B68     		ldr	r3, [r7, #4]
 1475 0012 FB60     		str	r3, [r7, #12]
 417:Amperometric.c ****   for(i=0;i<datacount;i++)
 1476              		.loc 1 417 0
 1477 0014 0023     		movs	r3, #0
 1478 0016 7B61     		str	r3, [r7, #20]
 1479 0018 1CE0     		b	.L62
 1480              	.L63:
 418:Amperometric.c ****   {
 419:Amperometric.c ****     pData[i] &= 0xffff;
 1481              		.loc 1 419 0 discriminator 3
 1482 001a 7B69     		ldr	r3, [r7, #20]
 1483 001c 9B00     		lsls	r3, r3, #2
 1484 001e 7A68     		ldr	r2, [r7, #4]
 1485 0020 D318     		adds	r3, r2, r3
 1486 0022 7A69     		ldr	r2, [r7, #20]
ARM GAS  C:\Users\13740\AppData\Local\Temp\ccgjAoJh.s 			page 35


 1487 0024 9200     		lsls	r2, r2, #2
 1488 0026 7968     		ldr	r1, [r7, #4]
 1489 0028 8A18     		adds	r2, r1, r2
 1490 002a 1268     		ldr	r2, [r2]
 1491 002c 1204     		lsls	r2, r2, #16
 1492 002e 120C     		lsrs	r2, r2, #16
 1493 0030 1A60     		str	r2, [r3]
 420:Amperometric.c ****     pOut[i] = AppAMPCalcCurrent(pData[i]);
 1494              		.loc 1 420 0 discriminator 3
 1495 0032 7B69     		ldr	r3, [r7, #20]
 1496 0034 9B00     		lsls	r3, r3, #2
 1497 0036 FA68     		ldr	r2, [r7, #12]
 1498 0038 D418     		adds	r4, r2, r3
 1499 003a 7B69     		ldr	r3, [r7, #20]
 1500 003c 9B00     		lsls	r3, r3, #2
 1501 003e 7A68     		ldr	r2, [r7, #4]
 1502 0040 D318     		adds	r3, r2, r3
 1503 0042 1B68     		ldr	r3, [r3]
 1504 0044 1800     		movs	r0, r3
 1505 0046 FFF7FEFF 		bl	AppAMPCalcCurrent
 1506 004a 031C     		adds	r3, r0, #0
 1507 004c 2360     		str	r3, [r4]
 417:Amperometric.c ****   for(i=0;i<datacount;i++)
 1508              		.loc 1 417 0 discriminator 3
 1509 004e 7B69     		ldr	r3, [r7, #20]
 1510 0050 0133     		adds	r3, r3, #1
 1511 0052 7B61     		str	r3, [r7, #20]
 1512              	.L62:
 417:Amperometric.c ****   for(i=0;i<datacount;i++)
 1513              		.loc 1 417 0 is_stmt 0 discriminator 1
 1514 0054 7A69     		ldr	r2, [r7, #20]
 1515 0056 3B69     		ldr	r3, [r7, #16]
 1516 0058 9A42     		cmp	r2, r3
 1517 005a DED3     		bcc	.L63
 421:Amperometric.c ****   }
 422:Amperometric.c ****   return AD5940ERR_OK;
 1518              		.loc 1 422 0 is_stmt 1
 1519 005c 0023     		movs	r3, #0
 423:Amperometric.c **** }
 1520              		.loc 1 423 0
 1521 005e 1800     		movs	r0, r3
 1522 0060 BD46     		mov	sp, r7
 1523 0062 07B0     		add	sp, sp, #28
 1524              		@ sp needed
 1525 0064 90BD     		pop	{r4, r7, pc}
 1526              		.cfi_endproc
 1527              	.LFE8:
 1528              		.size	AppAMPDataProcess, .-AppAMPDataProcess
 1529 0066 C046     		.section	.text.AppAMPISR,"ax",%progbits
 1530              		.align	2
 1531              		.global	AppAMPISR
 1532              		.code	16
 1533              		.thumb_func
 1534              		.type	AppAMPISR, %function
 1535              	AppAMPISR:
 1536              	.LFB9:
 424:Amperometric.c **** 
ARM GAS  C:\Users\13740\AppData\Local\Temp\ccgjAoJh.s 			page 36


 425:Amperometric.c **** /**
 426:Amperometric.c **** 
 427:Amperometric.c **** */
 428:Amperometric.c **** AD5940Err AppAMPISR(void *pBuff, uint32_t *pCount)
 429:Amperometric.c **** {
 1537              		.loc 1 429 0
 1538              		.cfi_startproc
 1539              		@ args = 0, pretend = 0, frame = 16
 1540              		@ frame_needed = 1, uses_anonymous_args = 0
 1541 0000 80B5     		push	{r7, lr}
 1542              		.cfi_def_cfa_offset 8
 1543              		.cfi_offset 7, -8
 1544              		.cfi_offset 14, -4
 1545 0002 84B0     		sub	sp, sp, #16
 1546              		.cfi_def_cfa_offset 24
 1547 0004 00AF     		add	r7, sp, #0
 1548              		.cfi_def_cfa_register 7
 1549 0006 7860     		str	r0, [r7, #4]
 1550 0008 3960     		str	r1, [r7]
 430:Amperometric.c ****   uint32_t FifoCnt;
 431:Amperometric.c ****   if(AD5940_WakeUp(10) > 10)  /* Wakeup AFE by read register, read 10 times at most */
 1551              		.loc 1 431 0
 1552 000a 0A20     		movs	r0, #10
 1553 000c FFF7FEFF 		bl	AD5940_WakeUp
 1554 0010 0300     		movs	r3, r0
 1555 0012 0A2B     		cmp	r3, #10
 1556 0014 02D9     		bls	.L66
 432:Amperometric.c ****     return AD5940ERR_WAKEUP;  /* Wakeup Failed */
 1557              		.loc 1 432 0
 1558 0016 0923     		movs	r3, #9
 1559 0018 5B42     		rsbs	r3, r3, #0
 1560 001a 35E0     		b	.L69
 1561              	.L66:
 433:Amperometric.c ****   AD5940_SleepKeyCtrlS(SLPKEY_LOCK);
 1562              		.loc 1 433 0
 1563 001c 0020     		movs	r0, #0
 1564 001e FFF7FEFF 		bl	AD5940_SleepKeyCtrlS
 434:Amperometric.c **** 	
 435:Amperometric.c ****   *pCount = 0;  
 1565              		.loc 1 435 0
 1566 0022 3B68     		ldr	r3, [r7]
 1567 0024 0022     		movs	r2, #0
 1568 0026 1A60     		str	r2, [r3]
 436:Amperometric.c ****   if(AD5940_INTCTestFlag(AFEINTC_0, AFEINTSRC_DATAFIFOTHRESH) == bTRUE)
 1569              		.loc 1 436 0
 1570 0028 8023     		movs	r3, #128
 1571 002a 9B04     		lsls	r3, r3, #18
 1572 002c 1900     		movs	r1, r3
 1573 002e 0020     		movs	r0, #0
 1574 0030 FFF7FEFF 		bl	AD5940_INTCTestFlag
 1575 0034 0300     		movs	r3, r0
 1576 0036 012B     		cmp	r3, #1
 1577 0038 25D1     		bne	.L68
 437:Amperometric.c ****   {
 438:Amperometric.c ****     FifoCnt = AD5940_FIFOGetCnt();
 1578              		.loc 1 438 0
 1579 003a FFF7FEFF 		bl	AD5940_FIFOGetCnt
ARM GAS  C:\Users\13740\AppData\Local\Temp\ccgjAoJh.s 			page 37


 1580 003e 0300     		movs	r3, r0
 1581 0040 FB60     		str	r3, [r7, #12]
 439:Amperometric.c ****     AD5940_FIFORd((uint32_t *)pBuff, FifoCnt);
 1582              		.loc 1 439 0
 1583 0042 FA68     		ldr	r2, [r7, #12]
 1584 0044 7B68     		ldr	r3, [r7, #4]
 1585 0046 1100     		movs	r1, r2
 1586 0048 1800     		movs	r0, r3
 1587 004a FFF7FEFF 		bl	AD5940_FIFORd
 440:Amperometric.c ****     AD5940_INTCClrFlag(AFEINTSRC_DATAFIFOTHRESH);
 1588              		.loc 1 440 0
 1589 004e 8023     		movs	r3, #128
 1590 0050 9B04     		lsls	r3, r3, #18
 1591 0052 1800     		movs	r0, r3
 1592 0054 FFF7FEFF 		bl	AD5940_INTCClrFlag
 441:Amperometric.c ****     AppAMPRegModify(pBuff, &FifoCnt);   /* If there is need to do AFE re-configure, do it here when
 1593              		.loc 1 441 0
 1594 0058 0C23     		movs	r3, #12
 1595 005a FA18     		adds	r2, r7, r3
 1596 005c 7B68     		ldr	r3, [r7, #4]
 1597 005e 1100     		movs	r1, r2
 1598 0060 1800     		movs	r0, r3
 1599 0062 FFF7FEFF 		bl	AppAMPRegModify
 442:Amperometric.c **** 		AD5940_SleepKeyCtrlS(SLPKEY_UNLOCK); 
 1600              		.loc 1 442 0
 1601 0066 0A4B     		ldr	r3, .L70
 1602 0068 1800     		movs	r0, r3
 1603 006a FFF7FEFF 		bl	AD5940_SleepKeyCtrlS
 443:Amperometric.c ****     //AD5940_EnterSleepS();  /* Manually put AFE back to hibernate mode. This operation only takes 
 444:Amperometric.c **** 
 445:Amperometric.c ****     /* Process data */ 
 446:Amperometric.c ****     AppAMPDataProcess((int32_t*)pBuff,&FifoCnt); 
 1604              		.loc 1 446 0
 1605 006e 0C23     		movs	r3, #12
 1606 0070 FA18     		adds	r2, r7, r3
 1607 0072 7B68     		ldr	r3, [r7, #4]
 1608 0074 1100     		movs	r1, r2
 1609 0076 1800     		movs	r0, r3
 1610 0078 FFF7FEFF 		bl	AppAMPDataProcess
 447:Amperometric.c ****     *pCount = FifoCnt;
 1611              		.loc 1 447 0
 1612 007c FA68     		ldr	r2, [r7, #12]
 1613 007e 3B68     		ldr	r3, [r7]
 1614 0080 1A60     		str	r2, [r3]
 448:Amperometric.c ****     return 0;
 1615              		.loc 1 448 0
 1616 0082 0023     		movs	r3, #0
 1617 0084 00E0     		b	.L69
 1618              	.L68:
 449:Amperometric.c ****   }
 450:Amperometric.c ****   
 451:Amperometric.c ****   return 0;
 1619              		.loc 1 451 0
 1620 0086 0023     		movs	r3, #0
 1621              	.L69:
 452:Amperometric.c **** } 
 1622              		.loc 1 452 0 discriminator 1
ARM GAS  C:\Users\13740\AppData\Local\Temp\ccgjAoJh.s 			page 38


 1623 0088 1800     		movs	r0, r3
 1624 008a BD46     		mov	sp, r7
 1625 008c 04B0     		add	sp, sp, #16
 1626              		@ sp needed
 1627 008e 80BD     		pop	{r7, pc}
 1628              	.L71:
 1629              		.align	2
 1630              	.L70:
 1631 0090 E5470A00 		.word	673765
 1632              		.cfi_endproc
 1633              	.LFE9:
 1634              		.size	AppAMPISR, .-AppAMPISR
 1635              		.global	__aeabi_i2f
 1636              		.section	.text.AppAMPCalcVoltage,"ax",%progbits
 1637              		.align	2
 1638              		.global	AppAMPCalcVoltage
 1639              		.code	16
 1640              		.thumb_func
 1641              		.type	AppAMPCalcVoltage, %function
 1642              	AppAMPCalcVoltage:
 1643              	.LFB10:
 453:Amperometric.c **** 
 454:Amperometric.c **** /* Calculate voltage */
 455:Amperometric.c **** float AppAMPCalcVoltage(uint32_t ADCcode)
 456:Amperometric.c **** {
 1644              		.loc 1 456 0
 1645              		.cfi_startproc
 1646              		@ args = 0, pretend = 0, frame = 24
 1647              		@ frame_needed = 1, uses_anonymous_args = 0
 1648 0000 90B5     		push	{r4, r7, lr}
 1649              		.cfi_def_cfa_offset 12
 1650              		.cfi_offset 4, -12
 1651              		.cfi_offset 7, -8
 1652              		.cfi_offset 14, -4
 1653 0002 87B0     		sub	sp, sp, #28
 1654              		.cfi_def_cfa_offset 40
 1655 0004 00AF     		add	r7, sp, #0
 1656              		.cfi_def_cfa_register 7
 1657 0006 7860     		str	r0, [r7, #4]
 457:Amperometric.c ****   float kFactor = 1.835/1.82;
 1658              		.loc 1 457 0
 1659 0008 564B     		ldr	r3, .L81
 1660 000a 3B61     		str	r3, [r7, #16]
 458:Amperometric.c ****   float fVolt = 0.0;
 1661              		.loc 1 458 0
 1662 000c 0023     		movs	r3, #0
 1663 000e 7B61     		str	r3, [r7, #20]
 459:Amperometric.c ****   int32_t tmp = 0;
 1664              		.loc 1 459 0
 1665 0010 0023     		movs	r3, #0
 1666 0012 FB60     		str	r3, [r7, #12]
 460:Amperometric.c ****   tmp = ADCcode - 32768;
 1667              		.loc 1 460 0
 1668 0014 7B68     		ldr	r3, [r7, #4]
 1669 0016 544A     		ldr	r2, .L81+4
 1670 0018 9446     		mov	ip, r2
 1671 001a 6344     		add	r3, r3, ip
ARM GAS  C:\Users\13740\AppData\Local\Temp\ccgjAoJh.s 			page 39


 1672 001c FB60     		str	r3, [r7, #12]
 461:Amperometric.c ****   switch(AppAMPCfg.ADCPgaGain)
 1673              		.loc 1 461 0
 1674 001e 534B     		ldr	r3, .L81+8
 1675 0020 DB6B     		ldr	r3, [r3, #60]
 1676 0022 042B     		cmp	r3, #4
 1677 0024 00D9     		bls	.LCB1388
 1678 0026 98E0     		b	.L73	@long jump
 1679              	.LCB1388:
 1680 0028 9A00     		lsls	r2, r3, #2
 1681 002a 514B     		ldr	r3, .L81+12
 1682 002c D318     		adds	r3, r2, r3
 1683 002e 1B68     		ldr	r3, [r3]
 1684 0030 9F46     		mov	pc, r3
 1685              		.section	.rodata
 1686              		.align	2
 1687              	.L75:
 1688 0000 32000000 		.word	.L74
 1689 0004 64000000 		.word	.L76
 1690 0008 A2000000 		.word	.L77
 1691 000c E0000000 		.word	.L78
 1692 0010 1E010000 		.word	.L79
 1693              		.section	.text.AppAMPCalcVoltage
 1694              	.L74:
 462:Amperometric.c ****   {
 463:Amperometric.c ****     case ADCPGA_1:
 464:Amperometric.c ****       fVolt = ((float)(tmp)/32768)*(AppAMPCfg.ADCRefVolt/1)*kFactor;
 1695              		.loc 1 464 0
 1696 0032 F868     		ldr	r0, [r7, #12]
 1697 0034 FFF7FEFF 		bl	__aeabi_i2f
 1698 0038 031C     		adds	r3, r0, #0
 1699 003a 8E21     		movs	r1, #142
 1700 003c C905     		lsls	r1, r1, #23
 1701 003e 181C     		adds	r0, r3, #0
 1702 0040 FFF7FEFF 		bl	__aeabi_fdiv
 1703 0044 031C     		adds	r3, r0, #0
 1704 0046 1A1C     		adds	r2, r3, #0
 1705 0048 484B     		ldr	r3, .L81+8
 1706 004a 5B6B     		ldr	r3, [r3, #52]
 1707 004c 191C     		adds	r1, r3, #0
 1708 004e 101C     		adds	r0, r2, #0
 1709 0050 FFF7FEFF 		bl	__aeabi_fmul
 1710 0054 031C     		adds	r3, r0, #0
 1711 0056 3969     		ldr	r1, [r7, #16]
 1712 0058 181C     		adds	r0, r3, #0
 1713 005a FFF7FEFF 		bl	__aeabi_fmul
 1714 005e 031C     		adds	r3, r0, #0
 1715 0060 7B61     		str	r3, [r7, #20]
 465:Amperometric.c ****       break;
 1716              		.loc 1 465 0
 1717 0062 7AE0     		b	.L73
 1718              	.L76:
 466:Amperometric.c ****     case ADCPGA_1P5:
 467:Amperometric.c ****       fVolt = ((float)(tmp)/32768)*(AppAMPCfg.ADCRefVolt/1.5f)*kFactor;
 1719              		.loc 1 467 0
 1720 0064 F868     		ldr	r0, [r7, #12]
 1721 0066 FFF7FEFF 		bl	__aeabi_i2f
ARM GAS  C:\Users\13740\AppData\Local\Temp\ccgjAoJh.s 			page 40


 1722 006a 031C     		adds	r3, r0, #0
 1723 006c 8E21     		movs	r1, #142
 1724 006e C905     		lsls	r1, r1, #23
 1725 0070 181C     		adds	r0, r3, #0
 1726 0072 FFF7FEFF 		bl	__aeabi_fdiv
 1727 0076 031C     		adds	r3, r0, #0
 1728 0078 1C1C     		adds	r4, r3, #0
 1729 007a 3C4B     		ldr	r3, .L81+8
 1730 007c 5B6B     		ldr	r3, [r3, #52]
 1731 007e FF21     		movs	r1, #255
 1732 0080 8905     		lsls	r1, r1, #22
 1733 0082 181C     		adds	r0, r3, #0
 1734 0084 FFF7FEFF 		bl	__aeabi_fdiv
 1735 0088 031C     		adds	r3, r0, #0
 1736 008a 191C     		adds	r1, r3, #0
 1737 008c 201C     		adds	r0, r4, #0
 1738 008e FFF7FEFF 		bl	__aeabi_fmul
 1739 0092 031C     		adds	r3, r0, #0
 1740 0094 3969     		ldr	r1, [r7, #16]
 1741 0096 181C     		adds	r0, r3, #0
 1742 0098 FFF7FEFF 		bl	__aeabi_fmul
 1743 009c 031C     		adds	r3, r0, #0
 1744 009e 7B61     		str	r3, [r7, #20]
 468:Amperometric.c ****       break;
 1745              		.loc 1 468 0
 1746 00a0 5BE0     		b	.L73
 1747              	.L77:
 469:Amperometric.c ****     case ADCPGA_2:
 470:Amperometric.c ****       fVolt = ((float)(tmp)/32768)*(AppAMPCfg.ADCRefVolt/2)*kFactor;
 1748              		.loc 1 470 0
 1749 00a2 F868     		ldr	r0, [r7, #12]
 1750 00a4 FFF7FEFF 		bl	__aeabi_i2f
 1751 00a8 031C     		adds	r3, r0, #0
 1752 00aa 8E21     		movs	r1, #142
 1753 00ac C905     		lsls	r1, r1, #23
 1754 00ae 181C     		adds	r0, r3, #0
 1755 00b0 FFF7FEFF 		bl	__aeabi_fdiv
 1756 00b4 031C     		adds	r3, r0, #0
 1757 00b6 1C1C     		adds	r4, r3, #0
 1758 00b8 2C4B     		ldr	r3, .L81+8
 1759 00ba 5B6B     		ldr	r3, [r3, #52]
 1760 00bc 8021     		movs	r1, #128
 1761 00be C905     		lsls	r1, r1, #23
 1762 00c0 181C     		adds	r0, r3, #0
 1763 00c2 FFF7FEFF 		bl	__aeabi_fdiv
 1764 00c6 031C     		adds	r3, r0, #0
 1765 00c8 191C     		adds	r1, r3, #0
 1766 00ca 201C     		adds	r0, r4, #0
 1767 00cc FFF7FEFF 		bl	__aeabi_fmul
 1768 00d0 031C     		adds	r3, r0, #0
 1769 00d2 3969     		ldr	r1, [r7, #16]
 1770 00d4 181C     		adds	r0, r3, #0
 1771 00d6 FFF7FEFF 		bl	__aeabi_fmul
 1772 00da 031C     		adds	r3, r0, #0
 1773 00dc 7B61     		str	r3, [r7, #20]
 471:Amperometric.c ****       break;
 1774              		.loc 1 471 0
ARM GAS  C:\Users\13740\AppData\Local\Temp\ccgjAoJh.s 			page 41


 1775 00de 3CE0     		b	.L73
 1776              	.L78:
 472:Amperometric.c ****     case ADCPGA_4:
 473:Amperometric.c ****       fVolt = ((float)(tmp)/32768)*(AppAMPCfg.ADCRefVolt/4)*kFactor;
 1777              		.loc 1 473 0
 1778 00e0 F868     		ldr	r0, [r7, #12]
 1779 00e2 FFF7FEFF 		bl	__aeabi_i2f
 1780 00e6 031C     		adds	r3, r0, #0
 1781 00e8 8E21     		movs	r1, #142
 1782 00ea C905     		lsls	r1, r1, #23
 1783 00ec 181C     		adds	r0, r3, #0
 1784 00ee FFF7FEFF 		bl	__aeabi_fdiv
 1785 00f2 031C     		adds	r3, r0, #0
 1786 00f4 1C1C     		adds	r4, r3, #0
 1787 00f6 1D4B     		ldr	r3, .L81+8
 1788 00f8 5B6B     		ldr	r3, [r3, #52]
 1789 00fa 8121     		movs	r1, #129
 1790 00fc C905     		lsls	r1, r1, #23
 1791 00fe 181C     		adds	r0, r3, #0
 1792 0100 FFF7FEFF 		bl	__aeabi_fdiv
 1793 0104 031C     		adds	r3, r0, #0
 1794 0106 191C     		adds	r1, r3, #0
 1795 0108 201C     		adds	r0, r4, #0
 1796 010a FFF7FEFF 		bl	__aeabi_fmul
 1797 010e 031C     		adds	r3, r0, #0
 1798 0110 3969     		ldr	r1, [r7, #16]
 1799 0112 181C     		adds	r0, r3, #0
 1800 0114 FFF7FEFF 		bl	__aeabi_fmul
 1801 0118 031C     		adds	r3, r0, #0
 1802 011a 7B61     		str	r3, [r7, #20]
 474:Amperometric.c ****       break;
 1803              		.loc 1 474 0
 1804 011c 1DE0     		b	.L73
 1805              	.L79:
 475:Amperometric.c ****     case ADCPGA_9:
 476:Amperometric.c ****       fVolt = ((float)(tmp)/32768)*(AppAMPCfg.ADCRefVolt/9)*kFactor;
 1806              		.loc 1 476 0
 1807 011e F868     		ldr	r0, [r7, #12]
 1808 0120 FFF7FEFF 		bl	__aeabi_i2f
 1809 0124 031C     		adds	r3, r0, #0
 1810 0126 8E21     		movs	r1, #142
 1811 0128 C905     		lsls	r1, r1, #23
 1812 012a 181C     		adds	r0, r3, #0
 1813 012c FFF7FEFF 		bl	__aeabi_fdiv
 1814 0130 031C     		adds	r3, r0, #0
 1815 0132 1C1C     		adds	r4, r3, #0
 1816 0134 0D4B     		ldr	r3, .L81+8
 1817 0136 5B6B     		ldr	r3, [r3, #52]
 1818 0138 0E49     		ldr	r1, .L81+16
 1819 013a 181C     		adds	r0, r3, #0
 1820 013c FFF7FEFF 		bl	__aeabi_fdiv
 1821 0140 031C     		adds	r3, r0, #0
 1822 0142 191C     		adds	r1, r3, #0
 1823 0144 201C     		adds	r0, r4, #0
 1824 0146 FFF7FEFF 		bl	__aeabi_fmul
 1825 014a 031C     		adds	r3, r0, #0
 1826 014c 3969     		ldr	r1, [r7, #16]
ARM GAS  C:\Users\13740\AppData\Local\Temp\ccgjAoJh.s 			page 42


 1827 014e 181C     		adds	r0, r3, #0
 1828 0150 FFF7FEFF 		bl	__aeabi_fmul
 1829 0154 031C     		adds	r3, r0, #0
 1830 0156 7B61     		str	r3, [r7, #20]
 477:Amperometric.c ****       break;
 1831              		.loc 1 477 0
 1832 0158 C046     		nop
 1833              	.L73:
 478:Amperometric.c ****   } 
 479:Amperometric.c ****   return fVolt;
 1834              		.loc 1 479 0
 1835 015a 7B69     		ldr	r3, [r7, #20]
 480:Amperometric.c **** }
 1836              		.loc 1 480 0
 1837 015c 181C     		adds	r0, r3, #0
 1838 015e BD46     		mov	sp, r7
 1839 0160 07B0     		add	sp, sp, #28
 1840              		@ sp needed
 1841 0162 90BD     		pop	{r4, r7, pc}
 1842              	.L82:
 1843              		.align	2
 1844              	.L81:
 1845 0164 110E813F 		.word	1065422353
 1846 0168 0080FFFF 		.word	-32768
 1847 016c 00000000 		.word	AppAMPCfg
 1848 0170 00000000 		.word	.L75
 1849 0174 00001041 		.word	1091567616
 1850              		.cfi_endproc
 1851              	.LFE10:
 1852              		.size	AppAMPCalcVoltage, .-AppAMPCalcVoltage
 1853              		.section	.text.AppAMPCalcCurrent,"ax",%progbits
 1854              		.align	2
 1855              		.global	AppAMPCalcCurrent
 1856              		.code	16
 1857              		.thumb_func
 1858              		.type	AppAMPCalcCurrent, %function
 1859              	AppAMPCalcCurrent:
 1860              	.LFB11:
 481:Amperometric.c **** /* Calculate current in uA */
 482:Amperometric.c **** float AppAMPCalcCurrent(uint32_t ADCcode)
 483:Amperometric.c **** {
 1861              		.loc 1 483 0
 1862              		.cfi_startproc
 1863              		@ args = 0, pretend = 0, frame = 16
 1864              		@ frame_needed = 1, uses_anonymous_args = 0
 1865 0000 80B5     		push	{r7, lr}
 1866              		.cfi_def_cfa_offset 8
 1867              		.cfi_offset 7, -8
 1868              		.cfi_offset 14, -4
 1869 0002 84B0     		sub	sp, sp, #16
 1870              		.cfi_def_cfa_offset 24
 1871 0004 00AF     		add	r7, sp, #0
 1872              		.cfi_def_cfa_register 7
 1873 0006 7860     		str	r0, [r7, #4]
 484:Amperometric.c ****   float fCurrent, fVoltage = 0.0;
 1874              		.loc 1 484 0
 1875 0008 0023     		movs	r3, #0
ARM GAS  C:\Users\13740\AppData\Local\Temp\ccgjAoJh.s 			page 43


 1876 000a FB60     		str	r3, [r7, #12]
 485:Amperometric.c ****   fVoltage = AppAMPCalcVoltage(ADCcode);
 1877              		.loc 1 485 0
 1878 000c 7B68     		ldr	r3, [r7, #4]
 1879 000e 1800     		movs	r0, r3
 1880 0010 FFF7FEFF 		bl	AppAMPCalcVoltage
 1881 0014 031C     		adds	r3, r0, #0
 1882 0016 FB60     		str	r3, [r7, #12]
 486:Amperometric.c ****   fCurrent = fVoltage/AppAMPCfg.RtiaCalValue.Magnitude;
 1883              		.loc 1 486 0
 1884 0018 0A4B     		ldr	r3, .L85
 1885 001a 5B6D     		ldr	r3, [r3, #84]
 1886 001c 191C     		adds	r1, r3, #0
 1887 001e F868     		ldr	r0, [r7, #12]
 1888 0020 FFF7FEFF 		bl	__aeabi_fdiv
 1889 0024 031C     		adds	r3, r0, #0
 1890 0026 BB60     		str	r3, [r7, #8]
 487:Amperometric.c ****   
 488:Amperometric.c ****   return -fCurrent*1000000;
 1891              		.loc 1 488 0
 1892 0028 BB68     		ldr	r3, [r7, #8]
 1893 002a 8022     		movs	r2, #128
 1894 002c 1206     		lsls	r2, r2, #24
 1895 002e 5340     		eors	r3, r2
 1896 0030 0549     		ldr	r1, .L85+4
 1897 0032 181C     		adds	r0, r3, #0
 1898 0034 FFF7FEFF 		bl	__aeabi_fmul
 1899 0038 031C     		adds	r3, r0, #0
 489:Amperometric.c **** }
 1900              		.loc 1 489 0
 1901 003a 181C     		adds	r0, r3, #0
 1902 003c BD46     		mov	sp, r7
 1903 003e 04B0     		add	sp, sp, #16
 1904              		@ sp needed
 1905 0040 80BD     		pop	{r7, pc}
 1906              	.L86:
 1907 0042 C046     		.align	2
 1908              	.L85:
 1909 0044 00000000 		.word	AppAMPCfg
 1910 0048 00247449 		.word	1232348160
 1911              		.cfi_endproc
 1912              	.LFE11:
 1913              		.size	AppAMPCalcCurrent, .-AppAMPCalcCurrent
 1914              		.text
 1915              	.Letext0:
 1916              		.file 2 "f:\\infineon\\psoc creator\\4.4\\psoc creator\\import\\gnu\\arm\\5.4.1\\arm-none-eabi\\in
 1917              		.file 3 "f:\\infineon\\psoc creator\\4.4\\psoc creator\\import\\gnu\\arm\\5.4.1\\arm-none-eabi\\in
 1918              		.file 4 "AD5940.H"
 1919              		.file 5 "Amperometric.h"