ARM GAS  C:\Users\13740\AppData\Local\Temp\ccgRVHn7.s 			page 1


   1              		.syntax unified
   2              		.cpu cortex-m0
   3              		.fpu softvfp
   4              		.eabi_attribute 20, 1
   5              		.eabi_attribute 21, 1
   6              		.eabi_attribute 23, 3
   7              		.eabi_attribute 24, 1
   8              		.eabi_attribute 25, 1
   9              		.eabi_attribute 26, 1
  10              		.eabi_attribute 30, 6
  11              		.eabi_attribute 34, 0
  12              		.eabi_attribute 18, 4
  13              		.thumb
  14              		.syntax unified
  15              		.file	"bass.c"
  16              		.text
  17              	.Ltext0:
  18              		.cfi_sections	.debug_frame
  19              		.global	batteryMeasureNotify
  20              		.bss
  21              		.align	1
  22              		.type	batteryMeasureNotify, %object
  23              		.size	batteryMeasureNotify, 2
  24              	batteryMeasureNotify:
  25 0000 0000     		.space	2
  26              		.section	.rodata
  27              		.align	2
  28              	.LC0:
  29 0000 42415320 		.ascii	"BAS event: %lx, \000"
  29      6576656E 
  29      743A2025 
  29      6C782C20 
  29      00
  30 0011 000000   		.align	2
  31              	.LC3:
  32 0014 4359424C 		.ascii	"CYBLE_EVT_BASS_NOTIFICATION_ENABLED: %x \015\012\000"
  32      455F4556 
  32      545F4241 
  32      53535F4E 
  32      4F544946 
  33 003f 00       		.align	2
  34              	.LC6:
  35 0040 4359424C 		.ascii	"CYBLE_EVT_BASS_NOTIFICATION_DISABLED: %x \015\012\000"
  35      455F4556 
  35      545F4241 
  35      53535F4E 
  35      4F544946 
  36              		.align	2
  37              	.LC8:
  38 006c 4E6F7420 		.ascii	"Not supported event\015\000"
  38      73757070 
  38      6F727465 
  38      64206576 
  38      656E740D 
  39              		.section	.text.BasCallBack,"ax",%progbits
  40              		.align	2
  41              		.global	BasCallBack
ARM GAS  C:\Users\13740\AppData\Local\Temp\ccgRVHn7.s 			page 2


  42              		.code	16
  43              		.thumb_func
  44              		.type	BasCallBack, %function
  45              	BasCallBack:
  46              	.LFB36:
  47              		.file 1 "bass.c"
   1:bass.c        **** /*******************************************************************************
   2:bass.c        **** * File Name: bass.c
   3:bass.c        **** *
   4:bass.c        **** * Version: 1.0
   5:bass.c        **** *
   6:bass.c        **** * Description:
   7:bass.c        **** *  This file contains BAS callback handler function.
   8:bass.c        **** *
   9:bass.c        **** * Hardware Dependency:
  10:bass.c        **** *  CY8CKIT-042 BLE
  11:bass.c        **** * 
  12:bass.c        **** ********************************************************************************
  13:bass.c        **** * Copyright 2016, Cypress Semiconductor Corporation.  All rights reserved.
  14:bass.c        **** * You may use this file only in accordance with the license, terms, conditions,
  15:bass.c        **** * disclaimers, and limitations in the end user license agreement accompanying
  16:bass.c        **** * the software package with which this file was provided.
  17:bass.c        **** *******************************************************************************/
  18:bass.c        **** 
  19:bass.c        **** #include "main.h"
  20:bass.c        **** 
  21:bass.c        **** #if (BAS_SIMULATE_ENABLE != 0)
  22:bass.c        **** uint16 batterySimulationNotify = 0u;
  23:bass.c        **** #endif /* (BAS_SIMULATE_ENABLE != 0) */
  24:bass.c        **** 
  25:bass.c        **** #if (BAS_MEASURE_ENABLE != 0)
  26:bass.c        **** uint16 batteryMeasureNotify = 0u;
  27:bass.c        **** #endif /* (BAS_MEASURE_ENABLE != 0) */
  28:bass.c        **** 
  29:bass.c        **** 
  30:bass.c        **** /*******************************************************************************
  31:bass.c        **** * Function Name: BasCallBack()
  32:bass.c        **** ********************************************************************************
  33:bass.c        **** *
  34:bass.c        **** * Summary:
  35:bass.c        **** *   This is an event callback function to receive service specific events from 
  36:bass.c        **** *   Battery Service.
  37:bass.c        **** *
  38:bass.c        **** * Parameters:
  39:bass.c        **** *  event - the event code
  40:bass.c        **** *  *eventParam - the event parameters
  41:bass.c        **** *
  42:bass.c        **** * Return:
  43:bass.c        **** *  None.
  44:bass.c        **** *
  45:bass.c        **** *******************************************************************************/
  46:bass.c        **** void BasCallBack(uint32 event, void *eventParam)
  47:bass.c        **** {
  48              		.loc 1 47 0
  49              		.cfi_startproc
  50              		@ args = 0, pretend = 0, frame = 16
  51              		@ frame_needed = 1, uses_anonymous_args = 0
ARM GAS  C:\Users\13740\AppData\Local\Temp\ccgRVHn7.s 			page 3


  52 0000 80B5     		push	{r7, lr}
  53              		.cfi_def_cfa_offset 8
  54              		.cfi_offset 7, -8
  55              		.cfi_offset 14, -4
  56 0002 84B0     		sub	sp, sp, #16
  57              		.cfi_def_cfa_offset 24
  58 0004 00AF     		add	r7, sp, #0
  59              		.cfi_def_cfa_register 7
  60 0006 7860     		str	r0, [r7, #4]
  61 0008 3960     		str	r1, [r7]
  48:bass.c        ****     uint8 locServiceIndex;
  49:bass.c        ****     
  50:bass.c        ****     locServiceIndex = ((CYBLE_BAS_CHAR_VALUE_T *)eventParam)->serviceIndex;
  62              		.loc 1 50 0
  63 000a 0F23     		movs	r3, #15
  64 000c FB18     		adds	r3, r7, r3
  65 000e 3A68     		ldr	r2, [r7]
  66 0010 9278     		ldrb	r2, [r2, #2]
  67 0012 1A70     		strb	r2, [r3]
  51:bass.c        ****     DBG_PRINTF("BAS event: %lx, ", event);
  68              		.loc 1 51 0
  69 0014 7A68     		ldr	r2, [r7, #4]
  70 0016 1F4B     		ldr	r3, .L16
  71 0018 1100     		movs	r1, r2
  72 001a 1800     		movs	r0, r3
  73 001c FFF7FEFF 		bl	printf
  52:bass.c        ****     
  53:bass.c        ****     switch(event)
  74              		.loc 1 53 0
  75 0020 7B68     		ldr	r3, [r7, #4]
  76 0022 313B     		subs	r3, r3, #49
  77 0024 FF3B     		subs	r3, r3, #255
  78 0026 052B     		cmp	r3, #5
  79 0028 26D8     		bhi	.L2
  80 002a 9A00     		lsls	r2, r3, #2
  81 002c 1A4B     		ldr	r3, .L16+4
  82 002e D318     		adds	r3, r2, r3
  83 0030 1B68     		ldr	r3, [r3]
  84 0032 9F46     		mov	pc, r3
  85              		.section	.rodata
  86 0081 000000   		.align	2
  87              	.L4:
  88 0084 34000000 		.word	.L3
  89 0088 56000000 		.word	.L5
  90 008c 82000000 		.word	.L13
  91 0090 82000000 		.word	.L13
  92 0094 82000000 		.word	.L13
  93 0098 82000000 		.word	.L13
  94              		.section	.text.BasCallBack
  95              	.L3:
  54:bass.c        ****     {
  55:bass.c        ****         case CYBLE_EVT_BASS_NOTIFICATION_ENABLED:
  56:bass.c        ****             DBG_PRINTF("CYBLE_EVT_BASS_NOTIFICATION_ENABLED: %x \r\n", locServiceIndex);
  96              		.loc 1 56 0
  97 0034 0F23     		movs	r3, #15
  98 0036 FB18     		adds	r3, r7, r3
  99 0038 1A78     		ldrb	r2, [r3]
ARM GAS  C:\Users\13740\AppData\Local\Temp\ccgRVHn7.s 			page 4


 100 003a 184B     		ldr	r3, .L16+8
 101 003c 1100     		movs	r1, r2
 102 003e 1800     		movs	r0, r3
 103 0040 FFF7FEFF 		bl	printf
  57:bass.c        ****         #if (BAS_SIMULATE_ENABLE != 0)
  58:bass.c        ****             if(BAS_SERVICE_SIMULATE == locServiceIndex)
  59:bass.c        ****             {
  60:bass.c        ****                 batterySimulationNotify = ENABLED;
  61:bass.c        ****             }
  62:bass.c        ****         #endif /*  (BAS_SIMULATE_ENABLE != 0) */        
  63:bass.c        ****         #if (BAS_MEASURE_ENABLE != 0)
  64:bass.c        ****             if(BAS_SERVICE_MEASURE == locServiceIndex)
 104              		.loc 1 64 0
 105 0044 0F23     		movs	r3, #15
 106 0046 FB18     		adds	r3, r7, r3
 107 0048 1B78     		ldrb	r3, [r3]
 108 004a 002B     		cmp	r3, #0
 109 004c 1BD1     		bne	.L14
  65:bass.c        ****             {
  66:bass.c        ****                 batteryMeasureNotify = ENABLED;
 110              		.loc 1 66 0
 111 004e 144B     		ldr	r3, .L16+12
 112 0050 0122     		movs	r2, #1
 113 0052 1A80     		strh	r2, [r3]
  67:bass.c        ****             }
  68:bass.c        ****         #endif /*  (BAS_MEASURE_ENABLE != 0) */     
  69:bass.c        ****             break;
 114              		.loc 1 69 0
 115 0054 17E0     		b	.L14
 116              	.L5:
  70:bass.c        ****         case CYBLE_EVT_BASS_NOTIFICATION_DISABLED:
  71:bass.c        ****             DBG_PRINTF("CYBLE_EVT_BASS_NOTIFICATION_DISABLED: %x \r\n", locServiceIndex);
 117              		.loc 1 71 0
 118 0056 0F23     		movs	r3, #15
 119 0058 FB18     		adds	r3, r7, r3
 120 005a 1A78     		ldrb	r2, [r3]
 121 005c 114B     		ldr	r3, .L16+16
 122 005e 1100     		movs	r1, r2
 123 0060 1800     		movs	r0, r3
 124 0062 FFF7FEFF 		bl	printf
  72:bass.c        ****         #if (BAS_SIMULATE_ENABLE != 0)
  73:bass.c        ****             if(BAS_SERVICE_SIMULATE == locServiceIndex)
  74:bass.c        ****             {
  75:bass.c        ****                 batterySimulationNotify = DISABLED;
  76:bass.c        ****             }
  77:bass.c        ****         #endif /*  (BAS_SIMULATE_ENABLE != 0) */        
  78:bass.c        ****         #if (BAS_MEASURE_ENABLE != 0)
  79:bass.c        ****             if(BAS_SERVICE_MEASURE == locServiceIndex)
 125              		.loc 1 79 0
 126 0066 0F23     		movs	r3, #15
 127 0068 FB18     		adds	r3, r7, r3
 128 006a 1B78     		ldrb	r3, [r3]
 129 006c 002B     		cmp	r3, #0
 130 006e 0CD1     		bne	.L15
  80:bass.c        ****             {
  81:bass.c        ****                 batteryMeasureNotify = DISABLED;
 131              		.loc 1 81 0
ARM GAS  C:\Users\13740\AppData\Local\Temp\ccgRVHn7.s 			page 5


 132 0070 0B4B     		ldr	r3, .L16+12
 133 0072 0022     		movs	r2, #0
 134 0074 1A80     		strh	r2, [r3]
  82:bass.c        ****             }
  83:bass.c        ****         #endif /*  (BAS_MEASURE_ENABLE != 0) */     
  84:bass.c        ****             break;
 135              		.loc 1 84 0
 136 0076 08E0     		b	.L15
 137              	.L2:
  85:bass.c        ****         case CYBLE_EVT_BASC_NOTIFICATION:
  86:bass.c        ****             break;
  87:bass.c        ****         case CYBLE_EVT_BASC_READ_CHAR_RESPONSE:
  88:bass.c        ****             break;
  89:bass.c        ****         case CYBLE_EVT_BASC_READ_DESCR_RESPONSE:
  90:bass.c        ****             break;
  91:bass.c        ****         case CYBLE_EVT_BASC_WRITE_DESCR_RESPONSE:
  92:bass.c        ****             break;
  93:bass.c        **** 		default:
  94:bass.c        ****             DBG_PRINTF("Not supported event\r\n");
 138              		.loc 1 94 0
 139 0078 0B4B     		ldr	r3, .L16+20
 140 007a 1800     		movs	r0, r3
 141 007c FFF7FEFF 		bl	puts
  95:bass.c        **** 			break;
 142              		.loc 1 95 0
 143 0080 04E0     		b	.L11
 144              	.L13:
  92:bass.c        **** 		default:
 145              		.loc 1 92 0
 146 0082 C046     		nop
 147 0084 02E0     		b	.L11
 148              	.L14:
  69:bass.c        ****         case CYBLE_EVT_BASS_NOTIFICATION_DISABLED:
 149              		.loc 1 69 0
 150 0086 C046     		nop
 151 0088 00E0     		b	.L11
 152              	.L15:
  84:bass.c        ****         case CYBLE_EVT_BASC_NOTIFICATION:
 153              		.loc 1 84 0
 154 008a C046     		nop
 155              	.L11:
  96:bass.c        ****     }
  97:bass.c        **** }
 156              		.loc 1 97 0
 157 008c C046     		nop
 158 008e BD46     		mov	sp, r7
 159 0090 04B0     		add	sp, sp, #16
 160              		@ sp needed
 161 0092 80BD     		pop	{r7, pc}
 162              	.L17:
 163              		.align	2
 164              	.L16:
 165 0094 00000000 		.word	.LC0
 166 0098 84000000 		.word	.L4
 167 009c 14000000 		.word	.LC3
 168 00a0 00000000 		.word	batteryMeasureNotify
 169 00a4 40000000 		.word	.LC6
ARM GAS  C:\Users\13740\AppData\Local\Temp\ccgRVHn7.s 			page 6


 170 00a8 6C000000 		.word	.LC8
 171              		.cfi_endproc
 172              	.LFE36:
 173              		.size	BasCallBack, .-BasCallBack
 174              		.section	.text.BasInit,"ax",%progbits
 175              		.align	2
 176              		.global	BasInit
 177              		.code	16
 178              		.thumb_func
 179              		.type	BasInit, %function
 180              	BasInit:
 181              	.LFB37:
  98:bass.c        **** 
  99:bass.c        **** 
 100:bass.c        **** /*******************************************************************************
 101:bass.c        **** * Function Name: BasInit()
 102:bass.c        **** ********************************************************************************
 103:bass.c        **** *
 104:bass.c        **** * Summary:
 105:bass.c        **** *   Initializes the battery service.
 106:bass.c        **** *
 107:bass.c        **** *******************************************************************************/
 108:bass.c        **** void BasInit(void)
 109:bass.c        **** {
 182              		.loc 1 109 0
 183              		.cfi_startproc
 184              		@ args = 0, pretend = 0, frame = 8
 185              		@ frame_needed = 1, uses_anonymous_args = 0
 186 0000 90B5     		push	{r4, r7, lr}
 187              		.cfi_def_cfa_offset 12
 188              		.cfi_offset 4, -12
 189              		.cfi_offset 7, -8
 190              		.cfi_offset 14, -4
 191 0002 85B0     		sub	sp, sp, #20
 192              		.cfi_def_cfa_offset 32
 193 0004 02AF     		add	r7, sp, #8
 194              		.cfi_def_cfa 7, 24
 110:bass.c        ****     CYBLE_API_RESULT_T apiResult;
 111:bass.c        ****     uint16 cccdValue;
 112:bass.c        ****     
 113:bass.c        ****     /* Register service specific callback function */
 114:bass.c        ****     CyBle_BasRegisterAttrCallback(BasCallBack);
 195              		.loc 1 114 0
 196 0006 114B     		ldr	r3, .L21
 197 0008 1800     		movs	r0, r3
 198 000a FFF7FEFF 		bl	CyBle_BasRegisterAttrCallback
 115:bass.c        **** 
 116:bass.c        ****     /* Read CCCD configurations from flash */
 117:bass.c        **** #if (BAS_SIMULATE_ENABLE != 0)
 118:bass.c        ****     apiResult = CyBle_BassGetCharacteristicDescriptor(BAS_SERVICE_SIMULATE, CYBLE_BAS_BATTERY_LEVEL
 119:bass.c        ****         CYBLE_BAS_BATTERY_LEVEL_CCCD, CYBLE_CCCD_LEN, (uint8 *)&cccdValue);
 120:bass.c        ****     if((apiResult == CYBLE_ERROR_OK) && (cccdValue != 0u))
 121:bass.c        ****     {
 122:bass.c        ****         batterySimulationNotify |= ENABLED;
 123:bass.c        ****     }
 124:bass.c        **** #endif /* (BAS_SIMULATE_ENABLE != 0) */
 125:bass.c        **** #if (BAS_MEASURE_ENABLE != 0)
ARM GAS  C:\Users\13740\AppData\Local\Temp\ccgRVHn7.s 			page 7


 126:bass.c        ****     apiResult = CyBle_BassGetCharacteristicDescriptor(BAS_SERVICE_MEASURE, CYBLE_BAS_BATTERY_LEVEL,
 199              		.loc 1 126 0
 200 000e BC1D     		adds	r4, r7, #6
 201 0010 3B1D     		adds	r3, r7, #4
 202 0012 0093     		str	r3, [sp]
 203 0014 0223     		movs	r3, #2
 204 0016 0022     		movs	r2, #0
 205 0018 0021     		movs	r1, #0
 206 001a 0020     		movs	r0, #0
 207 001c FFF7FEFF 		bl	CyBle_BassGetCharacteristicDescriptor
 208 0020 0300     		movs	r3, r0
 209 0022 2380     		strh	r3, [r4]
 127:bass.c        ****         CYBLE_BAS_BATTERY_LEVEL_CCCD, CYBLE_CCCD_LEN, (uint8 *)&cccdValue);
 128:bass.c        ****     if((apiResult == CYBLE_ERROR_OK) && (cccdValue != 0u))
 210              		.loc 1 128 0
 211 0024 BB1D     		adds	r3, r7, #6
 212 0026 1B88     		ldrh	r3, [r3]
 213 0028 002B     		cmp	r3, #0
 214 002a 0AD1     		bne	.L20
 215              		.loc 1 128 0 is_stmt 0 discriminator 1
 216 002c 3B1D     		adds	r3, r7, #4
 217 002e 1B88     		ldrh	r3, [r3]
 218 0030 002B     		cmp	r3, #0
 219 0032 06D0     		beq	.L20
 129:bass.c        ****     {
 130:bass.c        ****         batteryMeasureNotify |= ENABLED;
 220              		.loc 1 130 0 is_stmt 1
 221 0034 064B     		ldr	r3, .L21+4
 222 0036 1B88     		ldrh	r3, [r3]
 223 0038 0122     		movs	r2, #1
 224 003a 1343     		orrs	r3, r2
 225 003c 9AB2     		uxth	r2, r3
 226 003e 044B     		ldr	r3, .L21+4
 227 0040 1A80     		strh	r2, [r3]
 228              	.L20:
 131:bass.c        ****     }
 132:bass.c        **** #endif /* (BAS_MEASURE_ENABLE != 0) */
 133:bass.c        **** }
 229              		.loc 1 133 0
 230 0042 C046     		nop
 231 0044 BD46     		mov	sp, r7
 232 0046 03B0     		add	sp, sp, #12
 233              		@ sp needed
 234 0048 90BD     		pop	{r4, r7, pc}
 235              	.L22:
 236 004a C046     		.align	2
 237              	.L21:
 238 004c 00000000 		.word	BasCallBack
 239 0050 00000000 		.word	batteryMeasureNotify
 240              		.cfi_endproc
 241              	.LFE37:
 242              		.size	BasInit, .-BasInit
 243              		.global	__aeabi_idiv
 244              		.section	.rodata
 245              		.align	2
 246              	.LC15:
 247 009c 41504920 		.ascii	"API Error: \000"
ARM GAS  C:\Users\13740\AppData\Local\Temp\ccgRVHn7.s 			page 8


 247      4572726F 
 247      723A2000 
 248              		.align	2
 249              	.LC17:
 250 00a8 4D656173 		.ascii	"MeasureBatteryLevelUpdate: %d \015\012\000"
 250      75726542 
 250      61747465 
 250      72794C65 
 250      76656C55 
 251              		.section	.text.MeasureBattery,"ax",%progbits
 252              		.align	2
 253              		.global	MeasureBattery
 254              		.code	16
 255              		.thumb_func
 256              		.type	MeasureBattery, %function
 257              	MeasureBattery:
 258              	.LFB38:
 134:bass.c        **** 
 135:bass.c        **** 
 136:bass.c        **** #if (BAS_MEASURE_ENABLE != 0)
 137:bass.c        ****     
 138:bass.c        **** 
 139:bass.c        **** /*******************************************************************************
 140:bass.c        **** * Function Name: MeasureBattery()
 141:bass.c        **** ********************************************************************************
 142:bass.c        **** *
 143:bass.c        **** * Summary:
 144:bass.c        **** *   This function measures the battery voltage and sends it to the client.
 145:bass.c        **** *
 146:bass.c        **** *******************************************************************************/
 147:bass.c        **** void MeasureBattery(void)
 148:bass.c        **** {
 259              		.loc 1 148 0
 260              		.cfi_startproc
 261              		@ args = 0, pretend = 0, frame = 16
 262              		@ frame_needed = 1, uses_anonymous_args = 0
 263 0000 90B5     		push	{r4, r7, lr}
 264              		.cfi_def_cfa_offset 12
 265              		.cfi_offset 4, -12
 266              		.cfi_offset 7, -8
 267              		.cfi_offset 14, -4
 268 0002 87B0     		sub	sp, sp, #28
 269              		.cfi_def_cfa_offset 40
 270 0004 02AF     		add	r7, sp, #8
 271              		.cfi_def_cfa 7, 32
 149:bass.c        **** 	int16 adcResult;
 150:bass.c        ****     int32 mvolts;
 151:bass.c        **** 	uint32 sarControlReg;
 152:bass.c        ****     uint8 batteryLevel;
 153:bass.c        ****     CYBLE_API_RESULT_T apiResult;
 154:bass.c        ****     
 155:bass.c        ****     static uint32 batteryTimer = BATTERY_TIMEOUT;
 156:bass.c        ****     
 157:bass.c        ****     if(--batteryTimer == 0u) 
 272              		.loc 1 157 0
 273 0006 494B     		ldr	r3, .L35
 274 0008 1B68     		ldr	r3, [r3]
ARM GAS  C:\Users\13740\AppData\Local\Temp\ccgRVHn7.s 			page 9


 275 000a 5A1E     		subs	r2, r3, #1
 276 000c 474B     		ldr	r3, .L35
 277 000e 1A60     		str	r2, [r3]
 278 0010 464B     		ldr	r3, .L35
 279 0012 1B68     		ldr	r3, [r3]
 280 0014 002B     		cmp	r3, #0
 281 0016 00D0     		beq	.LCB201
 282 0018 84E0     		b	.L34	@long jump
 283              	.LCB201:
 158:bass.c        ****     {
 159:bass.c        ****         batteryTimer = BATTERY_TIMEOUT;
 284              		.loc 1 159 0
 285 001a 444B     		ldr	r3, .L35
 286 001c 0622     		movs	r2, #6
 287 001e 1A60     		str	r2, [r3]
 160:bass.c        ****         
 161:bass.c        **** 
 162:bass.c        ****     	mvolts = 3000;
 288              		.loc 1 162 0
 289 0020 434B     		ldr	r3, .L35+4
 290 0022 BB60     		str	r3, [r7, #8]
 163:bass.c        ****         
 164:bass.c        ****         /* Convert battery level voltage to percentage using linear approximation
 165:bass.c        ****         *  divided to two sections according to typical performance of 
 166:bass.c        ****         *  CR2033 battery specification:
 167:bass.c        ****         *  3V - 100%
 168:bass.c        ****         *  2.8V - 29%
 169:bass.c        ****         *  2.0V - 0%
 170:bass.c        ****         */
 171:bass.c        ****         if(mvolts < MEASURE_BATTERY_MIN)
 291              		.loc 1 171 0
 292 0024 BB68     		ldr	r3, [r7, #8]
 293 0026 434A     		ldr	r2, .L35+8
 294 0028 9342     		cmp	r3, r2
 295 002a 03DC     		bgt	.L25
 172:bass.c        ****         {
 173:bass.c        ****             batteryLevel = 0;
 296              		.loc 1 173 0
 297 002c FB1D     		adds	r3, r7, #7
 298 002e 0022     		movs	r2, #0
 299 0030 1A70     		strb	r2, [r3]
 300 0032 2FE0     		b	.L26
 301              	.L25:
 174:bass.c        ****         }
 175:bass.c        ****         else if(mvolts < MEASURE_BATTERY_MID)
 302              		.loc 1 175 0
 303 0034 BB68     		ldr	r3, [r7, #8]
 304 0036 404A     		ldr	r2, .L35+12
 305 0038 9342     		cmp	r3, r2
 306 003a 11DC     		bgt	.L27
 176:bass.c        ****         {
 177:bass.c        ****             batteryLevel = (mvolts - MEASURE_BATTERY_MIN) * MEASURE_BATTERY_MID_PERCENT / 
 307              		.loc 1 177 0
 308 003c BB68     		ldr	r3, [r7, #8]
 309 003e 3F4A     		ldr	r2, .L35+16
 310 0040 9A18     		adds	r2, r3, r2
 311 0042 1300     		movs	r3, r2
ARM GAS  C:\Users\13740\AppData\Local\Temp\ccgRVHn7.s 			page 10


 312 0044 DB00     		lsls	r3, r3, #3
 313 0046 9B1A     		subs	r3, r3, r2
 314 0048 9B00     		lsls	r3, r3, #2
 315 004a 9A18     		adds	r2, r3, r2
 316 004c C823     		movs	r3, #200
 317 004e 9900     		lsls	r1, r3, #2
 318 0050 1000     		movs	r0, r2
 319 0052 FFF7FEFF 		bl	__aeabi_idiv
 320 0056 0300     		movs	r3, r0
 321 0058 DAB2     		uxtb	r2, r3
 322 005a FB1D     		adds	r3, r7, #7
 323 005c 1A70     		strb	r2, [r3]
 324 005e 19E0     		b	.L26
 325              	.L27:
 178:bass.c        ****                            (MEASURE_BATTERY_MID - MEASURE_BATTERY_MIN); 
 179:bass.c        ****         }
 180:bass.c        ****         else if(mvolts < MEASURE_BATTERY_MAX)
 326              		.loc 1 180 0
 327 0060 BB68     		ldr	r3, [r7, #8]
 328 0062 374A     		ldr	r2, .L35+20
 329 0064 9342     		cmp	r3, r2
 330 0066 12DC     		bgt	.L28
 181:bass.c        ****         {
 182:bass.c        ****             batteryLevel = MEASURE_BATTERY_MID_PERCENT +
 183:bass.c        ****                            (mvolts - MEASURE_BATTERY_MID) * (100 - MEASURE_BATTERY_MID_PERCENT) / 
 331              		.loc 1 183 0
 332 0068 BB68     		ldr	r3, [r7, #8]
 333 006a 364A     		ldr	r2, .L35+24
 334 006c 9A18     		adds	r2, r3, r2
 335 006e 1300     		movs	r3, r2
 336 0070 DB00     		lsls	r3, r3, #3
 337 0072 9B18     		adds	r3, r3, r2
 338 0074 DB00     		lsls	r3, r3, #3
 339 0076 9B1A     		subs	r3, r3, r2
 340 0078 C821     		movs	r1, #200
 341 007a 1800     		movs	r0, r3
 342 007c FFF7FEFF 		bl	__aeabi_idiv
 343 0080 0300     		movs	r3, r0
 182:bass.c        ****                            (mvolts - MEASURE_BATTERY_MID) * (100 - MEASURE_BATTERY_MID_PERCENT) / 
 344              		.loc 1 182 0
 345 0082 DBB2     		uxtb	r3, r3
 346 0084 1D33     		adds	r3, r3, #29
 347 0086 DAB2     		uxtb	r2, r3
 348 0088 FB1D     		adds	r3, r7, #7
 349 008a 1A70     		strb	r2, [r3]
 350 008c 02E0     		b	.L26
 351              	.L28:
 184:bass.c        ****                            (MEASURE_BATTERY_MAX - MEASURE_BATTERY_MID); 
 185:bass.c        ****         }
 186:bass.c        ****         else
 187:bass.c        ****         {
 188:bass.c        ****             batteryLevel = CYBLE_BAS_MAX_BATTERY_LEVEL_VALUE;
 352              		.loc 1 188 0
 353 008e FB1D     		adds	r3, r7, #7
 354 0090 6422     		movs	r2, #100
 355 0092 1A70     		strb	r2, [r3]
 356              	.L26:
ARM GAS  C:\Users\13740\AppData\Local\Temp\ccgRVHn7.s 			page 11


 189:bass.c        ****         }
 190:bass.c        ****     #if (BAS_MEASURE_LP_LED != 0u)
 191:bass.c        ****         if(batteryLevel < LOW_BATTERY_LIMIT)
 357              		.loc 1 191 0
 358 0094 FB1D     		adds	r3, r7, #7
 359 0096 1B78     		ldrb	r3, [r3]
 360 0098 092B     		cmp	r3, #9
 361 009a 03D8     		bhi	.L29
 192:bass.c        ****         {
 193:bass.c        ****             LowPower_LED_Write(LED_ON);
 362              		.loc 1 193 0
 363 009c 0020     		movs	r0, #0
 364 009e FFF7FEFF 		bl	LowPower_LED_Write
 365 00a2 02E0     		b	.L30
 366              	.L29:
 194:bass.c        ****         }
 195:bass.c        ****         else
 196:bass.c        ****         {
 197:bass.c        ****             LowPower_LED_Write(LED_OFF);
 367              		.loc 1 197 0
 368 00a4 0120     		movs	r0, #1
 369 00a6 FFF7FEFF 		bl	LowPower_LED_Write
 370              	.L30:
 198:bass.c        ****         }
 199:bass.c        ****     #endif /* (BAS_MEASURE_LP_LED != 0u) */
 200:bass.c        ****     
 201:bass.c        ****         if(batteryMeasureNotify == ENABLED)
 371              		.loc 1 201 0
 372 00aa 274B     		ldr	r3, .L35+28
 373 00ac 1B88     		ldrh	r3, [r3]
 374 00ae 012B     		cmp	r3, #1
 375 00b0 17D1     		bne	.L31
 202:bass.c        ****         {
 203:bass.c        ****             /* Update Battery Level characteristic value and send Notification */
 204:bass.c        ****             apiResult = CyBle_BassSendNotification(cyBle_connHandle, BAS_SERVICE_MEASURE, CYBLE_BAS
 376              		.loc 1 204 0
 377 00b2 0E23     		movs	r3, #14
 378 00b4 FC18     		adds	r4, r7, r3
 379 00b6 254B     		ldr	r3, .L35+32
 380 00b8 FA1D     		adds	r2, r7, #7
 381 00ba 0092     		str	r2, [sp]
 382 00bc 1A78     		ldrb	r2, [r3]
 383 00be 5B78     		ldrb	r3, [r3, #1]
 384 00c0 1B02     		lsls	r3, r3, #8
 385 00c2 1343     		orrs	r3, r2
 386 00c4 0020     		movs	r0, #0
 387 00c6 1B04     		lsls	r3, r3, #16
 388 00c8 1B0C     		lsrs	r3, r3, #16
 389 00ca 020C     		lsrs	r2, r0, #16
 390 00cc 1204     		lsls	r2, r2, #16
 391 00ce 1343     		orrs	r3, r2
 392 00d0 1800     		movs	r0, r3
 393 00d2 0123     		movs	r3, #1
 394 00d4 0022     		movs	r2, #0
 395 00d6 0021     		movs	r1, #0
 396 00d8 FFF7FEFF 		bl	CyBle_BassSendNotification
 397 00dc 0300     		movs	r3, r0
ARM GAS  C:\Users\13740\AppData\Local\Temp\ccgRVHn7.s 			page 12


 398 00de 2380     		strh	r3, [r4]
 399 00e0 09E0     		b	.L32
 400              	.L31:
 205:bass.c        ****                 sizeof(batteryLevel), &batteryLevel);
 206:bass.c        ****         }
 207:bass.c        ****         else
 208:bass.c        ****         {
 209:bass.c        ****             /* Update Battery Level characteristic value */
 210:bass.c        ****             apiResult = CyBle_BassSetCharacteristicValue(BAS_SERVICE_MEASURE, 
 401              		.loc 1 210 0
 402 00e2 0E23     		movs	r3, #14
 403 00e4 FC18     		adds	r4, r7, r3
 404 00e6 FB1D     		adds	r3, r7, #7
 405 00e8 0122     		movs	r2, #1
 406 00ea 0021     		movs	r1, #0
 407 00ec 0020     		movs	r0, #0
 408 00ee FFF7FEFF 		bl	CyBle_BassSetCharacteristicValue
 409 00f2 0300     		movs	r3, r0
 410 00f4 2380     		strh	r3, [r4]
 411              	.L32:
 211:bass.c        ****                 CYBLE_BAS_BATTERY_LEVEL, sizeof(batteryLevel), &batteryLevel);
 212:bass.c        ****         }
 213:bass.c        ****             
 214:bass.c        ****         if(apiResult != CYBLE_ERROR_OK)
 412              		.loc 1 214 0
 413 00f6 0E23     		movs	r3, #14
 414 00f8 FB18     		adds	r3, r7, r3
 415 00fa 1B88     		ldrh	r3, [r3]
 416 00fc 002B     		cmp	r3, #0
 417 00fe 09D0     		beq	.L33
 215:bass.c        ****         {
 216:bass.c        ****             DBG_PRINTF("API Error: ");
 418              		.loc 1 216 0
 419 0100 134B     		ldr	r3, .L35+36
 420 0102 1800     		movs	r0, r3
 421 0104 FFF7FEFF 		bl	printf
 217:bass.c        ****             PrintApiResult();
 422              		.loc 1 217 0
 423 0108 FFF7FEFF 		bl	PrintApiResult
 218:bass.c        ****             batteryMeasureNotify = DISABLED;
 424              		.loc 1 218 0
 425 010c 0E4B     		ldr	r3, .L35+28
 426 010e 0022     		movs	r2, #0
 427 0110 1A80     		strh	r2, [r3]
 219:bass.c        ****         }
 220:bass.c        ****         else
 221:bass.c        ****         {
 222:bass.c        ****             DBG_PRINTF("MeasureBatteryLevelUpdate: %d \r\n",batteryLevel);
 223:bass.c        ****         }
 224:bass.c        ****     }
 225:bass.c        **** }
 428              		.loc 1 225 0
 429 0112 07E0     		b	.L34
 430              	.L33:
 222:bass.c        ****         }
 431              		.loc 1 222 0
 432 0114 FB1D     		adds	r3, r7, #7
ARM GAS  C:\Users\13740\AppData\Local\Temp\ccgRVHn7.s 			page 13


 433 0116 1B78     		ldrb	r3, [r3]
 434 0118 1A00     		movs	r2, r3
 435 011a 0E4B     		ldr	r3, .L35+40
 436 011c 1100     		movs	r1, r2
 437 011e 1800     		movs	r0, r3
 438 0120 FFF7FEFF 		bl	printf
 439              	.L34:
 440              		.loc 1 225 0
 441 0124 C046     		nop
 442 0126 BD46     		mov	sp, r7
 443 0128 05B0     		add	sp, sp, #20
 444              		@ sp needed
 445 012a 90BD     		pop	{r4, r7, pc}
 446              	.L36:
 447              		.align	2
 448              	.L35:
 449 012c 00000000 		.word	batteryTimer.9146
 450 0130 B80B0000 		.word	3000
 451 0134 CF070000 		.word	1999
 452 0138 EF0A0000 		.word	2799
 453 013c 30F8FFFF 		.word	-2000
 454 0140 B70B0000 		.word	2999
 455 0144 10F5FFFF 		.word	-2800
 456 0148 00000000 		.word	batteryMeasureNotify
 457 014c 00000000 		.word	cyBle_connHandle
 458 0150 9C000000 		.word	.LC15
 459 0154 A8000000 		.word	.LC17
 460              		.cfi_endproc
 461              	.LFE38:
 462              		.size	MeasureBattery, .-MeasureBattery
 463              		.data
 464              		.align	2
 465              		.type	batteryTimer.9146, %object
 466              		.size	batteryTimer.9146, 4
 467              	batteryTimer.9146:
 468 0000 06000000 		.word	6
 469              		.text
 470              	.Letext0:
 471              		.file 2 "Generated_Source\\PSoC4/cytypes.h"
 472              		.file 3 "Generated_Source\\PSoC4/CYBLE_Stack.h"
 473              		.file 4 "Generated_Source\\PSoC4/CYBLE_StackGatt.h"
 474              		.file 5 "Generated_Source\\PSoC4/CYBLE_bas.h"
 475              		.file 6 "Generated_Source\\PSoC4/CYBLE_hrs.h"
 476              		.file 7 "Generated_Source\\PSoC4/CYBLE_dis.h"
 477              		.file 8 "Generated_Source\\PSoC4/CYBLE_eventHandler.h"