ARM GAS  C:\Users\13740\AppData\Local\Temp\cc8Xmu4m.s 			page 1


   1              		.syntax unified
   2              		.cpu cortex-m0
   3              		.fpu softvfp
   4              		.eabi_attribute 20, 1
   5              		.eabi_attribute 21, 1
   6              		.eabi_attribute 23, 3
   7              		.eabi_attribute 24, 1
   8              		.eabi_attribute 25, 1
   9              		.eabi_attribute 26, 1
  10              		.eabi_attribute 30, 6
  11              		.eabi_attribute 34, 0
  12              		.eabi_attribute 18, 4
  13              		.thumb
  14              		.syntax unified
  15              		.file	"debug.c"
  16              		.text
  17              	.Ltext0:
  18              		.cfi_sections	.debug_frame
  19              		.section	.rodata
  20              		.align	2
  21              	.LC1:
  22 0000 4379426C 		.ascii	"CyBle_GetStackLibraryVersion API Error: \000"
  22      655F4765 
  22      74537461 
  22      636B4C69 
  22      62726172 
  23 0029 000000   		.align	2
  24              	.LC3:
  25 002c 424C4520 		.ascii	"BLE Stack Version: %d.%d.%d.%d\015\012\000"
  25      53746163 
  25      6B205665 
  25      7273696F 
  25      6E3A2025 
  26              		.section	.text.PrintStackVersion,"ax",%progbits
  27              		.align	2
  28              		.global	PrintStackVersion
  29              		.code	16
  30              		.thumb_func
  31              		.type	PrintStackVersion, %function
  32              	PrintStackVersion:
  33              	.LFB36:
  34              		.file 1 "debug.c"
   1:debug.c       **** /*******************************************************************************
   2:debug.c       **** * File Name: debug.c
   3:debug.c       **** *
   4:debug.c       **** * Version 1.0
   5:debug.c       **** *
   6:debug.c       **** * Description:
   7:debug.c       **** *  Common BLE application code for printout debug messages.
   8:debug.c       **** *
   9:debug.c       **** * Hardware Dependency:
  10:debug.c       **** *  CY8CKIT-042 BLE
  11:debug.c       **** *
  12:debug.c       **** ********************************************************************************
  13:debug.c       **** * Copyright 2016, Cypress Semiconductor Corporation.  All rights reserved.
  14:debug.c       **** * You may use this file only in accordance with the license, terms, conditions,
  15:debug.c       **** * disclaimers, and limitations in the end user license agreement accompanying
ARM GAS  C:\Users\13740\AppData\Local\Temp\cc8Xmu4m.s 			page 2


  16:debug.c       **** * the software package with which this file was provided.
  17:debug.c       **** *******************************************************************************/
  18:debug.c       **** 
  19:debug.c       **** #include "main.h"
  20:debug.c       **** 
  21:debug.c       **** 
  22:debug.c       **** 
  23:debug.c       **** 
  24:debug.c       **** 
  25:debug.c       **** 
  26:debug.c       **** /*******************************************************************************
  27:debug.c       **** * Function Name: PrintStackVersion
  28:debug.c       **** ********************************************************************************
  29:debug.c       **** *
  30:debug.c       **** * Summary:
  31:debug.c       **** *   Prints the BLE Stack version if the PRINT_STACK_VERSION is defined.
  32:debug.c       **** *
  33:debug.c       **** * Parameters:
  34:debug.c       **** *   None.
  35:debug.c       **** *
  36:debug.c       **** * Return:
  37:debug.c       **** *   None.
  38:debug.c       **** *
  39:debug.c       **** *******************************************************************************/
  40:debug.c       **** void PrintStackVersion(void)
  41:debug.c       **** {
  35              		.loc 1 41 0
  36              		.cfi_startproc
  37              		@ args = 0, pretend = 0, frame = 8
  38              		@ frame_needed = 1, uses_anonymous_args = 0
  39 0000 90B5     		push	{r4, r7, lr}
  40              		.cfi_def_cfa_offset 12
  41              		.cfi_offset 4, -12
  42              		.cfi_offset 7, -8
  43              		.cfi_offset 14, -4
  44 0002 85B0     		sub	sp, sp, #20
  45              		.cfi_def_cfa_offset 32
  46 0004 02AF     		add	r7, sp, #8
  47              		.cfi_def_cfa 7, 24
  42:debug.c       ****     CYBLE_STACK_LIB_VERSION_T stackVersion;
  43:debug.c       ****     
  44:debug.c       ****     apiResult = CyBle_GetStackLibraryVersion(&stackVersion);
  48              		.loc 1 44 0
  49 0006 3B00     		movs	r3, r7
  50 0008 1800     		movs	r0, r3
  51 000a FFF7FEFF 		bl	CyBle_GetStackLibraryVersion
  52 000e 0300     		movs	r3, r0
  53 0010 1A00     		movs	r2, r3
  54 0012 104B     		ldr	r3, .L5
  55 0014 1A80     		strh	r2, [r3]
  45:debug.c       ****     if(apiResult != CYBLE_ERROR_OK)
  56              		.loc 1 45 0
  57 0016 0F4B     		ldr	r3, .L5
  58 0018 1B88     		ldrh	r3, [r3]
  59 001a 002B     		cmp	r3, #0
  60 001c 06D0     		beq	.L2
  46:debug.c       ****     {
ARM GAS  C:\Users\13740\AppData\Local\Temp\cc8Xmu4m.s 			page 3


  47:debug.c       ****         DBG_PRINTF("CyBle_GetStackLibraryVersion API Error: ");
  61              		.loc 1 47 0
  62 001e 0E4B     		ldr	r3, .L5+4
  63 0020 1800     		movs	r0, r3
  64 0022 FFF7FEFF 		bl	printf
  48:debug.c       ****         PrintApiResult();
  65              		.loc 1 48 0
  66 0026 FFF7FEFF 		bl	PrintApiResult
  49:debug.c       ****     }
  50:debug.c       ****     else
  51:debug.c       ****     {
  52:debug.c       ****         DBG_PRINTF("BLE Stack Version: %d.%d.%d.%d\r\n", stackVersion.majorVersion, 
  53:debug.c       ****                                                          stackVersion.minorVersion,
  54:debug.c       ****                                                          stackVersion.patch,
  55:debug.c       ****                                                          stackVersion.buildNumber);
  56:debug.c       ****     }
  57:debug.c       **** }
  67              		.loc 1 57 0
  68 002a 0FE0     		b	.L4
  69              	.L2:
  52:debug.c       ****                                                          stackVersion.minorVersion,
  70              		.loc 1 52 0
  71 002c 3B00     		movs	r3, r7
  72 002e 1B88     		ldrh	r3, [r3]
  73 0030 1900     		movs	r1, r3
  74 0032 3B00     		movs	r3, r7
  75 0034 5B88     		ldrh	r3, [r3, #2]
  76 0036 1A00     		movs	r2, r3
  77 0038 3B00     		movs	r3, r7
  78 003a 9B88     		ldrh	r3, [r3, #4]
  79 003c 1C00     		movs	r4, r3
  80 003e 3B00     		movs	r3, r7
  81 0040 DB88     		ldrh	r3, [r3, #6]
  82 0042 0648     		ldr	r0, .L5+8
  83 0044 0093     		str	r3, [sp]
  84 0046 2300     		movs	r3, r4
  85 0048 FFF7FEFF 		bl	printf
  86              	.L4:
  87              		.loc 1 57 0
  88 004c C046     		nop
  89 004e BD46     		mov	sp, r7
  90 0050 03B0     		add	sp, sp, #12
  91              		@ sp needed
  92 0052 90BD     		pop	{r4, r7, pc}
  93              	.L6:
  94              		.align	2
  95              	.L5:
  96 0054 00000000 		.word	apiResult
  97 0058 00000000 		.word	.LC1
  98 005c 2C000000 		.word	.LC3
  99              		.cfi_endproc
 100              	.LFE36:
 101              		.size	PrintStackVersion, .-PrintStackVersion
 102              		.section	.rodata
 103 004d 000000   		.align	2
 104              	.LC5:
 105 0050 73746174 		.ascii	"state: \000"
ARM GAS  C:\Users\13740\AppData\Local\Temp\cc8Xmu4m.s 			page 4


 105      653A2000 
 106              		.align	2
 107              	.LC9:
 108 0058 73746F70 		.ascii	"stopped\015\000"
 108      7065640D 
 108      00
 109 0061 000000   		.align	2
 110              	.LC11:
 111 0064 696E6974 		.ascii	"initializing\015\000"
 111      69616C69 
 111      7A696E67 
 111      0D00
 112 0072 0000     		.align	2
 113              	.LC13:
 114 0074 636F6E6E 		.ascii	"connected\015\000"
 114      65637465 
 114      640D00
 115 007f 00       		.align	2
 116              	.LC15:
 117 0080 64697363 		.ascii	"disconnected\015\000"
 117      6F6E6E65 
 117      63746564 
 117      0D00
 118 008e 0000     		.align	2
 119              	.LC17:
 120 0090 61647665 		.ascii	"advertising\015\000"
 120      72746973 
 120      696E670D 
 120      00
 121 009d 000000   		.align	2
 122              	.LC19:
 123 00a0 756E6B6E 		.ascii	"unknown\015\000"
 123      6F776E0D 
 123      00
 124              		.section	.text.PrintState,"ax",%progbits
 125              		.align	2
 126              		.global	PrintState
 127              		.code	16
 128              		.thumb_func
 129              		.type	PrintState, %function
 130              	PrintState:
 131              	.LFB37:
  58:debug.c       **** 
  59:debug.c       **** /*******************************************************************************
  60:debug.c       **** * Function Name: PrintState
  61:debug.c       **** ********************************************************************************
  62:debug.c       **** *
  63:debug.c       **** * Summary:
  64:debug.c       **** *   Decodes and prints the cyBle_state global variable value.
  65:debug.c       **** *
  66:debug.c       **** * Parameters:
  67:debug.c       **** *   None.
  68:debug.c       **** *
  69:debug.c       **** * Return:
  70:debug.c       **** *   None.
  71:debug.c       **** *
  72:debug.c       **** *******************************************************************************/
ARM GAS  C:\Users\13740\AppData\Local\Temp\cc8Xmu4m.s 			page 5


  73:debug.c       **** void PrintState(void)
  74:debug.c       **** {
 132              		.loc 1 74 0
 133              		.cfi_startproc
 134              		@ args = 0, pretend = 0, frame = 0
 135              		@ frame_needed = 1, uses_anonymous_args = 0
 136 0000 80B5     		push	{r7, lr}
 137              		.cfi_def_cfa_offset 8
 138              		.cfi_offset 7, -8
 139              		.cfi_offset 14, -4
 140 0002 00AF     		add	r7, sp, #0
 141              		.cfi_def_cfa_register 7
  75:debug.c       ****     DBG_PRINTF("state: ");
 142              		.loc 1 75 0
 143 0004 164B     		ldr	r3, .L16
 144 0006 1800     		movs	r0, r3
 145 0008 FFF7FEFF 		bl	printf
  76:debug.c       ****     switch(CyBle_GetState())
 146              		.loc 1 76 0
 147 000c 154B     		ldr	r3, .L16+4
 148 000e 1B78     		ldrb	r3, [r3]
 149 0010 042B     		cmp	r3, #4
 150 0012 1DD8     		bhi	.L8
 151 0014 9A00     		lsls	r2, r3, #2
 152 0016 144B     		ldr	r3, .L16+8
 153 0018 D318     		adds	r3, r2, r3
 154 001a 1B68     		ldr	r3, [r3]
 155 001c 9F46     		mov	pc, r3
 156              		.section	.rodata
 157 00a9 000000   		.align	2
 158              	.L10:
 159 00ac 1E000000 		.word	.L9
 160 00b0 28000000 		.word	.L11
 161 00b4 32000000 		.word	.L12
 162 00b8 46000000 		.word	.L13
 163 00bc 3C000000 		.word	.L14
 164              		.section	.text.PrintState
 165              	.L9:
  77:debug.c       ****     {
  78:debug.c       ****         case CYBLE_STATE_STOPPED:
  79:debug.c       ****             DBG_PRINTF("stopped\r\n");
 166              		.loc 1 79 0
 167 001e 134B     		ldr	r3, .L16+12
 168 0020 1800     		movs	r0, r3
 169 0022 FFF7FEFF 		bl	puts
  80:debug.c       ****             break;
 170              		.loc 1 80 0
 171 0026 18E0     		b	.L15
 172              	.L11:
  81:debug.c       ****             
  82:debug.c       ****         case CYBLE_STATE_INITIALIZING:
  83:debug.c       ****             DBG_PRINTF("initializing\r\n");
 173              		.loc 1 83 0
 174 0028 114B     		ldr	r3, .L16+16
 175 002a 1800     		movs	r0, r3
 176 002c FFF7FEFF 		bl	puts
  84:debug.c       ****             break;
ARM GAS  C:\Users\13740\AppData\Local\Temp\cc8Xmu4m.s 			page 6


 177              		.loc 1 84 0
 178 0030 13E0     		b	.L15
 179              	.L12:
  85:debug.c       ****             
  86:debug.c       ****         case CYBLE_STATE_CONNECTED:
  87:debug.c       ****             DBG_PRINTF("connected\r\n");
 180              		.loc 1 87 0
 181 0032 104B     		ldr	r3, .L16+20
 182 0034 1800     		movs	r0, r3
 183 0036 FFF7FEFF 		bl	puts
  88:debug.c       ****             break;
 184              		.loc 1 88 0
 185 003a 0EE0     		b	.L15
 186              	.L14:
  89:debug.c       ****             
  90:debug.c       ****         case CYBLE_STATE_DISCONNECTED:
  91:debug.c       ****             DBG_PRINTF("disconnected\r\n");
 187              		.loc 1 91 0
 188 003c 0E4B     		ldr	r3, .L16+24
 189 003e 1800     		movs	r0, r3
 190 0040 FFF7FEFF 		bl	puts
  92:debug.c       ****             break;
 191              		.loc 1 92 0
 192 0044 09E0     		b	.L15
 193              	.L13:
  93:debug.c       ****             
  94:debug.c       ****         case CYBLE_STATE_ADVERTISING:
  95:debug.c       ****             DBG_PRINTF("advertising\r\n");
 194              		.loc 1 95 0
 195 0046 0D4B     		ldr	r3, .L16+28
 196 0048 1800     		movs	r0, r3
 197 004a FFF7FEFF 		bl	puts
  96:debug.c       ****             break;
 198              		.loc 1 96 0
 199 004e 04E0     		b	.L15
 200              	.L8:
  97:debug.c       **** 
  98:debug.c       ****         default:
  99:debug.c       ****             DBG_PRINTF("unknown\r\n");
 201              		.loc 1 99 0
 202 0050 0B4B     		ldr	r3, .L16+32
 203 0052 1800     		movs	r0, r3
 204 0054 FFF7FEFF 		bl	puts
 100:debug.c       ****             break;
 205              		.loc 1 100 0
 206 0058 C046     		nop
 207              	.L15:
 101:debug.c       ****     }
 102:debug.c       **** }
 208              		.loc 1 102 0
 209 005a C046     		nop
 210 005c BD46     		mov	sp, r7
 211              		@ sp needed
 212 005e 80BD     		pop	{r7, pc}
 213              	.L17:
 214              		.align	2
 215              	.L16:
ARM GAS  C:\Users\13740\AppData\Local\Temp\cc8Xmu4m.s 			page 7


 216 0060 50000000 		.word	.LC5
 217 0064 00000000 		.word	cyBle_state
 218 0068 AC000000 		.word	.L10
 219 006c 58000000 		.word	.LC9
 220 0070 64000000 		.word	.LC11
 221 0074 74000000 		.word	.LC13
 222 0078 80000000 		.word	.LC15
 223 007c 90000000 		.word	.LC17
 224 0080 A0000000 		.word	.LC19
 225              		.cfi_endproc
 226              	.LFE37:
 227              		.size	PrintState, .-PrintState
 228              		.section	.rodata
 229              		.align	2
 230              	.LC22:
 231 00c0 30782532 		.ascii	"0x%2.2x \000"
 231      2E327820 
 231      00
 232 00c9 000000   		.align	2
 233              	.LC24:
 234 00cc 6F6B0D00 		.ascii	"ok\015\000"
 235              		.align	2
 236              	.LC26:
 237 00d0 696E7661 		.ascii	"invalid parameter\015\000"
 237      6C696420 
 237      70617261 
 237      6D657465 
 237      720D00
 238 00e3 00       		.align	2
 239              	.LC28:
 240 00e4 696E7661 		.ascii	"invalid operation\015\000"
 240      6C696420 
 240      6F706572 
 240      6174696F 
 240      6E0D00
 241 00f7 00       		.align	2
 242              	.LC30:
 243 00f8 6E6F2064 		.ascii	"no device entity\015\000"
 243      65766963 
 243      6520656E 
 243      74697479 
 243      0D00
 244 010a 0000     		.align	2
 245              	.LC32:
 246 010c 6E6F7469 		.ascii	"notification is disabled\015\000"
 246      66696361 
 246      74696F6E 
 246      20697320 
 246      64697361 
 247 0126 0000     		.align	2
 248              	.LC34:
 249 0128 696E6469 		.ascii	"indication is disabled\015\000"
 249      63617469 
 249      6F6E2069 
 249      73206469 
 249      7361626C 
 250              		.align	2
ARM GAS  C:\Users\13740\AppData\Local\Temp\cc8Xmu4m.s 			page 8


 251              	.LC36:
 252 0140 63686172 		.ascii	"characteristic is not discovered\015\000"
 252      61637465 
 252      72697374 
 252      69632069 
 252      73206E6F 
 253 0162 0000     		.align	2
 254              	.LC38:
 255 0164 696E7661 		.ascii	"invalid state: \000"
 255      6C696420 
 255      73746174 
 255      653A2000 
 256              		.align	2
 257              	.LC40:
 258 0174 696E7661 		.ascii	"invalid attribute handle\015\000"
 258      6C696420 
 258      61747472 
 258      69627574 
 258      65206861 
 259 018e 0000     		.align	2
 260              	.LC42:
 261 0190 666C6173 		.ascii	"flash write not permitted\015\000"
 261      68207772 
 261      69746520 
 261      6E6F7420 
 261      7065726D 
 262 01ab 00       		.align	2
 263              	.LC44:
 264 01ac 6F746865 		.ascii	"other api result\015\000"
 264      72206170 
 264      69207265 
 264      73756C74 
 264      0D00
 265              		.section	.text.PrintApiResult,"ax",%progbits
 266              		.align	2
 267              		.global	PrintApiResult
 268              		.code	16
 269              		.thumb_func
 270              		.type	PrintApiResult, %function
 271              	PrintApiResult:
 272              	.LFB38:
 103:debug.c       **** 
 104:debug.c       **** 
 105:debug.c       **** /*******************************************************************************
 106:debug.c       **** * Function Name: PrintApiResult
 107:debug.c       **** ********************************************************************************
 108:debug.c       **** *
 109:debug.c       **** * Summary:
 110:debug.c       **** *   Decodes and prints the apiResult global variable value.
 111:debug.c       **** *
 112:debug.c       **** * Parameters:
 113:debug.c       **** *   None.
 114:debug.c       **** *
 115:debug.c       **** * Return:
 116:debug.c       **** *   None.
 117:debug.c       **** *
 118:debug.c       **** *******************************************************************************/
ARM GAS  C:\Users\13740\AppData\Local\Temp\cc8Xmu4m.s 			page 9


 119:debug.c       **** void PrintApiResult(void)
 120:debug.c       **** {
 273              		.loc 1 120 0
 274              		.cfi_startproc
 275              		@ args = 0, pretend = 0, frame = 0
 276              		@ frame_needed = 1, uses_anonymous_args = 0
 277 0000 80B5     		push	{r7, lr}
 278              		.cfi_def_cfa_offset 8
 279              		.cfi_offset 7, -8
 280              		.cfi_offset 14, -4
 281 0002 00AF     		add	r7, sp, #0
 282              		.cfi_def_cfa_register 7
 121:debug.c       ****     DBG_PRINTF("0x%2.2x ", apiResult);
 283              		.loc 1 121 0
 284 0004 354B     		ldr	r3, .L34
 285 0006 1B88     		ldrh	r3, [r3]
 286 0008 1A00     		movs	r2, r3
 287 000a 354B     		ldr	r3, .L34+4
 288 000c 1100     		movs	r1, r2
 289 000e 1800     		movs	r0, r3
 290 0010 FFF7FEFF 		bl	printf
 122:debug.c       ****     
 123:debug.c       ****     switch(apiResult)
 291              		.loc 1 123 0
 292 0014 314B     		ldr	r3, .L34
 293 0016 1B88     		ldrh	r3, [r3]
 294 0018 132B     		cmp	r3, #19
 295 001a 4DD0     		beq	.L20
 296 001c 0ADC     		bgt	.L21
 297 001e 012B     		cmp	r3, #1
 298 0020 25D0     		beq	.L22
 299 0022 02DC     		bgt	.L23
 300 0024 002B     		cmp	r3, #0
 301 0026 1DD0     		beq	.L24
 302 0028 50E0     		b	.L19
 303              	.L23:
 304 002a 022B     		cmp	r3, #2
 305 002c 24D0     		beq	.L25
 306 002e 072B     		cmp	r3, #7
 307 0030 27D0     		beq	.L26
 308 0032 4BE0     		b	.L19
 309              	.L21:
 310 0034 0222     		movs	r2, #2
 311 0036 FF32     		adds	r2, r2, #255
 312 0038 9342     		cmp	r3, r2
 313 003a 2CD0     		beq	.L27
 314 003c 0222     		movs	r2, #2
 315 003e FF32     		adds	r2, r2, #255
 316 0040 9342     		cmp	r3, r2
 317 0042 06DC     		bgt	.L28
 318 0044 282B     		cmp	r3, #40
 319 0046 3CD0     		beq	.L29
 320 0048 8022     		movs	r2, #128
 321 004a 5200     		lsls	r2, r2, #1
 322 004c 9342     		cmp	r3, r2
 323 004e 1DD0     		beq	.L30
 324 0050 3CE0     		b	.L19
ARM GAS  C:\Users\13740\AppData\Local\Temp\cc8Xmu4m.s 			page 10


 325              	.L28:
 326 0052 8122     		movs	r2, #129
 327 0054 5200     		lsls	r2, r2, #1
 328 0056 9342     		cmp	r3, r2
 329 0058 22D0     		beq	.L31
 330 005a 0422     		movs	r2, #4
 331 005c FF32     		adds	r2, r2, #255
 332 005e 9342     		cmp	r3, r2
 333 0060 23D0     		beq	.L32
 334 0062 33E0     		b	.L19
 335              	.L24:
 124:debug.c       ****     {
 125:debug.c       ****         case CYBLE_ERROR_OK:
 126:debug.c       ****             DBG_PRINTF("ok\r\n");
 336              		.loc 1 126 0
 337 0064 1F4B     		ldr	r3, .L34+8
 338 0066 1800     		movs	r0, r3
 339 0068 FFF7FEFF 		bl	puts
 127:debug.c       ****             break;
 340              		.loc 1 127 0
 341 006c 33E0     		b	.L33
 342              	.L22:
 128:debug.c       ****             
 129:debug.c       ****         case CYBLE_ERROR_INVALID_PARAMETER:
 130:debug.c       ****             DBG_PRINTF("invalid parameter\r\n");
 343              		.loc 1 130 0
 344 006e 1E4B     		ldr	r3, .L34+12
 345 0070 1800     		movs	r0, r3
 346 0072 FFF7FEFF 		bl	puts
 131:debug.c       ****             break;
 347              		.loc 1 131 0
 348 0076 2EE0     		b	.L33
 349              	.L25:
 132:debug.c       ****             
 133:debug.c       ****         case CYBLE_ERROR_INVALID_OPERATION:
 134:debug.c       ****             DBG_PRINTF("invalid operation\r\n");
 350              		.loc 1 134 0
 351 0078 1C4B     		ldr	r3, .L34+16
 352 007a 1800     		movs	r0, r3
 353 007c FFF7FEFF 		bl	puts
 135:debug.c       ****             break;
 354              		.loc 1 135 0
 355 0080 29E0     		b	.L33
 356              	.L26:
 136:debug.c       ****             
 137:debug.c       ****         case CYBLE_ERROR_NO_DEVICE_ENTITY:
 138:debug.c       ****             DBG_PRINTF("no device entity\r\n");
 357              		.loc 1 138 0
 358 0082 1B4B     		ldr	r3, .L34+20
 359 0084 1800     		movs	r0, r3
 360 0086 FFF7FEFF 		bl	puts
 139:debug.c       ****             break;
 361              		.loc 1 139 0
 362 008a 24E0     		b	.L33
 363              	.L30:
 140:debug.c       ****             
 141:debug.c       ****         case CYBLE_ERROR_NTF_DISABLED:
ARM GAS  C:\Users\13740\AppData\Local\Temp\cc8Xmu4m.s 			page 11


 142:debug.c       ****             DBG_PRINTF("notification is disabled\r\n");
 364              		.loc 1 142 0
 365 008c 194B     		ldr	r3, .L34+24
 366 008e 1800     		movs	r0, r3
 367 0090 FFF7FEFF 		bl	puts
 143:debug.c       ****             break;
 368              		.loc 1 143 0
 369 0094 1FE0     		b	.L33
 370              	.L27:
 144:debug.c       ****             
 145:debug.c       ****         case CYBLE_ERROR_IND_DISABLED:
 146:debug.c       ****             DBG_PRINTF("indication is disabled\r\n");
 371              		.loc 1 146 0
 372 0096 184B     		ldr	r3, .L34+28
 373 0098 1800     		movs	r0, r3
 374 009a FFF7FEFF 		bl	puts
 147:debug.c       ****             break;
 375              		.loc 1 147 0
 376 009e 1AE0     		b	.L33
 377              	.L31:
 148:debug.c       ****             
 149:debug.c       ****         case CYBLE_ERROR_CHAR_IS_NOT_DISCOVERED:
 150:debug.c       ****             DBG_PRINTF("characteristic is not discovered\r\n");
 378              		.loc 1 150 0
 379 00a0 164B     		ldr	r3, .L34+32
 380 00a2 1800     		movs	r0, r3
 381 00a4 FFF7FEFF 		bl	puts
 151:debug.c       ****             break;
 382              		.loc 1 151 0
 383 00a8 15E0     		b	.L33
 384              	.L32:
 152:debug.c       ****             
 153:debug.c       ****         case CYBLE_ERROR_INVALID_STATE:
 154:debug.c       ****             DBG_PRINTF("invalid state: ");
 385              		.loc 1 154 0
 386 00aa 154B     		ldr	r3, .L34+36
 387 00ac 1800     		movs	r0, r3
 388 00ae FFF7FEFF 		bl	printf
 155:debug.c       ****             PrintState();
 389              		.loc 1 155 0
 390 00b2 FFF7FEFF 		bl	PrintState
 156:debug.c       ****             break;
 391              		.loc 1 156 0
 392 00b6 0EE0     		b	.L33
 393              	.L20:
 157:debug.c       ****             
 158:debug.c       ****         case CYBLE_ERROR_GATT_DB_INVALID_ATTR_HANDLE:
 159:debug.c       ****             DBG_PRINTF("invalid attribute handle\r\n");
 394              		.loc 1 159 0
 395 00b8 124B     		ldr	r3, .L34+40
 396 00ba 1800     		movs	r0, r3
 397 00bc FFF7FEFF 		bl	puts
 160:debug.c       ****             break;
 398              		.loc 1 160 0
 399 00c0 09E0     		b	.L33
 400              	.L29:
 161:debug.c       ****             
ARM GAS  C:\Users\13740\AppData\Local\Temp\cc8Xmu4m.s 			page 12


 162:debug.c       ****         case CYBLE_ERROR_FLASH_WRITE_NOT_PERMITED:
 163:debug.c       ****             DBG_PRINTF("flash write not permitted\r\n");
 401              		.loc 1 163 0
 402 00c2 114B     		ldr	r3, .L34+44
 403 00c4 1800     		movs	r0, r3
 404 00c6 FFF7FEFF 		bl	puts
 164:debug.c       ****             break;
 405              		.loc 1 164 0
 406 00ca 04E0     		b	.L33
 407              	.L19:
 165:debug.c       ****             
 166:debug.c       ****         default:
 167:debug.c       ****             DBG_PRINTF("other api result\r\n");
 408              		.loc 1 167 0
 409 00cc 0F4B     		ldr	r3, .L34+48
 410 00ce 1800     		movs	r0, r3
 411 00d0 FFF7FEFF 		bl	puts
 168:debug.c       ****             break;
 412              		.loc 1 168 0
 413 00d4 C046     		nop
 414              	.L33:
 169:debug.c       ****     }
 170:debug.c       **** }
 415              		.loc 1 170 0
 416 00d6 C046     		nop
 417 00d8 BD46     		mov	sp, r7
 418              		@ sp needed
 419 00da 80BD     		pop	{r7, pc}
 420              	.L35:
 421              		.align	2
 422              	.L34:
 423 00dc 00000000 		.word	apiResult
 424 00e0 C0000000 		.word	.LC22
 425 00e4 CC000000 		.word	.LC24
 426 00e8 D0000000 		.word	.LC26
 427 00ec E4000000 		.word	.LC28
 428 00f0 F8000000 		.word	.LC30
 429 00f4 0C010000 		.word	.LC32
 430 00f8 28010000 		.word	.LC34
 431 00fc 40010000 		.word	.LC36
 432 0100 64010000 		.word	.LC38
 433 0104 74010000 		.word	.LC40
 434 0108 90010000 		.word	.LC42
 435 010c AC010000 		.word	.LC44
 436              		.cfi_endproc
 437              	.LFE38:
 438              		.size	PrintApiResult, .-PrintApiResult
 439              		.text
 440              	.Letext0:
 441              		.file 2 "Generated_Source\\PSoC4/cytypes.h"
 442              		.file 3 "Generated_Source\\PSoC4/CYBLE_Stack.h"
 443              		.file 4 "Generated_Source\\PSoC4/CYBLE_eventHandler.h"
 444              		.file 5 "main.h"