ARM GAS  C:\Users\13740\AppData\Local\Temp\cc2zvDpU.s 			page 1


   1              		.syntax unified
   2              		.cpu cortex-m0
   3              		.fpu softvfp
   4              		.eabi_attribute 20, 1
   5              		.eabi_attribute 21, 1
   6              		.eabi_attribute 23, 3
   7              		.eabi_attribute 24, 1
   8              		.eabi_attribute 25, 1
   9              		.eabi_attribute 26, 1
  10              		.eabi_attribute 30, 6
  11              		.eabi_attribute 34, 0
  12              		.eabi_attribute 18, 4
  13              		.thumb
  14              		.syntax unified
  15              		.file	"hrss.c"
  16              		.text
  17              	.Ltext0:
  18              		.cfi_sections	.debug_frame
  19              		.global	energyExpended
  20              		.bss
  21              		.align	1
  22              		.type	energyExpended, %object
  23              		.size	energyExpended, 2
  24              	energyExpended:
  25 0000 0000     		.space	2
  26              		.comm	hrsHeartRate,24,4
  27              		.comm	hrssRrIntPtr,1,1
  28              		.comm	hrssRrIntCnt,1,1
  29              		.section	.rodata
  30              		.align	2
  31              	.LC0:
  32 0000 48656172 		.ascii	"Heart Rate Measurement Notification is Enabled \015"
  32      74205261 
  32      7465204D 
  32      65617375 
  32      72656D65 
  33 0030 00       		.ascii	"\000"
  34 0031 000000   		.align	2
  35              	.LC2:
  36 0034 48656172 		.ascii	"Heart Rate Measurement Notification is Disabled \015"
  36      74205261 
  36      7465204D 
  36      65617375 
  36      72656D65 
  37 0065 00       		.ascii	"\000"
  38 0066 0000     		.align	2
  39              	.LC5:
  40 0068 456E6572 		.ascii	"Energy Expended Reset \015\000"
  40      67792045 
  40      7870656E 
  40      64656420 
  40      52657365 
  41              		.align	2
  42              	.LC7:
  43 0080 556E6B6E 		.ascii	"Unknown HRS event: %lx \015\012\000"
  43      6F776E20 
  43      48525320 
ARM GAS  C:\Users\13740\AppData\Local\Temp\cc2zvDpU.s 			page 2


  43      6576656E 
  43      743A2025 
  44              		.section	.text.HeartRateCallBack,"ax",%progbits
  45              		.align	2
  46              		.global	HeartRateCallBack
  47              		.code	16
  48              		.thumb_func
  49              		.type	HeartRateCallBack, %function
  50              	HeartRateCallBack:
  51              	.LFB36:
  52              		.file 1 "hrss.c"
   1:hrss.c        **** /*******************************************************************************
   2:hrss.c        **** * File Name: hrss.c
   3:hrss.c        **** *
   4:hrss.c        **** * Version 1.0
   5:hrss.c        **** *
   6:hrss.c        **** * Description:
   7:hrss.c        **** *  This file contains HRS service related code.
   8:hrss.c        **** *
   9:hrss.c        **** * Hardware Dependency:
  10:hrss.c        **** *  CY8CKIT-042 BLE
  11:hrss.c        **** *
  12:hrss.c        **** ********************************************************************************
  13:hrss.c        **** * Copyright 2016, Cypress Semiconductor Corporation.  All rights reserved.
  14:hrss.c        **** * You may use this file only in accordance with the license, terms, conditions,
  15:hrss.c        **** * disclaimers, and limitations in the end user license agreement accompanying
  16:hrss.c        **** * the software package with which this file was provided.
  17:hrss.c        **** *******************************************************************************/
  18:hrss.c        **** 
  19:hrss.c        **** #include "main.h"
  20:hrss.c        **** 
  21:hrss.c        **** uint16 energyExpended = 0u;
  22:hrss.c        **** 
  23:hrss.c        **** /* Heart Rate Measurement characteristic data structure */
  24:hrss.c        **** CYBLE_HRS_HRM_T hrsHeartRate;
  25:hrss.c        **** 
  26:hrss.c        **** /* Pointer and counter for RR-Interval data */
  27:hrss.c        **** uint8 hrssRrIntPtr;
  28:hrss.c        **** uint8 hrssRrIntCnt;
  29:hrss.c        **** 
  30:hrss.c        **** /* Heart Rate Service callback */
  31:hrss.c        **** void HeartRateCallBack(uint32 event, void* eventParam)
  32:hrss.c        **** {
  53              		.loc 1 32 0
  54              		.cfi_startproc
  55              		@ args = 0, pretend = 0, frame = 8
  56              		@ frame_needed = 1, uses_anonymous_args = 0
  57 0000 80B5     		push	{r7, lr}
  58              		.cfi_def_cfa_offset 8
  59              		.cfi_offset 7, -8
  60              		.cfi_offset 14, -4
  61 0002 82B0     		sub	sp, sp, #8
  62              		.cfi_def_cfa_offset 16
  63 0004 00AF     		add	r7, sp, #0
  64              		.cfi_def_cfa_register 7
  65 0006 7860     		str	r0, [r7, #4]
  66 0008 3960     		str	r1, [r7]
ARM GAS  C:\Users\13740\AppData\Local\Temp\cc2zvDpU.s 			page 3


  33:hrss.c        ****     if(0u != eventParam)
  34:hrss.c        ****     {
  35:hrss.c        ****         /* This dummy operation is to avoid warning about unused eventParam */
  36:hrss.c        ****     }
  37:hrss.c        **** 
  38:hrss.c        ****     switch(event)
  67              		.loc 1 38 0
  68 000a 7B68     		ldr	r3, [r7, #4]
  69 000c AA22     		movs	r2, #170
  70 000e FF32     		adds	r2, r2, #255
  71 0010 9342     		cmp	r3, r2
  72 0012 08D0     		beq	.L3
  73 0014 D522     		movs	r2, #213
  74 0016 5200     		lsls	r2, r2, #1
  75 0018 9342     		cmp	r3, r2
  76 001a 09D0     		beq	.L4
  77 001c D422     		movs	r2, #212
  78 001e 5200     		lsls	r2, r2, #1
  79 0020 9342     		cmp	r3, r2
  80 0022 0AD0     		beq	.L5
  81 0024 16E0     		b	.L7
  82              	.L3:
  39:hrss.c        ****     {
  40:hrss.c        ****         case CYBLE_EVT_HRSS_NOTIFICATION_ENABLED:
  41:hrss.c        ****             DBG_PRINTF("Heart Rate Measurement Notification is Enabled \r\n");
  83              		.loc 1 41 0
  84 0026 114B     		ldr	r3, .L8
  85 0028 1800     		movs	r0, r3
  86 002a FFF7FEFF 		bl	puts
  42:hrss.c        ****             break;
  87              		.loc 1 42 0
  88 002e 18E0     		b	.L6
  89              	.L4:
  43:hrss.c        **** 
  44:hrss.c        ****         case CYBLE_EVT_HRSS_NOTIFICATION_DISABLED:
  45:hrss.c        ****             DBG_PRINTF("Heart Rate Measurement Notification is Disabled \r\n");
  90              		.loc 1 45 0
  91 0030 0F4B     		ldr	r3, .L8+4
  92 0032 1800     		movs	r0, r3
  93 0034 FFF7FEFF 		bl	puts
  46:hrss.c        ****             break;
  94              		.loc 1 46 0
  95 0038 13E0     		b	.L6
  96              	.L5:
  47:hrss.c        **** 
  48:hrss.c        ****         /* This event is received when client writes Control Point characteristic value */
  49:hrss.c        ****         case CYBLE_EVT_HRSS_ENERGY_EXPENDED_RESET:
  50:hrss.c        ****             energyExpended = 0u;
  97              		.loc 1 50 0
  98 003a 0E4B     		ldr	r3, .L8+8
  99 003c 0022     		movs	r2, #0
 100 003e 1A80     		strh	r2, [r3]
  51:hrss.c        ****             HrssSetEnergyExpended(energyExpended);
 101              		.loc 1 51 0
 102 0040 0C4B     		ldr	r3, .L8+8
 103 0042 1B88     		ldrh	r3, [r3]
 104 0044 1800     		movs	r0, r3
ARM GAS  C:\Users\13740\AppData\Local\Temp\cc2zvDpU.s 			page 4


 105 0046 FFF7FEFF 		bl	HrssSetEnergyExpended
  52:hrss.c        ****             DBG_PRINTF("Energy Expended Reset \r\n");
 106              		.loc 1 52 0
 107 004a 0B4B     		ldr	r3, .L8+12
 108 004c 1800     		movs	r0, r3
 109 004e FFF7FEFF 		bl	puts
  53:hrss.c        ****             break;
 110              		.loc 1 53 0
 111 0052 06E0     		b	.L6
 112              	.L7:
  54:hrss.c        **** 
  55:hrss.c        ****         default:
  56:hrss.c        ****             DBG_PRINTF("Unknown HRS event: %lx \r\n", event);
 113              		.loc 1 56 0
 114 0054 7A68     		ldr	r2, [r7, #4]
 115 0056 094B     		ldr	r3, .L8+16
 116 0058 1100     		movs	r1, r2
 117 005a 1800     		movs	r0, r3
 118 005c FFF7FEFF 		bl	printf
  57:hrss.c        ****             break;
 119              		.loc 1 57 0
 120 0060 C046     		nop
 121              	.L6:
  58:hrss.c        ****     }
  59:hrss.c        **** }
 122              		.loc 1 59 0
 123 0062 C046     		nop
 124 0064 BD46     		mov	sp, r7
 125 0066 02B0     		add	sp, sp, #8
 126              		@ sp needed
 127 0068 80BD     		pop	{r7, pc}
 128              	.L9:
 129 006a C046     		.align	2
 130              	.L8:
 131 006c 00000000 		.word	.LC0
 132 0070 34000000 		.word	.LC2
 133 0074 00000000 		.word	energyExpended
 134 0078 68000000 		.word	.LC5
 135 007c 80000000 		.word	.LC7
 136              		.cfi_endproc
 137              	.LFE36:
 138              		.size	HeartRateCallBack, .-HeartRateCallBack
 139              		.section	.text.HrsInit,"ax",%progbits
 140              		.align	2
 141              		.global	HrsInit
 142              		.code	16
 143              		.thumb_func
 144              		.type	HrsInit, %function
 145              	HrsInit:
 146              	.LFB37:
  60:hrss.c        **** 
  61:hrss.c        **** /*******************************************************************************
  62:hrss.c        **** * Function Name: HrsInit
  63:hrss.c        **** ********************************************************************************
  64:hrss.c        **** *
  65:hrss.c        **** * Summary:
  66:hrss.c        **** *  Initializes the Heart Rate application global variables.
ARM GAS  C:\Users\13740\AppData\Local\Temp\cc2zvDpU.s 			page 5


  67:hrss.c        **** *
  68:hrss.c        **** * Parameters:
  69:hrss.c        **** *  None
  70:hrss.c        **** *
  71:hrss.c        **** * Return:
  72:hrss.c        **** *  None.
  73:hrss.c        **** *
  74:hrss.c        **** *******************************************************************************/
  75:hrss.c        **** 
  76:hrss.c        **** void HrsInit(void)
  77:hrss.c        **** {
 147              		.loc 1 77 0
 148              		.cfi_startproc
 149              		@ args = 0, pretend = 0, frame = 8
 150              		@ frame_needed = 1, uses_anonymous_args = 0
 151 0000 80B5     		push	{r7, lr}
 152              		.cfi_def_cfa_offset 8
 153              		.cfi_offset 7, -8
 154              		.cfi_offset 14, -4
 155 0002 82B0     		sub	sp, sp, #8
 156              		.cfi_def_cfa_offset 16
 157 0004 00AF     		add	r7, sp, #0
 158              		.cfi_def_cfa_register 7
  78:hrss.c        ****     uint16 i;
  79:hrss.c        ****     
  80:hrss.c        ****     CyBle_HrsRegisterAttrCallback(HeartRateCallBack);
 159              		.loc 1 80 0
 160 0006 134B     		ldr	r3, .L13
 161 0008 1800     		movs	r0, r3
 162 000a FFF7FEFF 		bl	CyBle_HrsRegisterAttrCallback
  81:hrss.c        **** 
  82:hrss.c        ****     hrsHeartRate.flags = 0u;
 163              		.loc 1 82 0
 164 000e 124B     		ldr	r3, .L13+4
 165 0010 0022     		movs	r2, #0
 166 0012 1A70     		strb	r2, [r3]
  83:hrss.c        ****     hrsHeartRate.heartRateValue = 0u;
 167              		.loc 1 83 0
 168 0014 104B     		ldr	r3, .L13+4
 169 0016 0022     		movs	r2, #0
 170 0018 5A80     		strh	r2, [r3, #2]
  84:hrss.c        ****     hrsHeartRate.energyExpendedValue = 0u;
 171              		.loc 1 84 0
 172 001a 0F4B     		ldr	r3, .L13+4
 173 001c 0022     		movs	r2, #0
 174 001e 9A80     		strh	r2, [r3, #4]
  85:hrss.c        **** 
  86:hrss.c        ****     for(i = 0; i < CYBLE_HRS_HRM_RRSIZE; i++)
 175              		.loc 1 86 0
 176 0020 BB1D     		adds	r3, r7, #6
 177 0022 0022     		movs	r2, #0
 178 0024 1A80     		strh	r2, [r3]
 179 0026 0CE0     		b	.L11
 180              	.L12:
  87:hrss.c        ****     {
  88:hrss.c        ****         hrsHeartRate.rrInterval[i] = 0u;
 181              		.loc 1 88 0 discriminator 3
ARM GAS  C:\Users\13740\AppData\Local\Temp\cc2zvDpU.s 			page 6


 182 0028 BB1D     		adds	r3, r7, #6
 183 002a 1B88     		ldrh	r3, [r3]
 184 002c 0A4A     		ldr	r2, .L13+4
 185 002e 5B00     		lsls	r3, r3, #1
 186 0030 D318     		adds	r3, r2, r3
 187 0032 0633     		adds	r3, r3, #6
 188 0034 0022     		movs	r2, #0
 189 0036 1A80     		strh	r2, [r3]
  86:hrss.c        ****     {
 190              		.loc 1 86 0 discriminator 3
 191 0038 BB1D     		adds	r3, r7, #6
 192 003a 1A88     		ldrh	r2, [r3]
 193 003c BB1D     		adds	r3, r7, #6
 194 003e 0132     		adds	r2, r2, #1
 195 0040 1A80     		strh	r2, [r3]
 196              	.L11:
  86:hrss.c        ****     {
 197              		.loc 1 86 0 is_stmt 0 discriminator 1
 198 0042 BB1D     		adds	r3, r7, #6
 199 0044 1B88     		ldrh	r3, [r3]
 200 0046 082B     		cmp	r3, #8
 201 0048 EED9     		bls	.L12
  89:hrss.c        ****     }
  90:hrss.c        **** }
 202              		.loc 1 90 0 is_stmt 1
 203 004a C046     		nop
 204 004c BD46     		mov	sp, r7
 205 004e 02B0     		add	sp, sp, #8
 206              		@ sp needed
 207 0050 80BD     		pop	{r7, pc}
 208              	.L14:
 209 0052 C046     		.align	2
 210              	.L13:
 211 0054 00000000 		.word	HeartRateCallBack
 212 0058 00000000 		.word	hrsHeartRate
 213              		.cfi_endproc
 214              	.LFE37:
 215              		.size	HrsInit, .-HrsInit
 216              		.section	.rodata
 217 009a 0000     		.align	2
 218              	.LC12:
 219 009c 48727373 		.ascii	"HrssSetBodySensorLocation API Error: \000"
 219      53657442 
 219      6F647953 
 219      656E736F 
 219      724C6F63 
 220 00c2 0000     		.align	2
 221              	.LC14:
 222 00c4 426F6479 		.ascii	"Body Sensor Location is set successfully: %d \015\012"
 222      2053656E 
 222      736F7220 
 222      4C6F6361 
 222      74696F6E 
 223 00f3 00       		.ascii	"\000"
 224              		.section	.text.HrssSetBodySensorLocation,"ax",%progbits
 225              		.align	2
 226              		.global	HrssSetBodySensorLocation
ARM GAS  C:\Users\13740\AppData\Local\Temp\cc2zvDpU.s 			page 7


 227              		.code	16
 228              		.thumb_func
 229              		.type	HrssSetBodySensorLocation, %function
 230              	HrssSetBodySensorLocation:
 231              	.LFB38:
  91:hrss.c        **** 
  92:hrss.c        **** /***************************************
  93:hrss.c        **** *        Functions
  94:hrss.c        **** ***************************************/
  95:hrss.c        **** 
  96:hrss.c        **** 
  97:hrss.c        **** /*******************************************************************************
  98:hrss.c        **** * Function Name: HrssSetBodySensorLocation
  99:hrss.c        **** ********************************************************************************
 100:hrss.c        **** *
 101:hrss.c        **** * Summary:
 102:hrss.c        **** *  Set the Body Sensor Location characteristic value.
 103:hrss.c        **** *
 104:hrss.c        **** * Parameters:
 105:hrss.c        **** *  CYBLE_HRS_BSL_T location:  Body Sensor Location characteristic value.
 106:hrss.c        **** * Return:
 107:hrss.c        **** *  CYBLE_API_RESULT_T: API result will state if API succeeded
 108:hrss.c        **** *                      (CYBLE_ERROR_OK)
 109:hrss.c        **** *                      or failed with error codes.
 110:hrss.c        **** *
 111:hrss.c        **** *******************************************************************************/
 112:hrss.c        **** void HrssSetBodySensorLocation(CYBLE_HRS_BSL_T location)
 113:hrss.c        **** {
 232              		.loc 1 113 0
 233              		.cfi_startproc
 234              		@ args = 0, pretend = 0, frame = 8
 235              		@ frame_needed = 1, uses_anonymous_args = 0
 236 0000 80B5     		push	{r7, lr}
 237              		.cfi_def_cfa_offset 8
 238              		.cfi_offset 7, -8
 239              		.cfi_offset 14, -4
 240 0002 82B0     		sub	sp, sp, #8
 241              		.cfi_def_cfa_offset 16
 242 0004 00AF     		add	r7, sp, #0
 243              		.cfi_def_cfa_register 7
 244 0006 0200     		movs	r2, r0
 245 0008 FB1D     		adds	r3, r7, #7
 246 000a 1A70     		strb	r2, [r3]
 114:hrss.c        ****     apiResult = CyBle_HrssSetCharacteristicValue(CYBLE_HRS_BSL, CYBLE_HRS_BSL_CHAR_LEN, (uint8*)&lo
 247              		.loc 1 114 0
 248 000c FB1D     		adds	r3, r7, #7
 249 000e 1A00     		movs	r2, r3
 250 0010 0121     		movs	r1, #1
 251 0012 0120     		movs	r0, #1
 252 0014 FFF7FEFF 		bl	CyBle_HrssSetCharacteristicValue
 253 0018 0300     		movs	r3, r0
 254 001a 1A00     		movs	r2, r3
 255 001c 0C4B     		ldr	r3, .L19
 256 001e 1A80     		strh	r2, [r3]
 115:hrss.c        ****     
 116:hrss.c        ****     if(apiResult != CYBLE_ERROR_OK)
 257              		.loc 1 116 0
ARM GAS  C:\Users\13740\AppData\Local\Temp\cc2zvDpU.s 			page 8


 258 0020 0B4B     		ldr	r3, .L19
 259 0022 1B88     		ldrh	r3, [r3]
 260 0024 002B     		cmp	r3, #0
 261 0026 06D0     		beq	.L16
 117:hrss.c        ****     {
 118:hrss.c        ****         DBG_PRINTF("HrssSetBodySensorLocation API Error: ");
 262              		.loc 1 118 0
 263 0028 0A4B     		ldr	r3, .L19+4
 264 002a 1800     		movs	r0, r3
 265 002c FFF7FEFF 		bl	printf
 119:hrss.c        ****         PrintApiResult();
 266              		.loc 1 119 0
 267 0030 FFF7FEFF 		bl	PrintApiResult
 120:hrss.c        ****     }
 121:hrss.c        ****     else
 122:hrss.c        ****     {
 123:hrss.c        ****         DBG_PRINTF("Body Sensor Location is set successfully: %d \r\n", location);
 124:hrss.c        ****     }
 125:hrss.c        **** }
 268              		.loc 1 125 0
 269 0034 07E0     		b	.L18
 270              	.L16:
 123:hrss.c        ****     }
 271              		.loc 1 123 0
 272 0036 FB1D     		adds	r3, r7, #7
 273 0038 1B78     		ldrb	r3, [r3]
 274 003a 1A00     		movs	r2, r3
 275 003c 064B     		ldr	r3, .L19+8
 276 003e 1100     		movs	r1, r2
 277 0040 1800     		movs	r0, r3
 278 0042 FFF7FEFF 		bl	printf
 279              	.L18:
 280              		.loc 1 125 0
 281 0046 C046     		nop
 282 0048 BD46     		mov	sp, r7
 283 004a 02B0     		add	sp, sp, #8
 284              		@ sp needed
 285 004c 80BD     		pop	{r7, pc}
 286              	.L20:
 287 004e C046     		.align	2
 288              	.L19:
 289 0050 00000000 		.word	apiResult
 290 0054 9C000000 		.word	.LC12
 291 0058 C4000000 		.word	.LC14
 292              		.cfi_endproc
 293              	.LFE38:
 294              		.size	HrssSetBodySensorLocation, .-HrssSetBodySensorLocation
 295              		.section	.text.HrssSetEnergyExpended,"ax",%progbits
 296              		.align	2
 297              		.global	HrssSetEnergyExpended
 298              		.code	16
 299              		.thumb_func
 300              		.type	HrssSetEnergyExpended, %function
 301              	HrssSetEnergyExpended:
 302              	.LFB39:
 126:hrss.c        **** 
 127:hrss.c        **** /*******************************************************************************
ARM GAS  C:\Users\13740\AppData\Local\Temp\cc2zvDpU.s 			page 9


 128:hrss.c        **** * Function Name: CyBle_HrssSetEnergyExpended
 129:hrss.c        **** ********************************************************************************
 130:hrss.c        **** *
 131:hrss.c        **** * Summary:
 132:hrss.c        **** *  Sets Energy Expended value into the Heart Rate Measurument characteristic
 133:hrss.c        **** *
 134:hrss.c        **** * Parameters:
 135:hrss.c        **** *  uint16 energyExpended - Energy Expended value to be set.
 136:hrss.c        **** *
 137:hrss.c        **** * Return:
 138:hrss.c        **** *  None
 139:hrss.c        **** *
 140:hrss.c        **** *******************************************************************************/
 141:hrss.c        **** void HrssSetEnergyExpended(uint16 energyExpended)
 142:hrss.c        **** {
 303              		.loc 1 142 0
 304              		.cfi_startproc
 305              		@ args = 0, pretend = 0, frame = 8
 306              		@ frame_needed = 1, uses_anonymous_args = 0
 307 0000 80B5     		push	{r7, lr}
 308              		.cfi_def_cfa_offset 8
 309              		.cfi_offset 7, -8
 310              		.cfi_offset 14, -4
 311 0002 82B0     		sub	sp, sp, #8
 312              		.cfi_def_cfa_offset 16
 313 0004 00AF     		add	r7, sp, #0
 314              		.cfi_def_cfa_register 7
 315 0006 0200     		movs	r2, r0
 316 0008 BB1D     		adds	r3, r7, #6
 317 000a 1A80     		strh	r2, [r3]
 143:hrss.c        ****     hrsHeartRate.energyExpendedValue = energyExpended;
 318              		.loc 1 143 0
 319 000c 074B     		ldr	r3, .L22
 320 000e BA1D     		adds	r2, r7, #6
 321 0010 1288     		ldrh	r2, [r2]
 322 0012 9A80     		strh	r2, [r3, #4]
 144:hrss.c        ****     hrsHeartRate.flags |= CYBLE_HRS_HRM_ENEXP;
 323              		.loc 1 144 0
 324 0014 054B     		ldr	r3, .L22
 325 0016 1B78     		ldrb	r3, [r3]
 326 0018 0822     		movs	r2, #8
 327 001a 1343     		orrs	r3, r2
 328 001c DAB2     		uxtb	r2, r3
 329 001e 034B     		ldr	r3, .L22
 330 0020 1A70     		strb	r2, [r3]
 145:hrss.c        **** }
 331              		.loc 1 145 0
 332 0022 C046     		nop
 333 0024 BD46     		mov	sp, r7
 334 0026 02B0     		add	sp, sp, #8
 335              		@ sp needed
 336 0028 80BD     		pop	{r7, pc}
 337              	.L23:
 338 002a C046     		.align	2
 339              	.L22:
 340 002c 00000000 		.word	hrsHeartRate
 341              		.cfi_endproc
ARM GAS  C:\Users\13740\AppData\Local\Temp\cc2zvDpU.s 			page 10


 342              	.LFE39:
 343              		.size	HrssSetEnergyExpended, .-HrssSetEnergyExpended
 344              		.section	.text.HrssGetHrmDescriptor,"ax",%progbits
 345              		.align	2
 346              		.global	HrssGetHrmDescriptor
 347              		.code	16
 348              		.thumb_func
 349              		.type	HrssGetHrmDescriptor, %function
 350              	HrssGetHrmDescriptor:
 351              	.LFB40:
 146:hrss.c        **** 
 147:hrss.c        **** /*******************************************************************************
 148:hrss.c        **** * Function Name: HrssGetHrmDescriptor
 149:hrss.c        **** ********************************************************************************
 150:hrss.c        **** *
 151:hrss.c        **** * Summary:
 152:hrss.c        **** *   Gets the Heart Rate Measurement characteristic
 153:hrss.c        **** *   Configuration Descriptor value
 154:hrss.c        **** *
 155:hrss.c        **** * Parameters:
 156:hrss.c        **** *   None.
 157:hrss.c        **** *
 158:hrss.c        **** * Return:
 159:hrss.c        **** *   uint16 value of the Heart Rate Measurement characteristic
 160:hrss.c        **** *   configuration Descriptor.
 161:hrss.c        **** *
 162:hrss.c        **** *******************************************************************************/
 163:hrss.c        **** uint16 HrssGetHrmDescriptor(void)
 164:hrss.c        **** {
 352              		.loc 1 164 0
 353              		.cfi_startproc
 354              		@ args = 0, pretend = 0, frame = 8
 355              		@ frame_needed = 1, uses_anonymous_args = 0
 356 0000 90B5     		push	{r4, r7, lr}
 357              		.cfi_def_cfa_offset 12
 358              		.cfi_offset 4, -12
 359              		.cfi_offset 7, -8
 360              		.cfi_offset 14, -4
 361 0002 83B0     		sub	sp, sp, #12
 362              		.cfi_def_cfa_offset 24
 363 0004 00AF     		add	r7, sp, #0
 364              		.cfi_def_cfa_register 7
 165:hrss.c        ****     uint8 val[CYBLE_CCCD_LEN];
 166:hrss.c        ****     uint16 retVal;
 167:hrss.c        **** 
 168:hrss.c        ****     if(CYBLE_ERROR_OK == CyBle_HrssGetCharacteristicDescriptor(CYBLE_HRS_HRM,
 365              		.loc 1 168 0
 366 0006 3B1D     		adds	r3, r7, #4
 367 0008 0222     		movs	r2, #2
 368 000a 0021     		movs	r1, #0
 369 000c 0020     		movs	r0, #0
 370 000e FFF7FEFF 		bl	CyBle_HrssGetCharacteristicDescriptor
 371 0012 031E     		subs	r3, r0, #0
 372 0014 07D1     		bne	.L25
 169:hrss.c        ****         CYBLE_HRS_HRM_CCCD, CYBLE_CCCD_LEN, val))
 170:hrss.c        ****     {
 171:hrss.c        ****         /* Using the length as a temporary variable with suitable type to return */
ARM GAS  C:\Users\13740\AppData\Local\Temp\cc2zvDpU.s 			page 11


 172:hrss.c        ****         retVal = CyBle_Get16ByPtr(val);
 373              		.loc 1 172 0
 374 0016 BC1D     		adds	r4, r7, #6
 375 0018 3B1D     		adds	r3, r7, #4
 376 001a 1800     		movs	r0, r3
 377 001c FFF7FEFF 		bl	CyBle_Get16ByPtr
 378 0020 0300     		movs	r3, r0
 379 0022 2380     		strh	r3, [r4]
 380 0024 02E0     		b	.L26
 381              	.L25:
 173:hrss.c        ****     }
 174:hrss.c        ****     else
 175:hrss.c        ****     {
 176:hrss.c        ****         retVal = 0u;
 382              		.loc 1 176 0
 383 0026 BB1D     		adds	r3, r7, #6
 384 0028 0022     		movs	r2, #0
 385 002a 1A80     		strh	r2, [r3]
 386              	.L26:
 177:hrss.c        ****     }
 178:hrss.c        **** 
 179:hrss.c        ****     return (retVal);
 387              		.loc 1 179 0
 388 002c BB1D     		adds	r3, r7, #6
 389 002e 1B88     		ldrh	r3, [r3]
 180:hrss.c        **** }
 390              		.loc 1 180 0
 391 0030 1800     		movs	r0, r3
 392 0032 BD46     		mov	sp, r7
 393 0034 03B0     		add	sp, sp, #12
 394              		@ sp needed
 395 0036 90BD     		pop	{r4, r7, pc}
 396              		.cfi_endproc
 397              	.LFE40:
 398              		.size	HrssGetHrmDescriptor, .-HrssGetHrmDescriptor
 399              		.section	.text.HrssAddRrInterval,"ax",%progbits
 400              		.align	2
 401              		.global	HrssAddRrInterval
 402              		.code	16
 403              		.thumb_func
 404              		.type	HrssAddRrInterval, %function
 405              	HrssAddRrInterval:
 406              	.LFB41:
 181:hrss.c        **** 
 182:hrss.c        **** 
 183:hrss.c        **** /*******************************************************************************
 184:hrss.c        **** * Function Name: HrssAddRrInterval
 185:hrss.c        **** ********************************************************************************
 186:hrss.c        **** *
 187:hrss.c        **** * Summary:
 188:hrss.c        **** *  Adds the next RR-Interval into the
 189:hrss.c        **** *  Heart Rate Measurument characteristic structure.
 190:hrss.c        **** *
 191:hrss.c        **** * Parameters:
 192:hrss.c        **** *  uint16 rrIntervalValue: RR-Interval value to be set.
 193:hrss.c        **** *
 194:hrss.c        **** * Return:
ARM GAS  C:\Users\13740\AppData\Local\Temp\cc2zvDpU.s 			page 12


 195:hrss.c        **** *  None
 196:hrss.c        **** *
 197:hrss.c        **** *******************************************************************************/
 198:hrss.c        **** void HrssAddRrInterval(uint16 rrIntervalValue)
 199:hrss.c        **** {
 407              		.loc 1 199 0
 408              		.cfi_startproc
 409              		@ args = 0, pretend = 0, frame = 8
 410              		@ frame_needed = 1, uses_anonymous_args = 0
 411 0000 80B5     		push	{r7, lr}
 412              		.cfi_def_cfa_offset 8
 413              		.cfi_offset 7, -8
 414              		.cfi_offset 14, -4
 415 0002 82B0     		sub	sp, sp, #8
 416              		.cfi_def_cfa_offset 16
 417 0004 00AF     		add	r7, sp, #0
 418              		.cfi_def_cfa_register 7
 419 0006 0200     		movs	r2, r0
 420 0008 BB1D     		adds	r3, r7, #6
 421 000a 1A80     		strh	r2, [r3]
 200:hrss.c        ****     hrsHeartRate.flags |= CYBLE_HRS_HRM_RRINT;
 422              		.loc 1 200 0
 423 000c 154B     		ldr	r3, .L32
 424 000e 1B78     		ldrb	r3, [r3]
 425 0010 1022     		movs	r2, #16
 426 0012 1343     		orrs	r3, r2
 427 0014 DAB2     		uxtb	r2, r3
 428 0016 134B     		ldr	r3, .L32
 429 0018 1A70     		strb	r2, [r3]
 201:hrss.c        **** 
 202:hrss.c        ****     if(hrssRrIntPtr == CYBLE_HRS_HRM_RRSIZE - 1)
 430              		.loc 1 202 0
 431 001a 134B     		ldr	r3, .L32+4
 432 001c 1B78     		ldrb	r3, [r3]
 433 001e 082B     		cmp	r3, #8
 434 0020 03D1     		bne	.L29
 203:hrss.c        ****     {
 204:hrss.c        ****         hrssRrIntPtr = 0;
 435              		.loc 1 204 0
 436 0022 114B     		ldr	r3, .L32+4
 437 0024 0022     		movs	r2, #0
 438 0026 1A70     		strb	r2, [r3]
 439 0028 05E0     		b	.L30
 440              	.L29:
 205:hrss.c        ****     }
 206:hrss.c        ****     else
 207:hrss.c        ****     {
 208:hrss.c        ****         hrssRrIntPtr++;
 441              		.loc 1 208 0
 442 002a 0F4B     		ldr	r3, .L32+4
 443 002c 1B78     		ldrb	r3, [r3]
 444 002e 0133     		adds	r3, r3, #1
 445 0030 DAB2     		uxtb	r2, r3
 446 0032 0D4B     		ldr	r3, .L32+4
 447 0034 1A70     		strb	r2, [r3]
 448              	.L30:
 209:hrss.c        ****     }
ARM GAS  C:\Users\13740\AppData\Local\Temp\cc2zvDpU.s 			page 13


 210:hrss.c        **** 
 211:hrss.c        ****     if(hrssRrIntCnt <= CYBLE_HRS_HRM_RRSIZE)
 449              		.loc 1 211 0
 450 0036 0D4B     		ldr	r3, .L32+8
 451 0038 1B78     		ldrb	r3, [r3]
 452 003a 092B     		cmp	r3, #9
 453 003c 05D8     		bhi	.L31
 212:hrss.c        ****     {
 213:hrss.c        ****         hrssRrIntCnt++;
 454              		.loc 1 213 0
 455 003e 0B4B     		ldr	r3, .L32+8
 456 0040 1B78     		ldrb	r3, [r3]
 457 0042 0133     		adds	r3, r3, #1
 458 0044 DAB2     		uxtb	r2, r3
 459 0046 094B     		ldr	r3, .L32+8
 460 0048 1A70     		strb	r2, [r3]
 461              	.L31:
 214:hrss.c        ****     }
 215:hrss.c        **** 
 216:hrss.c        ****     hrsHeartRate.rrInterval[hrssRrIntPtr] = rrIntervalValue;
 462              		.loc 1 216 0
 463 004a 074B     		ldr	r3, .L32+4
 464 004c 1B78     		ldrb	r3, [r3]
 465 004e 054A     		ldr	r2, .L32
 466 0050 5B00     		lsls	r3, r3, #1
 467 0052 D318     		adds	r3, r2, r3
 468 0054 0633     		adds	r3, r3, #6
 469 0056 BA1D     		adds	r2, r7, #6
 470 0058 1288     		ldrh	r2, [r2]
 471 005a 1A80     		strh	r2, [r3]
 217:hrss.c        **** }
 472              		.loc 1 217 0
 473 005c C046     		nop
 474 005e BD46     		mov	sp, r7
 475 0060 02B0     		add	sp, sp, #8
 476              		@ sp needed
 477 0062 80BD     		pop	{r7, pc}
 478              	.L33:
 479              		.align	2
 480              	.L32:
 481 0064 00000000 		.word	hrsHeartRate
 482 0068 00000000 		.word	hrssRrIntPtr
 483 006c 00000000 		.word	hrssRrIntCnt
 484              		.cfi_endproc
 485              	.LFE41:
 486              		.size	HrssAddRrInterval, .-HrssAddRrInterval
 487              		.section	.rodata
 488              		.align	2
 489              	.LC26:
 490 00f4 48727373 		.ascii	"HrssSendHeartRateNtf API Error: \000"
 490      53656E64 
 490      48656172 
 490      74526174 
 490      654E7466 
 491 0115 000000   		.align	2
 492              	.LC28:
 493 0118 48656172 		.ascii	"Heart Rate Notification is sent successfully, Heart"
ARM GAS  C:\Users\13740\AppData\Local\Temp\cc2zvDpU.s 			page 14


 493      74205261 
 493      7465204E 
 493      6F746966 
 493      69636174 
 494 014b 20526174 		.ascii	" Rate = %d \015\012\000"
 494      65203D20 
 494      2564200D 
 494      0A00
 495              		.section	.text.HrssSendHeartRateNtf,"ax",%progbits
 496              		.align	2
 497              		.global	HrssSendHeartRateNtf
 498              		.code	16
 499              		.thumb_func
 500              		.type	HrssSendHeartRateNtf, %function
 501              	HrssSendHeartRateNtf:
 502              	.LFB42:
 218:hrss.c        **** 
 219:hrss.c        **** 
 220:hrss.c        **** /*******************************************************************************
 221:hrss.c        **** * Function Name: HrssSendHeartRateNtf
 222:hrss.c        **** ********************************************************************************
 223:hrss.c        **** *
 224:hrss.c        **** * Summary:
 225:hrss.c        **** *  Packs the Heart Rate Measurement characteristic structure into the
 226:hrss.c        **** *  uint8 array prior to sending it to the collector. Also clears the
 227:hrss.c        **** *  CYBLE_HRS_HRM_HRVAL16, CYBLE_HRS_HRM_ENEXP and CYBLE_HRS_HRM_RRINT flags.
 228:hrss.c        **** *
 229:hrss.c        **** * Parameters:
 230:hrss.c        **** *  attHandle:  Pointer to the handle which consists of device ID and ATT
 231:hrss.c        **** *              connection ID.
 232:hrss.c        **** *
 233:hrss.c        **** * Return:
 234:hrss.c        **** *  CYBLE_API_RESULT_T: API result will state if API succeeded
 235:hrss.c        **** *                      (CYBLE_ERROR_OK)
 236:hrss.c        **** *                      or failed with error codes.
 237:hrss.c        **** *
 238:hrss.c        **** *******************************************************************************/
 239:hrss.c        **** void HrssSendHeartRateNtf(void)
 240:hrss.c        **** {
 503              		.loc 1 240 0
 504              		.cfi_startproc
 505              		@ args = 0, pretend = 0, frame = 32
 506              		@ frame_needed = 1, uses_anonymous_args = 0
 507 0000 90B5     		push	{r4, r7, lr}
 508              		.cfi_def_cfa_offset 12
 509              		.cfi_offset 4, -12
 510              		.cfi_offset 7, -8
 511              		.cfi_offset 14, -4
 512 0002 89B0     		sub	sp, sp, #36
 513              		.cfi_def_cfa_offset 48
 514 0004 00AF     		add	r7, sp, #0
 515              		.cfi_def_cfa_register 7
 241:hrss.c        ****     uint16 cccd;
 242:hrss.c        ****         
 243:hrss.c        ****     (void) CyBle_HrssGetCharacteristicDescriptor(CYBLE_HRS_HRM, CYBLE_HRS_HRM_CCCD, CYBLE_CCCD_LEN,
 516              		.loc 1 243 0
 517 0006 1A23     		movs	r3, #26
ARM GAS  C:\Users\13740\AppData\Local\Temp\cc2zvDpU.s 			page 15


 518 0008 FB18     		adds	r3, r7, r3
 519 000a 0222     		movs	r2, #2
 520 000c 0021     		movs	r1, #0
 521 000e 0020     		movs	r0, #0
 522 0010 FFF7FEFF 		bl	CyBle_HrssGetCharacteristicDescriptor
 244:hrss.c        ****                                                         
 245:hrss.c        ****     if(cccd == CYBLE_CCCD_NOTIFICATION)
 523              		.loc 1 245 0
 524 0014 1A23     		movs	r3, #26
 525 0016 FB18     		adds	r3, r7, r3
 526 0018 1B88     		ldrh	r3, [r3]
 527 001a 012B     		cmp	r3, #1
 528 001c 00D0     		beq	.LCB414
 529 001e EFE0     		b	.L47	@long jump
 530              	.LCB414:
 531              	.LBB2:
 246:hrss.c        ****     {
 247:hrss.c        ****     
 248:hrss.c        ****         uint8 pdu[CYBLE_HRS_HRM_CHAR_LEN];
 249:hrss.c        ****         uint8 nextPtr;
 250:hrss.c        ****         uint8 length;
 251:hrss.c        ****         uint8 rrInt;
 252:hrss.c        ****         
 253:hrss.c        ****         /* Flags field is always the first byte */
 254:hrss.c        ****         pdu[0u] = hrsHeartRate.flags & (uint8) ~CYBLE_HRS_HRM_HRVAL16;
 532              		.loc 1 254 0
 533 0020 794B     		ldr	r3, .L48
 534 0022 1B78     		ldrb	r3, [r3]
 535 0024 0122     		movs	r2, #1
 536 0026 9343     		bics	r3, r2
 537 0028 DAB2     		uxtb	r2, r3
 538 002a 3B1D     		adds	r3, r7, #4
 539 002c 1A70     		strb	r2, [r3]
 255:hrss.c        **** 
 256:hrss.c        ****         /* If the Heart Rate value exceeds one byte */
 257:hrss.c        ****         if(hrsHeartRate.heartRateValue > 0x00FFu)
 540              		.loc 1 257 0
 541 002e 764B     		ldr	r3, .L48
 542 0030 5B88     		ldrh	r3, [r3, #2]
 543 0032 FF2B     		cmp	r3, #255
 544 0034 13D9     		bls	.L36
 258:hrss.c        ****         {
 259:hrss.c        ****             /* then set the CYBLE_HRS_HRM_HRVAL16 flag */
 260:hrss.c        ****             pdu[0u] |= CYBLE_HRS_HRM_HRVAL16;
 545              		.loc 1 260 0
 546 0036 3B1D     		adds	r3, r7, #4
 547 0038 1B78     		ldrb	r3, [r3]
 548 003a 0122     		movs	r2, #1
 549 003c 1343     		orrs	r3, r2
 550 003e DAB2     		uxtb	r2, r3
 551 0040 3B1D     		adds	r3, r7, #4
 552 0042 1A70     		strb	r2, [r3]
 261:hrss.c        ****             /* and set the full 2-bytes Heart Rate value */
 262:hrss.c        ****             CyBle_Set16ByPtr(&pdu[1u], hrsHeartRate.heartRateValue);
 553              		.loc 1 262 0
 554 0044 704B     		ldr	r3, .L48
 555 0046 5A88     		ldrh	r2, [r3, #2]
ARM GAS  C:\Users\13740\AppData\Local\Temp\cc2zvDpU.s 			page 16


 556 0048 3B1D     		adds	r3, r7, #4
 557 004a 0133     		adds	r3, r3, #1
 558 004c 1100     		movs	r1, r2
 559 004e 1800     		movs	r0, r3
 560 0050 FFF7FEFF 		bl	CyBle_Set16ByPtr
 263:hrss.c        ****             /* The next data will be located beginning from 3rd byte */
 264:hrss.c        ****             nextPtr = 3u;
 561              		.loc 1 264 0
 562 0054 1F23     		movs	r3, #31
 563 0056 FB18     		adds	r3, r7, r3
 564 0058 0322     		movs	r2, #3
 565 005a 1A70     		strb	r2, [r3]
 566 005c 08E0     		b	.L37
 567              	.L36:
 265:hrss.c        ****         }
 266:hrss.c        ****         else
 267:hrss.c        ****         {
 268:hrss.c        ****             /* Else leave the CYBLE_HRS_HRM_HRVAL16 flag remains being cleared */
 269:hrss.c        ****             /* and set only LSB of the  Heart Rate value */
 270:hrss.c        ****             pdu[1u] = (uint8) hrsHeartRate.heartRateValue;
 568              		.loc 1 270 0
 569 005e 6A4B     		ldr	r3, .L48
 570 0060 5B88     		ldrh	r3, [r3, #2]
 571 0062 DAB2     		uxtb	r2, r3
 572 0064 3B1D     		adds	r3, r7, #4
 573 0066 5A70     		strb	r2, [r3, #1]
 271:hrss.c        ****             /* The next data will be located beginning from 2nd byte */
 272:hrss.c        ****             nextPtr = 2u;
 574              		.loc 1 272 0
 575 0068 1F23     		movs	r3, #31
 576 006a FB18     		adds	r3, r7, r3
 577 006c 0222     		movs	r2, #2
 578 006e 1A70     		strb	r2, [r3]
 579              	.L37:
 273:hrss.c        ****         }
 274:hrss.c        **** 
 275:hrss.c        ****         /* If the Energy Expended flag is set */
 276:hrss.c        ****         if(0u != (hrsHeartRate.flags & CYBLE_HRS_HRM_ENEXP))
 580              		.loc 1 276 0
 581 0070 654B     		ldr	r3, .L48
 582 0072 1B78     		ldrb	r3, [r3]
 583 0074 1A00     		movs	r2, r3
 584 0076 0823     		movs	r3, #8
 585 0078 1340     		ands	r3, r2
 586 007a 18D0     		beq	.L38
 277:hrss.c        ****         {
 278:hrss.c        ****             /* clear the CYBLE_HRS_HRM_ENEXP flag */
 279:hrss.c        ****             hrsHeartRate.flags &= (uint8) ~CYBLE_HRS_HRM_ENEXP;
 587              		.loc 1 279 0
 588 007c 624B     		ldr	r3, .L48
 589 007e 1B78     		ldrb	r3, [r3]
 590 0080 0822     		movs	r2, #8
 591 0082 9343     		bics	r3, r2
 592 0084 DAB2     		uxtb	r2, r3
 593 0086 604B     		ldr	r3, .L48
 594 0088 1A70     		strb	r2, [r3]
 280:hrss.c        ****             /* and set the 2-bytes Energy Expended value */
ARM GAS  C:\Users\13740\AppData\Local\Temp\cc2zvDpU.s 			page 17


 281:hrss.c        ****             CyBle_Set16ByPtr(&pdu[nextPtr], hrsHeartRate.energyExpendedValue);
 595              		.loc 1 281 0
 596 008a 1F23     		movs	r3, #31
 597 008c FB18     		adds	r3, r7, r3
 598 008e 1B78     		ldrb	r3, [r3]
 599 0090 3A1D     		adds	r2, r7, #4
 600 0092 D218     		adds	r2, r2, r3
 601 0094 5C4B     		ldr	r3, .L48
 602 0096 9B88     		ldrh	r3, [r3, #4]
 603 0098 1900     		movs	r1, r3
 604 009a 1000     		movs	r0, r2
 605 009c FFF7FEFF 		bl	CyBle_Set16ByPtr
 282:hrss.c        ****             /* add 2 bytes: Energy Expended value is uint16 */
 283:hrss.c        ****             nextPtr += 2u;
 606              		.loc 1 283 0
 607 00a0 1F23     		movs	r3, #31
 608 00a2 FB18     		adds	r3, r7, r3
 609 00a4 1F22     		movs	r2, #31
 610 00a6 BA18     		adds	r2, r7, r2
 611 00a8 1278     		ldrb	r2, [r2]
 612 00aa 0232     		adds	r2, r2, #2
 613 00ac 1A70     		strb	r2, [r3]
 614              	.L38:
 284:hrss.c        ****         }
 285:hrss.c        **** 
 286:hrss.c        ****         if(HrssAreThereRrIntervals())
 615              		.loc 1 286 0
 616 00ae 564B     		ldr	r3, .L48
 617 00b0 1B78     		ldrb	r3, [r3]
 618 00b2 1A00     		movs	r2, r3
 619 00b4 1023     		movs	r3, #16
 620 00b6 1340     		ands	r3, r2
 621 00b8 69D0     		beq	.L39
 287:hrss.c        ****         {
 288:hrss.c        ****             /* Calculate the actual length of pdu: the RR-interval block length should be an even n
 289:hrss.c        ****             length = ((CYBLE_HRS_HRM_CHAR_LEN - nextPtr) & ~0x01) + nextPtr;
 622              		.loc 1 289 0
 623 00ba 1F23     		movs	r3, #31
 624 00bc FB18     		adds	r3, r7, r3
 625 00be 1B78     		ldrb	r3, [r3]
 626 00c0 1422     		movs	r2, #20
 627 00c2 D31A     		subs	r3, r2, r3
 628 00c4 DBB2     		uxtb	r3, r3
 629 00c6 0122     		movs	r2, #1
 630 00c8 9343     		bics	r3, r2
 631 00ca D9B2     		uxtb	r1, r3
 632 00cc 1D23     		movs	r3, #29
 633 00ce FB18     		adds	r3, r7, r3
 634 00d0 1F22     		movs	r2, #31
 635 00d2 BA18     		adds	r2, r7, r2
 636 00d4 1278     		ldrb	r2, [r2]
 637 00d6 8A18     		adds	r2, r1, r2
 638 00d8 1A70     		strb	r2, [r3]
 290:hrss.c        **** 
 291:hrss.c        ****             rrInt = hrssRrIntPtr;
 639              		.loc 1 291 0
 640 00da 1E23     		movs	r3, #30
ARM GAS  C:\Users\13740\AppData\Local\Temp\cc2zvDpU.s 			page 18


 641 00dc FB18     		adds	r3, r7, r3
 642 00de 4B4A     		ldr	r2, .L48+4
 643 00e0 1278     		ldrb	r2, [r2]
 644 00e2 1A70     		strb	r2, [r3]
 292:hrss.c        **** 
 293:hrss.c        ****             while(nextPtr < length)
 645              		.loc 1 293 0
 646 00e4 48E0     		b	.L40
 647              	.L44:
 294:hrss.c        ****             {
 295:hrss.c        ****                 /* Increment the rrInterval array pointer in RR-Interval buffer size loop */
 296:hrss.c        ****                 rrInt++;
 648              		.loc 1 296 0
 649 00e6 1E23     		movs	r3, #30
 650 00e8 FB18     		adds	r3, r7, r3
 651 00ea 1A78     		ldrb	r2, [r3]
 652 00ec 1E23     		movs	r3, #30
 653 00ee FB18     		adds	r3, r7, r3
 654 00f0 0132     		adds	r2, r2, #1
 655 00f2 1A70     		strb	r2, [r3]
 297:hrss.c        ****                 if(rrInt >= CYBLE_HRS_HRM_RRSIZE)
 656              		.loc 1 297 0
 657 00f4 1E23     		movs	r3, #30
 658 00f6 FB18     		adds	r3, r7, r3
 659 00f8 1B78     		ldrb	r3, [r3]
 660 00fa 082B     		cmp	r3, #8
 661 00fc 03D9     		bls	.L41
 298:hrss.c        ****                 {
 299:hrss.c        ****                     rrInt = 0;
 662              		.loc 1 299 0
 663 00fe 1E23     		movs	r3, #30
 664 0100 FB18     		adds	r3, r7, r3
 665 0102 0022     		movs	r2, #0
 666 0104 1A70     		strb	r2, [r3]
 667              	.L41:
 300:hrss.c        ****                 }
 301:hrss.c        **** 
 302:hrss.c        ****                 if(hrsHeartRate.rrInterval[rrInt] != 0)
 668              		.loc 1 302 0
 669 0106 1E23     		movs	r3, #30
 670 0108 FB18     		adds	r3, r7, r3
 671 010a 1B78     		ldrb	r3, [r3]
 672 010c 3E4A     		ldr	r2, .L48
 673 010e 5B00     		lsls	r3, r3, #1
 674 0110 D318     		adds	r3, r2, r3
 675 0112 0633     		adds	r3, r3, #6
 676 0114 1B88     		ldrh	r3, [r3]
 677 0116 002B     		cmp	r3, #0
 678 0118 1FD0     		beq	.L42
 303:hrss.c        ****                 {
 304:hrss.c        ****                     /* Copy the non-zero RR-Interval into the pdu */
 305:hrss.c        ****                     CyBle_Set16ByPtr(&pdu[nextPtr], hrsHeartRate.rrInterval[rrInt]);
 679              		.loc 1 305 0
 680 011a 1F23     		movs	r3, #31
 681 011c FB18     		adds	r3, r7, r3
 682 011e 1B78     		ldrb	r3, [r3]
 683 0120 3A1D     		adds	r2, r7, #4
ARM GAS  C:\Users\13740\AppData\Local\Temp\cc2zvDpU.s 			page 19


 684 0122 D018     		adds	r0, r2, r3
 685 0124 1E23     		movs	r3, #30
 686 0126 FB18     		adds	r3, r7, r3
 687 0128 1B78     		ldrb	r3, [r3]
 688 012a 374A     		ldr	r2, .L48
 689 012c 5B00     		lsls	r3, r3, #1
 690 012e D318     		adds	r3, r2, r3
 691 0130 0633     		adds	r3, r3, #6
 692 0132 1B88     		ldrh	r3, [r3]
 693 0134 1900     		movs	r1, r3
 694 0136 FFF7FEFF 		bl	CyBle_Set16ByPtr
 306:hrss.c        ****                     /* Clear the current RR-Interval in the buffer */
 307:hrss.c        ****                     hrsHeartRate.rrInterval[rrInt] = 0;
 695              		.loc 1 307 0
 696 013a 1E23     		movs	r3, #30
 697 013c FB18     		adds	r3, r7, r3
 698 013e 1B78     		ldrb	r3, [r3]
 699 0140 314A     		ldr	r2, .L48
 700 0142 5B00     		lsls	r3, r3, #1
 701 0144 D318     		adds	r3, r2, r3
 702 0146 0633     		adds	r3, r3, #6
 703 0148 0022     		movs	r2, #0
 704 014a 1A80     		strh	r2, [r3]
 308:hrss.c        ****                     /* Add 2 bytes: RR-Interval value is uint16 */
 309:hrss.c        ****                     nextPtr += 2u;
 705              		.loc 1 309 0
 706 014c 1F23     		movs	r3, #31
 707 014e FB18     		adds	r3, r7, r3
 708 0150 1F22     		movs	r2, #31
 709 0152 BA18     		adds	r2, r7, r2
 710 0154 1278     		ldrb	r2, [r2]
 711 0156 0232     		adds	r2, r2, #2
 712 0158 1A70     		strb	r2, [r3]
 713              	.L42:
 310:hrss.c        ****                 }
 311:hrss.c        **** 
 312:hrss.c        ****                 if(rrInt == hrssRrIntPtr)
 714              		.loc 1 312 0
 715 015a 2C4B     		ldr	r3, .L48+4
 716 015c 1B78     		ldrb	r3, [r3]
 717 015e 1E22     		movs	r2, #30
 718 0160 BA18     		adds	r2, r7, r2
 719 0162 1278     		ldrb	r2, [r2]
 720 0164 9A42     		cmp	r2, r3
 721 0166 07D1     		bne	.L40
 313:hrss.c        ****                 {
 314:hrss.c        ****                     hrsHeartRate.flags &= (uint8) ~CYBLE_HRS_HRM_RRINT;
 722              		.loc 1 314 0
 723 0168 274B     		ldr	r3, .L48
 724 016a 1B78     		ldrb	r3, [r3]
 725 016c 1022     		movs	r2, #16
 726 016e 9343     		bics	r3, r2
 727 0170 DAB2     		uxtb	r2, r3
 728 0172 254B     		ldr	r3, .L48
 729 0174 1A70     		strb	r2, [r3]
 315:hrss.c        ****                     break;
 730              		.loc 1 315 0
ARM GAS  C:\Users\13740\AppData\Local\Temp\cc2zvDpU.s 			page 20


 731 0176 07E0     		b	.L43
 732              	.L40:
 293:hrss.c        ****             {
 733              		.loc 1 293 0
 734 0178 1F23     		movs	r3, #31
 735 017a FA18     		adds	r2, r7, r3
 736 017c 1D23     		movs	r3, #29
 737 017e FB18     		adds	r3, r7, r3
 738 0180 1278     		ldrb	r2, [r2]
 739 0182 1B78     		ldrb	r3, [r3]
 740 0184 9A42     		cmp	r2, r3
 741 0186 AED3     		bcc	.L44
 742              	.L43:
 316:hrss.c        ****                 }
 317:hrss.c        ****             }
 318:hrss.c        **** 
 319:hrss.c        ****             hrssRrIntCnt = 0;
 743              		.loc 1 319 0
 744 0188 214B     		ldr	r3, .L48+8
 745 018a 0022     		movs	r2, #0
 746 018c 1A70     		strb	r2, [r3]
 747              	.L39:
 320:hrss.c        ****         }
 321:hrss.c        **** 
 322:hrss.c        ****         do
 323:hrss.c        ****         {
 324:hrss.c        ****             CyBle_ProcessEvents();
 748              		.loc 1 324 0 discriminator 1
 749 018e FFF7FEFF 		bl	CyBle_ProcessEvents
 325:hrss.c        ****         }
 326:hrss.c        ****         while(CyBle_GattGetBusyStatus() == CYBLE_STACK_STATE_BUSY);
 750              		.loc 1 326 0 discriminator 1
 751 0192 204B     		ldr	r3, .L48+12
 752 0194 1B78     		ldrb	r3, [r3]
 753 0196 DBB2     		uxtb	r3, r3
 754 0198 1F22     		movs	r2, #31
 755 019a BA18     		adds	r2, r7, r2
 756 019c 1F21     		movs	r1, #31
 757 019e 7918     		adds	r1, r7, r1
 758 01a0 0978     		ldrb	r1, [r1]
 759 01a2 1170     		strb	r1, [r2]
 760 01a4 012B     		cmp	r3, #1
 761 01a6 F2D0     		beq	.L39
 327:hrss.c        **** 
 328:hrss.c        ****         apiResult = CyBle_HrssSendNotification(cyBle_connHandle, CYBLE_HRS_HRM, nextPtr, pdu);
 762              		.loc 1 328 0
 763 01a8 3C1D     		adds	r4, r7, #4
 764 01aa 1F23     		movs	r3, #31
 765 01ac FB18     		adds	r3, r7, r3
 766 01ae 1978     		ldrb	r1, [r3]
 767 01b0 194B     		ldr	r3, .L48+16
 768 01b2 1A78     		ldrb	r2, [r3]
 769 01b4 5B78     		ldrb	r3, [r3, #1]
 770 01b6 1B02     		lsls	r3, r3, #8
 771 01b8 1343     		orrs	r3, r2
 772 01ba 0020     		movs	r0, #0
 773 01bc 1B04     		lsls	r3, r3, #16
ARM GAS  C:\Users\13740\AppData\Local\Temp\cc2zvDpU.s 			page 21


 774 01be 1B0C     		lsrs	r3, r3, #16
 775 01c0 020C     		lsrs	r2, r0, #16
 776 01c2 1204     		lsls	r2, r2, #16
 777 01c4 1343     		orrs	r3, r2
 778 01c6 1800     		movs	r0, r3
 779 01c8 2300     		movs	r3, r4
 780 01ca 0A00     		movs	r2, r1
 781 01cc 0021     		movs	r1, #0
 782 01ce FFF7FEFF 		bl	CyBle_HrssSendNotification
 783 01d2 0300     		movs	r3, r0
 784 01d4 1A00     		movs	r2, r3
 785 01d6 114B     		ldr	r3, .L48+20
 786 01d8 1A80     		strh	r2, [r3]
 329:hrss.c        ****         
 330:hrss.c        ****         if(apiResult != CYBLE_ERROR_OK)
 787              		.loc 1 330 0
 788 01da 104B     		ldr	r3, .L48+20
 789 01dc 1B88     		ldrh	r3, [r3]
 790 01de 002B     		cmp	r3, #0
 791 01e0 06D0     		beq	.L45
 331:hrss.c        ****         {
 332:hrss.c        ****             DBG_PRINTF("HrssSendHeartRateNtf API Error: ");
 792              		.loc 1 332 0
 793 01e2 0F4B     		ldr	r3, .L48+24
 794 01e4 1800     		movs	r0, r3
 795 01e6 FFF7FEFF 		bl	printf
 333:hrss.c        ****             PrintApiResult();
 796              		.loc 1 333 0
 797 01ea FFF7FEFF 		bl	PrintApiResult
 798              	.LBE2:
 334:hrss.c        ****         }
 335:hrss.c        ****         else
 336:hrss.c        ****         {
 337:hrss.c        ****             DBG_PRINTF("Heart Rate Notification is sent successfully, Heart Rate = %d \r\n", hrsHea
 338:hrss.c        ****         }
 339:hrss.c        ****     }
 340:hrss.c        **** }
 799              		.loc 1 340 0
 800 01ee 07E0     		b	.L47
 801              	.L45:
 802              	.LBB3:
 337:hrss.c        ****         }
 803              		.loc 1 337 0
 804 01f0 054B     		ldr	r3, .L48
 805 01f2 5B88     		ldrh	r3, [r3, #2]
 806 01f4 1A00     		movs	r2, r3
 807 01f6 0B4B     		ldr	r3, .L48+28
 808 01f8 1100     		movs	r1, r2
 809 01fa 1800     		movs	r0, r3
 810 01fc FFF7FEFF 		bl	printf
 811              	.L47:
 812              	.LBE3:
 813              		.loc 1 340 0
 814 0200 C046     		nop
 815 0202 BD46     		mov	sp, r7
 816 0204 09B0     		add	sp, sp, #36
 817              		@ sp needed
ARM GAS  C:\Users\13740\AppData\Local\Temp\cc2zvDpU.s 			page 22


 818 0206 90BD     		pop	{r4, r7, pc}
 819              	.L49:
 820              		.align	2
 821              	.L48:
 822 0208 00000000 		.word	hrsHeartRate
 823 020c 00000000 		.word	hrssRrIntPtr
 824 0210 00000000 		.word	hrssRrIntCnt
 825 0214 00000000 		.word	cyBle_busyStatus
 826 0218 00000000 		.word	cyBle_connHandle
 827 021c 00000000 		.word	apiResult
 828 0220 F4000000 		.word	.LC26
 829 0224 18010000 		.word	.LC28
 830              		.cfi_endproc
 831              	.LFE42:
 832              		.size	HrssSendHeartRateNtf, .-HrssSendHeartRateNtf
 833              		.global	__aeabi_uidiv
 834              		.global	__aeabi_idiv
 835              		.section	.text.SimulateHeartRate,"ax",%progbits
 836              		.align	2
 837              		.global	SimulateHeartRate
 838              		.code	16
 839              		.thumb_func
 840              		.type	SimulateHeartRate, %function
 841              	SimulateHeartRate:
 842              	.LFB43:
 341:hrss.c        **** 
 342:hrss.c        **** /*******************************************************************************
 343:hrss.c        **** * Function Name: SimulateHeartRate
 344:hrss.c        **** ********************************************************************************
 345:hrss.c        **** *
 346:hrss.c        **** * Summary:
 347:hrss.c        **** *   Simulates all constituents of the Heart Rate Measurement characteristic.
 348:hrss.c        **** *
 349:hrss.c        **** * Parameters:
 350:hrss.c        **** *   None
 351:hrss.c        **** *
 352:hrss.c        **** * Return:
 353:hrss.c        **** *   None
 354:hrss.c        **** *
 355:hrss.c        **** *******************************************************************************/
 356:hrss.c        **** void SimulateHeartRate(void)
 357:hrss.c        **** {
 843              		.loc 1 357 0
 844              		.cfi_startproc
 845              		@ args = 0, pretend = 0, frame = 8
 846              		@ frame_needed = 1, uses_anonymous_args = 0
 847 0000 90B5     		push	{r4, r7, lr}
 848              		.cfi_def_cfa_offset 12
 849              		.cfi_offset 4, -12
 850              		.cfi_offset 7, -8
 851              		.cfi_offset 14, -4
 852 0002 83B0     		sub	sp, sp, #12
 853              		.cfi_def_cfa_offset 24
 854 0004 00AF     		add	r7, sp, #0
 855              		.cfi_def_cfa_register 7
 358:hrss.c        ****     static uint8 hrsTimer = HRS_TIMEOUT;
 359:hrss.c        ****     
ARM GAS  C:\Users\13740\AppData\Local\Temp\cc2zvDpU.s 			page 23


 360:hrss.c        ****     if(--hrsTimer == 0u) 
 856              		.loc 1 360 0
 857 0006 4B4B     		ldr	r3, .L60
 858 0008 1B78     		ldrb	r3, [r3]
 859 000a 013B     		subs	r3, r3, #1
 860 000c DAB2     		uxtb	r2, r3
 861 000e 494B     		ldr	r3, .L60
 862 0010 1A70     		strb	r2, [r3]
 863 0012 484B     		ldr	r3, .L60
 864 0014 1B78     		ldrb	r3, [r3]
 865 0016 002B     		cmp	r3, #0
 866 0018 00D0     		beq	.LCB724
 867 001a 87E0     		b	.L59	@long jump
 868              	.LCB724:
 869              	.LBB4:
 361:hrss.c        ****     {
 362:hrss.c        ****         static uint32 sensorContactTimer    = SENSOR_CONTACT_TIMEOUT;
 363:hrss.c        ****         static uint32 energyExpendedTimer   = ENERGY_EXPECTED_TIMEOUT;
 364:hrss.c        ****         static uint16 heartRate             = SIM_HEART_RATE_MIN;
 365:hrss.c        ****         static uint8  sensorContact         = 0u;
 366:hrss.c        ****         
 367:hrss.c        ****         uint16 rrInterval;
 368:hrss.c        ****         uint8  rrIntCnt;
 369:hrss.c        ****         
 370:hrss.c        ****         hrsTimer = HRS_TIMEOUT;
 870              		.loc 1 370 0
 871 001c 454B     		ldr	r3, .L60
 872 001e 0222     		movs	r2, #2
 873 0020 1A70     		strb	r2, [r3]
 371:hrss.c        **** 
 372:hrss.c        ****         /* Heart Rate simulation */
 373:hrss.c        ****         heartRate += SIM_HEART_RATE_INCREMENT;
 874              		.loc 1 373 0
 875 0022 454B     		ldr	r3, .L60+4
 876 0024 1B88     		ldrh	r3, [r3]
 877 0026 0C33     		adds	r3, r3, #12
 878 0028 9AB2     		uxth	r2, r3
 879 002a 434B     		ldr	r3, .L60+4
 880 002c 1A80     		strh	r2, [r3]
 374:hrss.c        ****         if(heartRate > SIM_HEART_RATE_MAX)
 881              		.loc 1 374 0
 882 002e 424B     		ldr	r3, .L60+4
 883 0030 1A88     		ldrh	r2, [r3]
 884 0032 9623     		movs	r3, #150
 885 0034 5B00     		lsls	r3, r3, #1
 886 0036 9A42     		cmp	r2, r3
 887 0038 02D9     		bls	.L52
 375:hrss.c        ****         {
 376:hrss.c        ****             heartRate = SIM_HEART_RATE_MIN;
 888              		.loc 1 376 0
 889 003a 3F4B     		ldr	r3, .L60+4
 890 003c 3C22     		movs	r2, #60
 891 003e 1A80     		strh	r2, [r3]
 892              	.L52:
 377:hrss.c        ****         }
 378:hrss.c        **** 
 379:hrss.c        ****         HrssSetHeartRate(heartRate);
ARM GAS  C:\Users\13740\AppData\Local\Temp\cc2zvDpU.s 			page 24


 893              		.loc 1 379 0
 894 0040 3D4B     		ldr	r3, .L60+4
 895 0042 1A88     		ldrh	r2, [r3]
 896 0044 3D4B     		ldr	r3, .L60+8
 897 0046 5A80     		strh	r2, [r3, #2]
 380:hrss.c        ****         
 381:hrss.c        ****         /* RR-Interval calculation */    
 382:hrss.c        ****         /* rrInterval = 60 000 mSec (1 min) / heartRate */
 383:hrss.c        ****         rrInterval = 60000u / heartRate;
 898              		.loc 1 383 0
 899 0048 3B4B     		ldr	r3, .L60+4
 900 004a 1B88     		ldrh	r3, [r3]
 901 004c BC1D     		adds	r4, r7, #6
 902 004e 1900     		movs	r1, r3
 903 0050 3B48     		ldr	r0, .L60+12
 904 0052 FFF7FEFF 		bl	__aeabi_uidiv
 905 0056 0300     		movs	r3, r0
 906 0058 2380     		strh	r3, [r4]
 384:hrss.c        ****         
 385:hrss.c        ****         /* count of RR-intervals per one second (1000 mSec) */
 386:hrss.c        ****         rrIntCnt = (uint8)(1000 / rrInterval);
 907              		.loc 1 386 0
 908 005a BB1D     		adds	r3, r7, #6
 909 005c 1B88     		ldrh	r3, [r3]
 910 005e 1900     		movs	r1, r3
 911 0060 FA23     		movs	r3, #250
 912 0062 9800     		lsls	r0, r3, #2
 913 0064 FFF7FEFF 		bl	__aeabi_idiv
 914 0068 0300     		movs	r3, r0
 915 006a 1A00     		movs	r2, r3
 916 006c 7B1D     		adds	r3, r7, #5
 917 006e 1A70     		strb	r2, [r3]
 387:hrss.c        **** 
 388:hrss.c        ****         while(rrIntCnt > 0u)
 918              		.loc 1 388 0
 919 0070 12E0     		b	.L53
 920              	.L55:
 389:hrss.c        ****         {
 390:hrss.c        ****             if(!HrssIsRrIntervalBufferFull())
 921              		.loc 1 390 0
 922 0072 344B     		ldr	r3, .L60+16
 923 0074 1B78     		ldrb	r3, [r3]
 924 0076 082B     		cmp	r3, #8
 925 0078 04D8     		bhi	.L54
 391:hrss.c        ****             {
 392:hrss.c        ****                 HrssAddRrInterval(rrInterval);
 926              		.loc 1 392 0
 927 007a BB1D     		adds	r3, r7, #6
 928 007c 1B88     		ldrh	r3, [r3]
 929 007e 1800     		movs	r0, r3
 930 0080 FFF7FEFF 		bl	HrssAddRrInterval
 931              	.L54:
 393:hrss.c        ****             }
 394:hrss.c        ****             rrInterval++;
 932              		.loc 1 394 0
 933 0084 BB1D     		adds	r3, r7, #6
 934 0086 1A88     		ldrh	r2, [r3]
ARM GAS  C:\Users\13740\AppData\Local\Temp\cc2zvDpU.s 			page 25


 935 0088 BB1D     		adds	r3, r7, #6
 936 008a 0132     		adds	r2, r2, #1
 937 008c 1A80     		strh	r2, [r3]
 395:hrss.c        ****             rrIntCnt--;
 938              		.loc 1 395 0
 939 008e 7B1D     		adds	r3, r7, #5
 940 0090 1A78     		ldrb	r2, [r3]
 941 0092 7B1D     		adds	r3, r7, #5
 942 0094 013A     		subs	r2, r2, #1
 943 0096 1A70     		strb	r2, [r3]
 944              	.L53:
 388:hrss.c        ****         {
 945              		.loc 1 388 0
 946 0098 7B1D     		adds	r3, r7, #5
 947 009a 1B78     		ldrb	r3, [r3]
 948 009c 002B     		cmp	r3, #0
 949 009e E8D1     		bne	.L55
 396:hrss.c        ****         }
 397:hrss.c        ****         
 398:hrss.c        ****         /* Energy Expended simulation */
 399:hrss.c        ****         if(--energyExpendedTimer == 0)
 950              		.loc 1 399 0
 951 00a0 294B     		ldr	r3, .L60+20
 952 00a2 1B68     		ldr	r3, [r3]
 953 00a4 5A1E     		subs	r2, r3, #1
 954 00a6 284B     		ldr	r3, .L60+20
 955 00a8 1A60     		str	r2, [r3]
 956 00aa 274B     		ldr	r3, .L60+20
 957 00ac 1B68     		ldr	r3, [r3]
 958 00ae 002B     		cmp	r3, #0
 959 00b0 12D1     		bne	.L56
 400:hrss.c        ****         {
 401:hrss.c        ****             energyExpendedTimer = ENERGY_EXPECTED_TIMEOUT;
 960              		.loc 1 401 0
 961 00b2 254B     		ldr	r3, .L60+20
 962 00b4 0A22     		movs	r2, #10
 963 00b6 1A60     		str	r2, [r3]
 402:hrss.c        **** 
 403:hrss.c        ****             HrssSetEnergyExpended(energyExpended);
 964              		.loc 1 403 0
 965 00b8 244B     		ldr	r3, .L60+24
 966 00ba 1B88     		ldrh	r3, [r3]
 967 00bc 1800     		movs	r0, r3
 968 00be FFF7FEFF 		bl	HrssSetEnergyExpended
 404:hrss.c        **** 
 405:hrss.c        ****             if(energyExpended < (CYBLE_ENERGY_EXPENDED_MAX_VALUE - SIM_ENERGY_EXPENDED_INCREMENT))
 969              		.loc 1 405 0
 970 00c2 224B     		ldr	r3, .L60+24
 971 00c4 1B88     		ldrh	r3, [r3]
 972 00c6 224A     		ldr	r2, .L60+28
 973 00c8 9342     		cmp	r3, r2
 974 00ca 05D8     		bhi	.L56
 406:hrss.c        ****             {
 407:hrss.c        ****                 energyExpended += SIM_ENERGY_EXPENDED_INCREMENT;
 975              		.loc 1 407 0
 976 00cc 1F4B     		ldr	r3, .L60+24
 977 00ce 1B88     		ldrh	r3, [r3]
ARM GAS  C:\Users\13740\AppData\Local\Temp\cc2zvDpU.s 			page 26


 978 00d0 1433     		adds	r3, r3, #20
 979 00d2 9AB2     		uxth	r2, r3
 980 00d4 1D4B     		ldr	r3, .L60+24
 981 00d6 1A80     		strh	r2, [r3]
 982              	.L56:
 408:hrss.c        ****             }
 409:hrss.c        ****         }
 410:hrss.c        ****         
 411:hrss.c        ****         /* Simulate rare sensor disconnection */
 412:hrss.c        ****         if(--sensorContactTimer == 0)
 983              		.loc 1 412 0
 984 00d8 1E4B     		ldr	r3, .L60+32
 985 00da 1B68     		ldr	r3, [r3]
 986 00dc 5A1E     		subs	r2, r3, #1
 987 00de 1D4B     		ldr	r3, .L60+32
 988 00e0 1A60     		str	r2, [r3]
 989 00e2 1C4B     		ldr	r3, .L60+32
 990 00e4 1B68     		ldr	r3, [r3]
 991 00e6 002B     		cmp	r3, #0
 992 00e8 1ED1     		bne	.L57
 413:hrss.c        ****         {
 414:hrss.c        ****             sensorContactTimer = SENSOR_CONTACT_TIMEOUT;
 993              		.loc 1 414 0
 994 00ea 1A4B     		ldr	r3, .L60+32
 995 00ec 0322     		movs	r2, #3
 996 00ee 1A60     		str	r2, [r3]
 415:hrss.c        **** 
 416:hrss.c        ****             sensorContact ^= SENSOR_CONTACT_DETECTED;
 997              		.loc 1 416 0
 998 00f0 194B     		ldr	r3, .L60+36
 999 00f2 1B78     		ldrb	r3, [r3]
 1000 00f4 0122     		movs	r2, #1
 1001 00f6 5340     		eors	r3, r2
 1002 00f8 DAB2     		uxtb	r2, r3
 1003 00fa 174B     		ldr	r3, .L60+36
 1004 00fc 1A70     		strb	r2, [r3]
 417:hrss.c        ****             if(0u != (sensorContact & SENSOR_CONTACT_DETECTED))
 1005              		.loc 1 417 0
 1006 00fe 164B     		ldr	r3, .L60+36
 1007 0100 1B78     		ldrb	r3, [r3]
 1008 0102 1A00     		movs	r2, r3
 1009 0104 0123     		movs	r3, #1
 1010 0106 1340     		ands	r3, r2
 1011 0108 07D0     		beq	.L58
 418:hrss.c        ****             {
 419:hrss.c        ****                 HrssSensorContactIsDetected();
 1012              		.loc 1 419 0
 1013 010a 0C4B     		ldr	r3, .L60+8
 1014 010c 1B78     		ldrb	r3, [r3]
 1015 010e 0622     		movs	r2, #6
 1016 0110 1343     		orrs	r3, r2
 1017 0112 DAB2     		uxtb	r2, r3
 1018 0114 094B     		ldr	r3, .L60+8
 1019 0116 1A70     		strb	r2, [r3]
 1020 0118 06E0     		b	.L57
 1021              	.L58:
 420:hrss.c        ****             }
ARM GAS  C:\Users\13740\AppData\Local\Temp\cc2zvDpU.s 			page 27


 421:hrss.c        ****             else
 422:hrss.c        ****             {
 423:hrss.c        ****                 HrssSensorContactIsUndetected();
 1022              		.loc 1 423 0
 1023 011a 084B     		ldr	r3, .L60+8
 1024 011c 1B78     		ldrb	r3, [r3]
 1025 011e 0222     		movs	r2, #2
 1026 0120 9343     		bics	r3, r2
 1027 0122 DAB2     		uxtb	r2, r3
 1028 0124 054B     		ldr	r3, .L60+8
 1029 0126 1A70     		strb	r2, [r3]
 1030              	.L57:
 424:hrss.c        ****             }
 425:hrss.c        ****         }
 426:hrss.c        **** 
 427:hrss.c        ****         HrssSendHeartRateNtf();
 1031              		.loc 1 427 0
 1032 0128 FFF7FEFF 		bl	HrssSendHeartRateNtf
 1033              	.L59:
 1034              	.LBE4:
 428:hrss.c        ****     }
 429:hrss.c        **** }
 1035              		.loc 1 429 0
 1036 012c C046     		nop
 1037 012e BD46     		mov	sp, r7
 1038 0130 03B0     		add	sp, sp, #12
 1039              		@ sp needed
 1040 0132 90BD     		pop	{r4, r7, pc}
 1041              	.L61:
 1042              		.align	2
 1043              	.L60:
 1044 0134 00000000 		.word	hrsTimer.9169
 1045 0138 02000000 		.word	heartRate.9172
 1046 013c 00000000 		.word	hrsHeartRate
 1047 0140 60EA0000 		.word	60000
 1048 0144 00000000 		.word	hrssRrIntCnt
 1049 0148 04000000 		.word	energyExpendedTimer.9171
 1050 014c 00000000 		.word	energyExpended
 1051 0150 EAFF0000 		.word	65514
 1052 0154 08000000 		.word	sensorContactTimer.9170
 1053 0158 02000000 		.word	sensorContact.9173
 1054              		.cfi_endproc
 1055              	.LFE43:
 1056              		.size	SimulateHeartRate, .-SimulateHeartRate
 1057              		.data
 1058              		.type	hrsTimer.9169, %object
 1059              		.size	hrsTimer.9169, 1
 1060              	hrsTimer.9169:
 1061 0000 02       		.byte	2
 1062 0001 00       		.align	1
 1063              		.type	heartRate.9172, %object
 1064              		.size	heartRate.9172, 2
 1065              	heartRate.9172:
 1066 0002 3C00     		.short	60
 1067              		.align	2
 1068              		.type	energyExpendedTimer.9171, %object
 1069              		.size	energyExpendedTimer.9171, 4
ARM GAS  C:\Users\13740\AppData\Local\Temp\cc2zvDpU.s 			page 28


 1070              	energyExpendedTimer.9171:
 1071 0004 0A000000 		.word	10
 1072              		.align	2
 1073              		.type	sensorContactTimer.9170, %object
 1074              		.size	sensorContactTimer.9170, 4
 1075              	sensorContactTimer.9170:
 1076 0008 03000000 		.word	3
 1077              		.bss
 1078              	sensorContact.9173:
 1079 0002 00       		.space	1
 1080              		.text
 1081              	.Letext0:
 1082              		.file 2 "Generated_Source\\PSoC4/cytypes.h"
 1083              		.file 3 "Generated_Source\\PSoC4/CYBLE_Stack.h"
 1084              		.file 4 "Generated_Source\\PSoC4/CYBLE_StackGatt.h"
 1085              		.file 5 "Generated_Source\\PSoC4/CYBLE_hrs.h"
 1086              		.file 6 "Generated_Source\\PSoC4/CYBLE_dis.h"
 1087              		.file 7 "Generated_Source\\PSoC4/CYBLE_eventHandler.h"
 1088              		.file 8 "hrss.h"
 1089              		.file 9 "main.h"