ARM GAS  C:\Users\13740\AppData\Local\Temp\cctWuNXI.s 			page 1


   1              		.syntax unified
   2              		.cpu cortex-m0
   3              		.fpu softvfp
   4              		.eabi_attribute 20, 1
   5              		.eabi_attribute 21, 1
   6              		.eabi_attribute 23, 3
   7              		.eabi_attribute 24, 1
   8              		.eabi_attribute 25, 1
   9              		.eabi_attribute 26, 1
  10              		.eabi_attribute 30, 6
  11              		.eabi_attribute 34, 0
  12              		.eabi_attribute 18, 4
  13              		.thumb
  14              		.syntax unified
  15              		.file	"Impedance.c"
  16              		.text
  17              	.Ltext0:
  18              		.cfi_sections	.debug_frame
  19              		.global	AppIMPCfg
  20              		.data
  21              		.align	2
  22              		.type	AppIMPCfg, %object
  23              		.size	AppIMPCfg, 204
  24              	AppIMPCfg:
  25 0000 00       		.byte	0
  26 0001 000000   		.space	3
  27 0004 00000000 		.word	0
  28 0008 00000000 		.word	0
  29 000c 00000000 		.word	0
  30 0010 00000000 		.word	0
  31 0014 0000A041 		.word	1101004800
  32 0018 FFFFFFFF 		.word	-1
  33 001c 0000FA46 		.word	1190789120
  34 0020 0024744B 		.word	1265902592
  35 0024 0024744B 		.word	1265902592
  36 0028 00401C46 		.word	1176256512
  37 002c 10000000 		.word	16
  38 0030 00040000 		.word	1024
  39 0034 02000000 		.word	2
  40 0038 02000000 		.word	2
  41 003c 01000000 		.word	1
  42 0040 02000000 		.word	2
  43 0044 00000000 		.word	0
  44 0048 00000000 		.word	0
  45 004c 07000000 		.word	7
  46 0050 00004844 		.word	1145569280
  47 0054 00000080 		.word	-2147483648
  48 0058 0050C347 		.word	1203982336
  49 005c 0C000000 		.word	12
  50 0060 01000000 		.word	1
  51 0064 01       		.byte	1
  52 0065 000000   		.space	3
  53 0068 00000000 		.word	0
  54 006c 02       		.byte	2
  55 006d 00       		.byte	0
  56 006e 03       		.byte	3
  57 006f 00       		.space	1
ARM GAS  C:\Users\13740\AppData\Local\Temp\cctWuNXI.s 			page 2


  58 0070 01       		.byte	1
  59 0071 000000   		.space	3
  60 0074 00007A44 		.word	1148846080
  61 0078 0050C347 		.word	1203982336
  62 007c 65000000 		.word	101
  63 0080 00       		.byte	0
  64 0081 000000   		.space	3
  65 0084 00000000 		.word	0
  66 0088 04000000 		.word	4
  67 008c 00000000 		.space	12
  67      00000000 
  67      00000000 
  68 0098 00       		.byte	0
  69 0099 00000000 		.space	43
  69      00000000 
  69      00000000 
  69      00000000 
  69      00000000 
  70 00c4 00       		.byte	0
  71 00c5 00000000 		.space	7
  71      000000
  72              		.section	.text.AppIMPGetCfg,"ax",%progbits
  73              		.align	2
  74              		.global	AppIMPGetCfg
  75              		.code	16
  76              		.thumb_func
  77              		.type	AppIMPGetCfg, %function
  78              	AppIMPGetCfg:
  79              	.LFB1:
  80              		.file 1 "Impedance.c"
   1:Impedance.c   **** /*!
   2:Impedance.c   ****  *****************************************************************************
   3:Impedance.c   ****  @file:    Impedance.c
   4:Impedance.c   ****  @author:  Neo Xu
   5:Impedance.c   ****  @brief:   standard 4-wire or 2-wire impedance measurement sequences.
   6:Impedance.c   ****  -----------------------------------------------------------------------------
   7:Impedance.c   **** 
   8:Impedance.c   **** Copyright (c) 2017-2019 Analog Devices, Inc. All Rights Reserved.
   9:Impedance.c   **** 
  10:Impedance.c   **** This software is proprietary to Analog Devices, Inc. and its licensors.
  11:Impedance.c   **** By using this software you agree to the terms of the associated
  12:Impedance.c   **** Analog Devices Software License Agreement.
  13:Impedance.c   ****  
  14:Impedance.c   **** *****************************************************************************/
  15:Impedance.c   **** #include "ad5940.h"
  16:Impedance.c   **** #include <stdio.h>
  17:Impedance.c   **** #include "string.h"
  18:Impedance.c   **** #include "math.h"
  19:Impedance.c   **** #include "Impedance.h"
  20:Impedance.c   **** 
  21:Impedance.c   **** /* Default LPDAC resolution(2.5V internal reference). */
  22:Impedance.c   **** #define DAC12BITVOLT_1LSB   (2200.0f/4095)  //mV
  23:Impedance.c   **** #define DAC6BITVOLT_1LSB    (DAC12BITVOLT_1LSB*64)  //mV
  24:Impedance.c   **** 
  25:Impedance.c   **** /* 
  26:Impedance.c   ****   Application configuration structure. Specified by user from template.
  27:Impedance.c   ****   The variables are usable in this whole application.
ARM GAS  C:\Users\13740\AppData\Local\Temp\cctWuNXI.s 			page 3


  28:Impedance.c   ****   It includes basic configuration for sequencer generator and application related parameters
  29:Impedance.c   **** */
  30:Impedance.c   **** AppIMPCfg_Type AppIMPCfg = 
  31:Impedance.c   **** {
  32:Impedance.c   ****   .bParaChanged = bFALSE,
  33:Impedance.c   ****   .SeqStartAddr = 0,
  34:Impedance.c   ****   .MaxSeqLen = 0,
  35:Impedance.c   ****   
  36:Impedance.c   ****   .SeqStartAddrCal = 0,
  37:Impedance.c   ****   .MaxSeqLenCal = 0,
  38:Impedance.c   **** 
  39:Impedance.c   ****   .ImpODR = 20.0,           /* 20.0 Hz*/
  40:Impedance.c   ****   .NumOfData = -1,
  41:Impedance.c   ****   .SysClkFreq = 16000000.0,
  42:Impedance.c   ****   .WuptClkFreq = 32000.0,
  43:Impedance.c   ****   .AdcClkFreq = 16000000.0,
  44:Impedance.c   ****   .RcalVal = 10000.0,
  45:Impedance.c   **** 
  46:Impedance.c   ****   .DswitchSel = SWD_CE0,
  47:Impedance.c   ****   .PswitchSel = SWP_CE0,
  48:Impedance.c   ****   .NswitchSel = SWN_AIN1,
  49:Impedance.c   ****   .TswitchSel = SWT_AIN1,
  50:Impedance.c   **** 
  51:Impedance.c   ****   .PwrMod = AFEPWR_HP,
  52:Impedance.c   **** 
  53:Impedance.c   ****   .HstiaRtiaSel = HSTIARTIA_5K,
  54:Impedance.c   ****   .ExcitBufGain = EXCITBUFGAIN_2,
  55:Impedance.c   ****   .HsDacGain = HSDACGAIN_1,
  56:Impedance.c   ****   .HsDacUpdateRate = 7,
  57:Impedance.c   ****   .DacVoltPP = 800.0,
  58:Impedance.c   ****   .BiasVolt = -0.0f,
  59:Impedance.c   **** 
  60:Impedance.c   ****   .SinFreq = 100000.0, /* 1000Hz */
  61:Impedance.c   **** 
  62:Impedance.c   ****   .DftNum = DFTNUM_16384,
  63:Impedance.c   ****   .DftSrc = DFTSRC_SINC3,
  64:Impedance.c   ****   .HanWinEn = bTRUE,
  65:Impedance.c   **** 
  66:Impedance.c   ****   .AdcPgaGain = ADCPGA_1,
  67:Impedance.c   ****   .ADCSinc3Osr = ADCSINC3OSR_2,
  68:Impedance.c   ****   .ADCSinc2Osr = ADCSINC2OSR_22,
  69:Impedance.c   **** 
  70:Impedance.c   ****   .ADCAvgNum = ADCAVGNUM_16,
  71:Impedance.c   **** 
  72:Impedance.c   ****   .SweepCfg.SweepEn = bTRUE,
  73:Impedance.c   ****   .SweepCfg.SweepStart = 1000,
  74:Impedance.c   ****   .SweepCfg.SweepStop = 100000.0,
  75:Impedance.c   ****   .SweepCfg.SweepPoints = 101,
  76:Impedance.c   ****   .SweepCfg.SweepLog = bFALSE,
  77:Impedance.c   ****   .SweepCfg.SweepIndex = 0,
  78:Impedance.c   **** 
  79:Impedance.c   ****   .FifoThresh = 4,
  80:Impedance.c   ****   .IMPInited = bFALSE,
  81:Impedance.c   ****   .StopRequired = bFALSE,
  82:Impedance.c   **** };
  83:Impedance.c   **** 
  84:Impedance.c   **** /**
ARM GAS  C:\Users\13740\AppData\Local\Temp\cctWuNXI.s 			page 4


  85:Impedance.c   ****    This function is provided for upper controllers that want to change 
  86:Impedance.c   ****    application parameters specially for user defined parameters.
  87:Impedance.c   **** */
  88:Impedance.c   **** int32_t AppIMPGetCfg(void *pCfg)
  89:Impedance.c   **** {
  81              		.loc 1 89 0
  82              		.cfi_startproc
  83              		@ args = 0, pretend = 0, frame = 8
  84              		@ frame_needed = 1, uses_anonymous_args = 0
  85 0000 80B5     		push	{r7, lr}
  86              		.cfi_def_cfa_offset 8
  87              		.cfi_offset 7, -8
  88              		.cfi_offset 14, -4
  89 0002 82B0     		sub	sp, sp, #8
  90              		.cfi_def_cfa_offset 16
  91 0004 00AF     		add	r7, sp, #0
  92              		.cfi_def_cfa_register 7
  93 0006 7860     		str	r0, [r7, #4]
  90:Impedance.c   ****   if(pCfg)
  94              		.loc 1 90 0
  95 0008 7B68     		ldr	r3, [r7, #4]
  96 000a 002B     		cmp	r3, #0
  97 000c 04D0     		beq	.L2
  91:Impedance.c   ****   {
  92:Impedance.c   ****     *(AppIMPCfg_Type**)pCfg = &AppIMPCfg;
  98              		.loc 1 92 0
  99 000e 7B68     		ldr	r3, [r7, #4]
 100 0010 044A     		ldr	r2, .L4
 101 0012 1A60     		str	r2, [r3]
  93:Impedance.c   ****     return AD5940ERR_OK;
 102              		.loc 1 93 0
 103 0014 0023     		movs	r3, #0
 104 0016 01E0     		b	.L3
 105              	.L2:
  94:Impedance.c   ****   }
  95:Impedance.c   ****   return AD5940ERR_PARA;
 106              		.loc 1 95 0
 107 0018 0223     		movs	r3, #2
 108 001a 5B42     		rsbs	r3, r3, #0
 109              	.L3:
  96:Impedance.c   **** }
 110              		.loc 1 96 0
 111 001c 1800     		movs	r0, r3
 112 001e BD46     		mov	sp, r7
 113 0020 02B0     		add	sp, sp, #8
 114              		@ sp needed
 115 0022 80BD     		pop	{r7, pc}
 116              	.L5:
 117              		.align	2
 118              	.L4:
 119 0024 00000000 		.word	AppIMPCfg
 120              		.cfi_endproc
 121              	.LFE1:
 122              		.size	AppIMPGetCfg, .-AppIMPGetCfg
 123              		.global	__aeabi_fdiv
 124              		.global	__aeabi_f2uiz
 125              		.section	.text.AppIMPCtrl,"ax",%progbits
ARM GAS  C:\Users\13740\AppData\Local\Temp\cctWuNXI.s 			page 5


 126              		.align	2
 127              		.global	AppIMPCtrl
 128              		.code	16
 129              		.thumb_func
 130              		.type	AppIMPCtrl, %function
 131              	AppIMPCtrl:
 132              	.LFB2:
  97:Impedance.c   **** 
  98:Impedance.c   **** int32_t AppIMPCtrl(uint32_t Command, void *pPara)
  99:Impedance.c   **** {
 133              		.loc 1 99 0
 134              		.cfi_startproc
 135              		@ args = 0, pretend = 0, frame = 96
 136              		@ frame_needed = 1, uses_anonymous_args = 0
 137 0000 80B5     		push	{r7, lr}
 138              		.cfi_def_cfa_offset 8
 139              		.cfi_offset 7, -8
 140              		.cfi_offset 14, -4
 141 0002 98B0     		sub	sp, sp, #96
 142              		.cfi_def_cfa_offset 104
 143 0004 00AF     		add	r7, sp, #0
 144              		.cfi_def_cfa_register 7
 145 0006 7860     		str	r0, [r7, #4]
 146 0008 3960     		str	r1, [r7]
 100:Impedance.c   ****   
 101:Impedance.c   ****   switch (Command)
 147              		.loc 1 101 0
 148 000a 7B68     		ldr	r3, [r7, #4]
 149 000c 042B     		cmp	r3, #4
 150 000e 00D9     		bls	.LCB62
 151 0010 8CE0     		b	.L23	@long jump
 152              	.LCB62:
 153 0012 7B68     		ldr	r3, [r7, #4]
 154 0014 9A00     		lsls	r2, r3, #2
 155 0016 484B     		ldr	r3, .L24
 156 0018 D318     		adds	r3, r2, r3
 157 001a 1B68     		ldr	r3, [r3]
 158 001c 9F46     		mov	pc, r3
 159              		.section	.rodata
 160              		.align	2
 161              	.L9:
 162 0000 1E000000 		.word	.L8
 163 0004 98000000 		.word	.L10
 164 0008 B8000000 		.word	.L11
 165 000c C2000000 		.word	.L12
 166 0010 EE000000 		.word	.L13
 167              		.section	.text.AppIMPCtrl
 168              	.L8:
 169              	.LBB2:
 102:Impedance.c   ****   {
 103:Impedance.c   ****     case IMPCTRL_START:
 104:Impedance.c   ****     {
 105:Impedance.c   ****       WUPTCfg_Type wupt_cfg;
 106:Impedance.c   **** 
 107:Impedance.c   ****       if(AD5940_WakeUp(10) > 10)  /* Wakeup AFE by read register, read 10 times at most */
 170              		.loc 1 107 0
 171 001e 0A20     		movs	r0, #10
ARM GAS  C:\Users\13740\AppData\Local\Temp\cctWuNXI.s 			page 6


 172 0020 FFF7FEFF 		bl	AD5940_WakeUp
 173 0024 0300     		movs	r3, r0
 174 0026 0A2B     		cmp	r3, #10
 175 0028 02D9     		bls	.L14
 108:Impedance.c   ****         return AD5940ERR_WAKEUP;  /* Wakeup Failed */
 176              		.loc 1 108 0
 177 002a 0923     		movs	r3, #9
 178 002c 5B42     		rsbs	r3, r3, #0
 179 002e 7FE0     		b	.L18
 180              	.L14:
 109:Impedance.c   ****       if(AppIMPCfg.IMPInited == bFALSE)
 181              		.loc 1 109 0
 182 0030 424B     		ldr	r3, .L24+4
 183 0032 9822     		movs	r2, #152
 184 0034 9B5C     		ldrb	r3, [r3, r2]
 185 0036 002B     		cmp	r3, #0
 186 0038 02D1     		bne	.L16
 110:Impedance.c   ****         return AD5940ERR_APPERROR;
 187              		.loc 1 110 0
 188 003a 6423     		movs	r3, #100
 189 003c 5B42     		rsbs	r3, r3, #0
 190 003e 77E0     		b	.L18
 191              	.L16:
 111:Impedance.c   ****       /* Start it */
 112:Impedance.c   ****       wupt_cfg.WuptEn = bTRUE;
 192              		.loc 1 112 0
 193 0040 0823     		movs	r3, #8
 194 0042 FB18     		adds	r3, r7, r3
 195 0044 4422     		movs	r2, #68
 196 0046 0121     		movs	r1, #1
 197 0048 9954     		strb	r1, [r3, r2]
 113:Impedance.c   ****       wupt_cfg.WuptEndSeq = WUPTENDSEQ_A;
 198              		.loc 1 113 0
 199 004a 0823     		movs	r3, #8
 200 004c FB18     		adds	r3, r7, r3
 201 004e 0022     		movs	r2, #0
 202 0050 1A60     		str	r2, [r3]
 114:Impedance.c   ****       wupt_cfg.WuptOrder[0] = SEQID_0;
 203              		.loc 1 114 0
 204 0052 0823     		movs	r3, #8
 205 0054 FB18     		adds	r3, r7, r3
 206 0056 0022     		movs	r2, #0
 207 0058 5A60     		str	r2, [r3, #4]
 115:Impedance.c   ****       wupt_cfg.SeqxSleepTime[SEQID_0] = 4;
 208              		.loc 1 115 0
 209 005a 0823     		movs	r3, #8
 210 005c FB18     		adds	r3, r7, r3
 211 005e 0422     		movs	r2, #4
 212 0060 5A62     		str	r2, [r3, #36]
 116:Impedance.c   ****       wupt_cfg.SeqxWakeupTime[SEQID_0] = (uint32_t)(AppIMPCfg.WuptClkFreq/AppIMPCfg.ImpODR)-4;
 213              		.loc 1 116 0
 214 0062 364B     		ldr	r3, .L24+4
 215 0064 DA69     		ldr	r2, [r3, #28]
 216 0066 354B     		ldr	r3, .L24+4
 217 0068 5B69     		ldr	r3, [r3, #20]
 218 006a 191C     		adds	r1, r3, #0
 219 006c 101C     		adds	r0, r2, #0
ARM GAS  C:\Users\13740\AppData\Local\Temp\cctWuNXI.s 			page 7


 220 006e FFF7FEFF 		bl	__aeabi_fdiv
 221 0072 031C     		adds	r3, r0, #0
 222 0074 181C     		adds	r0, r3, #0
 223 0076 FFF7FEFF 		bl	__aeabi_f2uiz
 224 007a 0300     		movs	r3, r0
 225 007c 1A1F     		subs	r2, r3, #4
 226 007e 0823     		movs	r3, #8
 227 0080 FB18     		adds	r3, r7, r3
 228 0082 5A63     		str	r2, [r3, #52]
 117:Impedance.c   ****       AD5940_WUPTCfg(&wupt_cfg);
 229              		.loc 1 117 0
 230 0084 0823     		movs	r3, #8
 231 0086 FB18     		adds	r3, r7, r3
 232 0088 1800     		movs	r0, r3
 233 008a FFF7FEFF 		bl	AD5940_WUPTCfg
 118:Impedance.c   ****       
 119:Impedance.c   ****       AppIMPCfg.FifoDataCount = 0;  /* restart */
 234              		.loc 1 119 0
 235 008e 2B4B     		ldr	r3, .L24+4
 236 0090 C822     		movs	r2, #200
 237 0092 0021     		movs	r1, #0
 238 0094 9950     		str	r1, [r3, r2]
 239 0096 4AE0     		b	.L17
 240              	.L10:
 241              	.LBE2:
 120:Impedance.c   ****       break;
 121:Impedance.c   ****     }
 122:Impedance.c   ****     case IMPCTRL_STOPNOW:
 123:Impedance.c   ****     {
 124:Impedance.c   ****       if(AD5940_WakeUp(10) > 10)  /* Wakeup AFE by read register, read 10 times at most */
 242              		.loc 1 124 0
 243 0098 0A20     		movs	r0, #10
 244 009a FFF7FEFF 		bl	AD5940_WakeUp
 245 009e 0300     		movs	r3, r0
 246 00a0 0A2B     		cmp	r3, #10
 247 00a2 02D9     		bls	.L19
 125:Impedance.c   ****         return AD5940ERR_WAKEUP;  /* Wakeup Failed */
 248              		.loc 1 125 0
 249 00a4 0923     		movs	r3, #9
 250 00a6 5B42     		rsbs	r3, r3, #0
 251 00a8 42E0     		b	.L18
 252              	.L19:
 126:Impedance.c   ****       /* Start Wupt right now */
 127:Impedance.c   ****       AD5940_WUPTCtrl(bFALSE);
 253              		.loc 1 127 0
 254 00aa 0020     		movs	r0, #0
 255 00ac FFF7FEFF 		bl	AD5940_WUPTCtrl
 128:Impedance.c   ****       /* There is chance this operation will fail because sequencer could put AFE back 
 129:Impedance.c   ****         to hibernate mode just after waking up. Use STOPSYNC is better. */
 130:Impedance.c   ****       AD5940_WUPTCtrl(bFALSE);
 256              		.loc 1 130 0
 257 00b0 0020     		movs	r0, #0
 258 00b2 FFF7FEFF 		bl	AD5940_WUPTCtrl
 131:Impedance.c   ****       break;
 259              		.loc 1 131 0
 260 00b6 3AE0     		b	.L17
 261              	.L11:
ARM GAS  C:\Users\13740\AppData\Local\Temp\cctWuNXI.s 			page 8


 132:Impedance.c   ****     }
 133:Impedance.c   ****     case IMPCTRL_STOPSYNC:
 134:Impedance.c   ****     {
 135:Impedance.c   ****       AppIMPCfg.StopRequired = bTRUE;
 262              		.loc 1 135 0
 263 00b8 204B     		ldr	r3, .L24+4
 264 00ba C422     		movs	r2, #196
 265 00bc 0121     		movs	r1, #1
 266 00be 9954     		strb	r1, [r3, r2]
 136:Impedance.c   ****       break;
 267              		.loc 1 136 0
 268 00c0 35E0     		b	.L17
 269              	.L12:
 137:Impedance.c   ****     }
 138:Impedance.c   ****     case IMPCTRL_GETFREQ:
 139:Impedance.c   ****       {
 140:Impedance.c   ****         if(pPara == 0)
 270              		.loc 1 140 0
 271 00c2 3B68     		ldr	r3, [r7]
 272 00c4 002B     		cmp	r3, #0
 273 00c6 02D1     		bne	.L20
 141:Impedance.c   ****           return AD5940ERR_PARA;
 274              		.loc 1 141 0
 275 00c8 0223     		movs	r3, #2
 276 00ca 5B42     		rsbs	r3, r3, #0
 277 00cc 30E0     		b	.L18
 278              	.L20:
 142:Impedance.c   ****         if(AppIMPCfg.SweepCfg.SweepEn == bTRUE)
 279              		.loc 1 142 0
 280 00ce 1B4B     		ldr	r3, .L24+4
 281 00d0 7022     		movs	r2, #112
 282 00d2 9B5C     		ldrb	r3, [r3, r2]
 283 00d4 012B     		cmp	r3, #1
 284 00d6 05D1     		bne	.L21
 143:Impedance.c   ****           *(float*)pPara = AppIMPCfg.FreqofData;
 285              		.loc 1 143 0
 286 00d8 184B     		ldr	r3, .L24+4
 287 00da 9422     		movs	r2, #148
 288 00dc 9A58     		ldr	r2, [r3, r2]
 289 00de 3B68     		ldr	r3, [r7]
 290 00e0 1A60     		str	r2, [r3]
 144:Impedance.c   ****         else
 145:Impedance.c   ****           *(float*)pPara = AppIMPCfg.SinFreq;
 146:Impedance.c   ****       }
 147:Impedance.c   ****     break;
 291              		.loc 1 147 0
 292 00e2 24E0     		b	.L17
 293              	.L21:
 145:Impedance.c   ****       }
 294              		.loc 1 145 0
 295 00e4 154B     		ldr	r3, .L24+4
 296 00e6 9A6D     		ldr	r2, [r3, #88]
 297 00e8 3B68     		ldr	r3, [r7]
 298 00ea 1A60     		str	r2, [r3]
 299              		.loc 1 147 0
 300 00ec 1FE0     		b	.L17
 301              	.L13:
ARM GAS  C:\Users\13740\AppData\Local\Temp\cctWuNXI.s 			page 9


 302              	.LBB3:
 148:Impedance.c   ****     case IMPCTRL_SHUTDOWN:
 149:Impedance.c   ****     {
 150:Impedance.c   ****       AppIMPCtrl(IMPCTRL_STOPNOW, 0);  /* Stop the measurement if it's running. */
 303              		.loc 1 150 0
 304 00ee 0021     		movs	r1, #0
 305 00f0 0120     		movs	r0, #1
 306 00f2 FFF7FEFF 		bl	AppIMPCtrl
 151:Impedance.c   ****       /* Turn off LPloop related blocks which are not controlled automatically by hibernate operati
 152:Impedance.c   ****       AFERefCfg_Type aferef_cfg;
 153:Impedance.c   ****       LPLoopCfg_Type lp_loop;
 154:Impedance.c   ****       memset(&aferef_cfg, 0, sizeof(aferef_cfg));
 307              		.loc 1 154 0
 308 00f6 5023     		movs	r3, #80
 309 00f8 FB18     		adds	r3, r7, r3
 310 00fa 0D22     		movs	r2, #13
 311 00fc 0021     		movs	r1, #0
 312 00fe 1800     		movs	r0, r3
 313 0100 FFF7FEFF 		bl	memset
 155:Impedance.c   ****       AD5940_REFCfgS(&aferef_cfg);
 314              		.loc 1 155 0
 315 0104 5023     		movs	r3, #80
 316 0106 FB18     		adds	r3, r7, r3
 317 0108 1800     		movs	r0, r3
 318 010a FFF7FEFF 		bl	AD5940_REFCfgS
 156:Impedance.c   ****       memset(&lp_loop, 0, sizeof(lp_loop));
 319              		.loc 1 156 0
 320 010e 0823     		movs	r3, #8
 321 0110 FB18     		adds	r3, r7, r3
 322 0112 3C22     		movs	r2, #60
 323 0114 0021     		movs	r1, #0
 324 0116 1800     		movs	r0, r3
 325 0118 FFF7FEFF 		bl	memset
 157:Impedance.c   ****       AD5940_LPLoopCfgS(&lp_loop);
 326              		.loc 1 157 0
 327 011c 0823     		movs	r3, #8
 328 011e FB18     		adds	r3, r7, r3
 329 0120 1800     		movs	r0, r3
 330 0122 FFF7FEFF 		bl	AD5940_LPLoopCfgS
 158:Impedance.c   ****       AD5940_EnterSleepS();  /* Enter Hibernate */
 331              		.loc 1 158 0
 332 0126 FFF7FEFF 		bl	AD5940_EnterSleepS
 333              	.LBE3:
 159:Impedance.c   ****     }
 160:Impedance.c   ****     break;
 334              		.loc 1 160 0
 335 012a 00E0     		b	.L17
 336              	.L23:
 161:Impedance.c   ****     default:
 162:Impedance.c   ****     break;
 337              		.loc 1 162 0
 338 012c C046     		nop
 339              	.L17:
 163:Impedance.c   ****   }
 164:Impedance.c   ****   return AD5940ERR_OK;
 340              		.loc 1 164 0
 341 012e 0023     		movs	r3, #0
ARM GAS  C:\Users\13740\AppData\Local\Temp\cctWuNXI.s 			page 10


 342              	.L18:
 165:Impedance.c   **** }
 343              		.loc 1 165 0
 344 0130 1800     		movs	r0, r3
 345 0132 BD46     		mov	sp, r7
 346 0134 18B0     		add	sp, sp, #96
 347              		@ sp needed
 348 0136 80BD     		pop	{r7, pc}
 349              	.L25:
 350              		.align	2
 351              	.L24:
 352 0138 00000000 		.word	.L9
 353 013c 00000000 		.word	AppIMPCfg
 354              		.cfi_endproc
 355              	.LFE2:
 356              		.size	AppIMPCtrl, .-AppIMPCtrl
 357              		.section	.text.AppIMPGetCurrFreq,"ax",%progbits
 358              		.align	2
 359              		.global	AppIMPGetCurrFreq
 360              		.code	16
 361              		.thumb_func
 362              		.type	AppIMPGetCurrFreq, %function
 363              	AppIMPGetCurrFreq:
 364              	.LFB3:
 166:Impedance.c   **** 
 167:Impedance.c   **** /* generated code snnipet */
 168:Impedance.c   **** float AppIMPGetCurrFreq(void)
 169:Impedance.c   **** {
 365              		.loc 1 169 0
 366              		.cfi_startproc
 367              		@ args = 0, pretend = 0, frame = 0
 368              		@ frame_needed = 1, uses_anonymous_args = 0
 369 0000 80B5     		push	{r7, lr}
 370              		.cfi_def_cfa_offset 8
 371              		.cfi_offset 7, -8
 372              		.cfi_offset 14, -4
 373 0002 00AF     		add	r7, sp, #0
 374              		.cfi_def_cfa_register 7
 170:Impedance.c   ****   if(AppIMPCfg.SweepCfg.SweepEn == bTRUE)
 375              		.loc 1 170 0
 376 0004 064B     		ldr	r3, .L29
 377 0006 7022     		movs	r2, #112
 378 0008 9B5C     		ldrb	r3, [r3, r2]
 379 000a 012B     		cmp	r3, #1
 380 000c 03D1     		bne	.L27
 171:Impedance.c   ****     return AppIMPCfg.FreqofData;
 381              		.loc 1 171 0
 382 000e 044B     		ldr	r3, .L29
 383 0010 9422     		movs	r2, #148
 384 0012 9B58     		ldr	r3, [r3, r2]
 385 0014 01E0     		b	.L28
 386              	.L27:
 172:Impedance.c   ****   else
 173:Impedance.c   ****     return AppIMPCfg.SinFreq;
 387              		.loc 1 173 0
 388 0016 024B     		ldr	r3, .L29
 389 0018 9B6D     		ldr	r3, [r3, #88]
ARM GAS  C:\Users\13740\AppData\Local\Temp\cctWuNXI.s 			page 11


 390              	.L28:
 174:Impedance.c   **** }
 391              		.loc 1 174 0
 392 001a 181C     		adds	r0, r3, #0
 393 001c BD46     		mov	sp, r7
 394              		@ sp needed
 395 001e 80BD     		pop	{r7, pc}
 396              	.L30:
 397              		.align	2
 398              	.L29:
 399 0020 00000000 		.word	AppIMPCfg
 400              		.cfi_endproc
 401              	.LFE3:
 402              		.size	AppIMPGetCurrFreq, .-AppIMPGetCurrFreq
 403              		.global	__aeabi_fcmpeq
 404              		.global	__aeabi_fmul
 405              		.global	__aeabi_fadd
 406              		.global	__aeabi_fcmplt
 407              		.global	__aeabi_fcmpgt
 408              		.section	.text.AppIMPSeqCfgGen,"ax",%progbits
 409              		.align	2
 410              		.code	16
 411              		.thumb_func
 412              		.type	AppIMPSeqCfgGen, %function
 413              	AppIMPSeqCfgGen:
 414              	.LFB4:
 175:Impedance.c   **** 
 176:Impedance.c   **** /* Application initialization */
 177:Impedance.c   **** static AD5940Err AppIMPSeqCfgGen(void)
 178:Impedance.c   **** {
 415              		.loc 1 178 0
 416              		.cfi_startproc
 417              		@ args = 0, pretend = 0, frame = 248
 418              		@ frame_needed = 1, uses_anonymous_args = 0
 419 0000 80B5     		push	{r7, lr}
 420              		.cfi_def_cfa_offset 8
 421              		.cfi_offset 7, -8
 422              		.cfi_offset 14, -4
 423 0002 BEB0     		sub	sp, sp, #248
 424              		.cfi_def_cfa_offset 256
 425 0004 00AF     		add	r7, sp, #0
 426              		.cfi_def_cfa_register 7
 179:Impedance.c   ****   AD5940Err error = AD5940ERR_OK;
 427              		.loc 1 179 0
 428 0006 0023     		movs	r3, #0
 429 0008 F022     		movs	r2, #240
 430 000a BA18     		adds	r2, r7, r2
 431 000c 1360     		str	r3, [r2]
 180:Impedance.c   ****   const uint32_t *pSeqCmd;
 181:Impedance.c   ****   uint32_t SeqLen;
 182:Impedance.c   ****   AFERefCfg_Type aferef_cfg;
 183:Impedance.c   ****   HSLoopCfg_Type HsLoopCfg;
 184:Impedance.c   ****   DSPCfg_Type dsp_cfg;
 185:Impedance.c   ****   float sin_freq;
 186:Impedance.c   **** 
 187:Impedance.c   ****   /* Start sequence generator here */
 188:Impedance.c   ****   AD5940_SEQGenCtrl(bTRUE);
ARM GAS  C:\Users\13740\AppData\Local\Temp\cctWuNXI.s 			page 12


 432              		.loc 1 188 0
 433 000e 0120     		movs	r0, #1
 434 0010 FFF7FEFF 		bl	AD5940_SEQGenCtrl
 189:Impedance.c   ****   
 190:Impedance.c   ****   AD5940_AFECtrlS(AFECTRL_ALL, bFALSE);  /* Init all to disable state */
 435              		.loc 1 190 0
 436 0014 DB4B     		ldr	r3, .L62
 437 0016 0021     		movs	r1, #0
 438 0018 1800     		movs	r0, r3
 439 001a FFF7FEFF 		bl	AD5940_AFECtrlS
 191:Impedance.c   **** 
 192:Impedance.c   ****   aferef_cfg.HpBandgapEn = bTRUE;
 440              		.loc 1 192 0
 441 001e D823     		movs	r3, #216
 442 0020 FB18     		adds	r3, r7, r3
 443 0022 0122     		movs	r2, #1
 444 0024 1A70     		strb	r2, [r3]
 193:Impedance.c   ****   aferef_cfg.Hp1V1BuffEn = bTRUE;
 445              		.loc 1 193 0
 446 0026 D823     		movs	r3, #216
 447 0028 FB18     		adds	r3, r7, r3
 448 002a 0122     		movs	r2, #1
 449 002c 9A70     		strb	r2, [r3, #2]
 194:Impedance.c   ****   aferef_cfg.Hp1V8BuffEn = bTRUE;
 450              		.loc 1 194 0
 451 002e D823     		movs	r3, #216
 452 0030 FB18     		adds	r3, r7, r3
 453 0032 0122     		movs	r2, #1
 454 0034 5A70     		strb	r2, [r3, #1]
 195:Impedance.c   ****   aferef_cfg.Disc1V1Cap = bFALSE;
 455              		.loc 1 195 0
 456 0036 D823     		movs	r3, #216
 457 0038 FB18     		adds	r3, r7, r3
 458 003a 0022     		movs	r2, #0
 459 003c 1A73     		strb	r2, [r3, #12]
 196:Impedance.c   ****   aferef_cfg.Disc1V8Cap = bFALSE;
 460              		.loc 1 196 0
 461 003e D823     		movs	r3, #216
 462 0040 FB18     		adds	r3, r7, r3
 463 0042 0022     		movs	r2, #0
 464 0044 DA72     		strb	r2, [r3, #11]
 197:Impedance.c   ****   aferef_cfg.Hp1V8ThemBuff = bFALSE;
 465              		.loc 1 197 0
 466 0046 D823     		movs	r3, #216
 467 0048 FB18     		adds	r3, r7, r3
 468 004a 0022     		movs	r2, #0
 469 004c 5A72     		strb	r2, [r3, #9]
 198:Impedance.c   ****   aferef_cfg.Hp1V8Ilimit = bFALSE;
 470              		.loc 1 198 0
 471 004e D823     		movs	r3, #216
 472 0050 FB18     		adds	r3, r7, r3
 473 0052 0022     		movs	r2, #0
 474 0054 9A72     		strb	r2, [r3, #10]
 199:Impedance.c   ****   aferef_cfg.Lp1V1BuffEn = bFALSE;
 475              		.loc 1 199 0
 476 0056 D823     		movs	r3, #216
 477 0058 FB18     		adds	r3, r7, r3
ARM GAS  C:\Users\13740\AppData\Local\Temp\cctWuNXI.s 			page 13


 478 005a 0022     		movs	r2, #0
 479 005c 1A71     		strb	r2, [r3, #4]
 200:Impedance.c   ****   aferef_cfg.Lp1V8BuffEn = bFALSE;
 480              		.loc 1 200 0
 481 005e D823     		movs	r3, #216
 482 0060 FB18     		adds	r3, r7, r3
 483 0062 0022     		movs	r2, #0
 484 0064 DA70     		strb	r2, [r3, #3]
 201:Impedance.c   ****   /* LP reference control - turn off them to save power*/
 202:Impedance.c   ****   if(AppIMPCfg.BiasVolt != 0.0f)    /* With bias voltage */
 485              		.loc 1 202 0
 486 0066 C84B     		ldr	r3, .L62+4
 487 0068 5B6D     		ldr	r3, [r3, #84]
 488 006a 0021     		movs	r1, #0
 489 006c 181C     		adds	r0, r3, #0
 490 006e FFF7FEFF 		bl	__aeabi_fcmpeq
 491 0072 031E     		subs	r3, r0, #0
 492 0074 08D1     		bne	.L59
 203:Impedance.c   ****   {
 204:Impedance.c   ****     aferef_cfg.LpBandgapEn = bTRUE;
 493              		.loc 1 204 0
 494 0076 D823     		movs	r3, #216
 495 0078 FB18     		adds	r3, r7, r3
 496 007a 0122     		movs	r2, #1
 497 007c 5A71     		strb	r2, [r3, #5]
 205:Impedance.c   ****     aferef_cfg.LpRefBufEn = bTRUE;
 498              		.loc 1 205 0
 499 007e D823     		movs	r3, #216
 500 0080 FB18     		adds	r3, r7, r3
 501 0082 0122     		movs	r2, #1
 502 0084 9A71     		strb	r2, [r3, #6]
 503 0086 07E0     		b	.L34
 504              	.L59:
 206:Impedance.c   ****   }
 207:Impedance.c   ****   else
 208:Impedance.c   ****   {
 209:Impedance.c   ****     aferef_cfg.LpBandgapEn = bFALSE;
 505              		.loc 1 209 0
 506 0088 D823     		movs	r3, #216
 507 008a FB18     		adds	r3, r7, r3
 508 008c 0022     		movs	r2, #0
 509 008e 5A71     		strb	r2, [r3, #5]
 210:Impedance.c   ****     aferef_cfg.LpRefBufEn = bFALSE;
 510              		.loc 1 210 0
 511 0090 D823     		movs	r3, #216
 512 0092 FB18     		adds	r3, r7, r3
 513 0094 0022     		movs	r2, #0
 514 0096 9A71     		strb	r2, [r3, #6]
 515              	.L34:
 211:Impedance.c   ****   }
 212:Impedance.c   ****   aferef_cfg.LpRefBoostEn = bFALSE;
 516              		.loc 1 212 0
 517 0098 D823     		movs	r3, #216
 518 009a FB18     		adds	r3, r7, r3
 519 009c 0022     		movs	r2, #0
 520 009e DA71     		strb	r2, [r3, #7]
 213:Impedance.c   ****   AD5940_REFCfgS(&aferef_cfg);	
ARM GAS  C:\Users\13740\AppData\Local\Temp\cctWuNXI.s 			page 14


 521              		.loc 1 213 0
 522 00a0 D823     		movs	r3, #216
 523 00a2 FB18     		adds	r3, r7, r3
 524 00a4 1800     		movs	r0, r3
 525 00a6 FFF7FEFF 		bl	AD5940_REFCfgS
 214:Impedance.c   ****   HsLoopCfg.HsDacCfg.ExcitBufGain = AppIMPCfg.ExcitBufGain;
 526              		.loc 1 214 0
 527 00aa B74B     		ldr	r3, .L62+4
 528 00ac 5A6C     		ldr	r2, [r3, #68]
 529 00ae 6423     		movs	r3, #100
 530 00b0 FB18     		adds	r3, r7, r3
 531 00b2 1A61     		str	r2, [r3, #16]
 215:Impedance.c   ****   HsLoopCfg.HsDacCfg.HsDacGain = AppIMPCfg.HsDacGain;
 532              		.loc 1 215 0
 533 00b4 B44B     		ldr	r3, .L62+4
 534 00b6 9A6C     		ldr	r2, [r3, #72]
 535 00b8 6423     		movs	r3, #100
 536 00ba FB18     		adds	r3, r7, r3
 537 00bc 5A61     		str	r2, [r3, #20]
 216:Impedance.c   ****   HsLoopCfg.HsDacCfg.HsDacUpdateRate = AppIMPCfg.HsDacUpdateRate;
 538              		.loc 1 216 0
 539 00be B24B     		ldr	r3, .L62+4
 540 00c0 DA6C     		ldr	r2, [r3, #76]
 541 00c2 6423     		movs	r3, #100
 542 00c4 FB18     		adds	r3, r7, r3
 543 00c6 9A61     		str	r2, [r3, #24]
 217:Impedance.c   **** 
 218:Impedance.c   ****   HsLoopCfg.HsTiaCfg.DiodeClose = bFALSE;
 544              		.loc 1 218 0
 545 00c8 6423     		movs	r3, #100
 546 00ca FB18     		adds	r3, r7, r3
 547 00cc 6022     		movs	r2, #96
 548 00ce 0021     		movs	r1, #0
 549 00d0 9954     		strb	r1, [r3, r2]
 219:Impedance.c   **** 	if(AppIMPCfg.BiasVolt != 0.0f)    /* With bias voltage */
 550              		.loc 1 219 0
 551 00d2 AD4B     		ldr	r3, .L62+4
 552 00d4 5B6D     		ldr	r3, [r3, #84]
 553 00d6 0021     		movs	r1, #0
 554 00d8 181C     		adds	r0, r3, #0
 555 00da FFF7FEFF 		bl	__aeabi_fcmpeq
 556 00de 031E     		subs	r3, r0, #0
 557 00e0 04D1     		bne	.L60
 220:Impedance.c   **** 		HsLoopCfg.HsTiaCfg.HstiaBias = HSTIABIAS_VZERO0;
 558              		.loc 1 220 0
 559 00e2 6423     		movs	r3, #100
 560 00e4 FB18     		adds	r3, r7, r3
 561 00e6 0122     		movs	r2, #1
 562 00e8 1A65     		str	r2, [r3, #80]
 563 00ea 03E0     		b	.L37
 564              	.L60:
 221:Impedance.c   **** 	else
 222:Impedance.c   **** 		HsLoopCfg.HsTiaCfg.HstiaBias = HSTIABIAS_1P1;
 565              		.loc 1 222 0
 566 00ec 6423     		movs	r3, #100
 567 00ee FB18     		adds	r3, r7, r3
 568 00f0 0022     		movs	r2, #0
ARM GAS  C:\Users\13740\AppData\Local\Temp\cctWuNXI.s 			page 15


 569 00f2 1A65     		str	r2, [r3, #80]
 570              	.L37:
 223:Impedance.c   ****   HsLoopCfg.HsTiaCfg.HstiaCtia = 31; /* 31pF + 2pF */
 571              		.loc 1 223 0
 572 00f4 6423     		movs	r3, #100
 573 00f6 FB18     		adds	r3, r7, r3
 574 00f8 1F22     		movs	r2, #31
 575 00fa DA65     		str	r2, [r3, #92]
 224:Impedance.c   ****   HsLoopCfg.HsTiaCfg.HstiaDeRload = HSTIADERLOAD_OPEN;
 576              		.loc 1 224 0
 577 00fc 6423     		movs	r3, #100
 578 00fe FB18     		adds	r3, r7, r3
 579 0100 0522     		movs	r2, #5
 580 0102 9A66     		str	r2, [r3, #104]
 225:Impedance.c   ****   HsLoopCfg.HsTiaCfg.HstiaDeRtia = HSTIADERTIA_OPEN;
 581              		.loc 1 225 0
 582 0104 6423     		movs	r3, #100
 583 0106 FB18     		adds	r3, r7, r3
 584 0108 0B22     		movs	r2, #11
 585 010a 5A66     		str	r2, [r3, #100]
 226:Impedance.c   ****   HsLoopCfg.HsTiaCfg.HstiaRtiaSel = AppIMPCfg.HstiaRtiaSel;
 586              		.loc 1 226 0
 587 010c 9E4B     		ldr	r3, .L62+4
 588 010e 1A6C     		ldr	r2, [r3, #64]
 589 0110 6423     		movs	r3, #100
 590 0112 FB18     		adds	r3, r7, r3
 591 0114 5A65     		str	r2, [r3, #84]
 227:Impedance.c   **** 
 228:Impedance.c   ****   HsLoopCfg.SWMatCfg.Dswitch = AppIMPCfg.DswitchSel;
 592              		.loc 1 228 0
 593 0116 9C4B     		ldr	r3, .L62+4
 594 0118 DA6A     		ldr	r2, [r3, #44]
 595 011a 6423     		movs	r3, #100
 596 011c FB18     		adds	r3, r7, r3
 597 011e 1A60     		str	r2, [r3]
 229:Impedance.c   ****   HsLoopCfg.SWMatCfg.Pswitch = AppIMPCfg.PswitchSel;
 598              		.loc 1 229 0
 599 0120 994B     		ldr	r3, .L62+4
 600 0122 1A6B     		ldr	r2, [r3, #48]
 601 0124 6423     		movs	r3, #100
 602 0126 FB18     		adds	r3, r7, r3
 603 0128 5A60     		str	r2, [r3, #4]
 230:Impedance.c   ****   HsLoopCfg.SWMatCfg.Nswitch = AppIMPCfg.NswitchSel;
 604              		.loc 1 230 0
 605 012a 974B     		ldr	r3, .L62+4
 606 012c 5A6B     		ldr	r2, [r3, #52]
 607 012e 6423     		movs	r3, #100
 608 0130 FB18     		adds	r3, r7, r3
 609 0132 9A60     		str	r2, [r3, #8]
 231:Impedance.c   ****   HsLoopCfg.SWMatCfg.Tswitch = SWT_TRTIA|AppIMPCfg.TswitchSel;
 610              		.loc 1 231 0
 611 0134 944B     		ldr	r3, .L62+4
 612 0136 9B6B     		ldr	r3, [r3, #56]
 613 0138 8022     		movs	r2, #128
 614 013a 5200     		lsls	r2, r2, #1
 615 013c 1A43     		orrs	r2, r3
 616 013e 6423     		movs	r3, #100
ARM GAS  C:\Users\13740\AppData\Local\Temp\cctWuNXI.s 			page 16


 617 0140 FB18     		adds	r3, r7, r3
 618 0142 DA60     		str	r2, [r3, #12]
 232:Impedance.c   **** 
 233:Impedance.c   ****   HsLoopCfg.WgCfg.WgType = WGTYPE_SIN;
 619              		.loc 1 233 0
 620 0144 6423     		movs	r3, #100
 621 0146 FB18     		adds	r3, r7, r3
 622 0148 0222     		movs	r2, #2
 623 014a DA61     		str	r2, [r3, #28]
 234:Impedance.c   ****   HsLoopCfg.WgCfg.GainCalEn = bTRUE;
 624              		.loc 1 234 0
 625 014c 6423     		movs	r3, #100
 626 014e FB18     		adds	r3, r7, r3
 627 0150 2022     		movs	r2, #32
 628 0152 0121     		movs	r1, #1
 629 0154 9954     		strb	r1, [r3, r2]
 235:Impedance.c   ****   HsLoopCfg.WgCfg.OffsetCalEn = bTRUE;
 630              		.loc 1 235 0
 631 0156 6423     		movs	r3, #100
 632 0158 FB18     		adds	r3, r7, r3
 633 015a 2122     		movs	r2, #33
 634 015c 0121     		movs	r1, #1
 635 015e 9954     		strb	r1, [r3, r2]
 236:Impedance.c   ****   if(AppIMPCfg.SweepCfg.SweepEn == bTRUE)
 636              		.loc 1 236 0
 637 0160 894B     		ldr	r3, .L62+4
 638 0162 7022     		movs	r2, #112
 639 0164 9B5C     		ldrb	r3, [r3, r2]
 640 0166 012B     		cmp	r3, #1
 641 0168 16D1     		bne	.L38
 237:Impedance.c   ****   {
 238:Impedance.c   ****     AppIMPCfg.FreqofData = AppIMPCfg.SweepCfg.SweepStart;
 642              		.loc 1 238 0
 643 016a 874B     		ldr	r3, .L62+4
 644 016c 5A6F     		ldr	r2, [r3, #116]
 645 016e 864B     		ldr	r3, .L62+4
 646 0170 9421     		movs	r1, #148
 647 0172 5A50     		str	r2, [r3, r1]
 239:Impedance.c   ****     AppIMPCfg.SweepCurrFreq = AppIMPCfg.SweepCfg.SweepStart;
 648              		.loc 1 239 0
 649 0174 844B     		ldr	r3, .L62+4
 650 0176 5A6F     		ldr	r2, [r3, #116]
 651 0178 834B     		ldr	r3, .L62+4
 652 017a 8C21     		movs	r1, #140
 653 017c 5A50     		str	r2, [r3, r1]
 240:Impedance.c   ****     AD5940_SweepNext(&AppIMPCfg.SweepCfg, &AppIMPCfg.SweepNextFreq);
 654              		.loc 1 240 0
 655 017e 834A     		ldr	r2, .L62+8
 656 0180 834B     		ldr	r3, .L62+12
 657 0182 1100     		movs	r1, r2
 658 0184 1800     		movs	r0, r3
 659 0186 FFF7FEFF 		bl	AD5940_SweepNext
 241:Impedance.c   ****     sin_freq = AppIMPCfg.SweepCurrFreq;
 660              		.loc 1 241 0
 661 018a 7F4B     		ldr	r3, .L62+4
 662 018c 8C22     		movs	r2, #140
 663 018e 9B58     		ldr	r3, [r3, r2]
ARM GAS  C:\Users\13740\AppData\Local\Temp\cctWuNXI.s 			page 17


 664 0190 F422     		movs	r2, #244
 665 0192 BA18     		adds	r2, r7, r2
 666 0194 1360     		str	r3, [r2]
 667 0196 0AE0     		b	.L39
 668              	.L38:
 242:Impedance.c   ****   }
 243:Impedance.c   ****   else
 244:Impedance.c   ****   {
 245:Impedance.c   ****     sin_freq = AppIMPCfg.SinFreq;
 669              		.loc 1 245 0
 670 0198 7B4B     		ldr	r3, .L62+4
 671 019a 9B6D     		ldr	r3, [r3, #88]
 672 019c F422     		movs	r2, #244
 673 019e BA18     		adds	r2, r7, r2
 674 01a0 1360     		str	r3, [r2]
 246:Impedance.c   ****     AppIMPCfg.FreqofData = sin_freq;
 675              		.loc 1 246 0
 676 01a2 794B     		ldr	r3, .L62+4
 677 01a4 9421     		movs	r1, #148
 678 01a6 F422     		movs	r2, #244
 679 01a8 BA18     		adds	r2, r7, r2
 680 01aa 1268     		ldr	r2, [r2]
 681 01ac 5A50     		str	r2, [r3, r1]
 682              	.L39:
 247:Impedance.c   ****   }
 248:Impedance.c   ****   HsLoopCfg.WgCfg.SinCfg.SinFreqWord = AD5940_WGFreqWordCal(sin_freq, AppIMPCfg.SysClkFreq);
 683              		.loc 1 248 0
 684 01ae 764B     		ldr	r3, .L62+4
 685 01b0 1A6A     		ldr	r2, [r3, #32]
 686 01b2 F423     		movs	r3, #244
 687 01b4 FB18     		adds	r3, r7, r3
 688 01b6 1B68     		ldr	r3, [r3]
 689 01b8 111C     		adds	r1, r2, #0
 690 01ba 181C     		adds	r0, r3, #0
 691 01bc FFF7FEFF 		bl	AD5940_WGFreqWordCal
 692 01c0 0200     		movs	r2, r0
 693 01c2 6423     		movs	r3, #100
 694 01c4 FB18     		adds	r3, r7, r3
 695 01c6 DA63     		str	r2, [r3, #60]
 249:Impedance.c   ****   HsLoopCfg.WgCfg.SinCfg.SinAmplitudeWord = (uint32_t)(AppIMPCfg.DacVoltPP/800.0f*2047 + 0.5f);
 696              		.loc 1 249 0
 697 01c8 6F4B     		ldr	r3, .L62+4
 698 01ca 1B6D     		ldr	r3, [r3, #80]
 699 01cc 7149     		ldr	r1, .L62+16
 700 01ce 181C     		adds	r0, r3, #0
 701 01d0 FFF7FEFF 		bl	__aeabi_fdiv
 702 01d4 031C     		adds	r3, r0, #0
 703 01d6 7049     		ldr	r1, .L62+20
 704 01d8 181C     		adds	r0, r3, #0
 705 01da FFF7FEFF 		bl	__aeabi_fmul
 706 01de 031C     		adds	r3, r0, #0
 707 01e0 FC21     		movs	r1, #252
 708 01e2 8905     		lsls	r1, r1, #22
 709 01e4 181C     		adds	r0, r3, #0
 710 01e6 FFF7FEFF 		bl	__aeabi_fadd
 711 01ea 031C     		adds	r3, r0, #0
 712 01ec 181C     		adds	r0, r3, #0
ARM GAS  C:\Users\13740\AppData\Local\Temp\cctWuNXI.s 			page 18


 713 01ee FFF7FEFF 		bl	__aeabi_f2uiz
 714 01f2 0200     		movs	r2, r0
 715 01f4 6423     		movs	r3, #100
 716 01f6 FB18     		adds	r3, r7, r3
 717 01f8 1A64     		str	r2, [r3, #64]
 250:Impedance.c   ****   HsLoopCfg.WgCfg.SinCfg.SinOffsetWord = 0;
 718              		.loc 1 250 0
 719 01fa 6423     		movs	r3, #100
 720 01fc FB18     		adds	r3, r7, r3
 721 01fe 0022     		movs	r2, #0
 722 0200 5A64     		str	r2, [r3, #68]
 251:Impedance.c   ****   HsLoopCfg.WgCfg.SinCfg.SinPhaseWord = 0;
 723              		.loc 1 251 0
 724 0202 6423     		movs	r3, #100
 725 0204 FB18     		adds	r3, r7, r3
 726 0206 0022     		movs	r2, #0
 727 0208 9A64     		str	r2, [r3, #72]
 252:Impedance.c   ****   AD5940_HSLoopCfgS(&HsLoopCfg);
 728              		.loc 1 252 0
 729 020a 6423     		movs	r3, #100
 730 020c FB18     		adds	r3, r7, r3
 731 020e 1800     		movs	r0, r3
 732 0210 FFF7FEFF 		bl	AD5940_HSLoopCfgS
 253:Impedance.c   ****   if(AppIMPCfg.BiasVolt != 0.0f)    /* With bias voltage */
 733              		.loc 1 253 0
 734 0214 5C4B     		ldr	r3, .L62+4
 735 0216 5B6D     		ldr	r3, [r3, #84]
 736 0218 0021     		movs	r1, #0
 737 021a 181C     		adds	r0, r3, #0
 738 021c FFF7FEFF 		bl	__aeabi_fcmpeq
 739 0220 031E     		subs	r3, r0, #0
 740 0222 47D1     		bne	.L40
 741              	.LBB4:
 254:Impedance.c   ****   {
 255:Impedance.c   ****     LPDACCfg_Type lpdac_cfg;
 256:Impedance.c   ****     
 257:Impedance.c   ****     lpdac_cfg.LpdacSel = LPDAC0;
 742              		.loc 1 257 0
 743 0224 3B00     		movs	r3, r7
 744 0226 0022     		movs	r2, #0
 745 0228 1A60     		str	r2, [r3]
 258:Impedance.c   ****     lpdac_cfg.LpDacVbiasMux = LPDACVBIAS_12BIT; /* Use Vbias to tuning BiasVolt. */
 746              		.loc 1 258 0
 747 022a 3B00     		movs	r3, r7
 748 022c 0022     		movs	r2, #0
 749 022e DA60     		str	r2, [r3, #12]
 259:Impedance.c   ****     lpdac_cfg.LpDacVzeroMux = LPDACVZERO_6BIT;  /* Vbias-Vzero = BiasVolt */
 750              		.loc 1 259 0
 751 0230 3B00     		movs	r3, r7
 752 0232 0022     		movs	r2, #0
 753 0234 9A60     		str	r2, [r3, #8]
 260:Impedance.c   ****     lpdac_cfg.DacData6Bit = 0x40>>1;            /* Set Vzero to middle scale. */
 754              		.loc 1 260 0
 755 0236 3B00     		movs	r3, r7
 756 0238 2022     		movs	r2, #32
 757 023a 9A83     		strh	r2, [r3, #28]
 261:Impedance.c   ****     if(AppIMPCfg.BiasVolt<-1100.0f) AppIMPCfg.BiasVolt = -1100.0f + DAC12BITVOLT_1LSB;
ARM GAS  C:\Users\13740\AppData\Local\Temp\cctWuNXI.s 			page 19


 758              		.loc 1 261 0
 759 023c 524B     		ldr	r3, .L62+4
 760 023e 5B6D     		ldr	r3, [r3, #84]
 761 0240 5649     		ldr	r1, .L62+24
 762 0242 181C     		adds	r0, r3, #0
 763 0244 FFF7FEFF 		bl	__aeabi_fcmplt
 764 0248 031E     		subs	r3, r0, #0
 765 024a 02D0     		beq	.L42
 766              		.loc 1 261 0 is_stmt 0 discriminator 1
 767 024c 4E4B     		ldr	r3, .L62+4
 768 024e 544A     		ldr	r2, .L62+28
 769 0250 5A65     		str	r2, [r3, #84]
 770              	.L42:
 262:Impedance.c   ****     if(AppIMPCfg.BiasVolt> 1100.0f) AppIMPCfg.BiasVolt = 1100.0f - DAC12BITVOLT_1LSB;
 771              		.loc 1 262 0 is_stmt 1
 772 0252 4D4B     		ldr	r3, .L62+4
 773 0254 5B6D     		ldr	r3, [r3, #84]
 774 0256 5349     		ldr	r1, .L62+32
 775 0258 181C     		adds	r0, r3, #0
 776 025a FFF7FEFF 		bl	__aeabi_fcmpgt
 777 025e 031E     		subs	r3, r0, #0
 778 0260 02D0     		beq	.L44
 779              		.loc 1 262 0 is_stmt 0 discriminator 1
 780 0262 494B     		ldr	r3, .L62+4
 781 0264 504A     		ldr	r2, .L62+36
 782 0266 5A65     		str	r2, [r3, #84]
 783              	.L44:
 263:Impedance.c   ****     lpdac_cfg.DacData12Bit = (uint32_t)((AppIMPCfg.BiasVolt + 1100.0f)/DAC12BITVOLT_1LSB);
 784              		.loc 1 263 0 is_stmt 1
 785 0268 474B     		ldr	r3, .L62+4
 786 026a 5B6D     		ldr	r3, [r3, #84]
 787 026c 4D49     		ldr	r1, .L62+32
 788 026e 181C     		adds	r0, r3, #0
 789 0270 FFF7FEFF 		bl	__aeabi_fadd
 790 0274 031C     		adds	r3, r0, #0
 791 0276 4D49     		ldr	r1, .L62+40
 792 0278 181C     		adds	r0, r3, #0
 793 027a FFF7FEFF 		bl	__aeabi_fdiv
 794 027e 031C     		adds	r3, r0, #0
 795 0280 181C     		adds	r0, r3, #0
 796 0282 FFF7FEFF 		bl	__aeabi_f2uiz
 797 0286 0300     		movs	r3, r0
 798 0288 9AB2     		uxth	r2, r3
 799 028a 3B00     		movs	r3, r7
 800 028c 5A83     		strh	r2, [r3, #26]
 264:Impedance.c   ****     lpdac_cfg.DataRst = bFALSE;      /* Do not reset data register */
 801              		.loc 1 264 0
 802 028e 3B00     		movs	r3, r7
 803 0290 0022     		movs	r2, #0
 804 0292 1A76     		strb	r2, [r3, #24]
 265:Impedance.c   ****     lpdac_cfg.LpDacSW = LPDACSW_VBIAS2LPPA|LPDACSW_VBIAS2PIN|LPDACSW_VZERO2LPTIA|LPDACSW_VZERO2PIN|
 805              		.loc 1 265 0
 806 0294 3B00     		movs	r3, r7
 807 0296 1F22     		movs	r2, #31
 808 0298 1A61     		str	r2, [r3, #16]
 266:Impedance.c   ****     lpdac_cfg.LpDacRef = LPDACREF_2P5;
 809              		.loc 1 266 0
ARM GAS  C:\Users\13740\AppData\Local\Temp\cctWuNXI.s 			page 20


 810 029a 3B00     		movs	r3, r7
 811 029c 0022     		movs	r2, #0
 812 029e 5A61     		str	r2, [r3, #20]
 267:Impedance.c   ****     lpdac_cfg.LpDacSrc = LPDACSRC_MMR;      /* Use MMR data, we use LPDAC to generate bias voltage 
 813              		.loc 1 267 0
 814 02a0 3B00     		movs	r3, r7
 815 02a2 0022     		movs	r2, #0
 816 02a4 5A60     		str	r2, [r3, #4]
 268:Impedance.c   ****     lpdac_cfg.PowerEn = bTRUE;              /* Power up LPDAC */
 817              		.loc 1 268 0
 818 02a6 3B00     		movs	r3, r7
 819 02a8 0122     		movs	r2, #1
 820 02aa 5A76     		strb	r2, [r3, #25]
 269:Impedance.c   ****     AD5940_LPDACCfgS(&lpdac_cfg);
 821              		.loc 1 269 0
 822 02ac 3B00     		movs	r3, r7
 823 02ae 1800     		movs	r0, r3
 824 02b0 FFF7FEFF 		bl	AD5940_LPDACCfgS
 825              	.L40:
 826              	.LBE4:
 270:Impedance.c   ****   }
 271:Impedance.c   ****   dsp_cfg.ADCBaseCfg.ADCMuxN = ADCMUXN_HSTIA_N;
 827              		.loc 1 271 0
 828 02b4 2023     		movs	r3, #32
 829 02b6 FB18     		adds	r3, r7, r3
 830 02b8 0122     		movs	r2, #1
 831 02ba 5A60     		str	r2, [r3, #4]
 272:Impedance.c   ****   dsp_cfg.ADCBaseCfg.ADCMuxP = ADCMUXP_HSTIA_P;
 832              		.loc 1 272 0
 833 02bc 2023     		movs	r3, #32
 834 02be FB18     		adds	r3, r7, r3
 835 02c0 0122     		movs	r2, #1
 836 02c2 1A60     		str	r2, [r3]
 273:Impedance.c   ****   dsp_cfg.ADCBaseCfg.ADCPga = AppIMPCfg.AdcPgaGain;
 837              		.loc 1 273 0
 838 02c4 304B     		ldr	r3, .L62+4
 839 02c6 9A6E     		ldr	r2, [r3, #104]
 840 02c8 2023     		movs	r3, #32
 841 02ca FB18     		adds	r3, r7, r3
 842 02cc 9A60     		str	r2, [r3, #8]
 274:Impedance.c   ****   
 275:Impedance.c   ****   memset(&dsp_cfg.ADCDigCompCfg, 0, sizeof(dsp_cfg.ADCDigCompCfg));
 843              		.loc 1 275 0
 844 02ce 2023     		movs	r3, #32
 845 02d0 FB18     		adds	r3, r7, r3
 846 02d2 2433     		adds	r3, r3, #36
 847 02d4 0822     		movs	r2, #8
 848 02d6 0021     		movs	r1, #0
 849 02d8 1800     		movs	r0, r3
 850 02da FFF7FEFF 		bl	memset
 276:Impedance.c   ****   
 277:Impedance.c   ****   dsp_cfg.ADCFilterCfg.ADCAvgNum = AppIMPCfg.ADCAvgNum;
 851              		.loc 1 277 0
 852 02de 2A4B     		ldr	r3, .L62+4
 853 02e0 6E22     		movs	r2, #110
 854 02e2 9B5C     		ldrb	r3, [r3, r2]
 855 02e4 1A00     		movs	r2, r3
ARM GAS  C:\Users\13740\AppData\Local\Temp\cctWuNXI.s 			page 21


 856 02e6 2023     		movs	r3, #32
 857 02e8 FB18     		adds	r3, r7, r3
 858 02ea 5A61     		str	r2, [r3, #20]
 278:Impedance.c   ****   dsp_cfg.ADCFilterCfg.ADCRate = ADCRATE_800KHZ;	/* Tell filter block clock rate of ADC*/
 859              		.loc 1 278 0
 860 02ec 2023     		movs	r3, #32
 861 02ee FB18     		adds	r3, r7, r3
 862 02f0 0122     		movs	r2, #1
 863 02f2 9A61     		str	r2, [r3, #24]
 279:Impedance.c   ****   dsp_cfg.ADCFilterCfg.ADCSinc2Osr = AppIMPCfg.ADCSinc2Osr;
 864              		.loc 1 279 0
 865 02f4 244B     		ldr	r3, .L62+4
 866 02f6 6D22     		movs	r2, #109
 867 02f8 9B5C     		ldrb	r3, [r3, r2]
 868 02fa 1A00     		movs	r2, r3
 869 02fc 2023     		movs	r3, #32
 870 02fe FB18     		adds	r3, r7, r3
 871 0300 1A61     		str	r2, [r3, #16]
 280:Impedance.c   ****   dsp_cfg.ADCFilterCfg.ADCSinc3Osr = AppIMPCfg.ADCSinc3Osr;
 872              		.loc 1 280 0
 873 0302 214B     		ldr	r3, .L62+4
 874 0304 6C22     		movs	r2, #108
 875 0306 9B5C     		ldrb	r3, [r3, r2]
 876 0308 1A00     		movs	r2, r3
 877 030a 2023     		movs	r3, #32
 878 030c FB18     		adds	r3, r7, r3
 879 030e DA60     		str	r2, [r3, #12]
 281:Impedance.c   ****   dsp_cfg.ADCFilterCfg.BpNotch = bTRUE;
 880              		.loc 1 281 0
 881 0310 2023     		movs	r3, #32
 882 0312 FB18     		adds	r3, r7, r3
 883 0314 0122     		movs	r2, #1
 884 0316 1A77     		strb	r2, [r3, #28]
 282:Impedance.c   ****   dsp_cfg.ADCFilterCfg.BpSinc3 = bFALSE;
 885              		.loc 1 282 0
 886 0318 2023     		movs	r3, #32
 887 031a FB18     		adds	r3, r7, r3
 888 031c 0022     		movs	r2, #0
 889 031e 5A77     		strb	r2, [r3, #29]
 283:Impedance.c   ****   dsp_cfg.ADCFilterCfg.Sinc2NotchEnable = bTRUE;
 890              		.loc 1 283 0
 891 0320 2023     		movs	r3, #32
 892 0322 FB18     		adds	r3, r7, r3
 893 0324 2022     		movs	r2, #32
 894 0326 0121     		movs	r1, #1
 895 0328 9954     		strb	r1, [r3, r2]
 284:Impedance.c   ****   dsp_cfg.DftCfg.DftNum = AppIMPCfg.DftNum;
 896              		.loc 1 284 0
 897 032a 174B     		ldr	r3, .L62+4
 898 032c DA6D     		ldr	r2, [r3, #92]
 899 032e 2023     		movs	r3, #32
 900 0330 FB18     		adds	r3, r7, r3
 901 0332 DA62     		str	r2, [r3, #44]
 285:Impedance.c   ****   dsp_cfg.DftCfg.DftSrc = AppIMPCfg.DftSrc;
 902              		.loc 1 285 0
 903 0334 144B     		ldr	r3, .L62+4
 904 0336 1A6E     		ldr	r2, [r3, #96]
ARM GAS  C:\Users\13740\AppData\Local\Temp\cctWuNXI.s 			page 22


 905 0338 2023     		movs	r3, #32
 906 033a FB18     		adds	r3, r7, r3
 907 033c 1A63     		str	r2, [r3, #48]
 286:Impedance.c   ****   dsp_cfg.DftCfg.HanWinEn = AppIMPCfg.HanWinEn;
 908              		.loc 1 286 0
 909 033e 124B     		ldr	r3, .L62+4
 910 0340 6422     		movs	r2, #100
 911 0342 995C     		ldrb	r1, [r3, r2]
 912 0344 2023     		movs	r3, #32
 913 0346 FB18     		adds	r3, r7, r3
 914 0348 3422     		movs	r2, #52
 915 034a 9954     		strb	r1, [r3, r2]
 287:Impedance.c   ****   
 288:Impedance.c   ****   memset(&dsp_cfg.StatCfg, 0, sizeof(dsp_cfg.StatCfg));
 916              		.loc 1 288 0
 917 034c 2023     		movs	r3, #32
 918 034e FB18     		adds	r3, r7, r3
 919 0350 3833     		adds	r3, r3, #56
 920 0352 0C22     		movs	r2, #12
 921 0354 0021     		movs	r1, #0
 922 0356 1800     		movs	r0, r3
 923 0358 FFF7FEFF 		bl	memset
 289:Impedance.c   ****   AD5940_DSPCfgS(&dsp_cfg);
 924              		.loc 1 289 0
 925 035c 2023     		movs	r3, #32
 926 035e FB18     		adds	r3, r7, r3
 927 0360 1800     		movs	r0, r3
 928 0362 FFF7FEFF 		bl	AD5940_DSPCfgS
 290:Impedance.c   ****     
 291:Impedance.c   ****   /* Enable all of them. They are automatically turned off during hibernate mode to save power */
 292:Impedance.c   ****   if(AppIMPCfg.BiasVolt == 0.0f)
 929              		.loc 1 292 0
 930 0366 084B     		ldr	r3, .L62+4
 931 0368 5B6D     		ldr	r3, [r3, #84]
 932 036a 0021     		movs	r1, #0
 933 036c 181C     		adds	r0, r3, #0
 934 036e FFF7FEFF 		bl	__aeabi_fcmpeq
 935 0372 031E     		subs	r3, r0, #0
 936 0374 1ED0     		beq	.L61
 293:Impedance.c   ****     AD5940_AFECtrlS(AFECTRL_HSTIAPWR|AFECTRL_INAMPPWR|AFECTRL_EXTBUFPWR|\
 937              		.loc 1 293 0
 938 0376 0E4B     		ldr	r3, .L62+44
 939 0378 0121     		movs	r1, #1
 940 037a 1800     		movs	r0, r3
 941 037c FFF7FEFF 		bl	AD5940_AFECtrlS
 942 0380 1DE0     		b	.L48
 943              	.L63:
 944 0382 C046     		.align	2
 945              	.L62:
 946 0384 E0FF3900 		.word	3801056
 947 0388 00000000 		.word	AppIMPCfg
 948 038c 90000000 		.word	AppIMPCfg+144
 949 0390 70000000 		.word	AppIMPCfg+112
 950 0394 00004844 		.word	1145569280
 951 0398 00E0FF44 		.word	1157619712
 952 039c 008089C4 		.word	-997621760
 953 03a0 CF6E89C4 		.word	-997626161
ARM GAS  C:\Users\13740\AppData\Local\Temp\cctWuNXI.s 			page 23


 954 03a4 00808944 		.word	1149861888
 955 03a8 CF6E8944 		.word	1149857487
 956 03ac 9988093F 		.word	1057589401
 957 03b0 404E1100 		.word	1134144
 958              	.L61:
 294:Impedance.c   ****                 AFECTRL_WG|AFECTRL_DACREFPWR|AFECTRL_HSDACPWR|\
 295:Impedance.c   ****                 AFECTRL_SINC2NOTCH, bTRUE);
 296:Impedance.c   ****   else
 297:Impedance.c   ****     AD5940_AFECtrlS(AFECTRL_HSTIAPWR|AFECTRL_INAMPPWR|AFECTRL_EXTBUFPWR|\
 959              		.loc 1 297 0
 960 03b4 234B     		ldr	r3, .L64
 961 03b6 0121     		movs	r1, #1
 962 03b8 1800     		movs	r0, r3
 963 03ba FFF7FEFF 		bl	AD5940_AFECtrlS
 964              	.L48:
 298:Impedance.c   ****                 AFECTRL_WG|AFECTRL_DACREFPWR|AFECTRL_HSDACPWR|\
 299:Impedance.c   ****                 AFECTRL_SINC2NOTCH|AFECTRL_DCBUFPWR, bTRUE);
 300:Impedance.c   ****     /* Sequence end. */
 301:Impedance.c   ****   AD5940_SEQGenInsert(SEQ_STOP()); /* Add one extra command to disable sequencer for initialization
 965              		.loc 1 301 0
 966 03be 8123     		movs	r3, #129
 967 03c0 1B06     		lsls	r3, r3, #24
 968 03c2 1800     		movs	r0, r3
 969 03c4 FFF7FEFF 		bl	AD5940_SEQGenInsert
 302:Impedance.c   **** 
 303:Impedance.c   ****   /* Stop here */
 304:Impedance.c   ****   error = AD5940_SEQGenFetchSeq(&pSeqCmd, &SeqLen);
 970              		.loc 1 304 0
 971 03c8 E823     		movs	r3, #232
 972 03ca FA18     		adds	r2, r7, r3
 973 03cc EC23     		movs	r3, #236
 974 03ce FB18     		adds	r3, r7, r3
 975 03d0 1100     		movs	r1, r2
 976 03d2 1800     		movs	r0, r3
 977 03d4 FFF7FEFF 		bl	AD5940_SEQGenFetchSeq
 978 03d8 0300     		movs	r3, r0
 979 03da F022     		movs	r2, #240
 980 03dc BA18     		adds	r2, r7, r2
 981 03de 1360     		str	r3, [r2]
 305:Impedance.c   ****   AD5940_SEQGenCtrl(bFALSE); /* Stop sequencer generator */
 982              		.loc 1 305 0
 983 03e0 0020     		movs	r0, #0
 984 03e2 FFF7FEFF 		bl	AD5940_SEQGenCtrl
 306:Impedance.c   ****   if(error == AD5940ERR_OK)
 985              		.loc 1 306 0
 986 03e6 F023     		movs	r3, #240
 987 03e8 FB18     		adds	r3, r7, r3
 988 03ea 1B68     		ldr	r3, [r3]
 989 03ec 002B     		cmp	r3, #0
 990 03ee 22D1     		bne	.L49
 307:Impedance.c   ****   {
 308:Impedance.c   ****     AppIMPCfg.InitSeqInfo.SeqId = SEQID_1;
 991              		.loc 1 308 0
 992 03f0 154B     		ldr	r3, .L64+4
 993 03f2 9C22     		movs	r2, #156
 994 03f4 0121     		movs	r1, #1
 995 03f6 9950     		str	r1, [r3, r2]
ARM GAS  C:\Users\13740\AppData\Local\Temp\cctWuNXI.s 			page 24


 309:Impedance.c   ****     AppIMPCfg.InitSeqInfo.SeqRamAddr = AppIMPCfg.SeqStartAddr;
 996              		.loc 1 309 0
 997 03f8 134B     		ldr	r3, .L64+4
 998 03fa 5A68     		ldr	r2, [r3, #4]
 999 03fc 124B     		ldr	r3, .L64+4
 1000 03fe A021     		movs	r1, #160
 1001 0400 5A50     		str	r2, [r3, r1]
 310:Impedance.c   ****     AppIMPCfg.InitSeqInfo.pSeqCmd = pSeqCmd;
 1002              		.loc 1 310 0
 1003 0402 EC23     		movs	r3, #236
 1004 0404 FB18     		adds	r3, r7, r3
 1005 0406 1A68     		ldr	r2, [r3]
 1006 0408 0F4B     		ldr	r3, .L64+4
 1007 040a AC21     		movs	r1, #172
 1008 040c 5A50     		str	r2, [r3, r1]
 311:Impedance.c   ****     AppIMPCfg.InitSeqInfo.SeqLen = SeqLen;
 1009              		.loc 1 311 0
 1010 040e E823     		movs	r3, #232
 1011 0410 FB18     		adds	r3, r7, r3
 1012 0412 1A68     		ldr	r2, [r3]
 1013 0414 0C4B     		ldr	r3, .L64+4
 1014 0416 A421     		movs	r1, #164
 1015 0418 5A50     		str	r2, [r3, r1]
 312:Impedance.c   ****     /* Write command to SRAM */
 313:Impedance.c   ****     AD5940_SEQCmdWrite(AppIMPCfg.InitSeqInfo.SeqRamAddr, pSeqCmd, SeqLen);
 1016              		.loc 1 313 0
 1017 041a 0B4B     		ldr	r3, .L64+4
 1018 041c A022     		movs	r2, #160
 1019 041e 9B58     		ldr	r3, [r3, r2]
 1020 0420 EC22     		movs	r2, #236
 1021 0422 BA18     		adds	r2, r7, r2
 1022 0424 1168     		ldr	r1, [r2]
 1023 0426 E822     		movs	r2, #232
 1024 0428 BA18     		adds	r2, r7, r2
 1025 042a 1268     		ldr	r2, [r2]
 1026 042c 1800     		movs	r0, r3
 1027 042e FFF7FEFF 		bl	AD5940_SEQCmdWrite
 314:Impedance.c   ****   }
 315:Impedance.c   ****   else
 316:Impedance.c   ****     return error; /* Error */
 317:Impedance.c   ****   return AD5940ERR_OK;
 1028              		.loc 1 317 0
 1029 0432 0023     		movs	r3, #0
 1030 0434 02E0     		b	.L52
 1031              	.L49:
 316:Impedance.c   ****   return AD5940ERR_OK;
 1032              		.loc 1 316 0
 1033 0436 F023     		movs	r3, #240
 1034 0438 FB18     		adds	r3, r7, r3
 1035 043a 1B68     		ldr	r3, [r3]
 1036              	.L52:
 318:Impedance.c   **** }
 1037              		.loc 1 318 0 discriminator 1
 1038 043c 1800     		movs	r0, r3
 1039 043e BD46     		mov	sp, r7
 1040 0440 3EB0     		add	sp, sp, #248
 1041              		@ sp needed
ARM GAS  C:\Users\13740\AppData\Local\Temp\cctWuNXI.s 			page 25


 1042 0442 80BD     		pop	{r7, pc}
 1043              	.L65:
 1044              		.align	2
 1045              	.L64:
 1046 0444 404E3100 		.word	3231296
 1047 0448 00000000 		.word	AppIMPCfg
 1048              		.cfi_endproc
 1049              	.LFE4:
 1050              		.size	AppIMPSeqCfgGen, .-AppIMPSeqCfgGen
 1051              		.section	.text.AppIMPSeqMeasureGen,"ax",%progbits
 1052              		.align	2
 1053              		.code	16
 1054              		.thumb_func
 1055              		.type	AppIMPSeqMeasureGen, %function
 1056              	AppIMPSeqMeasureGen:
 1057              	.LFB5:
 319:Impedance.c   **** 
 320:Impedance.c   **** 
 321:Impedance.c   **** static AD5940Err AppIMPSeqMeasureGen(void)
 322:Impedance.c   **** {
 1058              		.loc 1 322 0
 1059              		.cfi_startproc
 1060              		@ args = 0, pretend = 0, frame = 64
 1061              		@ frame_needed = 1, uses_anonymous_args = 0
 1062 0000 80B5     		push	{r7, lr}
 1063              		.cfi_def_cfa_offset 8
 1064              		.cfi_offset 7, -8
 1065              		.cfi_offset 14, -4
 1066 0002 90B0     		sub	sp, sp, #64
 1067              		.cfi_def_cfa_offset 72
 1068 0004 00AF     		add	r7, sp, #0
 1069              		.cfi_def_cfa_register 7
 323:Impedance.c   ****   AD5940Err error = AD5940ERR_OK;
 1070              		.loc 1 323 0
 1071 0006 0023     		movs	r3, #0
 1072 0008 FB63     		str	r3, [r7, #60]
 324:Impedance.c   ****   const uint32_t *pSeqCmd;
 325:Impedance.c   ****   uint32_t SeqLen;
 326:Impedance.c   ****   
 327:Impedance.c   ****   uint32_t WaitClks;
 328:Impedance.c   ****   SWMatrixCfg_Type sw_cfg;
 329:Impedance.c   ****   ClksCalInfo_Type clks_cal;
 330:Impedance.c   **** 
 331:Impedance.c   ****   clks_cal.DataType = DATATYPE_DFT;
 1073              		.loc 1 331 0
 1074 000a 3B00     		movs	r3, r7
 1075 000c 0322     		movs	r2, #3
 1076 000e 1A60     		str	r2, [r3]
 332:Impedance.c   ****   clks_cal.DftSrc = AppIMPCfg.DftSrc;
 1077              		.loc 1 332 0
 1078 0010 734B     		ldr	r3, .L71
 1079 0012 1A6E     		ldr	r2, [r3, #96]
 1080 0014 3B00     		movs	r3, r7
 1081 0016 5A61     		str	r2, [r3, #20]
 333:Impedance.c   ****   clks_cal.DataCount = 1L<<(AppIMPCfg.DftNum+2); /* 2^(DFTNUMBER+2) */
 1082              		.loc 1 333 0
 1083 0018 714B     		ldr	r3, .L71
ARM GAS  C:\Users\13740\AppData\Local\Temp\cctWuNXI.s 			page 26


 1084 001a DB6D     		ldr	r3, [r3, #92]
 1085 001c 0233     		adds	r3, r3, #2
 1086 001e 0122     		movs	r2, #1
 1087 0020 9A40     		lsls	r2, r2, r3
 1088 0022 1300     		movs	r3, r2
 1089 0024 1A00     		movs	r2, r3
 1090 0026 3B00     		movs	r3, r7
 1091 0028 5A60     		str	r2, [r3, #4]
 334:Impedance.c   ****   clks_cal.ADCSinc2Osr = AppIMPCfg.ADCSinc2Osr;
 1092              		.loc 1 334 0
 1093 002a 6D4B     		ldr	r3, .L71
 1094 002c 6D22     		movs	r2, #109
 1095 002e 9B5C     		ldrb	r3, [r3, r2]
 1096 0030 1A00     		movs	r2, r3
 1097 0032 3B00     		movs	r3, r7
 1098 0034 DA60     		str	r2, [r3, #12]
 335:Impedance.c   ****   clks_cal.ADCSinc3Osr = AppIMPCfg.ADCSinc3Osr;
 1099              		.loc 1 335 0
 1100 0036 6A4B     		ldr	r3, .L71
 1101 0038 6C22     		movs	r2, #108
 1102 003a 9B5C     		ldrb	r3, [r3, r2]
 1103 003c 1A00     		movs	r2, r3
 1104 003e 3B00     		movs	r3, r7
 1105 0040 9A60     		str	r2, [r3, #8]
 336:Impedance.c   ****   clks_cal.ADCAvgNum = AppIMPCfg.ADCAvgNum;
 1106              		.loc 1 336 0
 1107 0042 674B     		ldr	r3, .L71
 1108 0044 6E22     		movs	r2, #110
 1109 0046 9B5C     		ldrb	r3, [r3, r2]
 1110 0048 1A00     		movs	r2, r3
 1111 004a 3B00     		movs	r3, r7
 1112 004c 1A61     		str	r2, [r3, #16]
 337:Impedance.c   ****   clks_cal.RatioSys2AdcClk = AppIMPCfg.SysClkFreq/AppIMPCfg.AdcClkFreq;
 1113              		.loc 1 337 0
 1114 004e 644B     		ldr	r3, .L71
 1115 0050 1A6A     		ldr	r2, [r3, #32]
 1116 0052 634B     		ldr	r3, .L71
 1117 0054 5B6A     		ldr	r3, [r3, #36]
 1118 0056 191C     		adds	r1, r3, #0
 1119 0058 101C     		adds	r0, r2, #0
 1120 005a FFF7FEFF 		bl	__aeabi_fdiv
 1121 005e 031C     		adds	r3, r0, #0
 1122 0060 1A1C     		adds	r2, r3, #0
 1123 0062 3B00     		movs	r3, r7
 1124 0064 DA61     		str	r2, [r3, #28]
 338:Impedance.c   ****   AD5940_ClksCalculate(&clks_cal, &WaitClks);
 1125              		.loc 1 338 0
 1126 0066 3023     		movs	r3, #48
 1127 0068 FA18     		adds	r2, r7, r3
 1128 006a 3B00     		movs	r3, r7
 1129 006c 1100     		movs	r1, r2
 1130 006e 1800     		movs	r0, r3
 1131 0070 FFF7FEFF 		bl	AD5940_ClksCalculate
 339:Impedance.c   **** 
 340:Impedance.c   ****   AD5940_SEQGenCtrl(bTRUE);
 1132              		.loc 1 340 0
 1133 0074 0120     		movs	r0, #1
ARM GAS  C:\Users\13740\AppData\Local\Temp\cctWuNXI.s 			page 27


 1134 0076 FFF7FEFF 		bl	AD5940_SEQGenCtrl
 341:Impedance.c   ****   AD5940_SEQGpioCtrlS(AGPIO_Pin2); /* Set GPIO1, clear others that under control */
 1135              		.loc 1 341 0
 1136 007a 0420     		movs	r0, #4
 1137 007c FFF7FEFF 		bl	AD5940_SEQGpioCtrlS
 342:Impedance.c   ****   AD5940_SEQGenInsert(SEQ_WAIT(16*250));  /* @todo wait 250us? */
 1138              		.loc 1 342 0
 1139 0080 FA23     		movs	r3, #250
 1140 0082 1B01     		lsls	r3, r3, #4
 1141 0084 1800     		movs	r0, r3
 1142 0086 FFF7FEFF 		bl	AD5940_SEQGenInsert
 343:Impedance.c   ****   sw_cfg.Dswitch = SWD_RCAL0;
 1143              		.loc 1 343 0
 1144 008a 2023     		movs	r3, #32
 1145 008c FB18     		adds	r3, r7, r3
 1146 008e 0122     		movs	r2, #1
 1147 0090 1A60     		str	r2, [r3]
 344:Impedance.c   ****   sw_cfg.Pswitch = SWP_RCAL0;
 1148              		.loc 1 344 0
 1149 0092 2023     		movs	r3, #32
 1150 0094 FB18     		adds	r3, r7, r3
 1151 0096 0122     		movs	r2, #1
 1152 0098 5A60     		str	r2, [r3, #4]
 345:Impedance.c   ****   sw_cfg.Nswitch = SWN_RCAL1;
 1153              		.loc 1 345 0
 1154 009a 2023     		movs	r3, #32
 1155 009c FB18     		adds	r3, r7, r3
 1156 009e 8022     		movs	r2, #128
 1157 00a0 9200     		lsls	r2, r2, #2
 1158 00a2 9A60     		str	r2, [r3, #8]
 346:Impedance.c   ****   sw_cfg.Tswitch = SWT_RCAL1|SWT_TRTIA;
 1159              		.loc 1 346 0
 1160 00a4 2023     		movs	r3, #32
 1161 00a6 FB18     		adds	r3, r7, r3
 1162 00a8 9022     		movs	r2, #144
 1163 00aa 1201     		lsls	r2, r2, #4
 1164 00ac DA60     		str	r2, [r3, #12]
 347:Impedance.c   ****   AD5940_SWMatrixCfgS(&sw_cfg);
 1165              		.loc 1 347 0
 1166 00ae 2023     		movs	r3, #32
 1167 00b0 FB18     		adds	r3, r7, r3
 1168 00b2 1800     		movs	r0, r3
 1169 00b4 FFF7FEFF 		bl	AD5940_SWMatrixCfgS
 348:Impedance.c   **** 	AD5940_AFECtrlS(AFECTRL_HSTIAPWR|AFECTRL_INAMPPWR|AFECTRL_EXTBUFPWR|\
 1170              		.loc 1 348 0
 1171 00b8 4A4B     		ldr	r3, .L71+4
 1172 00ba 0121     		movs	r1, #1
 1173 00bc 1800     		movs	r0, r3
 1174 00be FFF7FEFF 		bl	AD5940_AFECtrlS
 349:Impedance.c   ****                 AFECTRL_WG|AFECTRL_DACREFPWR|AFECTRL_HSDACPWR|\
 350:Impedance.c   ****                 AFECTRL_SINC2NOTCH, bTRUE);
 351:Impedance.c   ****   AD5940_AFECtrlS(AFECTRL_WG|AFECTRL_ADCPWR, bTRUE);  /* Enable Waveform generator */
 1175              		.loc 1 351 0
 1176 00c2 8123     		movs	r3, #129
 1177 00c4 DB01     		lsls	r3, r3, #7
 1178 00c6 0121     		movs	r1, #1
 1179 00c8 1800     		movs	r0, r3
ARM GAS  C:\Users\13740\AppData\Local\Temp\cctWuNXI.s 			page 28


 1180 00ca FFF7FEFF 		bl	AD5940_AFECtrlS
 352:Impedance.c   ****   //delay for signal settling DFT_WAIT
 353:Impedance.c   ****   AD5940_SEQGenInsert(SEQ_WAIT(16*10));
 1181              		.loc 1 353 0
 1182 00ce A020     		movs	r0, #160
 1183 00d0 FFF7FEFF 		bl	AD5940_SEQGenInsert
 354:Impedance.c   ****   AD5940_AFECtrlS(AFECTRL_ADCCNV|AFECTRL_DFT, bTRUE);  /* Start ADC convert and DFT */
 1184              		.loc 1 354 0
 1185 00d4 8123     		movs	r3, #129
 1186 00d6 1B02     		lsls	r3, r3, #8
 1187 00d8 0121     		movs	r1, #1
 1188 00da 1800     		movs	r0, r3
 1189 00dc FFF7FEFF 		bl	AD5940_AFECtrlS
 355:Impedance.c   ****   AD5940_SEQGenInsert(SEQ_WAIT(WaitClks));
 1190              		.loc 1 355 0
 1191 00e0 3B6B     		ldr	r3, [r7, #48]
 1192 00e2 9B00     		lsls	r3, r3, #2
 1193 00e4 9B08     		lsrs	r3, r3, #2
 1194 00e6 1800     		movs	r0, r3
 1195 00e8 FFF7FEFF 		bl	AD5940_SEQGenInsert
 356:Impedance.c   ****   //wait for first data ready
 357:Impedance.c   ****   AD5940_AFECtrlS(AFECTRL_ADCPWR|AFECTRL_ADCCNV|AFECTRL_DFT|AFECTRL_WG, bFALSE);  /* Stop ADC conve
 1196              		.loc 1 357 0
 1197 00ec 3E4B     		ldr	r3, .L71+8
 1198 00ee 0021     		movs	r1, #0
 1199 00f0 1800     		movs	r0, r3
 1200 00f2 FFF7FEFF 		bl	AD5940_AFECtrlS
 358:Impedance.c   **** 
 359:Impedance.c   ****   /* Configure matrix for external Rz */
 360:Impedance.c   ****   sw_cfg.Dswitch = AppIMPCfg.DswitchSel;
 1201              		.loc 1 360 0
 1202 00f6 3A4B     		ldr	r3, .L71
 1203 00f8 DA6A     		ldr	r2, [r3, #44]
 1204 00fa 2023     		movs	r3, #32
 1205 00fc FB18     		adds	r3, r7, r3
 1206 00fe 1A60     		str	r2, [r3]
 361:Impedance.c   ****   sw_cfg.Pswitch = AppIMPCfg.PswitchSel;
 1207              		.loc 1 361 0
 1208 0100 374B     		ldr	r3, .L71
 1209 0102 1A6B     		ldr	r2, [r3, #48]
 1210 0104 2023     		movs	r3, #32
 1211 0106 FB18     		adds	r3, r7, r3
 1212 0108 5A60     		str	r2, [r3, #4]
 362:Impedance.c   ****   sw_cfg.Nswitch = AppIMPCfg.NswitchSel;
 1213              		.loc 1 362 0
 1214 010a 354B     		ldr	r3, .L71
 1215 010c 5A6B     		ldr	r2, [r3, #52]
 1216 010e 2023     		movs	r3, #32
 1217 0110 FB18     		adds	r3, r7, r3
 1218 0112 9A60     		str	r2, [r3, #8]
 363:Impedance.c   ****   sw_cfg.Tswitch = SWT_TRTIA|AppIMPCfg.TswitchSel;
 1219              		.loc 1 363 0
 1220 0114 324B     		ldr	r3, .L71
 1221 0116 9B6B     		ldr	r3, [r3, #56]
 1222 0118 8022     		movs	r2, #128
 1223 011a 5200     		lsls	r2, r2, #1
 1224 011c 1A43     		orrs	r2, r3
ARM GAS  C:\Users\13740\AppData\Local\Temp\cctWuNXI.s 			page 29


 1225 011e 2023     		movs	r3, #32
 1226 0120 FB18     		adds	r3, r7, r3
 1227 0122 DA60     		str	r2, [r3, #12]
 364:Impedance.c   ****   AD5940_SWMatrixCfgS(&sw_cfg);
 1228              		.loc 1 364 0
 1229 0124 2023     		movs	r3, #32
 1230 0126 FB18     		adds	r3, r7, r3
 1231 0128 1800     		movs	r0, r3
 1232 012a FFF7FEFF 		bl	AD5940_SWMatrixCfgS
 365:Impedance.c   ****   AD5940_AFECtrlS(AFECTRL_ADCPWR|AFECTRL_WG, bTRUE);  /* Enable Waveform generator */
 1233              		.loc 1 365 0
 1234 012e 8123     		movs	r3, #129
 1235 0130 DB01     		lsls	r3, r3, #7
 1236 0132 0121     		movs	r1, #1
 1237 0134 1800     		movs	r0, r3
 1238 0136 FFF7FEFF 		bl	AD5940_AFECtrlS
 366:Impedance.c   ****   AD5940_SEQGenInsert(SEQ_WAIT(16*10));  //delay for signal settling DFT_WAIT
 1239              		.loc 1 366 0
 1240 013a A020     		movs	r0, #160
 1241 013c FFF7FEFF 		bl	AD5940_SEQGenInsert
 367:Impedance.c   ****   AD5940_AFECtrlS(AFECTRL_ADCCNV|AFECTRL_DFT, bTRUE);  /* Start ADC convert and DFT */
 1242              		.loc 1 367 0
 1243 0140 8123     		movs	r3, #129
 1244 0142 1B02     		lsls	r3, r3, #8
 1245 0144 0121     		movs	r1, #1
 1246 0146 1800     		movs	r0, r3
 1247 0148 FFF7FEFF 		bl	AD5940_AFECtrlS
 368:Impedance.c   ****   AD5940_SEQGenInsert(SEQ_WAIT(WaitClks));  /* wait for first data ready */
 1248              		.loc 1 368 0
 1249 014c 3B6B     		ldr	r3, [r7, #48]
 1250 014e 9B00     		lsls	r3, r3, #2
 1251 0150 9B08     		lsrs	r3, r3, #2
 1252 0152 1800     		movs	r0, r3
 1253 0154 FFF7FEFF 		bl	AD5940_SEQGenInsert
 369:Impedance.c   ****   AD5940_AFECtrlS(AFECTRL_ADCCNV|AFECTRL_DFT|AFECTRL_WG|AFECTRL_ADCPWR, bFALSE);  /* Stop ADC conve
 1254              		.loc 1 369 0
 1255 0158 234B     		ldr	r3, .L71+8
 1256 015a 0021     		movs	r1, #0
 1257 015c 1800     		movs	r0, r3
 1258 015e FFF7FEFF 		bl	AD5940_AFECtrlS
 370:Impedance.c   ****     AD5940_AFECtrlS(AFECTRL_HSTIAPWR|AFECTRL_INAMPPWR|AFECTRL_EXTBUFPWR|\
 1259              		.loc 1 370 0
 1260 0162 204B     		ldr	r3, .L71+4
 1261 0164 0021     		movs	r1, #0
 1262 0166 1800     		movs	r0, r3
 1263 0168 FFF7FEFF 		bl	AD5940_AFECtrlS
 371:Impedance.c   ****                 AFECTRL_WG|AFECTRL_DACREFPWR|AFECTRL_HSDACPWR|\
 372:Impedance.c   ****                 AFECTRL_SINC2NOTCH, bFALSE);
 373:Impedance.c   ****   AD5940_SEQGpioCtrlS(0); /* Clr GPIO1 */
 1264              		.loc 1 373 0
 1265 016c 0020     		movs	r0, #0
 1266 016e FFF7FEFF 		bl	AD5940_SEQGpioCtrlS
 374:Impedance.c   **** 
 375:Impedance.c   ****   AD5940_EnterSleepS();/* Goto hibernate */
 1267              		.loc 1 375 0
 1268 0172 FFF7FEFF 		bl	AD5940_EnterSleepS
 376:Impedance.c   **** 
ARM GAS  C:\Users\13740\AppData\Local\Temp\cctWuNXI.s 			page 30


 377:Impedance.c   ****   /* Sequence end. */
 378:Impedance.c   ****   error = AD5940_SEQGenFetchSeq(&pSeqCmd, &SeqLen);
 1269              		.loc 1 378 0
 1270 0176 3423     		movs	r3, #52
 1271 0178 FA18     		adds	r2, r7, r3
 1272 017a 3823     		movs	r3, #56
 1273 017c FB18     		adds	r3, r7, r3
 1274 017e 1100     		movs	r1, r2
 1275 0180 1800     		movs	r0, r3
 1276 0182 FFF7FEFF 		bl	AD5940_SEQGenFetchSeq
 1277 0186 0300     		movs	r3, r0
 1278 0188 FB63     		str	r3, [r7, #60]
 379:Impedance.c   ****   AD5940_SEQGenCtrl(bFALSE); /* Stop sequencer generator */
 1279              		.loc 1 379 0
 1280 018a 0020     		movs	r0, #0
 1281 018c FFF7FEFF 		bl	AD5940_SEQGenCtrl
 380:Impedance.c   **** 
 381:Impedance.c   ****   if(error == AD5940ERR_OK)
 1282              		.loc 1 381 0
 1283 0190 FB6B     		ldr	r3, [r7, #60]
 1284 0192 002B     		cmp	r3, #0
 1285 0194 1FD1     		bne	.L67
 382:Impedance.c   ****   {
 383:Impedance.c   ****     AppIMPCfg.MeasureSeqInfo.SeqId = SEQID_0;
 1286              		.loc 1 383 0
 1287 0196 124B     		ldr	r3, .L71
 1288 0198 B022     		movs	r2, #176
 1289 019a 0021     		movs	r1, #0
 1290 019c 9950     		str	r1, [r3, r2]
 384:Impedance.c   ****     AppIMPCfg.MeasureSeqInfo.SeqRamAddr = AppIMPCfg.InitSeqInfo.SeqRamAddr + AppIMPCfg.InitSeqInfo.
 1291              		.loc 1 384 0
 1292 019e 104B     		ldr	r3, .L71
 1293 01a0 A022     		movs	r2, #160
 1294 01a2 9A58     		ldr	r2, [r3, r2]
 1295 01a4 0E4B     		ldr	r3, .L71
 1296 01a6 A421     		movs	r1, #164
 1297 01a8 5B58     		ldr	r3, [r3, r1]
 1298 01aa D218     		adds	r2, r2, r3
 1299 01ac 0C4B     		ldr	r3, .L71
 1300 01ae B421     		movs	r1, #180
 1301 01b0 5A50     		str	r2, [r3, r1]
 385:Impedance.c   ****     AppIMPCfg.MeasureSeqInfo.pSeqCmd = pSeqCmd;
 1302              		.loc 1 385 0
 1303 01b2 BA6B     		ldr	r2, [r7, #56]
 1304 01b4 0A4B     		ldr	r3, .L71
 1305 01b6 C021     		movs	r1, #192
 1306 01b8 5A50     		str	r2, [r3, r1]
 386:Impedance.c   ****     AppIMPCfg.MeasureSeqInfo.SeqLen = SeqLen;
 1307              		.loc 1 386 0
 1308 01ba 7A6B     		ldr	r2, [r7, #52]
 1309 01bc 084B     		ldr	r3, .L71
 1310 01be B821     		movs	r1, #184
 1311 01c0 5A50     		str	r2, [r3, r1]
 387:Impedance.c   ****     /* Write command to SRAM */
 388:Impedance.c   ****     AD5940_SEQCmdWrite(AppIMPCfg.MeasureSeqInfo.SeqRamAddr, pSeqCmd, SeqLen);
 1312              		.loc 1 388 0
 1313 01c2 074B     		ldr	r3, .L71
ARM GAS  C:\Users\13740\AppData\Local\Temp\cctWuNXI.s 			page 31


 1314 01c4 B422     		movs	r2, #180
 1315 01c6 9B58     		ldr	r3, [r3, r2]
 1316 01c8 B96B     		ldr	r1, [r7, #56]
 1317 01ca 7A6B     		ldr	r2, [r7, #52]
 1318 01cc 1800     		movs	r0, r3
 1319 01ce FFF7FEFF 		bl	AD5940_SEQCmdWrite
 389:Impedance.c   ****   }
 390:Impedance.c   ****   else
 391:Impedance.c   ****     return error; /* Error */
 392:Impedance.c   ****   return AD5940ERR_OK;
 1320              		.loc 1 392 0
 1321 01d2 0023     		movs	r3, #0
 1322 01d4 00E0     		b	.L70
 1323              	.L67:
 391:Impedance.c   ****   return AD5940ERR_OK;
 1324              		.loc 1 391 0
 1325 01d6 FB6B     		ldr	r3, [r7, #60]
 1326              	.L70:
 393:Impedance.c   **** }
 1327              		.loc 1 393 0 discriminator 1
 1328 01d8 1800     		movs	r0, r3
 1329 01da BD46     		mov	sp, r7
 1330 01dc 10B0     		add	sp, sp, #64
 1331              		@ sp needed
 1332 01de 80BD     		pop	{r7, pc}
 1333              	.L72:
 1334              		.align	2
 1335              	.L71:
 1336 01e0 00000000 		.word	AppIMPCfg
 1337 01e4 404E1100 		.word	1134144
 1338 01e8 80C10000 		.word	49536
 1339              		.cfi_endproc
 1340              	.LFE5:
 1341              		.size	AppIMPSeqMeasureGen, .-AppIMPSeqMeasureGen
 1342              		.section	.text.AppIMPInit,"ax",%progbits
 1343              		.align	2
 1344              		.global	AppIMPInit
 1345              		.code	16
 1346              		.thumb_func
 1347              		.type	AppIMPInit, %function
 1348              	AppIMPInit:
 1349              	.LFB6:
 394:Impedance.c   **** 
 395:Impedance.c   **** 
 396:Impedance.c   **** /* This function provide application initialize. It can also enable Wupt that will automatically tr
 397:Impedance.c   **** int32_t AppIMPInit(uint32_t *pBuffer, uint32_t BufferSize)
 398:Impedance.c   **** {
 1350              		.loc 1 398 0
 1351              		.cfi_startproc
 1352              		@ args = 0, pretend = 0, frame = 48
 1353              		@ frame_needed = 1, uses_anonymous_args = 0
 1354 0000 80B5     		push	{r7, lr}
 1355              		.cfi_def_cfa_offset 8
 1356              		.cfi_offset 7, -8
 1357              		.cfi_offset 14, -4
 1358 0002 8CB0     		sub	sp, sp, #48
 1359              		.cfi_def_cfa_offset 56
ARM GAS  C:\Users\13740\AppData\Local\Temp\cctWuNXI.s 			page 32


 1360 0004 00AF     		add	r7, sp, #0
 1361              		.cfi_def_cfa_register 7
 1362 0006 7860     		str	r0, [r7, #4]
 1363 0008 3960     		str	r1, [r7]
 399:Impedance.c   ****   AD5940Err error = AD5940ERR_OK;  
 1364              		.loc 1 399 0
 1365 000a 0023     		movs	r3, #0
 1366 000c FB62     		str	r3, [r7, #44]
 400:Impedance.c   ****   SEQCfg_Type seq_cfg;
 401:Impedance.c   ****   FIFOCfg_Type fifo_cfg;
 402:Impedance.c   **** 
 403:Impedance.c   ****   if(AD5940_WakeUp(10) > 10)  /* Wakeup AFE by read register, read 10 times at most */
 1367              		.loc 1 403 0
 1368 000e 0A20     		movs	r0, #10
 1369 0010 FFF7FEFF 		bl	AD5940_WakeUp
 1370 0014 0300     		movs	r3, r0
 1371 0016 0A2B     		cmp	r3, #10
 1372 0018 02D9     		bls	.L74
 404:Impedance.c   ****     return AD5940ERR_WAKEUP;  /* Wakeup Failed */
 1373              		.loc 1 404 0
 1374 001a 0923     		movs	r3, #9
 1375 001c 5B42     		rsbs	r3, r3, #0
 1376 001e AEE0     		b	.L83
 1377              	.L74:
 405:Impedance.c   **** 
 406:Impedance.c   ****   /* Configure sequencer and stop it */
 407:Impedance.c   ****   seq_cfg.SeqMemSize = SEQMEMSIZE_2KB;  /* 2kB SRAM is used for sequencer, others for data FIFO */
 1378              		.loc 1 407 0
 1379 0020 2023     		movs	r3, #32
 1380 0022 FB18     		adds	r3, r7, r3
 1381 0024 0122     		movs	r2, #1
 1382 0026 1A60     		str	r2, [r3]
 408:Impedance.c   ****   seq_cfg.SeqBreakEn = bFALSE;
 1383              		.loc 1 408 0
 1384 0028 2023     		movs	r3, #32
 1385 002a FB18     		adds	r3, r7, r3
 1386 002c 0022     		movs	r2, #0
 1387 002e 5A71     		strb	r2, [r3, #5]
 409:Impedance.c   ****   seq_cfg.SeqIgnoreEn = bTRUE;
 1388              		.loc 1 409 0
 1389 0030 2023     		movs	r3, #32
 1390 0032 FB18     		adds	r3, r7, r3
 1391 0034 0122     		movs	r2, #1
 1392 0036 9A71     		strb	r2, [r3, #6]
 410:Impedance.c   ****   seq_cfg.SeqCntCRCClr = bTRUE;
 1393              		.loc 1 410 0
 1394 0038 2023     		movs	r3, #32
 1395 003a FB18     		adds	r3, r7, r3
 1396 003c 0122     		movs	r2, #1
 1397 003e DA71     		strb	r2, [r3, #7]
 411:Impedance.c   ****   seq_cfg.SeqEnable = bFALSE;
 1398              		.loc 1 411 0
 1399 0040 2023     		movs	r3, #32
 1400 0042 FB18     		adds	r3, r7, r3
 1401 0044 0022     		movs	r2, #0
 1402 0046 1A71     		strb	r2, [r3, #4]
 412:Impedance.c   ****   seq_cfg.SeqWrTimer = 0;
ARM GAS  C:\Users\13740\AppData\Local\Temp\cctWuNXI.s 			page 33


 1403              		.loc 1 412 0
 1404 0048 2023     		movs	r3, #32
 1405 004a FB18     		adds	r3, r7, r3
 1406 004c 0022     		movs	r2, #0
 1407 004e 9A60     		str	r2, [r3, #8]
 413:Impedance.c   ****   AD5940_SEQCfg(&seq_cfg);
 1408              		.loc 1 413 0
 1409 0050 2023     		movs	r3, #32
 1410 0052 FB18     		adds	r3, r7, r3
 1411 0054 1800     		movs	r0, r3
 1412 0056 FFF7FEFF 		bl	AD5940_SEQCfg
 414:Impedance.c   ****   
 415:Impedance.c   ****   /* Reconfigure FIFO */
 416:Impedance.c   ****   AD5940_FIFOCtrlS(FIFOSRC_DFT, bFALSE);									/* Disable FIFO firstly */
 1413              		.loc 1 416 0
 1414 005a 0021     		movs	r1, #0
 1415 005c 0220     		movs	r0, #2
 1416 005e FFF7FEFF 		bl	AD5940_FIFOCtrlS
 417:Impedance.c   ****   fifo_cfg.FIFOEn = bTRUE;
 1417              		.loc 1 417 0
 1418 0062 0C23     		movs	r3, #12
 1419 0064 FB18     		adds	r3, r7, r3
 1420 0066 0122     		movs	r2, #1
 1421 0068 1A70     		strb	r2, [r3]
 418:Impedance.c   ****   fifo_cfg.FIFOMode = FIFOMODE_FIFO;
 1422              		.loc 1 418 0
 1423 006a 0C23     		movs	r3, #12
 1424 006c FB18     		adds	r3, r7, r3
 1425 006e 0222     		movs	r2, #2
 1426 0070 5A60     		str	r2, [r3, #4]
 419:Impedance.c   ****   fifo_cfg.FIFOSize = FIFOSIZE_4KB;                       /* 4kB for FIFO, The reset 2kB for sequen
 1427              		.loc 1 419 0
 1428 0072 0C23     		movs	r3, #12
 1429 0074 FB18     		adds	r3, r7, r3
 1430 0076 0222     		movs	r2, #2
 1431 0078 9A60     		str	r2, [r3, #8]
 420:Impedance.c   ****   fifo_cfg.FIFOSrc = FIFOSRC_DFT;
 1432              		.loc 1 420 0
 1433 007a 0C23     		movs	r3, #12
 1434 007c FB18     		adds	r3, r7, r3
 1435 007e 0222     		movs	r2, #2
 1436 0080 DA60     		str	r2, [r3, #12]
 421:Impedance.c   ****   fifo_cfg.FIFOThresh = AppIMPCfg.FifoThresh;              /* DFT result. One pair for RCAL, anothe
 1437              		.loc 1 421 0
 1438 0082 414B     		ldr	r3, .L84
 1439 0084 8822     		movs	r2, #136
 1440 0086 9A58     		ldr	r2, [r3, r2]
 1441 0088 0C23     		movs	r3, #12
 1442 008a FB18     		adds	r3, r7, r3
 1443 008c 1A61     		str	r2, [r3, #16]
 422:Impedance.c   ****   AD5940_FIFOCfg(&fifo_cfg);
 1444              		.loc 1 422 0
 1445 008e 0C23     		movs	r3, #12
 1446 0090 FB18     		adds	r3, r7, r3
 1447 0092 1800     		movs	r0, r3
 1448 0094 FFF7FEFF 		bl	AD5940_FIFOCfg
 423:Impedance.c   ****   AD5940_INTCClrFlag(AFEINTSRC_ALLINT);
ARM GAS  C:\Users\13740\AppData\Local\Temp\cctWuNXI.s 			page 34


 1449              		.loc 1 423 0
 1450 0098 0123     		movs	r3, #1
 1451 009a 5B42     		rsbs	r3, r3, #0
 1452 009c 1800     		movs	r0, r3
 1453 009e FFF7FEFF 		bl	AD5940_INTCClrFlag
 424:Impedance.c   **** 
 425:Impedance.c   ****   /* Start sequence generator */
 426:Impedance.c   ****   /* Initialize sequencer generator */
 427:Impedance.c   ****   if((AppIMPCfg.IMPInited == bFALSE)||\
 1454              		.loc 1 427 0
 1455 00a2 394B     		ldr	r3, .L84
 1456 00a4 9822     		movs	r2, #152
 1457 00a6 9B5C     		ldrb	r3, [r3, r2]
 1458 00a8 002B     		cmp	r3, #0
 1459 00aa 03D0     		beq	.L76
 428:Impedance.c   ****        (AppIMPCfg.bParaChanged == bTRUE))
 1460              		.loc 1 428 0 discriminator 1
 1461 00ac 364B     		ldr	r3, .L84
 1462 00ae 1B78     		ldrb	r3, [r3]
 427:Impedance.c   ****        (AppIMPCfg.bParaChanged == bTRUE))
 1463              		.loc 1 427 0 discriminator 1
 1464 00b0 012B     		cmp	r3, #1
 1465 00b2 26D1     		bne	.L77
 1466              	.L76:
 429:Impedance.c   ****   {
 430:Impedance.c   ****     if(pBuffer == 0)  return AD5940ERR_PARA;
 1467              		.loc 1 430 0
 1468 00b4 7B68     		ldr	r3, [r7, #4]
 1469 00b6 002B     		cmp	r3, #0
 1470 00b8 02D1     		bne	.L78
 1471              		.loc 1 430 0 is_stmt 0 discriminator 1
 1472 00ba 0223     		movs	r3, #2
 1473 00bc 5B42     		rsbs	r3, r3, #0
 1474 00be 5EE0     		b	.L83
 1475              	.L78:
 431:Impedance.c   ****     if(BufferSize == 0) return AD5940ERR_PARA;   
 1476              		.loc 1 431 0 is_stmt 1
 1477 00c0 3B68     		ldr	r3, [r7]
 1478 00c2 002B     		cmp	r3, #0
 1479 00c4 02D1     		bne	.L79
 1480              		.loc 1 431 0 is_stmt 0 discriminator 1
 1481 00c6 0223     		movs	r3, #2
 1482 00c8 5B42     		rsbs	r3, r3, #0
 1483 00ca 58E0     		b	.L83
 1484              	.L79:
 432:Impedance.c   ****     AD5940_SEQGenInit(pBuffer, BufferSize);
 1485              		.loc 1 432 0 is_stmt 1
 1486 00cc 3A68     		ldr	r2, [r7]
 1487 00ce 7B68     		ldr	r3, [r7, #4]
 1488 00d0 1100     		movs	r1, r2
 1489 00d2 1800     		movs	r0, r3
 1490 00d4 FFF7FEFF 		bl	AD5940_SEQGenInit
 433:Impedance.c   **** 
 434:Impedance.c   ****     /* Generate initialize sequence */
 435:Impedance.c   ****     error = AppIMPSeqCfgGen(); /* Application initialization sequence using either MCU or sequencer
 1491              		.loc 1 435 0
 1492 00d8 FFF7FEFF 		bl	AppIMPSeqCfgGen
ARM GAS  C:\Users\13740\AppData\Local\Temp\cctWuNXI.s 			page 35


 1493 00dc 0300     		movs	r3, r0
 1494 00de FB62     		str	r3, [r7, #44]
 436:Impedance.c   ****     if(error != AD5940ERR_OK) return error;
 1495              		.loc 1 436 0
 1496 00e0 FB6A     		ldr	r3, [r7, #44]
 1497 00e2 002B     		cmp	r3, #0
 1498 00e4 01D0     		beq	.L80
 1499              		.loc 1 436 0 is_stmt 0 discriminator 1
 1500 00e6 FB6A     		ldr	r3, [r7, #44]
 1501 00e8 49E0     		b	.L83
 1502              	.L80:
 437:Impedance.c   **** 
 438:Impedance.c   ****     /* Generate measurement sequence */
 439:Impedance.c   ****     error = AppIMPSeqMeasureGen();
 1503              		.loc 1 439 0 is_stmt 1
 1504 00ea FFF7FEFF 		bl	AppIMPSeqMeasureGen
 1505 00ee 0300     		movs	r3, r0
 1506 00f0 FB62     		str	r3, [r7, #44]
 440:Impedance.c   ****     if(error != AD5940ERR_OK) return error;
 1507              		.loc 1 440 0
 1508 00f2 FB6A     		ldr	r3, [r7, #44]
 1509 00f4 002B     		cmp	r3, #0
 1510 00f6 01D0     		beq	.L81
 1511              		.loc 1 440 0 is_stmt 0 discriminator 1
 1512 00f8 FB6A     		ldr	r3, [r7, #44]
 1513 00fa 40E0     		b	.L83
 1514              	.L81:
 441:Impedance.c   **** 
 442:Impedance.c   ****     AppIMPCfg.bParaChanged = bFALSE; /* Clear this flag as we already implemented the new configura
 1515              		.loc 1 442 0 is_stmt 1
 1516 00fc 224B     		ldr	r3, .L84
 1517 00fe 0022     		movs	r2, #0
 1518 0100 1A70     		strb	r2, [r3]
 1519              	.L77:
 443:Impedance.c   ****   }
 444:Impedance.c   **** 
 445:Impedance.c   ****   /* Initialization sequencer  */
 446:Impedance.c   ****   AppIMPCfg.InitSeqInfo.WriteSRAM = bFALSE;
 1520              		.loc 1 446 0
 1521 0102 214B     		ldr	r3, .L84
 1522 0104 A822     		movs	r2, #168
 1523 0106 0021     		movs	r1, #0
 1524 0108 9954     		strb	r1, [r3, r2]
 447:Impedance.c   ****   AD5940_SEQInfoCfg(&AppIMPCfg.InitSeqInfo);
 1525              		.loc 1 447 0
 1526 010a 204B     		ldr	r3, .L84+4
 1527 010c 1800     		movs	r0, r3
 1528 010e FFF7FEFF 		bl	AD5940_SEQInfoCfg
 448:Impedance.c   ****   seq_cfg.SeqEnable = bTRUE;
 1529              		.loc 1 448 0
 1530 0112 2023     		movs	r3, #32
 1531 0114 FB18     		adds	r3, r7, r3
 1532 0116 0122     		movs	r2, #1
 1533 0118 1A71     		strb	r2, [r3, #4]
 449:Impedance.c   ****   AD5940_SEQCfg(&seq_cfg);  /* Enable sequencer */
 1534              		.loc 1 449 0
 1535 011a 2023     		movs	r3, #32
ARM GAS  C:\Users\13740\AppData\Local\Temp\cctWuNXI.s 			page 36


 1536 011c FB18     		adds	r3, r7, r3
 1537 011e 1800     		movs	r0, r3
 1538 0120 FFF7FEFF 		bl	AD5940_SEQCfg
 450:Impedance.c   ****   AD5940_SEQMmrTrig(AppIMPCfg.InitSeqInfo.SeqId);
 1539              		.loc 1 450 0
 1540 0124 184B     		ldr	r3, .L84
 1541 0126 9C22     		movs	r2, #156
 1542 0128 9B58     		ldr	r3, [r3, r2]
 1543 012a 1800     		movs	r0, r3
 1544 012c FFF7FEFF 		bl	AD5940_SEQMmrTrig
 451:Impedance.c   ****   while(AD5940_INTCTestFlag(AFEINTC_1, AFEINTSRC_ENDSEQ) == bFALSE);
 1545              		.loc 1 451 0
 1546 0130 C046     		nop
 1547              	.L82:
 1548              		.loc 1 451 0 is_stmt 0 discriminator 1
 1549 0132 8023     		movs	r3, #128
 1550 0134 1B02     		lsls	r3, r3, #8
 1551 0136 1900     		movs	r1, r3
 1552 0138 0120     		movs	r0, #1
 1553 013a FFF7FEFF 		bl	AD5940_INTCTestFlag
 1554 013e 031E     		subs	r3, r0, #0
 1555 0140 F7D0     		beq	.L82
 452:Impedance.c   ****   
 453:Impedance.c   ****   /* Measurement sequence  */
 454:Impedance.c   ****   AppIMPCfg.MeasureSeqInfo.WriteSRAM = bFALSE;
 1556              		.loc 1 454 0 is_stmt 1
 1557 0142 114B     		ldr	r3, .L84
 1558 0144 BC22     		movs	r2, #188
 1559 0146 0021     		movs	r1, #0
 1560 0148 9954     		strb	r1, [r3, r2]
 455:Impedance.c   ****   AD5940_SEQInfoCfg(&AppIMPCfg.MeasureSeqInfo);
 1561              		.loc 1 455 0
 1562 014a 114B     		ldr	r3, .L84+8
 1563 014c 1800     		movs	r0, r3
 1564 014e FFF7FEFF 		bl	AD5940_SEQInfoCfg
 456:Impedance.c   **** 
 457:Impedance.c   ****   seq_cfg.SeqEnable = bTRUE;
 1565              		.loc 1 457 0
 1566 0152 2023     		movs	r3, #32
 1567 0154 FB18     		adds	r3, r7, r3
 1568 0156 0122     		movs	r2, #1
 1569 0158 1A71     		strb	r2, [r3, #4]
 458:Impedance.c   ****   AD5940_SEQCfg(&seq_cfg);  /* Enable sequencer, and wait for trigger */
 1570              		.loc 1 458 0
 1571 015a 2023     		movs	r3, #32
 1572 015c FB18     		adds	r3, r7, r3
 1573 015e 1800     		movs	r0, r3
 1574 0160 FFF7FEFF 		bl	AD5940_SEQCfg
 459:Impedance.c   ****   AD5940_ClrMCUIntFlag();   /* Clear interrupt flag generated before */
 1575              		.loc 1 459 0
 1576 0164 FFF7FEFF 		bl	AD5940_ClrMCUIntFlag
 460:Impedance.c   **** 
 461:Impedance.c   ****   AD5940_AFEPwrBW(AppIMPCfg.PwrMod, AFEBW_250KHZ);
 1577              		.loc 1 461 0
 1578 0168 074B     		ldr	r3, .L84
 1579 016a DB6B     		ldr	r3, [r3, #60]
 1580 016c 0321     		movs	r1, #3
ARM GAS  C:\Users\13740\AppData\Local\Temp\cctWuNXI.s 			page 37


 1581 016e 1800     		movs	r0, r3
 1582 0170 FFF7FEFF 		bl	AD5940_AFEPwrBW
 462:Impedance.c   **** 
 463:Impedance.c   ****   AppIMPCfg.IMPInited = bTRUE;  /* IMP application has been initialized. */
 1583              		.loc 1 463 0
 1584 0174 044B     		ldr	r3, .L84
 1585 0176 9822     		movs	r2, #152
 1586 0178 0121     		movs	r1, #1
 1587 017a 9954     		strb	r1, [r3, r2]
 464:Impedance.c   ****   return AD5940ERR_OK;
 1588              		.loc 1 464 0
 1589 017c 0023     		movs	r3, #0
 1590              	.L83:
 465:Impedance.c   **** }
 1591              		.loc 1 465 0 discriminator 1
 1592 017e 1800     		movs	r0, r3
 1593 0180 BD46     		mov	sp, r7
 1594 0182 0CB0     		add	sp, sp, #48
 1595              		@ sp needed
 1596 0184 80BD     		pop	{r7, pc}
 1597              	.L85:
 1598 0186 C046     		.align	2
 1599              	.L84:
 1600 0188 00000000 		.word	AppIMPCfg
 1601 018c 9C000000 		.word	AppIMPCfg+156
 1602 0190 B0000000 		.word	AppIMPCfg+176
 1603              		.cfi_endproc
 1604              	.LFE6:
 1605              		.size	AppIMPInit, .-AppIMPInit
 1606              		.section	.text.AppIMPRegModify,"ax",%progbits
 1607              		.align	2
 1608              		.global	AppIMPRegModify
 1609              		.code	16
 1610              		.thumb_func
 1611              		.type	AppIMPRegModify, %function
 1612              	AppIMPRegModify:
 1613              	.LFB7:
 466:Impedance.c   **** 
 467:Impedance.c   **** /* Modify registers when AFE wakeup */
 468:Impedance.c   **** int32_t AppIMPRegModify(int32_t * const pData, uint32_t *pDataCount)
 469:Impedance.c   **** {
 1614              		.loc 1 469 0
 1615              		.cfi_startproc
 1616              		@ args = 0, pretend = 0, frame = 8
 1617              		@ frame_needed = 1, uses_anonymous_args = 0
 1618 0000 80B5     		push	{r7, lr}
 1619              		.cfi_def_cfa_offset 8
 1620              		.cfi_offset 7, -8
 1621              		.cfi_offset 14, -4
 1622 0002 82B0     		sub	sp, sp, #8
 1623              		.cfi_def_cfa_offset 16
 1624 0004 00AF     		add	r7, sp, #0
 1625              		.cfi_def_cfa_register 7
 1626 0006 7860     		str	r0, [r7, #4]
 1627 0008 3960     		str	r1, [r7]
 470:Impedance.c   ****   if(AppIMPCfg.NumOfData > 0)
 1628              		.loc 1 470 0
ARM GAS  C:\Users\13740\AppData\Local\Temp\cctWuNXI.s 			page 38


 1629 000a 1B4B     		ldr	r3, .L91
 1630 000c 9B69     		ldr	r3, [r3, #24]
 1631 000e 002B     		cmp	r3, #0
 1632 0010 15DD     		ble	.L87
 471:Impedance.c   ****   {
 472:Impedance.c   ****     AppIMPCfg.FifoDataCount += *pDataCount/4;
 1633              		.loc 1 472 0
 1634 0012 194B     		ldr	r3, .L91
 1635 0014 C822     		movs	r2, #200
 1636 0016 9A58     		ldr	r2, [r3, r2]
 1637 0018 3B68     		ldr	r3, [r7]
 1638 001a 1B68     		ldr	r3, [r3]
 1639 001c 9B08     		lsrs	r3, r3, #2
 1640 001e D218     		adds	r2, r2, r3
 1641 0020 154B     		ldr	r3, .L91
 1642 0022 C821     		movs	r1, #200
 1643 0024 5A50     		str	r2, [r3, r1]
 473:Impedance.c   ****     if(AppIMPCfg.FifoDataCount >= AppIMPCfg.NumOfData)
 1644              		.loc 1 473 0
 1645 0026 144B     		ldr	r3, .L91
 1646 0028 C822     		movs	r2, #200
 1647 002a 9A58     		ldr	r2, [r3, r2]
 1648 002c 124B     		ldr	r3, .L91
 1649 002e 9B69     		ldr	r3, [r3, #24]
 1650 0030 9A42     		cmp	r2, r3
 1651 0032 04D3     		bcc	.L87
 474:Impedance.c   ****     {
 475:Impedance.c   ****       AD5940_WUPTCtrl(bFALSE);
 1652              		.loc 1 475 0
 1653 0034 0020     		movs	r0, #0
 1654 0036 FFF7FEFF 		bl	AD5940_WUPTCtrl
 476:Impedance.c   ****       return AD5940ERR_OK;
 1655              		.loc 1 476 0
 1656 003a 0023     		movs	r3, #0
 1657 003c 18E0     		b	.L88
 1658              	.L87:
 477:Impedance.c   ****     }
 478:Impedance.c   ****   }
 479:Impedance.c   ****   if(AppIMPCfg.StopRequired == bTRUE)
 1659              		.loc 1 479 0
 1660 003e 0E4B     		ldr	r3, .L91
 1661 0040 C422     		movs	r2, #196
 1662 0042 9B5C     		ldrb	r3, [r3, r2]
 1663 0044 012B     		cmp	r3, #1
 1664 0046 04D1     		bne	.L89
 480:Impedance.c   ****   {
 481:Impedance.c   ****     AD5940_WUPTCtrl(bFALSE);
 1665              		.loc 1 481 0
 1666 0048 0020     		movs	r0, #0
 1667 004a FFF7FEFF 		bl	AD5940_WUPTCtrl
 482:Impedance.c   ****     return AD5940ERR_OK;
 1668              		.loc 1 482 0
 1669 004e 0023     		movs	r3, #0
 1670 0050 0EE0     		b	.L88
 1671              	.L89:
 483:Impedance.c   ****   }
 484:Impedance.c   ****   if(AppIMPCfg.SweepCfg.SweepEn) /* Need to set new frequency and set power mode */
ARM GAS  C:\Users\13740\AppData\Local\Temp\cctWuNXI.s 			page 39


 1672              		.loc 1 484 0
 1673 0052 094B     		ldr	r3, .L91
 1674 0054 7022     		movs	r2, #112
 1675 0056 9B5C     		ldrb	r3, [r3, r2]
 1676 0058 002B     		cmp	r3, #0
 1677 005a 08D0     		beq	.L90
 485:Impedance.c   ****   {
 486:Impedance.c   ****     AD5940_WGFreqCtrlS(AppIMPCfg.SweepNextFreq, AppIMPCfg.SysClkFreq);
 1678              		.loc 1 486 0
 1679 005c 064B     		ldr	r3, .L91
 1680 005e 9022     		movs	r2, #144
 1681 0060 9A58     		ldr	r2, [r3, r2]
 1682 0062 054B     		ldr	r3, .L91
 1683 0064 1B6A     		ldr	r3, [r3, #32]
 1684 0066 191C     		adds	r1, r3, #0
 1685 0068 101C     		adds	r0, r2, #0
 1686 006a FFF7FEFF 		bl	AD5940_WGFreqCtrlS
 1687              	.L90:
 487:Impedance.c   ****   }
 488:Impedance.c   ****   return AD5940ERR_OK;
 1688              		.loc 1 488 0
 1689 006e 0023     		movs	r3, #0
 1690              	.L88:
 489:Impedance.c   **** }
 1691              		.loc 1 489 0
 1692 0070 1800     		movs	r0, r3
 1693 0072 BD46     		mov	sp, r7
 1694 0074 02B0     		add	sp, sp, #8
 1695              		@ sp needed
 1696 0076 80BD     		pop	{r7, pc}
 1697              	.L92:
 1698              		.align	2
 1699              	.L91:
 1700 0078 00000000 		.word	AppIMPCfg
 1701              		.cfi_endproc
 1702              	.LFE7:
 1703              		.size	AppIMPRegModify, .-AppIMPRegModify
 1704              		.global	__aeabi_i2f
 1705              		.global	__aeabi_f2d
 1706              		.global	__aeabi_d2f
 1707              		.global	__aeabi_i2d
 1708              		.global	__aeabi_fsub
 1709              		.section	.text.AppIMPDataProcess,"ax",%progbits
 1710              		.align	2
 1711              		.global	AppIMPDataProcess
 1712              		.code	16
 1713              		.thumb_func
 1714              		.type	AppIMPDataProcess, %function
 1715              	AppIMPDataProcess:
 1716              	.LFB8:
 490:Impedance.c   **** 
 491:Impedance.c   **** /* Depending on the data type, do appropriate data pre-process before return back to controller */
 492:Impedance.c   **** int32_t AppIMPDataProcess(int32_t * const pData, uint32_t *pDataCount)
 493:Impedance.c   **** {
 1717              		.loc 1 493 0
 1718              		.cfi_startproc
 1719              		@ args = 0, pretend = 0, frame = 56
ARM GAS  C:\Users\13740\AppData\Local\Temp\cctWuNXI.s 			page 40


 1720              		@ frame_needed = 1, uses_anonymous_args = 0
 1721 0000 B0B5     		push	{r4, r5, r7, lr}
 1722              		.cfi_def_cfa_offset 16
 1723              		.cfi_offset 4, -16
 1724              		.cfi_offset 5, -12
 1725              		.cfi_offset 7, -8
 1726              		.cfi_offset 14, -4
 1727 0002 8EB0     		sub	sp, sp, #56
 1728              		.cfi_def_cfa_offset 72
 1729 0004 00AF     		add	r7, sp, #0
 1730              		.cfi_def_cfa_register 7
 1731 0006 7860     		str	r0, [r7, #4]
 1732 0008 3960     		str	r1, [r7]
 494:Impedance.c   ****   uint32_t DataCount = *pDataCount;
 1733              		.loc 1 494 0
 1734 000a 3B68     		ldr	r3, [r7]
 1735 000c 1B68     		ldr	r3, [r3]
 1736 000e BB62     		str	r3, [r7, #40]
 495:Impedance.c   ****   uint32_t ImpResCount = DataCount/4;
 1737              		.loc 1 495 0
 1738 0010 BB6A     		ldr	r3, [r7, #40]
 1739 0012 9B08     		lsrs	r3, r3, #2
 1740 0014 7B62     		str	r3, [r7, #36]
 496:Impedance.c   **** 
 497:Impedance.c   ****   fImpPol_Type * const pOut = (fImpPol_Type*)pData;
 1741              		.loc 1 497 0
 1742 0016 7B68     		ldr	r3, [r7, #4]
 1743 0018 3B62     		str	r3, [r7, #32]
 498:Impedance.c   ****   iImpCar_Type * pSrcData = (iImpCar_Type*)pData;
 1744              		.loc 1 498 0
 1745 001a 7B68     		ldr	r3, [r7, #4]
 1746 001c 7B63     		str	r3, [r7, #52]
 499:Impedance.c   **** 
 500:Impedance.c   ****   *pDataCount = 0;
 1747              		.loc 1 500 0
 1748 001e 3B68     		ldr	r3, [r7]
 1749 0020 0022     		movs	r2, #0
 1750 0022 1A60     		str	r2, [r3]
 501:Impedance.c   **** 
 502:Impedance.c   ****   DataCount = (DataCount/4)*4;/* We expect RCAL data together with Rz data. One DFT result has two 
 1751              		.loc 1 502 0
 1752 0024 BB6A     		ldr	r3, [r7, #40]
 1753 0026 9B08     		lsrs	r3, r3, #2
 1754 0028 9B00     		lsls	r3, r3, #2
 1755 002a BB62     		str	r3, [r7, #40]
 1756              	.LBB5:
 503:Impedance.c   **** 
 504:Impedance.c   ****   /* Convert DFT result to int32_t type */
 505:Impedance.c   ****   for(uint32_t i=0; i<DataCount; i++)
 1757              		.loc 1 505 0
 1758 002c 0023     		movs	r3, #0
 1759 002e 3B63     		str	r3, [r7, #48]
 1760 0030 24E0     		b	.L94
 1761              	.L96:
 506:Impedance.c   ****   {
 507:Impedance.c   ****     pData[i] &= 0x3ffff; /* @todo option to check ECC */
 1762              		.loc 1 507 0
ARM GAS  C:\Users\13740\AppData\Local\Temp\cctWuNXI.s 			page 41


 1763 0032 3B6B     		ldr	r3, [r7, #48]
 1764 0034 9B00     		lsls	r3, r3, #2
 1765 0036 7A68     		ldr	r2, [r7, #4]
 1766 0038 D318     		adds	r3, r2, r3
 1767 003a 3A6B     		ldr	r2, [r7, #48]
 1768 003c 9200     		lsls	r2, r2, #2
 1769 003e 7968     		ldr	r1, [r7, #4]
 1770 0040 8A18     		adds	r2, r1, r2
 1771 0042 1268     		ldr	r2, [r2]
 1772 0044 9203     		lsls	r2, r2, #14
 1773 0046 920B     		lsrs	r2, r2, #14
 1774 0048 1A60     		str	r2, [r3]
 508:Impedance.c   ****     if(pData[i]&(1L<<17)) /* Bit17 is sign bit */
 1775              		.loc 1 508 0
 1776 004a 3B6B     		ldr	r3, [r7, #48]
 1777 004c 9B00     		lsls	r3, r3, #2
 1778 004e 7A68     		ldr	r2, [r7, #4]
 1779 0050 D318     		adds	r3, r2, r3
 1780 0052 1A68     		ldr	r2, [r3]
 1781 0054 8023     		movs	r3, #128
 1782 0056 9B02     		lsls	r3, r3, #10
 1783 0058 1340     		ands	r3, r2
 1784 005a 0CD0     		beq	.L95
 509:Impedance.c   ****     {
 510:Impedance.c   ****       pData[i] |= 0xfffc0000; /* Data is 18bit in two's complement, bit17 is the sign bit */
 1785              		.loc 1 510 0
 1786 005c 3B6B     		ldr	r3, [r7, #48]
 1787 005e 9B00     		lsls	r3, r3, #2
 1788 0060 7A68     		ldr	r2, [r7, #4]
 1789 0062 D318     		adds	r3, r2, r3
 1790 0064 3A6B     		ldr	r2, [r7, #48]
 1791 0066 9200     		lsls	r2, r2, #2
 1792 0068 7968     		ldr	r1, [r7, #4]
 1793 006a 8A18     		adds	r2, r1, r2
 1794 006c 1268     		ldr	r2, [r2]
 1795 006e 1100     		movs	r1, r2
 1796 0070 854A     		ldr	r2, .L101
 1797 0072 0A43     		orrs	r2, r1
 1798 0074 1A60     		str	r2, [r3]
 1799              	.L95:
 505:Impedance.c   ****   {
 1800              		.loc 1 505 0 discriminator 2
 1801 0076 3B6B     		ldr	r3, [r7, #48]
 1802 0078 0133     		adds	r3, r3, #1
 1803 007a 3B63     		str	r3, [r7, #48]
 1804              	.L94:
 505:Impedance.c   ****   {
 1805              		.loc 1 505 0 is_stmt 0 discriminator 1
 1806 007c 3A6B     		ldr	r2, [r7, #48]
 1807 007e BB6A     		ldr	r3, [r7, #40]
 1808 0080 9A42     		cmp	r2, r3
 1809 0082 D6D3     		bcc	.L96
 1810              	.LBE5:
 1811              	.LBB6:
 511:Impedance.c   ****     }
 512:Impedance.c   ****   }
 513:Impedance.c   ****   for(uint32_t i=0; i<ImpResCount; i++)
ARM GAS  C:\Users\13740\AppData\Local\Temp\cctWuNXI.s 			page 42


 1812              		.loc 1 513 0 is_stmt 1
 1813 0084 0023     		movs	r3, #0
 1814 0086 FB62     		str	r3, [r7, #44]
 1815 0088 D4E0     		b	.L97
 1816              	.L98:
 1817              	.LBB7:
 514:Impedance.c   ****   {
 515:Impedance.c   ****     iImpCar_Type *pDftRcal, *pDftRz;
 516:Impedance.c   **** 
 517:Impedance.c   ****     pDftRcal = pSrcData++;
 1818              		.loc 1 517 0 discriminator 3
 1819 008a 7B6B     		ldr	r3, [r7, #52]
 1820 008c 1A00     		movs	r2, r3
 1821 008e 0832     		adds	r2, r2, #8
 1822 0090 7A63     		str	r2, [r7, #52]
 1823 0092 FB61     		str	r3, [r7, #28]
 518:Impedance.c   ****     pDftRz = pSrcData++;
 1824              		.loc 1 518 0 discriminator 3
 1825 0094 7B6B     		ldr	r3, [r7, #52]
 1826 0096 1A00     		movs	r2, r3
 1827 0098 0832     		adds	r2, r2, #8
 1828 009a 7A63     		str	r2, [r7, #52]
 1829 009c BB61     		str	r3, [r7, #24]
 519:Impedance.c   ****     float RzMag,RzPhase;
 520:Impedance.c   ****     float RcalMag, RcalPhase;
 521:Impedance.c   ****     
 522:Impedance.c   ****     RcalMag = sqrt((float)pDftRcal->Real*pDftRcal->Real+(float)pDftRcal->Image*pDftRcal->Image);
 1830              		.loc 1 522 0 discriminator 3
 1831 009e FB69     		ldr	r3, [r7, #28]
 1832 00a0 1B68     		ldr	r3, [r3]
 1833 00a2 1800     		movs	r0, r3
 1834 00a4 FFF7FEFF 		bl	__aeabi_i2f
 1835 00a8 041C     		adds	r4, r0, #0
 1836 00aa FB69     		ldr	r3, [r7, #28]
 1837 00ac 1B68     		ldr	r3, [r3]
 1838 00ae 1800     		movs	r0, r3
 1839 00b0 FFF7FEFF 		bl	__aeabi_i2f
 1840 00b4 031C     		adds	r3, r0, #0
 1841 00b6 191C     		adds	r1, r3, #0
 1842 00b8 201C     		adds	r0, r4, #0
 1843 00ba FFF7FEFF 		bl	__aeabi_fmul
 1844 00be 031C     		adds	r3, r0, #0
 1845 00c0 1C1C     		adds	r4, r3, #0
 1846 00c2 FB69     		ldr	r3, [r7, #28]
 1847 00c4 5B68     		ldr	r3, [r3, #4]
 1848 00c6 1800     		movs	r0, r3
 1849 00c8 FFF7FEFF 		bl	__aeabi_i2f
 1850 00cc 051C     		adds	r5, r0, #0
 1851 00ce FB69     		ldr	r3, [r7, #28]
 1852 00d0 5B68     		ldr	r3, [r3, #4]
 1853 00d2 1800     		movs	r0, r3
 1854 00d4 FFF7FEFF 		bl	__aeabi_i2f
 1855 00d8 031C     		adds	r3, r0, #0
 1856 00da 191C     		adds	r1, r3, #0
 1857 00dc 281C     		adds	r0, r5, #0
 1858 00de FFF7FEFF 		bl	__aeabi_fmul
 1859 00e2 031C     		adds	r3, r0, #0
ARM GAS  C:\Users\13740\AppData\Local\Temp\cctWuNXI.s 			page 43


 1860 00e4 191C     		adds	r1, r3, #0
 1861 00e6 201C     		adds	r0, r4, #0
 1862 00e8 FFF7FEFF 		bl	__aeabi_fadd
 1863 00ec 031C     		adds	r3, r0, #0
 1864 00ee 181C     		adds	r0, r3, #0
 1865 00f0 FFF7FEFF 		bl	__aeabi_f2d
 1866 00f4 0300     		movs	r3, r0
 1867 00f6 0C00     		movs	r4, r1
 1868 00f8 1800     		movs	r0, r3
 1869 00fa 2100     		movs	r1, r4
 1870 00fc FFF7FEFF 		bl	sqrt
 1871 0100 0300     		movs	r3, r0
 1872 0102 0C00     		movs	r4, r1
 1873 0104 1800     		movs	r0, r3
 1874 0106 2100     		movs	r1, r4
 1875 0108 FFF7FEFF 		bl	__aeabi_d2f
 1876 010c 031C     		adds	r3, r0, #0
 1877 010e 7B61     		str	r3, [r7, #20]
 523:Impedance.c   ****     RcalPhase = atan2(-pDftRcal->Image,pDftRcal->Real);
 1878              		.loc 1 523 0 discriminator 3
 1879 0110 FB69     		ldr	r3, [r7, #28]
 1880 0112 5B68     		ldr	r3, [r3, #4]
 1881 0114 5B42     		rsbs	r3, r3, #0
 1882 0116 1800     		movs	r0, r3
 1883 0118 FFF7FEFF 		bl	__aeabi_i2d
 1884 011c 0400     		movs	r4, r0
 1885 011e 0D00     		movs	r5, r1
 1886 0120 FB69     		ldr	r3, [r7, #28]
 1887 0122 1B68     		ldr	r3, [r3]
 1888 0124 1800     		movs	r0, r3
 1889 0126 FFF7FEFF 		bl	__aeabi_i2d
 1890 012a 0200     		movs	r2, r0
 1891 012c 0B00     		movs	r3, r1
 1892 012e 2000     		movs	r0, r4
 1893 0130 2900     		movs	r1, r5
 1894 0132 FFF7FEFF 		bl	atan2
 1895 0136 0300     		movs	r3, r0
 1896 0138 0C00     		movs	r4, r1
 1897 013a 1800     		movs	r0, r3
 1898 013c 2100     		movs	r1, r4
 1899 013e FFF7FEFF 		bl	__aeabi_d2f
 1900 0142 031C     		adds	r3, r0, #0
 1901 0144 3B61     		str	r3, [r7, #16]
 524:Impedance.c   ****     RzMag = sqrt((float)pDftRz->Real*pDftRz->Real+(float)pDftRz->Image*pDftRz->Image);
 1902              		.loc 1 524 0 discriminator 3
 1903 0146 BB69     		ldr	r3, [r7, #24]
 1904 0148 1B68     		ldr	r3, [r3]
 1905 014a 1800     		movs	r0, r3
 1906 014c FFF7FEFF 		bl	__aeabi_i2f
 1907 0150 041C     		adds	r4, r0, #0
 1908 0152 BB69     		ldr	r3, [r7, #24]
 1909 0154 1B68     		ldr	r3, [r3]
 1910 0156 1800     		movs	r0, r3
 1911 0158 FFF7FEFF 		bl	__aeabi_i2f
 1912 015c 031C     		adds	r3, r0, #0
 1913 015e 191C     		adds	r1, r3, #0
 1914 0160 201C     		adds	r0, r4, #0
ARM GAS  C:\Users\13740\AppData\Local\Temp\cctWuNXI.s 			page 44


 1915 0162 FFF7FEFF 		bl	__aeabi_fmul
 1916 0166 031C     		adds	r3, r0, #0
 1917 0168 1C1C     		adds	r4, r3, #0
 1918 016a BB69     		ldr	r3, [r7, #24]
 1919 016c 5B68     		ldr	r3, [r3, #4]
 1920 016e 1800     		movs	r0, r3
 1921 0170 FFF7FEFF 		bl	__aeabi_i2f
 1922 0174 051C     		adds	r5, r0, #0
 1923 0176 BB69     		ldr	r3, [r7, #24]
 1924 0178 5B68     		ldr	r3, [r3, #4]
 1925 017a 1800     		movs	r0, r3
 1926 017c FFF7FEFF 		bl	__aeabi_i2f
 1927 0180 031C     		adds	r3, r0, #0
 1928 0182 191C     		adds	r1, r3, #0
 1929 0184 281C     		adds	r0, r5, #0
 1930 0186 FFF7FEFF 		bl	__aeabi_fmul
 1931 018a 031C     		adds	r3, r0, #0
 1932 018c 191C     		adds	r1, r3, #0
 1933 018e 201C     		adds	r0, r4, #0
 1934 0190 FFF7FEFF 		bl	__aeabi_fadd
 1935 0194 031C     		adds	r3, r0, #0
 1936 0196 181C     		adds	r0, r3, #0
 1937 0198 FFF7FEFF 		bl	__aeabi_f2d
 1938 019c 0300     		movs	r3, r0
 1939 019e 0C00     		movs	r4, r1
 1940 01a0 1800     		movs	r0, r3
 1941 01a2 2100     		movs	r1, r4
 1942 01a4 FFF7FEFF 		bl	sqrt
 1943 01a8 0300     		movs	r3, r0
 1944 01aa 0C00     		movs	r4, r1
 1945 01ac 1800     		movs	r0, r3
 1946 01ae 2100     		movs	r1, r4
 1947 01b0 FFF7FEFF 		bl	__aeabi_d2f
 1948 01b4 031C     		adds	r3, r0, #0
 1949 01b6 FB60     		str	r3, [r7, #12]
 525:Impedance.c   ****     RzPhase = atan2(-pDftRz->Image,pDftRz->Real);
 1950              		.loc 1 525 0 discriminator 3
 1951 01b8 BB69     		ldr	r3, [r7, #24]
 1952 01ba 5B68     		ldr	r3, [r3, #4]
 1953 01bc 5B42     		rsbs	r3, r3, #0
 1954 01be 1800     		movs	r0, r3
 1955 01c0 FFF7FEFF 		bl	__aeabi_i2d
 1956 01c4 0400     		movs	r4, r0
 1957 01c6 0D00     		movs	r5, r1
 1958 01c8 BB69     		ldr	r3, [r7, #24]
 1959 01ca 1B68     		ldr	r3, [r3]
 1960 01cc 1800     		movs	r0, r3
 1961 01ce FFF7FEFF 		bl	__aeabi_i2d
 1962 01d2 0200     		movs	r2, r0
 1963 01d4 0B00     		movs	r3, r1
 1964 01d6 2000     		movs	r0, r4
 1965 01d8 2900     		movs	r1, r5
 1966 01da FFF7FEFF 		bl	atan2
 1967 01de 0300     		movs	r3, r0
 1968 01e0 0C00     		movs	r4, r1
 1969 01e2 1800     		movs	r0, r3
 1970 01e4 2100     		movs	r1, r4
ARM GAS  C:\Users\13740\AppData\Local\Temp\cctWuNXI.s 			page 45


 1971 01e6 FFF7FEFF 		bl	__aeabi_d2f
 1972 01ea 031C     		adds	r3, r0, #0
 1973 01ec BB60     		str	r3, [r7, #8]
 526:Impedance.c   **** 
 527:Impedance.c   ****     RzMag = RcalMag/RzMag*AppIMPCfg.RcalVal;
 1974              		.loc 1 527 0 discriminator 3
 1975 01ee F968     		ldr	r1, [r7, #12]
 1976 01f0 7869     		ldr	r0, [r7, #20]
 1977 01f2 FFF7FEFF 		bl	__aeabi_fdiv
 1978 01f6 031C     		adds	r3, r0, #0
 1979 01f8 1A1C     		adds	r2, r3, #0
 1980 01fa 244B     		ldr	r3, .L101+4
 1981 01fc 9B6A     		ldr	r3, [r3, #40]
 1982 01fe 191C     		adds	r1, r3, #0
 1983 0200 101C     		adds	r0, r2, #0
 1984 0202 FFF7FEFF 		bl	__aeabi_fmul
 1985 0206 031C     		adds	r3, r0, #0
 1986 0208 FB60     		str	r3, [r7, #12]
 528:Impedance.c   ****     RzPhase = RcalPhase - RzPhase;
 1987              		.loc 1 528 0 discriminator 3
 1988 020a B968     		ldr	r1, [r7, #8]
 1989 020c 3869     		ldr	r0, [r7, #16]
 1990 020e FFF7FEFF 		bl	__aeabi_fsub
 1991 0212 031C     		adds	r3, r0, #0
 1992 0214 BB60     		str	r3, [r7, #8]
 529:Impedance.c   ****     //printf("V:%d,%d,I:%d,%d ",pDftRcal->Real,pDftRcal->Image, pDftRz->Real, pDftRz->Image);
 530:Impedance.c   ****     
 531:Impedance.c   ****     pOut[i].Magnitude = RzMag;
 1993              		.loc 1 531 0 discriminator 3
 1994 0216 FB6A     		ldr	r3, [r7, #44]
 1995 0218 DB00     		lsls	r3, r3, #3
 1996 021a 3A6A     		ldr	r2, [r7, #32]
 1997 021c D318     		adds	r3, r2, r3
 1998 021e FA68     		ldr	r2, [r7, #12]
 1999 0220 1A60     		str	r2, [r3]
 532:Impedance.c   ****     pOut[i].Phase = RzPhase;
 2000              		.loc 1 532 0 discriminator 3
 2001 0222 FB6A     		ldr	r3, [r7, #44]
 2002 0224 DB00     		lsls	r3, r3, #3
 2003 0226 3A6A     		ldr	r2, [r7, #32]
 2004 0228 D318     		adds	r3, r2, r3
 2005 022a BA68     		ldr	r2, [r7, #8]
 2006 022c 5A60     		str	r2, [r3, #4]
 2007              	.LBE7:
 513:Impedance.c   ****   {
 2008              		.loc 1 513 0 discriminator 3
 2009 022e FB6A     		ldr	r3, [r7, #44]
 2010 0230 0133     		adds	r3, r3, #1
 2011 0232 FB62     		str	r3, [r7, #44]
 2012              	.L97:
 513:Impedance.c   ****   {
 2013              		.loc 1 513 0 is_stmt 0 discriminator 1
 2014 0234 FA6A     		ldr	r2, [r7, #44]
 2015 0236 7B6A     		ldr	r3, [r7, #36]
 2016 0238 9A42     		cmp	r2, r3
 2017 023a 00D2     		bcs	.LCB1711
 2018 023c 25E7     		b	.L98	@long jump
ARM GAS  C:\Users\13740\AppData\Local\Temp\cctWuNXI.s 			page 46


 2019              	.LCB1711:
 2020              	.LBE6:
 533:Impedance.c   ****   }
 534:Impedance.c   ****   *pDataCount = ImpResCount; 
 2021              		.loc 1 534 0 is_stmt 1
 2022 023e 3B68     		ldr	r3, [r7]
 2023 0240 7A6A     		ldr	r2, [r7, #36]
 2024 0242 1A60     		str	r2, [r3]
 535:Impedance.c   ****   AppIMPCfg.FreqofData = AppIMPCfg.SweepCurrFreq;
 2025              		.loc 1 535 0
 2026 0244 114B     		ldr	r3, .L101+4
 2027 0246 8C22     		movs	r2, #140
 2028 0248 9A58     		ldr	r2, [r3, r2]
 2029 024a 104B     		ldr	r3, .L101+4
 2030 024c 9421     		movs	r1, #148
 2031 024e 5A50     		str	r2, [r3, r1]
 536:Impedance.c   ****   /* Calculate next frequency point */
 537:Impedance.c   ****   if(AppIMPCfg.SweepCfg.SweepEn == bTRUE)
 2032              		.loc 1 537 0
 2033 0250 0E4B     		ldr	r3, .L101+4
 2034 0252 7022     		movs	r2, #112
 2035 0254 9B5C     		ldrb	r3, [r3, r2]
 2036 0256 012B     		cmp	r3, #1
 2037 0258 11D1     		bne	.L99
 538:Impedance.c   ****   {
 539:Impedance.c   ****     AppIMPCfg.FreqofData = AppIMPCfg.SweepCurrFreq;
 2038              		.loc 1 539 0
 2039 025a 0C4B     		ldr	r3, .L101+4
 2040 025c 8C22     		movs	r2, #140
 2041 025e 9A58     		ldr	r2, [r3, r2]
 2042 0260 0A4B     		ldr	r3, .L101+4
 2043 0262 9421     		movs	r1, #148
 2044 0264 5A50     		str	r2, [r3, r1]
 540:Impedance.c   ****     AppIMPCfg.SweepCurrFreq = AppIMPCfg.SweepNextFreq;
 2045              		.loc 1 540 0
 2046 0266 094B     		ldr	r3, .L101+4
 2047 0268 9022     		movs	r2, #144
 2048 026a 9A58     		ldr	r2, [r3, r2]
 2049 026c 074B     		ldr	r3, .L101+4
 2050 026e 8C21     		movs	r1, #140
 2051 0270 5A50     		str	r2, [r3, r1]
 541:Impedance.c   ****     AD5940_SweepNext(&AppIMPCfg.SweepCfg, &AppIMPCfg.SweepNextFreq);
 2052              		.loc 1 541 0
 2053 0272 074A     		ldr	r2, .L101+8
 2054 0274 074B     		ldr	r3, .L101+12
 2055 0276 1100     		movs	r1, r2
 2056 0278 1800     		movs	r0, r3
 2057 027a FFF7FEFF 		bl	AD5940_SweepNext
 2058              	.L99:
 542:Impedance.c   ****   }
 543:Impedance.c   **** 
 544:Impedance.c   ****   return 0;
 2059              		.loc 1 544 0
 2060 027e 0023     		movs	r3, #0
 545:Impedance.c   **** }
 2061              		.loc 1 545 0
 2062 0280 1800     		movs	r0, r3
ARM GAS  C:\Users\13740\AppData\Local\Temp\cctWuNXI.s 			page 47


 2063 0282 BD46     		mov	sp, r7
 2064 0284 0EB0     		add	sp, sp, #56
 2065              		@ sp needed
 2066 0286 B0BD     		pop	{r4, r5, r7, pc}
 2067              	.L102:
 2068              		.align	2
 2069              	.L101:
 2070 0288 0000FCFF 		.word	-262144
 2071 028c 00000000 		.word	AppIMPCfg
 2072 0290 90000000 		.word	AppIMPCfg+144
 2073 0294 70000000 		.word	AppIMPCfg+112
 2074              		.cfi_endproc
 2075              	.LFE8:
 2076              		.size	AppIMPDataProcess, .-AppIMPDataProcess
 2077              		.section	.text.AppIMPISR,"ax",%progbits
 2078              		.align	2
 2079              		.global	AppIMPISR
 2080              		.code	16
 2081              		.thumb_func
 2082              		.type	AppIMPISR, %function
 2083              	AppIMPISR:
 2084              	.LFB9:
 546:Impedance.c   **** 
 547:Impedance.c   **** /**
 548:Impedance.c   **** 
 549:Impedance.c   **** */
 550:Impedance.c   **** int32_t AppIMPISR(void *pBuff, uint32_t *pCount)
 551:Impedance.c   **** {
 2085              		.loc 1 551 0
 2086              		.cfi_startproc
 2087              		@ args = 0, pretend = 0, frame = 16
 2088              		@ frame_needed = 1, uses_anonymous_args = 0
 2089 0000 80B5     		push	{r7, lr}
 2090              		.cfi_def_cfa_offset 8
 2091              		.cfi_offset 7, -8
 2092              		.cfi_offset 14, -4
 2093 0002 84B0     		sub	sp, sp, #16
 2094              		.cfi_def_cfa_offset 24
 2095 0004 00AF     		add	r7, sp, #0
 2096              		.cfi_def_cfa_register 7
 2097 0006 7860     		str	r0, [r7, #4]
 2098 0008 3960     		str	r1, [r7]
 552:Impedance.c   ****   uint32_t BuffCount;
 553:Impedance.c   ****   uint32_t FifoCnt;
 554:Impedance.c   ****   BuffCount = *pCount;
 2099              		.loc 1 554 0
 2100 000a 3B68     		ldr	r3, [r7]
 2101 000c 1B68     		ldr	r3, [r3]
 2102 000e FB60     		str	r3, [r7, #12]
 555:Impedance.c   ****   
 556:Impedance.c   ****   *pCount = 0;
 2103              		.loc 1 556 0
 2104 0010 3B68     		ldr	r3, [r7]
 2105 0012 0022     		movs	r2, #0
 2106 0014 1A60     		str	r2, [r3]
 557:Impedance.c   ****   
 558:Impedance.c   ****   if(AD5940_WakeUp(10) > 10)  /* Wakeup AFE by read register, read 10 times at most */
ARM GAS  C:\Users\13740\AppData\Local\Temp\cctWuNXI.s 			page 48


 2107              		.loc 1 558 0
 2108 0016 0A20     		movs	r0, #10
 2109 0018 FFF7FEFF 		bl	AD5940_WakeUp
 2110 001c 0300     		movs	r3, r0
 2111 001e 0A2B     		cmp	r3, #10
 2112 0020 02D9     		bls	.L104
 559:Impedance.c   ****     return AD5940ERR_WAKEUP;  /* Wakeup Failed */
 2113              		.loc 1 559 0
 2114 0022 0923     		movs	r3, #9
 2115 0024 5B42     		rsbs	r3, r3, #0
 2116 0026 34E0     		b	.L107
 2117              	.L104:
 560:Impedance.c   ****   AD5940_SleepKeyCtrlS(SLPKEY_LOCK);  /* Prohibit AFE to enter sleep mode. */
 2118              		.loc 1 560 0
 2119 0028 0020     		movs	r0, #0
 2120 002a FFF7FEFF 		bl	AD5940_SleepKeyCtrlS
 561:Impedance.c   **** 
 562:Impedance.c   ****   if(AD5940_INTCTestFlag(AFEINTC_0, AFEINTSRC_DATAFIFOTHRESH) == bTRUE)
 2121              		.loc 1 562 0
 2122 002e 8023     		movs	r3, #128
 2123 0030 9B04     		lsls	r3, r3, #18
 2124 0032 1900     		movs	r1, r3
 2125 0034 0020     		movs	r0, #0
 2126 0036 FFF7FEFF 		bl	AD5940_INTCTestFlag
 2127 003a 0300     		movs	r3, r0
 2128 003c 012B     		cmp	r3, #1
 2129 003e 27D1     		bne	.L106
 563:Impedance.c   ****   {
 564:Impedance.c   ****     /* Now there should be 4 data in FIFO */
 565:Impedance.c   ****     FifoCnt = (AD5940_FIFOGetCnt()/4)*4;
 2130              		.loc 1 565 0
 2131 0040 FFF7FEFF 		bl	AD5940_FIFOGetCnt
 2132 0044 0300     		movs	r3, r0
 2133 0046 9B08     		lsrs	r3, r3, #2
 2134 0048 9B00     		lsls	r3, r3, #2
 2135 004a BB60     		str	r3, [r7, #8]
 566:Impedance.c   ****     
 567:Impedance.c   ****     if(FifoCnt > BuffCount)
 568:Impedance.c   ****     {
 569:Impedance.c   ****       ///@todo buffer is limited.
 570:Impedance.c   ****     }
 571:Impedance.c   ****     AD5940_FIFORd((uint32_t *)pBuff, FifoCnt);
 2136              		.loc 1 571 0
 2137 004c BA68     		ldr	r2, [r7, #8]
 2138 004e 7B68     		ldr	r3, [r7, #4]
 2139 0050 1100     		movs	r1, r2
 2140 0052 1800     		movs	r0, r3
 2141 0054 FFF7FEFF 		bl	AD5940_FIFORd
 572:Impedance.c   ****     AD5940_INTCClrFlag(AFEINTSRC_DATAFIFOTHRESH);
 2142              		.loc 1 572 0
 2143 0058 8023     		movs	r3, #128
 2144 005a 9B04     		lsls	r3, r3, #18
 2145 005c 1800     		movs	r0, r3
 2146 005e FFF7FEFF 		bl	AD5940_INTCClrFlag
 573:Impedance.c   ****     AppIMPRegModify(pBuff, &FifoCnt);   /* If there is need to do AFE re-configure, do it here when
 2147              		.loc 1 573 0
 2148 0062 0823     		movs	r3, #8
ARM GAS  C:\Users\13740\AppData\Local\Temp\cctWuNXI.s 			page 49


 2149 0064 FA18     		adds	r2, r7, r3
 2150 0066 7B68     		ldr	r3, [r7, #4]
 2151 0068 1100     		movs	r1, r2
 2152 006a 1800     		movs	r0, r3
 2153 006c FFF7FEFF 		bl	AppIMPRegModify
 574:Impedance.c   ****     //AD5940_EnterSleepS(); /* Manually put AFE back to hibernate mode. This operation only takes e
 575:Impedance.c   ****     AD5940_SleepKeyCtrlS(SLPKEY_UNLOCK);  /* Allow AFE to enter sleep mode. */
 2154              		.loc 1 575 0
 2155 0070 0A4B     		ldr	r3, .L108
 2156 0072 1800     		movs	r0, r3
 2157 0074 FFF7FEFF 		bl	AD5940_SleepKeyCtrlS
 576:Impedance.c   ****     /* Process data */ 
 577:Impedance.c   ****     AppIMPDataProcess((int32_t*)pBuff,&FifoCnt); 
 2158              		.loc 1 577 0
 2159 0078 0823     		movs	r3, #8
 2160 007a FA18     		adds	r2, r7, r3
 2161 007c 7B68     		ldr	r3, [r7, #4]
 2162 007e 1100     		movs	r1, r2
 2163 0080 1800     		movs	r0, r3
 2164 0082 FFF7FEFF 		bl	AppIMPDataProcess
 578:Impedance.c   ****     *pCount = FifoCnt;
 2165              		.loc 1 578 0
 2166 0086 BA68     		ldr	r2, [r7, #8]
 2167 0088 3B68     		ldr	r3, [r7]
 2168 008a 1A60     		str	r2, [r3]
 579:Impedance.c   ****     return 0;
 2169              		.loc 1 579 0
 2170 008c 0023     		movs	r3, #0
 2171 008e 00E0     		b	.L107
 2172              	.L106:
 580:Impedance.c   ****   }
 581:Impedance.c   ****   
 582:Impedance.c   ****   return 0;
 2173              		.loc 1 582 0
 2174 0090 0023     		movs	r3, #0
 2175              	.L107:
 583:Impedance.c   **** } 
 2176              		.loc 1 583 0 discriminator 1
 2177 0092 1800     		movs	r0, r3
 2178 0094 BD46     		mov	sp, r7
 2179 0096 04B0     		add	sp, sp, #16
 2180              		@ sp needed
 2181 0098 80BD     		pop	{r7, pc}
 2182              	.L109:
 2183 009a C046     		.align	2
 2184              	.L108:
 2185 009c E5470A00 		.word	673765
 2186              		.cfi_endproc
 2187              	.LFE9:
 2188              		.size	AppIMPISR, .-AppIMPISR
 2189              		.text
 2190              	.Letext0:
 2191              		.file 2 "f:\\infineon\\psoc creator\\4.4\\psoc creator\\import\\gnu\\arm\\5.4.1\\arm-none-eabi\\in
 2192              		.file 3 "f:\\infineon\\psoc creator\\4.4\\psoc creator\\import\\gnu\\arm\\5.4.1\\arm-none-eabi\\in
 2193              		.file 4 "ad5940.h"
 2194              		.file 5 "Impedance.h"