ARM GAS  C:\Users\13740\AppData\Local\Temp\cctWuNXI.s 			page 1


   1              		.syntax unified
   2              		.cpu cortex-m0
   3              		.fpu softvfp
   4              		.eabi_attribute 20, 1
   5              		.eabi_attribute 21, 1
   6              		.eabi_attribute 23, 3
   7              		.eabi_attribute 24, 1
   8              		.eabi_attribute 25, 1
   9              		.eabi_attribute 26, 1
  10              		.eabi_attribute 30, 6
  11              		.eabi_attribute 34, 0
  12              		.eabi_attribute 18, 4
  13              		.thumb
  14              		.syntax unified
  15              		.file	"Impedance.c"
  16              		.text
  17              	.Ltext0:
  18              		.cfi_sections	.debug_frame
  19              		.global	AppIMPCfg
  20              		.data
  21              		.align	2
  22              		.type	AppIMPCfg, %object
  23              		.size	AppIMPCfg, 204
  24              	AppIMPCfg:
  25 0000 00       		.byte	0
  26 0001 000000   		.space	3
  27 0004 00000000 		.word	0
  28 0008 00000000 		.word	0
  29 000c 00000000 		.word	0
  30 0010 00000000 		.word	0
  31 0014 0000A041 		.word	1101004800
  32 0018 FFFFFFFF 		.word	-1
  33 001c 0000FA46 		.word	1190789120
  34 0020 0024744B 		.word	1265902592
  35 0024 0024744B 		.word	1265902592
  36 0028 00401C46 		.word	1176256512
  37 002c 10000000 		.word	16
  38 0030 00040000 		.word	1024
  39 0034 02000000 		.word	2
  40 0038 02000000 		.word	2
  41 003c 01000000 		.word	1
  42 0040 02000000 		.word	2
  43 0044 00000000 		.word	0
  44 0048 00000000 		.word	0
  45 004c 07000000 		.word	7
  46 0050 00004844 		.word	1145569280
  47 0054 00000080 		.word	-2147483648
  48 0058 0050C347 		.word	1203982336
  49 005c 0C000000 		.word	12
  50 0060 01000000 		.word	1
  51 0064 01       		.byte	1
  52 0065 000000   		.space	3
  53 0068 00000000 		.word	0
  54 006c 02       		.byte	2
  55 006d 00       		.byte	0
  56 006e 03       		.byte	3
  57 006f 00       		.space	1
ARM GAS  C:\Users\13740\AppData\Local\Temp\cctWuNXI.s 			page 2


  58 0070 01       		.byte	1
  59 0071 000000   		.space	3
  60 0074 00007A44 		.word	1148846080
  61 0078 0050C347 		.word	1203982336
  62 007c 65000000 		.word	101
  63 0080 00       		.byte	0
  64 0081 000000   		.space	3
  65 0084 00000000 		.word	0
  66 0088 04000000 		.word	4
  67 008c 00000000 		.space	12
  67      00000000 
  67      00000000 
  68 0098 00       		.byte	0
  69 0099 00000000 		.space	43
  69      00000000 
  69      00000000 
  69      00000000 
  69      00000000 
  70 00c4 00       		.byte	0
  71 00c5 00000000 		.space	7
  71      000000
  72              		.section	.text.AppIMPGetCfg,"ax",%progbits
  73              		.align	2
  74              		.global	AppIMPGetCfg
  75              		.code	16
  76              		.thumb_func
  77              		.type	AppIMPGetCfg, %function
  78              	AppIMPGetCfg:
  79              	.LFB1:
  80              		.file 1 "Impedance.c"
   1:Impedance.c   **** /*!
   2:Impedance.c   ****  *****************************************************************************
   3:Impedance.c   ****  @file:    Impedance.c
   4:Impedance.c   ****  @author:  Neo Xu
   5:Impedance.c   ****  @brief:   standard 4-wire or 2-wire impedance measurement sequences.
   6:Impedance.c   ****  -----------------------------------------------------------------------------
   7:Impedance.c   **** 
   8:Impedance.c   **** Copyright (c) 2017-2019 Analog Devices, Inc. All Rights Reserved.
   9:Impedance.c   **** 
  10:Impedance.c   **** This software is proprietary to Analog Devices, Inc. and its licensors.
  11:Impedance.c   **** By using this software you agree to the terms of the associated
  12:Impedance.c   **** Analog Devices Software License Agreement.
  13:Impedance.c   ****  
  14:Impedance.c   **** *****************************************************************************/
  15:Impedance.c   **** #include "ad5940.h"
  16:Impedance.c   **** #include <stdio.h>
  17:Impedance.c   **** #include "string.h"
  18:Impedance.c   **** #include "math.h"
  19:Impedance.c   **** #include "Impedance.h"
  20:Impedance.c   **** 
  21:Impedance.c   **** /* Default LPDAC resolution(2.5V internal reference). */
  22:Impedance.c   **** #define DAC12BITVOLT_1LSB   (2200.0f/4095)  //mV
  23:Impedance.c   **** #define DAC6BITVOLT_1LSB    (DAC12BITVOLT_1LSB*64)  //mV
  24:Impedance.c   **** 
  25:Impedance.c   **** /* 
  26:Impedance.c   ****   Application configuration structure. Specified by user from template.
  27:Impedance.c   ****   The variables are usable in this whole application.
ARM GAS  C:\Users\13740\AppData\Local\Temp\cctWuNXI.s 			page 3


  28:Impedance.c   ****   It includes basic configuration for sequencer generator and application related parameters
  29:Impedance.c   **** */
  30:Impedance.c   **** AppIMPCfg_Type AppIMPCfg = 
  31:Impedance.c   **** {
  32:Impedance.c   ****   .bParaChanged = bFALSE,
  33:Impedance.c   ****   .SeqStartAddr = 0,
  34:Impedance.c   ****   .MaxSeqLen = 0,
  35:Impedance.c   ****   
  36:Impedance.c   ****   .SeqStartAddrCal = 0,
  37:Impedance.c   ****   .MaxSeqLenCal = 0,
  38:Impedance.c   **** 
  39:Impedance.c   ****   .ImpODR = 20.0,           /* 20.0 Hz*/
  40:Impedance.c   ****   .NumOfData = -1,
  41:Impedance.c   ****   .SysClkFreq = 16000000.0,
  42:Impedance.c   ****   .WuptClkFreq = 32000.0,
  43:Impedance.c   ****   .AdcClkFreq = 16000000.0,
  44:Impedance.c   ****   .RcalVal = 10000.0,
  45:Impedance.c   **** 
  46:Impedance.c   ****   .DswitchSel = SWD_CE0,
  47:Impedance.c   ****   .PswitchSel = SWP_CE0,
  48:Impedance.c   ****   .NswitchSel = SWN_AIN1,
  49:Impedance.c   ****   .TswitchSel = SWT_AIN1,
  50:Impedance.c   **** 
  51:Impedance.c   ****   .PwrMod = AFEPWR_HP,
  52:Impedance.c   **** 
  53:Impedance.c   ****   .HstiaRtiaSel = HSTIARTIA_5K,
  54:Impedance.c   ****   .ExcitBufGain = EXCITBUFGAIN_2,
  55:Impedance.c   ****   .HsDacGain = HSDACGAIN_1,
  56:Impedance.c   ****   .HsDacUpdateRate = 7,
  57:Impedance.c   ****   .DacVoltPP = 800.0,
  58:Impedance.c   ****   .BiasVolt = -0.0f,
  59:Impedance.c   **** 
  60:Impedance.c   ****   .SinFreq = 100000.0, /* 1000Hz */
  61:Impedance.c   **** 
  62:Impedance.c   ****   .DftNum = DFTNUM_16384,
  63:Impedance.c   ****   .DftSrc = DFTSRC_SINC3,
  64:Impedance.c   ****   .HanWinEn = bTRUE,
  65:Impedance.c   **** 
  66:Impedance.c   ****   .AdcPgaGain = ADCPGA_1,
  67:Impedance.c   ****   .ADCSinc3Osr = ADCSINC3OSR_2,
  68:Impedance.c   ****   .ADCSinc2Osr = ADCSINC2OSR_22,
  69:Impedance.c   **** 
  70:Impedance.c   ****   .ADCAvgNum = ADCAVGNUM_16,
  71:Impedance.c   **** 
  72:Impedance.c   ****   .SweepCfg.SweepEn = bTRUE,
  73:Impedance.c   ****   .SweepCfg.SweepStart = 1000,
  74:Impedance.c   ****   .SweepCfg.SweepStop = 100000.0,
  75:Impedance.c   ****   .SweepCfg.SweepPoints = 101,
  76:Impedance.c   ****   .SweepCfg.SweepLog = bFALSE,
  77:Impedance.c   ****   .SweepCfg.SweepIndex = 0,
  78:Impedance.c   **** 
  79:Impedance.c   ****   .FifoThresh = 4,
  80:Impedance.c   ****   .IMPInited = bFALSE,
  81:Impedance.c   ****   .StopRequired = bFALSE,
  82:Impedance.c   **** };
  83:Impedance.c   **** 
  84:Impedance.c   **** /**
ARM GAS  C:\Users\13740\AppData\Local\Temp\cctWuNXI.s 			page 4


  85:Impedance.c   ****    This function is provided for upper controllers that want to change 
  86:Impedance.c   ****    application parameters specially for user defined parameters.
  87:Impedance.c   **** */
  88:Impedance.c   **** int32_t AppIMPGetCfg(void *pCfg)
  89:Impedance.c   **** {
  81              		.loc 1 89 0
  82              		.cfi_startproc
  83              		@ args = 0, pretend = 0, frame = 8
  84              		@ frame_needed = 1, uses_anonymous_args = 0
  85 0000 80B5     		push	{r7, lr}
  86              		.cfi_def_cfa_offset 8
  87              		.cfi_offset 7, -8
  88              		.cfi_offset 14, -4
  89 0002 82B0     		sub	sp, sp, #8
  90              		.cfi_def_cfa_offset 16
  91 0004 00AF     		add	r7, sp, #0
  92              		.cfi_def_cfa_register 7
  93 0006 7860     		str	r0, [r7, #4]
  90:Impedance.c   ****   if(pCfg)
  94              		.loc 1 90 0
  95 0008 7B68     		ldr	r3, [r7, #4]
  96 000a 002B     		cmp	r3, #0
  97 000c 04D0     		beq	.L2
  91:Impedance.c   ****   {
  92:Impedance.c   ****     *(AppIMPCfg_Type**)pCfg = &AppIMPCfg;
  98              		.loc 1 92 0
  99 000e 7B68     		ldr	r3, [r7, #4]
 100 0010 044A     		ldr	r2, .L4
 101 0012 1A60     		str	r2, [r3]
  93:Impedance.c   ****     return AD5940ERR_OK;
 102              		.loc 1 93 0
 103 0014 0023     		movs	r3, #0
 104 0016 01E0     		b	.L3
 105              	.L2:
  94:Impedance.c   ****   }
  95:Impedance.c   ****   return AD5940ERR_PARA;
 106              		.loc 1 95 0
 107 0018 0223     		movs	r3, #2
 108 001a 5B42     		rsbs	r3, r3, #0
 109              	.L3:
  96:Impedance.c   **** }
 110              		.loc 1 96 0
 111 001c 1800     		movs	r0, r3
 112 001e BD46     		mov	sp, r7
 113 0020 02B0     		add	sp, sp, #8
 114              		@ sp needed
 115 0022 80BD     		pop	{r7, pc}
 116              	.L5:
 117              		.align	2
 118              	.L4:
 119 0024 00000000 		.word	AppIMPCfg
 120              		.cfi_endproc
 121              	.LFE1:
 122              		.size	AppIMPGetCfg, .-AppIMPGetCfg
 123              		.global	__aeabi_fdiv
 124              		.global	__aeabi_f2uiz
 125              		.section	.text.AppIMPCtrl,"ax",%progbits
ARM GAS  C:\Users\13740\AppData\Local\Temp\cctWuNXI.s 			page 5


 126              		.align	2
 127              		.global	AppIMPCtrl
 128              		.code	16
 129              		.thumb_func
 130              		.type	AppIMPCtrl, %function
 131              	AppIMPCtrl:
 132              	.LFB2:
  97:Impedance.c   **** 
  98:Impedance.c   **** int32_t AppIMPCtrl(uint32_t Command, void *pPara)
  99:Impedance.c   **** {
 133              		.loc 1 99 0
 134              		.cfi_startproc
 135              		@ args = 0, pretend = 0, frame = 96
 136              		@ frame_needed = 1, uses_anonymous_args = 0
 137 0000 80B5     		push	{r7, lr}
 138              		.cfi_def_cfa_offset 8
 139              		.cfi_offset 7, -8
 140              		.cfi_offset 14, -4
 141 0002 98B0     		sub	sp, sp, #96
 142              		.cfi_def_cfa_offset 104
 143 0004 00AF     		add	r7, sp, #0
 144              		.cfi_def_cfa_register 7
 145 0006 7860     		str	r0, [r7, #4]
 146 0008 3960     		str	r1, [r7]
 100:Impedance.c   ****   
 101:Impedance.c   ****   switch (Command)
 147              		.loc 1 101 0
 148 000a 7B68     		ldr	r3, [r7, #4]
 149 000c 042B     		cmp	r3, #4
 150 000e 00D9     		bls	.LCB62
 151 0010 8CE0     		b	.L23	@long jump
 152              	.LCB62:
 153 0012 7B68     		ldr	r3, [r7, #4]
 154 0014 9A00     		lsls	r2, r3, #2
 155 0016 484B     		ldr	r3, .L24
 156 0018 D318     		adds	r3, r2, r3
 157 001a 1B68     		ldr	r3, [r3]
 158 001c 9F46     		mov	pc, r3
 159              		.section	.rodata
 160              		.align	2
 161              	.L9:
 162 0000 1E000000 		.word	.L8
 163 0004 98000000 		.word	.L10
 164 0008 B8000000 		.word	.L11
 165 000c C2000000 		.word	.L12
 166 0010 EE000000 		.word	.L13
 167              		.section	.text.AppIMPCtrl
 168              	.L8:
 169              	.LBB2:
 102:Impedance.c   ****   {
 103:Impedance.c   ****     case IMPCTRL_START:
 104:Impedance.c   ****     {
 105:Impedance.c   ****       WUPTCfg_Type wupt_cfg;
 106:Impedance.c   **** 
 107:Impedance.c   ****       if(AD5940_WakeUp(10) > 10)  /* Wakeup AFE by read register, read 10 times at most */
 170              		.loc 1 107 0
 171 001e 0A20     		movs	r0, #10
ARM GAS  C:\Users\13740\AppData\Local\Temp\cctWuNXI.s 			page 6


 172 0020 FFF7FEFF 		bl	AD5940_WakeUp
 173 0024 0300     		movs	r3, r0
 174 0026 0A2B     		cmp	r3, #10
 175 0028 02D9     		bls	.L14
 108:Impedance.c   ****         return AD5940ERR_WAKEUP;  /* Wakeup Failed */
 176              		.loc 1 108 0
 177 002a 0923     		movs	r3, #9
 178 002c 5B42     		rsbs	r3, r3, #0
 179 002e 7FE0     		b	.L18
 180              	.L14:
 109:Impedance.c   ****       if(AppIMPCfg.IMPInited == bFALSE)
 181              		.loc 1 109 0
 182 0030 424B     		ldr	r3, .L24+4
 183 0032 9822     		movs	r2, #152
 184 0034 9B5C     		ldrb	r3, [r3, r2]
 185 0036 002B     		cmp	r3, #0
 186 0038 02D1     		bne	.L16
 110:Impedance.c   ****         return AD5940ERR_APPERROR;
 187              		.loc 1 110 0
 188 003a 6423     		movs	r3, #100
 189 003c 5B42     		rsbs	r3, r3, #0
 190 003e 77E0     		b	.L18
 191              	.L16:
 111:Impedance.c   ****       /* Start it */
 112:Impedance.c   ****       wupt_cfg.WuptEn = bTRUE;
 192              		.loc 1 112 0
 193 0040 0823     		movs	r3, #8
 194 0042 FB18     		adds	r3, r7, r3
 195 0044 4422     		movs	r2, #68
 196 0046 0121     		movs	r1, #1
 197 0048 9954     		strb	r1, [r3, r2]
 113:Impedance.c   ****       wupt_cfg.WuptEndSeq = WUPTENDSEQ_A;
 198              		.loc 1 113 0
 199 004a 0823     		movs	r3, #8
 200 004c FB18     		adds	r3, r7, r3
 201 004e 0022     		movs	r2, #0
 202 0050 1A60     		str	r2, [r3]
 114:Impedance.c   ****       wupt_cfg.WuptOrder[0] = SEQID_0;
 203              		.loc 1 114 0
 204 0052 0823     		movs	r3, #8
 205 0054 FB18     		adds	r3, r7, r3
 206 0056 0022     		movs	r2, #0
 207 0058 5A60     		str	r2, [r3, #4]
 115:Impedance.c   ****       wupt_cfg.SeqxSleepTime[SEQID_0] = 4;
 208              		.loc 1 115 0
 209 005a 0823     		movs	r3, #8
 210 005c FB18     		adds	r3, r7, r3
 211 005e 0422     		movs	r2, #4
 212 0060 5A62     		str	r2, [r3, #36]
 116:Impedance.c   ****       wupt_cfg.SeqxWakeupTime[SEQID_0] = (uint32_t)(AppIMPCfg.WuptClkFreq/AppIMPCfg.ImpODR)-4;
 213              		.loc 1 116 0
 214 0062 364B     		ldr	r3, .L24+4
 215 0064 DA69     		ldr	r2, [r3, #28]
 216 0066 354B     		ldr	r3, .L24+4
 217 0068 5B69     		ldr	r3, [r3, #20]
 218 006a 191C     		adds	r1, r3, #0
 219 006c 101C     		adds	r0, r2, #0
ARM GAS  C:\Users\13740\AppData\Local\Temp\cctWuNXI.s 			page 7


 220 006e FFF7FEFF 		bl	__aeabi_fdiv
 221 0072 031C     		adds	r3, r0, #0
 222 0074 181C     		adds	r0, r3, #0
 223 0076 FFF7FEFF 		bl	__aeabi_f2uiz
 224 007a 0300     		movs	r3, r0
 225 007c 1A1F     		subs	r2, r3, #4
 226 007e 0823     		movs	r3, #8
 227 0080 FB18     		adds	r3, r7, r3
 228 0082 5A63     		str	r2, [r3, #52]
 117:Impedance.c   ****       AD5940_WUPTCfg(&wupt_cfg);
 229              		.loc 1 117 0
 230 0084 0823     		movs	r3, #8
 231 0086 FB18     		adds	r3, r7, r3
 232 0088 1800     		movs	r0, r3
 233 008a FFF7FEFF 		bl	AD5940_WUPTCfg
 118:Impedance.c   ****       
 119:Impedance.c   ****       AppIMPCfg.FifoDataCount = 0;  /* restart */
 234              		.loc 1 119 0
 235 008e 2B4B     		ldr	r3, .L24+4
 236 0090 C822     		movs	r2, #200
 237 0092 0021     		movs	r1, #0
 238 0094 9950     		str	r1, [r3, r2]
 239 0096 4AE0     		b	.L17
 240              	.L10:
 241              	.LBE2:
 120:Impedance.c   ****       break;
 121:Impedance.c   ****     }
 122:Impedance.c   ****     case IMPCTRL_STOPNOW:
 123:Impedance.c   ****     {
 124:Impedance.c   ****       if(AD5940_WakeUp(10) > 10)  /* Wakeup AFE by read register, read 10 times at most */
 242              		.loc 1 124 0
 243 0098 0A20     		movs	r0, #10
 244 009a FFF7FEFF 		bl	AD5940_WakeUp
 245 009e 0300     		movs	r3, r0
 246 00a0 0A2B     		cmp	r3, #10
 247 00a2 02D9     		bls	.L19
 125:Impedance.c   ****         return AD5940ERR_WAKEUP;  /* Wakeup Failed */
 248              		.loc 1 125 0
 249 00a4 0923     		movs	r3, #9
 250 00a6 5B42     		rsbs	r3, r3, #0
 251 00a8 42E0     		b	.L18
 252              	.L19:
 126:Impedance.c   ****       /* Start Wupt right now */
 127:Impedance.c   ****       AD5940_WUPTCtrl(bFALSE);
 253              		.loc 1 127 0
 254 00aa 0020     		movs	r0, #0
 255 00ac FFF7FEFF 		bl	AD5940_WUPTCtrl
 128:Impedance.c   ****       /* There is chance this operation will fail because sequencer could put AFE back 
 129:Impedance.c   ****         to hibernate mode just after waking up. Use STOPSYNC is better. */
 130:Impedance.c   ****       AD5940_WUPTCtrl(bFALSE);
 256              		.loc 1 130 0
 257 00b0 0020     		movs	r0, #0
 258 00b2 FFF7FEFF 		bl	AD5940_WUPTCtrl
 131:Impedance.c   ****       break;
 259              		.loc 1 131 0
 260 00b6 3AE0     		b	.L17
 261              	.L11:
ARM GAS  C:\Users\13740\AppData\Local\Temp\cctWuNXI.s 			page 8


 132:Impedance.c   ****     }
 133:Impedance.c   ****     case IMPCTRL_STOPSYNC:
 134:Impedance.c   ****     {
 135:Impedance.c   ****       AppIMPCfg.StopRequired = bTRUE;
 262              		.loc 1 135 0
 263 00b8 204B     		ldr	r3, .L24+4
 264 00ba C422     		movs	r2, #196
 265 00bc 0121     		movs	r1, #1
 266 00be 9954     		strb	r1, [r3, r2]
 136:Impedance.c   ****       break;
 267              		.loc 1 136 0
 268 00c0 35E0     		b	.L17
 269              	.L12:
 137:Impedance.c   ****     }
 138:Impedance.c   ****     case IMPCTRL_GETFREQ:
 139:Impedance.c   ****       {
 140:Impedance.c   ****         if(pPara == 0)
 270              		.loc 1 140 0
 271 00c2 3B68     		ldr	r3, [r7]
 272 00c4 002B     		cmp	r3, #0
 273 00c6 02D1     		bne	.L20
 141:Impedance.c   ****           return AD5940ERR_PARA;
 274              		.loc 1 141 0
 275 00c8 0223     		movs	r3, #2
 276 00ca 5B42     		rsbs	r3, r3, #0
 277 00cc 30E0     		b	.L18
 278              	.L20:
 142:Impedance.c   ****         if(AppIMPCfg.SweepCfg.SweepEn == bTRUE)
 279              		.loc 1 142 0
 280 00ce 1B4B     		ldr	r3, .L24+4
 281 00d0 7022     		movs	r2, #112
 282 00d2 9B5C     		ldrb	r3, [r3, r2]
 283 00d4 012B     		cmp	r3, #1
 284 00d6 05D1     		bne	.L21
 143:Impedance.c   ****           *(float*)pPara = AppIMPCfg.FreqofData;
 285              		.loc 1 143 0
 286 00d8 184B     		ldr	r3, .L24+4
 287 00da 9422     		movs	r2, #148
 288 00dc 9A58     		ldr	r2, [r3, r2]
 289 00de 3B68     		ldr	r3, [r7]
 290 00e0 1A60     		str	r2, [r3]
 144:Impedance.c   ****         else
 145:Impedance.c   ****           *(float*)pPara = AppIMPCfg.SinFreq;
 146:Impedance.c   ****       }
 147:Impedance.c   ****     break;
 291              		.loc 1 147 0
 292 00e2 24E0     		b	.L17
 293              	.L21:
 145:Impedance.c   ****       }
 294              		.loc 1 145 0
 295 00e4 154B     		ldr	r3, .L24+4
 296 00e6 9A6D     		ldr	r2, [r3, #88]
 297 00e8 3B68     		ldr	r3, [r7]
 298 00ea 1A60     		str	r2, [r3]
 299              		.loc 1 147 0
 300 00ec 1FE0     		b	.L17
 301              	.L13:
ARM GAS  C:\Users\13740\AppData\Local\Temp\cctWuNXI.s 			page 9


 302              	.LBB3:
 148:Impedance.c   ****     case IMPCTRL_SHUTDOWN:
 149:Impedance.c   ****     {
 150:Impedance.c   ****       AppIMPCtrl(IMPCTRL_STOPNOW, 0);  /* Stop the measurement if it's running. */
 303              		.loc 1 150 0
 304 00ee 0021     		movs	r1, #0
 305 00f0 0120     		movs	r0, #1
 306 00f2 FFF7FEFF 		bl	AppIMPCtrl
 151:Impedance.c   ****       /* Turn off LPloop related blocks which are not controlled automatically by hibernate operati
 152:Impedance.c   ****       AFERefCfg_Type aferef_cfg;
 153:Impedance.c   ****       LPLoopCfg_Type lp_loop;
 154:Impedance.c   ****       memset(&aferef_cfg, 0, sizeof(aferef_cfg));
 307              		.loc 1 154 0
 308 00f6 5023     		movs	r3, #80
 309 00f8 FB18     		adds	r3, r7, r3
 310 00fa 0D22     		movs	r2, #13
 311 00fc 0021     		movs	r1, #0
 312 00fe 1800     		movs	r0, r3
 313 0100 FFF7FEFF 		bl	memset
 155:Impedance.c   ****       AD5940_REFCfgS(&aferef_cfg);
 314              		.loc 1 155 0
 315 0104 5023     		movs	r3, #80
 316 0106 FB18     		adds	r3, r7, r3
 317 0108 1800     		movs	r0, r3
 318 010a FFF7FEFF 		bl	AD5940_REFCfgS
 156:Impedance.c   ****       memset(&lp_loop, 0, sizeof(lp_loop));
 319              		.loc 1 156 0
 320 010e 0823     		movs	r3, #8
 321 0110 FB18     		adds	r3, r7, r3
 322 0112 3C22     		movs	r2, #60
 323 0114 0021     		movs	r1, #0
 324 0116 1800     		movs	r0, r3
 325 0118 FFF7FEFF 		bl	memset
 157:Impedance.c   ****       AD5940_LPLoopCfgS(&lp_loop);
 326              		.loc 1 157 0
 327 011c 0823     		movs	r3, #8
 328 011e FB18     		adds	r3, r7, r3
 329 0120 1800     		movs	r0, r3
 330 0122 FFF7FEFF 		bl	AD5940_LPLoopCfgS
 158:Impedance.c   ****       AD5940_EnterSleepS();  /* Enter Hibernate */
 331              		.loc 1 158 0
 332 0126 FFF7FEFF 		bl	AD5940_EnterSleepS
 333              	.LBE3:
 159:Impedance.c   ****     }
 160:Impedance.c   ****     break;
 334              		.loc 1 160 0
 335 012a 00E0     		b	.L17
 336              	.L23:
 161:Impedance.c   ****     default:
 162:Impedance.c   ****     break;
 337              		.loc 1 162 0
 338 012c C046     		nop
 339              	.L17:
 163:Impedance.c   ****   }
 164:Impedance.c   ****   return AD5940ERR_OK;
 340              		.loc 1 164 0
 341 012e 0023     		movs	r3, #0
ARM GAS  C:\Users\13740\AppData\Local\Temp\cctWuNXI.s 			page 10


 342              	.L18:
 165:Impedance.c   **** }
 343              		.loc 1 165 0
 344 0130 1800     		movs	r0, r3
 345 0132 BD46     		mov	sp, r7
 346 0134 18B0     		add	sp, sp, #96
 347              		@ sp needed
 348 0136 80BD     		pop	{r7, pc}
 349              	.L25:
 350              		.align	2
 351              	.L24:
 352 0138 00000000 		.word	.L9
 353 013c 00000000 		.word	AppIMPCfg
 354              		.cfi_endproc
 355              	.LFE2:
 356              		.size	AppIMPCtrl, .-AppIMPCtrl
 357              		.section	.text.AppIMPGetCurrFreq,"ax",%progbits
 358              		.align	2
 359              		.global	AppIMPGetCurrFreq
 360              		.code	16
 361              		.thumb_func
 362              		.type	AppIMPGetCurrFreq, %function
 363              	AppIMPGetCurrFreq:
 364              	.LFB3:
 166:Impedance.c   **** 
 167:Impedance.c   **** /* generated code snnipet */
 168:Impedance.c   **** float AppIMPGetCurrFreq(void)
 169:Impedance.c   **** {
 365              		.loc 1 169 0
 366              		.cfi_startproc
 367              		@ args = 0, pretend = 0, frame = 0
 368              		@ frame_needed = 1, uses_anonymous_args = 0
 369 0000 80B5     		push	{r7, lr}
 370              		.cfi_def_cfa_offset 8
 371              		.cfi_offset 7, -8
 372              		.cfi_offset 14, -4
 373 0002 00AF     		add	r7, sp, #0
 374              		.cfi_def_cfa_register 7
 170:Impedance.c   ****   if(AppIMPCfg.SweepCfg.SweepEn == bTRUE)
 375              		.loc 1 170 0
 376 0004 064B     		ldr	r3, .L29
 377 0006 7022     		movs	r2, #112
 378 0008 9B5C     		ldrb	r3, [r3, r2]
 379 000a 012B     		cmp	r3, #1
 380 000c 03D1     		bne	.L27
 171:Impedance.c   ****     return AppIMPCfg.FreqofData;
 381              		.loc 1 171 0
 382 000e 044B     		ldr	r3, .L29
 383 0010 9422     		movs	r2, #148
 384 0012 9B58     		ldr	r3, [r3, r2]
 385 0014 01E0     		b	.L28
 386              	.L27:
 172:Impedance.c   ****   else
 173:Impedance.c   ****     return AppIMPCfg.SinFreq;
 387              		.loc 1 173 0
 388 0016 024B     		ldr	r3, .L29
 389 0018 9B6D     		ldr	r3, [r3, #88]
ARM GAS  C:\Users\13740\AppData\Local\Temp\cctWuNXI.s 			page 11


 390              	.L28:
 174:Impedance.c   **** }
 391              		.loc 1 174 0
 392 001a 181C     		adds	r0, r3, #0
 393 001c BD46     		mov	sp, r7
 394              		@ sp needed
 395 001e 80BD     		pop	{r7, pc}
 396              	.L30:
 397              		.align	2
 398              	.L29:
 399 0020 00000000 		.word	AppIMPCfg
 400              		.cfi_endproc
 401              	.LFE3:
 402              		.size	AppIMPGetCurrFreq, .-AppIMPGetCurrFreq
 403              		.global	__aeabi_fcmpeq
 404              		.global	__aeabi_fmul
 405              		.global	__aeabi_fadd
 406              		.global	__aeabi_fcmplt
 407              		.global	__aeabi_fcmpgt
 408              		.section	.text.AppIMPSeqCfgGen,"ax",%progbits
 409              		.align	2
 410              		.code	16
 411              		.thumb_func
 412              		.type	AppIMPSeqCfgGen, %function
 413              	AppIMPSeqCfgGen:
 414              	.LFB4:
 175:Impedance.c   **** 
 176:Impedance.c   **** /* Application initialization */
 177:Impedance.c   **** static AD5940Err AppIMPSeqCfgGen(void)
 178:Impedance.c   **** {
 415              		.loc 1 178 0
 416              		.cfi_startproc
 417              		@ args = 0, pretend = 0, frame = 248
 418              		@ frame_needed = 1, uses_anonymous_args = 0
 419 0000 80B5     		push	{r7, lr}
 420              		.cfi_def_cfa_offset 8
 421              		.cfi_offset 7, -8
 422              		.cfi_offset 14, -4
 423 0002 BEB0     		sub	sp, sp, #248
 424              		.cfi_def_cfa_offset 256
 425 0004 00AF     		add	r7, sp, #0
 426              		.cfi_def_cfa_register 7
 179:Impedance.c   ****   AD5940Err error = AD5940ERR_OK;
 427              		.loc 1 179 0
 428 0006 0023     		movs	r3, #0
 429 0008 F022     		movs	r2, #240
 430 000a BA18     		adds	r2, r7, r2
 431 000c 1360     		str	r3, [r2]
 180:Impedance.c   ****   const uint32_t *pSeqCmd;
 181:Impedance.c   ****   uint32_t SeqLen;
 182:Impedance.c   ****   AFERefCfg_Type aferef_cfg;
 183:Impedance.c   ****   HSLoopCfg_Type HsLoopCfg;
 184:Impedance.c   ****   DSPCfg_Type dsp_cfg;
 185:Impedance.c   ****   float sin_freq;
 186:Impedance.c   **** 
 187:Impedance.c   ****   /* Start sequence generator here */
 188:Impedance.c   ****   AD5940_SEQGenCtrl(bTRUE);
ARM GAS  C:\Users\13740\AppData\Local\Temp\cctWuNXI.s 			page 12


 432              		.loc 1 188 0
 433 000e 0120     		movs	r0, #1
 434 0010 FFF7FEFF 		bl	AD5940_SEQGenCtrl
 189:Impedance.c   ****   
 190:Impedance.c   ****   AD5940_AFECtrlS(AFECTRL_ALL, bFALSE);  /* Init all to disable state */
 435              		.loc 1 190 0
 436 0014 DB4B     		ldr	r3, .L62
 437 0016 0021     		movs	r1, #0
 438 0018 1800     		movs	r0, r3
 439 001a FFF7FEFF 		bl	AD5940_AFECtrlS
 191:Impedance.c   **** 
 192:Impedance.c   ****   aferef_cfg.HpBandgapEn = bTRUE;
 440              		.loc 1 192 0
 441 001e D823     		movs	r3, #216
 442 0020 FB18     		adds	r3, r7, r3
 443 0022 0122     		movs	r2, #1
 444 0024 1A70     		strb	r2, [r3]
 193:Impedance.c   ****   aferef_cfg.Hp1V1BuffEn = bTRUE;
 445              		.loc 1 193 0
 446 0026 D823     		movs	r3, #216
 447 0028 FB18     		adds	r3, r7, r3
 448 002a 0122     		movs	r2, #1
 449 002c 9A70     		strb	r2, [r3, #2]
 194:Impedance.c   ****   aferef_cfg.Hp1V8BuffEn = bTRUE;
 450              		.loc 1 194 0
 451 002e D823     		movs	r3, #216
 452 0030 FB18     		adds	r3, r7, r3
 453 0032 0122     		movs	r2, #1
 454 0034 5A70     		strb	r2, [r3, #1]
 195:Impedance.c   ****   aferef_cfg.Disc1V1Cap = bFALSE;
 455              		.loc 1 195 0
 456 0036 D823     		movs	r3, #216
 457 0038 FB18     		adds	r3, r7, r3
 458 003a 0022     		movs	r2, #0
 459 003c 1A73     		strb	r2, [r3, #12]
 196:Impedance.c   ****   aferef_cfg.Disc1V8Cap = bFALSE;
 460              		.loc 1 196 0
 461 003e D823     		movs	r3, #216
 462 0040 FB18     		adds	r3, r7, r3
 463 0042 0022     		movs	r2, #0
 464 0044 DA72     		strb	r2, [r3, #11]
 197:Impedance.c   ****   aferef_cfg.Hp1V8ThemBuff = bFALSE;
 465              		.loc 1 197 0
 466 0046 D823     		movs	r3, #216
 467 0048 FB18     		adds	r3, r7, r3
 468 004a 0022     		movs	r2, #0
 469 004c 5A72     		strb	r2, [r3, #9]
 198:Impedance.c   ****   aferef_cfg.Hp1V8Ilimit = bFALSE;
 470              		.loc 1 198 0
 471 004e D823     		movs	r3, #216
 472 0050 FB18     		adds	r3, r7, r3
 473 0052 0022     		movs	r2, #0
 474 0054 9A72     		strb	r2, [r3, #10]
 199:Impedance.c   ****   aferef_cfg.Lp1V1BuffEn = bFALSE;
 475              		.loc 1 199 0
 476 0056 D823     		movs	r3, #216
 477 0058 FB18     		adds	r3, r7, r3
ARM GAS  C:\Users\13740\AppData\Local\Temp\cctWuNXI.s 			page 13


 478 005a 0022     		movs	r2, #0
 479 005c 1A71     		strb	r2, [r3, #4]
 200:Impedance.c   ****   aferef_cfg.Lp1V8BuffEn = bFALSE;
 480              		.loc 1 200 0
 481 005e D823     		movs	r3, #216
 482 0060 FB18     		adds	r3, r7, r3
 483 0062 0022     		movs	r2, #0
 484 0064 DA70     		strb	r2, [r3, #3]
 201:Impedance.c   ****   /* LP reference control - turn off them to save power*/
 202:Impedance.c   ****   if(AppIMPCfg.BiasVolt != 0.0f)    /* With bias voltage */
 485              		.loc 1 202 0
 486 0066 C84B     		ldr	r3, .L62+4
 487 0068 5B6D     		ldr	r3, [r3, #84]
 488 006a 0021     		movs	r1, #0
 489 006c 181C     		adds	r0, r3, #0
 490 006e FFF7FEFF 		bl	__aeabi_fcmpeq
 491 0072 031E     		subs	r3, r0, #0
 492 0074 08D1     		bne	.L59
 203:Impedance.c   ****   {
 204:Impedance.c   ****     aferef_cfg.LpBandgapEn = bTRUE;
 493              		.loc 1 204 0
 494 0076 D823     		movs	r3, #216
 495 0078 FB18     		adds	r3, r7, r3
 496 007a 0122     		movs	r2, #1
 497 007c 5A71     		strb	r2, [r3, #5]
 205:Impedance.c   ****     aferef_cfg.LpRefBufEn = bTRUE;
 498              		.loc 1 205 0
 499 007e D823     		movs	r3, #216
 500 0080 FB18     		adds	r3, r7, r3
 501 0082 0122     		movs	r2, #1
 502 0084 9A71     		strb	r2, [r3, #6]
 503 0086 07E0     		b	.L34
 504              	.L59:
 206:Impedance.c   ****   }
 207:Impedance.c   ****   else
 208:Impedance.c   ****   {
 209:Impedance.c   ****     aferef_cfg.LpBandgapEn = bFALSE;
 505              		.loc 1 209 0
 506 0088 D823     		movs	r3, #216
 507 008a FB18     		adds	r3, r7, r3
 508 008c 0022     		movs	r2, #0
 509 008e 5A71     		strb	r2, [r3, #5]
 210:Impedance.c   ****     aferef_cfg.LpRefBufEn = bFALSE;
 510              		.loc 1 210 0
 511 0090 D823     		movs	r3, #216
 512 0092 FB18     		adds	r3, r7, r3
 513 0094 0022     		movs	r2, #0
 514 0096 9A71     		strb	r2, [r3, #6]
 515              	.L34:
 211:Impedance.c   ****   }
 212:Impedance.c   ****   aferef_cfg.LpRefBoostEn = bFALSE;
 516              		.loc 1 212 0
 517 0098 D823     		movs	r3, #216
 518 009a FB18     		adds	r3, r7, r3
 519 009c 0022     		movs	r2, #0
 520 009e DA71     		strb	r2, [r3, #7]
 213:Impedance.c   ****   AD5940_REFCfgS(&aferef_cfg);	
ARM GAS  C:\Users\13740\AppData\Local\Temp\cctWuNXI.s 			page 14


 521              		.loc 1 213 0
 522 00a0 D823     		movs	r3, #216
 523 00a2 FB18     		adds	r3, r7, r3
 524 00a4 1800     		movs	r0, r3
 525 00a6 FFF7FEFF 		bl	AD5940_REFCfgS
 214:Impedance.c   ****   HsLoopCfg.HsDacCfg.ExcitBufGain = AppIMPCfg.ExcitBufGain;
 526              		.loc 1 214 0
 527 00aa B74B     		ldr	r3, .L62+4
 528 00ac 5A6C     		ldr	r2, [r3, #68]
 529 00ae 6423     		movs	r3, #100
 530 00b0 FB18     		adds	r3, r7, r3
 531 00b2 1A61     		str	r2, [r3, #16]
 215:Impedance.c   ****   HsLoopCfg.HsDacCfg.HsDacGain = AppIMPCfg.HsDacGain;
 532              		.loc 1 215 0
 533 00b4 B44B     		ldr	r3, .L62+4
 534 00b6 9A6C     		ldr	r2, [r3, #72]
 535 00b8 6423     		movs	r3, #100
 536 00ba FB18     		adds	r3, r7, r3
 537 00bc 5A61     		str	r2, [r3, #20]
 216:Impedance.c   ****   HsLoopCfg.HsDacCfg.HsDacUpdateRate = AppIMPCfg.HsDacUpdateRate;
 538              		.loc 1 216 0
 539 00be B24B     		ldr	r3, .L62+4
 540 00c0 DA6C     		ldr	r2, [r3, #76]
 541 00c2 6423     		movs	r3, #100
 542 00c4 FB18     		adds	r3, r7, r3
 543 00c6 9A61     		str	r2, [r3, #24]
 217:Impedance.c   **** 
 218:Impedance.c   ****   HsLoopCfg.HsTiaCfg.DiodeClose = bFALSE;
 544              		.loc 1 218 0
 545 00c8 6423     		movs	r3, #100
 546 00ca FB18     		adds	r3, r7, r3
 547 00cc 6022     		movs	r2, #96
 548 00ce 0021     		movs	r1, #0
 549 00d0 9954     		strb	r1, [r3, r2]
 219:Impedance.c   **** 	if(AppIMPCfg.BiasVolt != 0.0f)    /* With bias voltage */
 550              		.loc 1 219 0
 551 00d2 AD4B     		ldr	r3, .L62+4
 552 00d4 5B6D     		ldr	r3, [r3, #84]
 553 00d6 0021     		movs	r1, #0
 554 00d8 181C     		adds	r0, r3, #0
 555 00da FFF7FEFF 		bl	__aeabi_fcmpeq
 556 00de 031E     		subs	r3, r0, #0
 557 00e0 04D1     		bne	.L60
 220:Impedance.c   **** 		HsLoopCfg.HsTiaCfg.HstiaBias = HSTIABIAS_VZERO0;
 558              		.loc 1 220 0
 559 00e2 6423     		movs	r3, #100
 560 00e4 FB18     		adds	r3, r7, r3
 561 00e6 0122     		movs	r2, #1
 562 00e8 1A65     		str	r2, [r3, #80]
 563 00ea 03E0     		b	.L37
 564              	.L60:
 221:Impedance.c   **** 	else
 222:Impedance.c   **** 		HsLoopCfg.HsTiaCfg.HstiaBias = HSTIABIAS_1P1;
 565              		.loc 1 222 0
 566 00ec 6423     		movs	r3, #100
 567 00ee FB18     		adds	r3, r7, r3
 568 00f0 0022     		movs	r2, #0
ARM GAS  C:\Users\13740\AppData\Local\Temp\cctWuNXI.s 			page 15


 569 00f2 1A65     		str	r2, [r3, #80]
 570              	.L37:
 223:Impedance.c   ****   HsLoopCfg.HsTiaCfg.HstiaCtia = 31; /* 31pF + 2pF */
 571              		.loc 1 223 0
 572 00f4 6423     		movs	r3, #100
 573 00f6 FB18     		adds	r3, r7, r3
 574 00f8 1F22     		movs	r2, #31
 575 00fa DA65     		str	r2, [r3, #92]
 224:Impedance.c   ****   HsLoopCfg.HsTiaCfg.HstiaDeRload = HSTIADERLOAD_OPEN;
 576              		.loc 1 224 0
 577 00fc 6423     		movs	r3, #100
 578 00fe FB18     		adds	r3, r7, r3
 579 0100 0522     		movs	r2, #5
 580 0102 9A66     		str	r2, [r3, #104]
 225:Impedance.c   ****   HsLoopCfg.HsTiaCfg.HstiaDeRtia = HSTIADERTIA_OPEN;
 581              		.loc 1 225 0
 582 0104 6423     		movs	r3, #100
 583 0106 FB18     		adds	r3, r7, r3
 584 0108 0B22     		movs	r2, #11
 585 010a 5A66     		str	r2, [r3, #100]
 226:Impedance.c   ****   HsLoopCfg.HsTiaCfg.HstiaRtiaSel = AppIMPCfg.HstiaRtiaSel;
 586              		.loc 1 226 0
 587 010c 9E4B     		ldr	r3, .L62+4
 588 010e 1A6C     		ldr	r2, [r3, #64]
 589 0110 6423     		movs	r3, #100
 590 0112 FB18     		adds	r3, r7, r3
 591 0114 5A65     		str	r2, [r3, #84]
 227:Impedance.c   **** 
 228:Impedance.c   ****   HsLoopCfg.SWMatCfg.Dswitch = AppIMPCfg.DswitchSel;
 592              		.loc 1 228 0
 593 0116 9C4B     		ldr	r3, .L62+4
 594 0118 DA6A     		ldr	r2, [r3, #44]
 595 011a 6423     		movs	r3, #100
 596 011c FB18     		adds	r3, r7, r3
 597 011e 1A60     		str	r2, [r3]
 229:Impedance.c   ****   HsLoopCfg.SWMatCfg.Pswitch = AppIMPCfg.PswitchSel;
 598              		.loc 1 229 0
 599 0120 994B     		ldr	r3, .L62+4
 600 0122 1A6B     		ldr	r2, [r3, #48]
 601 0124 6423     		movs	r3, #100
 602 0126 FB18     		adds	r3, r7, r3
 603 0128 5A60     		str	r2, [r3, #4]
 230:Impedance.c   ****   HsLoopCfg.SWMatCfg.Nswitch = AppIMPCfg.NswitchSel;
 604              		.loc 1 230 0
 605 012a 974B     		ldr	r3, .L62+4
 606 012c 5A6B     		ldr	r2, [r3, #52]
 607 012e 6423     		movs	r3, #100
 608 0130 FB18     		adds	r3, r7, r3
 609 0132 9A60     		str	r2, [r3, #8]
 231:Impedance.c   ****   HsLoopCfg.SWMatCfg.Tswitch = SWT_TRTIA|AppIMPCfg.TswitchSel;
 610              		.loc 1 231 0
 611 0134 944B     		ldr	r3, .L62+4
 612 0136 9B6B     		ldr	r3, [r3, #56]
 613 0138 8022     		movs	r2, #128
 614 013a 5200     		lsls	r2, r2, #1
 615 013c 1A43     		orrs	r2, r3
 616 013e 6423     		movs	r3, #100
ARM GAS  C:\Users\13740\AppData\Local\Temp\cctWuNXI.s 			page 16


 617 0140 FB18     		adds	r3, r7, r3
 618 0142 DA60     		str	r2, [r3, #12]
 232:Impedance.c   **** 
 233:Impedance.c   ****   HsLoopCfg.WgCfg.WgType = WGTYPE_SIN;
 619              		.loc 1 233 0
 620 0144 6423     		movs	r3, #100
 621 0146 FB18     		adds	r3, r7, r3
 622 0148 0222     		movs	r2, #2
 623 014a DA61     		str	r2, [r3, #28]
 234:Impedance.c   ****   HsLoopCfg.WgCfg.GainCalEn = bTRUE;
 624              		.loc 1 234 0
 625 014c 6423     		movs	r3, #100
 626 014e FB18     		adds	r3, r7, r3
 627 0150 2022     		movs	r2, #32
 628 0152 0121     		movs	r1, #1
 629 0154 9954     		strb	r1, [r3, r2]
 235:Impedance.c   ****   HsLoopCfg.WgCfg.OffsetCalEn = bTRUE;
 630              		.loc 1 235 0
 631 0156 6423     		movs	r3, #100
 632 0158 FB18     		adds	r3, r7, r3
 633 015a 2122     		movs	r2, #33
 634 015c 0121     		movs	r1, #1
 635 015e 9954     		strb	r1, [r3, r2]
 236:Impedance.c   ****   if(AppIMPCfg.SweepCfg.SweepEn == bTRUE)
 636              		.loc 1 236 0
 637 0160 894B     		ldr	r3, .L62+4
 638 0162 7022     		movs	r2, #112
 639 0164 9B5C     		ldrb	r3, [r3, r2]
 640 0166 012B     		cmp	r3, #1
 641 0168 16D1     		bne	.L38
 237:Impedance.c   ****   {
 238:Impedance.c   ****     AppIMPCfg.FreqofData = AppIMPCfg.SweepCfg.SweepStart;
 642              		.loc 1 238 0
 643 016a 874B     		ldr	r3, .L62+4
 644 016c 5A6F     		ldr	r2, [r3, #116]
 645 016e 864B     		ldr	r3, .L62+4
 646 0170 9421     		movs	r1, #148
 647 0172 5A50     		str	r2, [r3, r1]
 239:Impedance.c   ****     AppIMPCfg.SweepCurrFreq = AppIMPCfg.SweepCfg.SweepStart;
 648              		.loc 1 239 0
 649 0174 844B     		ldr	r3, .L62+4
 650 0176 5A6F     		ldr	r2, [r3, #116]
 651 0178 834B     		ldr	r3, .L62+4
 652 017a 8C21     		movs	r1, #140
 653 017c 5A50     		str	r2, [r3, r1]
 240:Impedance.c   ****     AD5940_SweepNext(&AppIMPCfg.SweepCfg, &AppIMPCfg.SweepNextFreq);
 654              		.loc 1 240 0
 655 017e 834A     		ldr	r2, .L62+8
 656 0180 834B     		ldr	r3, .L62+12
 657 0182 1100     		movs	r1, r2
 658 0184 1800     		movs	r0, r3
 659 0186 FFF7FEFF 		bl	AD5940_SweepNext
 241:Impedance.c   ****     sin_freq = AppIMPCfg.SweepCurrFreq;
 660              		.loc 1 241 0
 661 018a 7F4B     		ldr	r3, .L62+4
 662 018c 8C22     		movs	r2, #140
 663 018e 9B58     		ldr	r3, [r3, r2]
ARM GAS  C:\Users\13740\AppData\Local\Temp\cctWuNXI.s 			page 17


 664 0190 F422     		movs	r2, #244
 665 0192 BA18     		adds	r2, r7, r2
 666 0194 1360     		str	r3, [r2]
 667 0196 0AE0     		b	.L39
 668              	.L38:
 242:Impedance.c   ****   }
 243:Impedance.c   ****   else
 244:Impedance.c   ****   {
 245:Impedance.c   ****     sin_freq = AppIMPCfg.SinFreq;
 669              		.loc 1 245 0
 670 0198 7B4B     		ldr	r3, .L62+4
 671 019a 9B6D     		ldr	r3, [r3, #88]
 672 019c F422     		movs	r2, #244
 673 019e BA18     		adds	r2, r7, r2
 674 01a0 1360     		str	r3, [r2]
 246:Impedance.c   ****     AppIMPCfg.FreqofData = sin_freq;
 675              		.loc 1 246 0
 676 01a2 794B     		ldr	r3, .L62+4
 677 01a4 9421     		movs	r1, #148
 678 01a6 F422     		movs	r2, #244
 679 01a8 BA18     		adds	r2, r7, r2
 680 01aa 1268     		ldr	r2, [r2]
 681 01ac 5A50     		str	r2, [r3, r1]
 682              	.L39:
 247:Impedance.c   ****   }
 248:Impedance.c   ****   HsLoopCfg.WgCfg.SinCfg.SinFreqWord = AD5940_WGFreqWordCal(sin_freq, AppIMPCfg.SysClkFreq);
 683              		.loc 1 248 0
 684 01ae 764B     		ldr	r3, .L62+4
 685 01b0 1A6A     		ldr	r2, [r3, #32]
 686 01b2 F423     		movs	r3, #244
 687 01b4 FB18     		adds	r3, r7, r3
 688 01b6 1B68     		ldr	r3, [r3]
 689 01b8 111C     		adds	r1, r2, #0
 690 01ba 181C     		adds	r0, r3, #0
 691 01bc FFF7FEFF 		bl	AD5940_WGFreqWordCal
 692 01c0 0200     		movs	r2, r0
 693 01c2 6423     		movs	r3, #100
 694 01c4 FB18     		adds	r3, r7, r3
 695 01c6 DA63     		str	r2, [r3, #60]
 249:Impedance.c   ****   HsLoopCfg.WgCfg.SinCfg.SinAmplitudeWord = (uint32_t)(AppIMPCfg.DacVoltPP/800.0f*2047 + 0.5f);
 696              		.loc 1 249 0
 697 01c8 6F4B     		ldr	r3, .L62+4
 698 01ca 1B6D     		ldr	r3, [r3, #80]
 699 01cc 7149     		ldr	r1, .L62+16
 700 01ce 181C     		adds	r0, r3, #0
 701 01d0 FFF7FEFF 		bl	__aeabi_fdiv
 702 01d4 031C     		adds	r3, r0, #0
 703 01d6 7049     		ldr	r1, .L62+20
 704 01d8 181C     		adds	r0, r3, #0
 705 01da FFF7FEFF 		bl	__aeabi_fmul
 706 01de 031C     		adds	r3, r0, #0
 707 01e0 FC21     		movs	r1, #252
 708 01e2 8905     		lsls	r1, r1, #22
 709 01e4 181C     		adds	r0, r3, #0
 710 01e6 FFF7FEFF 		bl	__aeabi_fadd
 711 01ea 031C     		adds	r3, r0, #0
 712 01ec 181C     		adds	r0, r3, #0
ARM GAS  C:\Users\13740\AppData\Local\Temp\cctWuNXI.s 			page 18


 713 01ee FFF7FEFF 		bl	__aeabi_f2uiz
 714 01f2 0200     		movs	r2, r0
 715 01f4 6423     		movs	r3, #100
 716 01f6 FB18     		adds	r3, r7, r3
 717 01f8 1A64     		str	r2, [r3, #64]
 250:Impedance.c   ****   HsLoopCfg.WgCfg.SinCfg.SinOffsetWord = 0;
 718              		.loc 1 250 0
 719 01fa 6423     		movs	r3, #100
 720 01fc FB18     		adds	r3, r7, r3
 721 01fe 0022     		movs	r2, #0
 722 0200 5A64     		str	r2, [r3, #68]
 251:Impedance.c   ****   HsLoopCfg.WgCfg.SinCfg.SinPhaseWord = 0;
 723              		.loc 1 251 0
 724 0202 6423     		movs	r3, #100
 725 0204 FB18     		adds	r3, r7, r3
 726 0206 0022     		movs	r2, #0
 727 0208 9A64     		str	r2, [r3, #72]
 252:Impedance.c   ****   AD5940_HSLoopCfgS(&HsLoopCfg);
 728              		.loc 1 252 0
 729 020a 6423     		movs	r3, #100
 730 020c FB18     		adds	r3, r7, r3
 731 020e 1800     		movs	r0, r3
 732 0210 FFF7FEFF 		bl	AD5940_HSLoopCfgS
 253:Impedance.c   ****   if(AppIMPCfg.BiasVolt != 0.0f)    /* With bias voltage */
 733              		.loc 1 253 0
 734 0214 5C4B     		ldr	r3, .L62+4
 735 0216 5B6D     		ldr	r3, [r3, #84]
 736 0218 0021     		movs	r1, #0
 737 021a 181C     		adds	r0, r3, #0
 738 021c FFF7FEFF 		bl	__aeabi_fcmpeq
 739 0220 031E     		subs	r3, r0, #0
 740 0222 47D1     		bne	.L40
 741              	.LBB4:
 254:Impedance.c   ****   {
 255:Impedance.c   ****     LPDACCfg_Type lpdac_cfg;
 256:Impedance.c   ****     
 257:Impedance.c   ****     lpdac_cfg.LpdacSel = LPDAC0;
 742              		.loc 1 257 0
 743 0224 3B00     		movs	r3, r7
 744 0226 0022     		movs	r2, #0
 745 0228 1A60     		str	r2, [r3]
 258:Impedance.c   ****     lpdac_cfg.LpDacVbiasMux = LPDACVBIAS_12BIT; /* Use Vbias to tuning BiasVolt. */
 746              		.loc 1 258 0
 747 022a 3B00     		movs	r3, r7
 748 022c 0022     		movs	r2, #0
 749 022e DA60     		str	r2, [r3, #12]
 259:Impedance.c   ****     lpdac_cfg.LpDacVzeroMux = LPDACVZERO_6BIT;  /* Vbias-Vzero = BiasVolt */
 750              		.loc 1 259 0
 751 0230 3B00     		movs	r3, r7
 752 0232 0022     		movs	r2, #0
 753 0234 9A60     		str	r2, [r3, #8]
 260:Impedance.c   ****     lpdac_cfg.DacData6Bit = 0x40>>1;            /* Set Vzero to middle scale. */
 754              		.loc 1 260 0
 755 0236 3B00     		movs	r3, r7
 756 0238 2022     		movs	r2, #32
 757 023a 9A83     		strh	r2, [r3, #28]
 261:Impedance.c   ****     if(AppIMPCfg.BiasVolt<-1100.0f) AppIMPCfg.BiasVolt = -1100.0f + DAC12BITVOLT_1LSB;
ARM GAS  C:\Users\13740\AppData\Local\Temp\cctWuNXI.s 			page 19


 758              		.loc 1 261 0
 759 023c 524B     		ldr	r3, .L62+4
 760 023e 5B6D     		ldr	r3, [r3, #84]
 761 0240 5649     		ldr	r1, .L62+24
 762 0242 181C     		adds	r0, r3, #0
 763 0244 FFF7FEFF 		bl	__aeabi_fcmplt
 764 0248 031E     		subs	r3, r0, #0
 765 024a 02D0     		beq	.L42
 766              		.loc 1 261 0 is_stmt 0 discriminator 1
 767 024c 4E4B     		ldr	r3, .L62+4
 768 024e 544A     		ldr	r2, .L62+28
 769 0250 5A65     		str	r2, [r3, #84]
 770              	.L42:
 262:Impedance.c   ****     if(AppIMPCfg.BiasVolt> 1100.0f) AppIMPCfg.BiasVolt = 1100.0f - DAC12BITVOLT_1LSB;
 771              		.loc 1 262 0 is_stmt 1
 772 0252 4D4B     		ldr	r3, .L62+4
 773 0254 5B6D     		ldr	r3, [r3, #84]
 774 0256 5349     		ldr	r1, .L62+32
 775 0258 181C     		adds	r0, r3, #0
 776 025a FFF7FEFF 		bl	__aeabi_fcmpgt
 777 025e 031E     		subs	r3, r0, #0
 778 0260 02D0     		beq	.L44
 779              		.loc 1 262 0 is_stmt 0 discriminator 1
 780 0262 494B     		ldr	r3, .L62+4
 781 0264 504A     		ldr	r2, .L62+36
 782 0266 5A65     		str	r2, [r3, #84]
 783              	.L44:
 263:Impedance.c   ****     lpdac_cfg.DacData12Bit = (uint32_t)((AppIMPCfg.BiasVolt + 1100.0f)/DAC12BITVOLT_1LSB);
 784              		.loc 1 263 0 is_stmt 1
 785 0268 474B     		ldr	r3, .L62+4
 786 026a 5B6D     		ldr	r3, [r3, #84]
 787 026c 4D49     		ldr	r1, .L62+32
 788 026e 181C     		adds	r0, r3, #0
 789 0270 FFF7FEFF 		bl	__aeabi_fadd
 790 0274 031C     		adds	r3, r0, #0
 791 0276 4D49     		ldr	r1, .L62+40
 792 0278 181C     		adds	r0, r3, #0
 793 027a FFF7FEFF 		bl	__aeabi_fdiv
 794 027e 031C     		adds	r3, r0, #0
 795 0280 181C     		adds	r0, r3, #0
 796 0282 FFF7FEFF 		bl	__aeabi_f2uiz
 797 0286 0300     		movs	r3, r0
 798 0288 9AB2     		uxth	r2, r3
 799 028a 3B00     		movs	r3, r7
 800 028c 5A83     		strh	r2, [r3, #26]
 264:Impedance.c   ****     lpdac_cfg.DataRst = bFALSE;      /* Do not reset data register */
 801              		.loc 1 264 0
 802 028e 3B00     		movs	r3, r7
 803 0290 0022     		movs	r2, #0
 804 0292 1A76     		strb	r2, [r3, #24]
 265:Impedance.c   ****     lpdac_cfg.LpDacSW = LPDACSW_VBIAS2LPPA|LPDACSW_VBIAS2PIN|LPDACSW_VZERO2LPTIA|LPDACSW_VZERO2PIN|
 805              		.loc 1 265 0
 806 0294 3B00     		movs	r3, r7
 807 0296 1F22     		movs	r2, #31
 808 0298 1A61     		str	r2, [r3, #16]
 266:Impedance.c   ****     lpdac_cfg.LpDacRef = LPDACREF_2P5;
 809              		.loc 1 266 0
ARM GAS  C:\Users\13740\AppData\Local\Temp\cctWuNXI.s 			page 20


 810 029a 3B00     		movs	r3, r7
 811 029c 0022     		movs	r2, #0
 812 029e 5A61     		str	r2, [r3, #20]
 267:Impedance.c   ****     lpdac_cfg.LpDacSrc = LPDACSRC_MMR;      /* Use MMR data, we use LPDAC to generate bias voltage 
 813              		.loc 1 267 0
 814 02a0 3B00     		movs	r3, r7
 815 02a2 0022     		movs	r2, #0
 816 02a4 5A60     		str	r2, [r3, #4]
 268:Impedance.c   ****     lpdac_cfg.PowerEn = bTRUE;              /* Power up LPDAC */
 817              		.loc 1 268 0
 818 02a6 3B00     		movs	r3, r7
 819 02a8 0122     		movs	r2, #1
 820 02aa 5A76     		strb	r2, [r3, #25]
 269:Impedance.c   ****     AD5940_LPDACCfgS(&lpdac_cfg);
 821              		.loc 1 269 0
 822 02ac 3B00     		movs	r3, r7
 823 02ae 1800     		movs	r0, r3
 824 02b0 FFF7FEFF 		bl	AD5940_LPDACCfgS
 825              	.L40:
 826              	.LBE4:
 270:Impedance.c   ****   }
 271:Impedance.c   ****   dsp_cfg.ADCBaseCfg.ADCMuxN = ADCMUXN_HSTIA_N;
 827              		.loc 1 271 0
 828 02b4 2023     		movs	r3, #32
 829 02b6 FB18     		adds	r3, r7, r3
 830 02b8 0122     		movs	r2, #1
 831 02ba 5A60     		str	r2, [r3, #4]
 272:Impedance.c   ****   dsp_cfg.ADCBaseCfg.ADCMuxP = ADCMUXP_HSTIA_P;
 832              		.loc 1 272 0
 833 02bc 2023     		movs	r3, #32
 834 02be FB18     		adds	r3, r7, r3
 835 02c0 0122     		movs	r2, #1
 836 02c2 1A60     		str	r2, [r3]
 273:Impedance.c   ****   dsp_cfg.ADCBaseCfg.ADCPga = AppIMPCfg.AdcPgaGain;
 837              		.loc 1 273 0
 838 02c4 304B     		ldr	r3, .L62+4
 839 02c6 9A6E     		ldr	r2, [r3, #104]
 840 02c8 2023     		movs	r3, #32
 841 02ca FB18     		adds	r3, r7, r3
 842 02cc 9A60     		str	r2, [r3, #8]
 274:Impedance.c   ****   
 275:Impedance.c   ****   memset(&dsp_cfg.ADCDigCompCfg, 0, sizeof(dsp_cfg.ADCDigCompCfg));
 843              		.loc 1 275 0
 844 02ce 2023     		movs	r3, #32
 845 02d0 FB18     		adds	r3, r7, r3
 846 02d2 2433     		adds	r3, r3, #36
 847 02d4 0822     		movs	r2, #8
 848 02d6 0021     		movs	r1, #0
 849 02d8 1800     		movs	r0, r3
 850 02da FFF7FEFF 		bl	memset
 276:Impedance.c   ****   
 277:Impedance.c   ****   dsp_cfg.ADCFilterCfg.ADCAvgNum = AppIMPCfg.ADCAvgNum;
 851              		.loc 1 277 0
 852 02de 2A4B     		ldr	r3, .L62+4
 853 02e0 6E22     		movs	r2, #110
 854 02e2 9B5C     		ldrb	r3, [r3, r2]
 855 02e4 1A00     		movs	r2, r3
ARM GAS  C:\Users\13740\AppData\Local\Temp\cctWuNXI.s 			page 21


 856 02e6 2023     		movs	r3, #32
 857 02e8 FB18     		adds	r3, r7, r3
 858 02ea 5A61     		str	r2, [r3, #20]
 278:Impedance.c   ****   dsp_cfg.ADCFilterCfg.ADCRate = ADCRATE_800KHZ;	/* Tell filter block clock rate of ADC*/
 859              		.loc 1 278 0
 860 02ec 2023     		movs	r3, #32
 861 02ee FB18     		adds	r3, r7, r3
 862 02f0 0122     		movs	r2, #1
 863 02f2 9A61     		str	r2, [r3, #24]
 279:Impedance.c   ****   dsp_cfg.ADCFilterCfg.ADCSinc2Osr = AppIMPCfg.ADCSinc2Osr;
 864              		.loc 1 279 0
 865 02f4 244B     		ldr	r3, .L62+4
 866 02f6 6D22     		movs	r2, #109
 867 02f8 9B5C     		ldrb	r3, [r3, r2]
 868 02fa 1A00     		movs	r2, r3
 869 02fc 2023     		movs	r3, #32
 870 02fe FB18     		adds	r3, r7, r3
 871 0300 1A61     		str	r2, [r3, #16]
 280:Impedance.c   ****   dsp_cfg.ADCFilterCfg.ADCSinc3Osr = AppIMPCfg.ADCSinc3Osr;
 872              		.loc 1 280 0
 873 0302 214B     		ldr	r3, .L62+4
 874 0304 6C22     		movs	r2, #108
 875 0306 9B5C     		ldrb	r3, [r3, r2]
 876 0308 1A00     		movs	r2, r3
 877 030a 2023     		movs	r3, #32
 878 030c FB18     		adds	r3, r7, r3
 879 030e DA60     		str	r2, [r3, #12]
 281:Impedance.c   ****   dsp_cfg.ADCFilterCfg.BpNotch = bTRUE;
 880              		.loc 1 281 0
 881 0310 2023     		movs	r3, #32
 882 0312 FB18     		adds	r3, r7, r3
 883 0314 0122     		movs	r2, #1
 884 0316 1A77     		strb	r2, [r3, #28]
 282:Impedance.c   ****   dsp_cfg.ADCFilterCfg.BpSinc3 = bFALSE;
 885              		.loc 1 282 0
 886 0318 2023     		movs	r3, #32
 887 031a FB18     		adds	r3, r7, r3
 888 031c 0022     		movs	r2, #0
 889 031e 5A77     		strb	r2, [r3, #29]
 283:Impedance.c   ****   dsp_cfg.ADCFilterCfg.Sinc2NotchEnable = bTRUE;
 890              		.loc 1 283 0
 891 0320 2023     		movs	r3, #32
 892 0322 FB18     		adds	r3, r7, r3
 893 0324 2022     		movs	r2, #32
 894 0326 0121     		movs	r1, #1
 895 0328 9954     		strb	r1, [r3, r2]
 284:Impedance.c   ****   dsp_cfg.DftCfg.DftNum = AppIMPCfg.DftNum;
 896              		.loc 1 284 0
 897 032a 174B     		ldr	r3, .L62+4
 898 032c DA6D     		ldr	r2, [r3, #92]
 899 032e 2023     		movs	r3, #32
 900 0330 FB18     		adds	r3, r7, r3
 901 0332 DA62     		str	r2, [r3, #44]
 285:Impedance.c   ****   dsp_cfg.DftCfg.DftSrc = AppIMPCfg.DftSrc;
 902              		.loc 1 285 0
 903 0334 144B     		ldr	r3, .L62+4
 904 0336 1A6E     		ldr	r2, [r3, #96]
ARM GAS  C:\Users\13740\AppData\Local\Temp\cctWuNXI.s 			page 22


 905 0338 2023     		movs	r3, #32
 906 033a FB18     		adds	r3, r7, r3
 907 033c 1A63     		str	r2, [r3, #48]
 286:Impedance.c   ****   dsp_cfg.DftCfg.HanWinEn = AppIMPCfg.HanWinEn;
 908              		.loc 1 286 0
 909 033e 124B     		ldr	r3, .L62+4
 910 0340 6422     		movs	r2, #100
 911 0342 995C     		ldrb	r1, [r3, r2]
 912 0344 2023     		movs	r3, #32
 913 0346 FB18     		adds	r3, r7, r3
 914 0348 3422     		movs	r2, #52
 915 034a 9954     		strb	r1, [r3, r2]
 287:Impedance.c   ****   
 288:Impedance.c   ****   memset(&dsp_cfg.StatCfg, 0, sizeof(dsp_cfg.StatCfg));
 916              		.loc 1 288 0
 917 034c 2023     		movs	r3, #32
 918 034e FB18     		adds	r3, r7, r3
 919 0350 3833     		adds	r3, r3, #56
 920 0352 0C22     		movs	r2, #12
 921 0354 0021     		movs	r1, #0
 922 0356 1800     		movs	r0, r3
 923 0358 FFF7FEFF 		bl	memset
 289:Impedance.c   ****   AD5940_DSPCfgS(&dsp_cfg);
 924              		.loc 1 289 0
 925 035c 2023     		movs	r3, #32
 926 035e FB18     		adds	r3, r7, r3
 927 0360 1800     		movs	r0, r3
 928 0362 FFF7FEFF 		bl	AD5940_DSPCfgS
 290:Impedance.c   ****     
 291:Impedance.c   ****   /* Enable all of them. They are automatically turned off during hibernate mode to save power */
 292:Impedance.c   ****   if(AppIMPCfg.BiasVolt == 0.0f)
 929              		.loc 1 292 0
 930 0366 084B     		ldr	r3, .L62+4
 931 0368 5B6D     		ldr	r3, [r3, #84]
 932 036a 0021     		movs	r1, #0
 933 036c 181C     		adds	r0, r3, #0
 934 036e FFF7FEFF 		bl	__aeabi_fcmpeq
 935 0372 031E     		subs	r3, r0, #0
 936 0374 1ED0     		beq	.L61
 293:Impedance.c   ****     AD5940_AFECtrlS(AFECTRL_HSTIAPWR|AFECTRL_INAMPPWR|AFECTRL_EXTBUFPWR|\
 937              		.loc 1 293 0
 938 0376 0E4B     		ldr	r3, .L62+44
 939 0378 0121     		movs	r1, #1
 940 037a 1800     		movs	r0, r3
 941 037c FFF7FEFF 		bl	AD5940_AFECtrlS
 942 0380 1DE0     		b	.L48
 943              	.L63:
 944 0382 C046     		.align	2
 945              	.L62:
 946 0384 E0FF3900 		.word	3801056
 947 0388 00000000 		.word	AppIMPCfg
 948 038c 90000000 		.word	AppIMPCfg+144
 949 0390 70000000 		.word	AppIMPCfg+112
 950 0394 00004844 		.word	1145569280
 951 0398 00E0FF44 		.word	1157619712
 952 039c 008089C4 		.word	-997621760
 953 03a0 CF6E89C4 		.word	-997626161
ARM GAS  C:\Users\13740\AppData\Local\Temp\cctWuNXI.s 			page 23


 954 03a4 00808944 		.word	1149861888
 955 03a8 CF6E8944 		.word	1149857487
 956 03ac 9988093F 		.word	1057589401
 957 03b0 404E1100 		.word	1134144
 958              	.L61:
 294:Impedance.c   ****                 AFECTRL_WG|AFECTRL_DACREFPWR|AFECTRL_HSDACPWR|\
 295:Impedance.c   ****                 AFECTRL_SINC2NOTCH, bTRUE);
 296:Impedance.c   ****   else
 297:Impedance.c   ****     AD5940_AFECtrlS(AFECTRL_HSTIAPWR|AFECTRL_INAMPPWR|AFECTRL_EXTBUFPWR|\
 959              		.loc 1 297 0
 960 03b4 234B     		ldr	r3, .L64
 961 03b6 0121     		movs	r1, #1
 962 03b8 1800     		movs	r0, r3
 963 03ba FFF7FEFF 		bl	AD5940_AFECtrlS
 964              	.L48:
 298:Impedance.c   ****                 AFECTRL_WG|AFECTRL_DACREFPWR|AFECTRL_HSDACPWR|\
 299:Impedance.c   ****                 AFECTRL_SINC2NOTCH|AFECTRL_DCBUFPWR, bTRUE);
 300:Impedance.c   ****     /* Sequence end. */
 301:Impedance.c   ****   AD5940_SEQGenInsert(SEQ_STOP()); /* Add one extra command to disable sequencer for initialization
 965              		.loc 1 301 0
 966 03be 8123     		movs	r3, #129
 967 03c0 1B06     		lsls	r3, r3, #24
 968 03c2 1800     		movs	r0, r3
 969 03c4 FFF7FEFF 		bl	AD5940_SEQGenInsert
 302:Impedance.c   **** 
 303:Impedance.c   ****   /* Stop here */
 304:Impedance.c   ****   error = AD5940_SEQGenFetchSeq(&pSeqCmd, &SeqLen);
 970              		.loc 1 304 0
 971 03c8 E823     		movs	r3, #232
 972 03ca FA18     		adds	r2, r7, r3
 973 03cc EC23     		movs	r3, #236
 974 03ce FB18     		adds	r3, r7, r3
 975 03d0 1100     		movs	r1, r2
 976 03d2 1800     		movs	r0, r3
 977 03d4 FFF7FEFF 		bl	AD5940_SEQGenFetchSeq
 978 03d8 0300     		movs	r3, r0
 979 03da F022     		movs	r2, #240
 980 03dc BA18     		adds	r2, r7, r2
 981 03de 1360     		str	r3, [r2]
 305:Impedance.c   ****   AD5940_SEQGenCtrl(bFALSE); /* Stop sequencer generator */
 982              		.loc 1 305 0
 983 03e0 0020     		movs	r0, #0
 984 03e2 FFF7FEFF 		bl	AD5940_SEQGenCtrl
 306:Impedance.c   ****   if(error == AD5940ERR_OK)
 985              		.loc 1 306 0
 986 03e6 F023     		movs	r3, #240
 987 03e8 FB18     		adds	r3, r7, r3
 988 03ea 1B68     		ldr	r3, [r3]
 989 03ec 002B     		cmp	r3, #0
 990 03ee 22D1     		bne	.L49
 307:Impedance.c   ****   {
 308:Impedance.c   ****     AppIMPCfg.InitSeqInfo.SeqId = SEQID_1;
 991              		.loc 1 308 0
 992 03f0 154B     		ldr	r3, .L64+4
 993 03f2 9C22     		movs	r2, #156
 994 03f4 0121     		movs	r1, #1
 995 03f6 9950     		str	r1, [r3, r2]
ARM GAS  C:\Users\13740\AppData\Local\Temp\cctWuNXI.s 			page 24


 309:Impedance.c   ****     AppIMPCfg.InitSeqInfo.SeqRamAddr = AppIMPCfg.SeqStartAddr;
 996              		.loc 1 309 0
 997 03f8 134B     		ldr	r3, .L64+4
 998 03fa 5A68     		ldr	r2, [r3, #4]
 999 03fc 124B     		ldr	r3, .L64+4
 1000 03fe A021     		movs	r1, #160
 1001 0400 5A50     		str	r2, [r3, r1]
 310:Impedance.c   ****     AppIMPCfg.InitSeqInfo.pSeqCmd = pSeqCmd;
 1002              		.loc 1 310 0
 1003 0402 EC23     		movs	r3, #236
 1004 0404 FB18     		adds	r3, r7, r3
 1005 0406 1A68     		ldr	r2, [r3]
 1006 0408 0F4B     		ldr	r3, .L64+4
 1007 040a AC21     		movs	r1, #172
 1008 040c 5A50     		str	r2, [r3, r1]
 311:Impedance.c   ****     AppIMPCfg.InitSeqInfo.SeqLen = SeqLen;
 1009              		.loc 1 311 0
 1010 040e E823     		movs	r3, #232
 1011 0410 FB18     		adds	r3, r7, r3
 1012 0412 1A68     		ldr	r2, [r3]
 1013 0414 0C4B     		ldr	r3, .L64+4
 1014 0416 A421     		movs	r1, #164
 1015 0418 5A50     		str	r2, [r3, r1]
 312:Impedance.c   ****     /* Write command to SRAM */
 313:Impedance.c   ****     AD5940_SEQCmdWrite(AppIMPCfg.InitSeqInfo.SeqRamAddr, pSeqCmd, SeqLen);
 1016              		.loc 1 313 0
 1017 041a 0B4B     		ldr	r3, .L64+4
 1018 041c A022     		movs	r2, #160
 1019 041e 9B58     		ldr	r3, [r3, r2]
 1020 0420 EC22     		movs	r2, #236
 1021 0422 BA18     		adds	r2, r7, r2
 1022 0424 1168     		ldr	r1, [r2]
 1023 0426 E822     		movs	r2, #232
 1024 0428 BA18     		adds	r2, r7, r2
 1025 042a 1268     		ldr	r2, [r2]
 1026 042c 1800     		movs	r0, r3
 1027 042e FFF7FEFF 		bl	AD5940_SEQCmdWrite
 314:Impedance.c   ****   }
 315:Impedance.c   ****   else
 316:Impedance.c   ****     return error; /* Error */
 317:Impedance.c   ****   return AD5940ERR_OK;
 1028              		.loc 1 317 0
 1029 0432 0023     		movs	r3, #0
 1030 0434 02E0     		b	.L52
 1031              	.L49:
 316:Impedance.c   ****   return AD5940ERR_OK;
 1032              		.loc 1 316 0
 1033 0436 F023     		movs	r3, #240
 1034 0438 FB18     		adds	r3, r7, r3
 1035 043a 1B68     		ldr	r3, [r3]
 1036              	.L52:
 318:Impedance.c   **** }
 1037              		.loc 1 318 0 discriminator 1
 1038 043c 1800     		movs	r0, r3
 1039 043e BD46     		mov	sp, r7
 1040 0440 3EB0     		add	sp, sp, #248
 1041              		@ sp needed
ARM GAS  C:\Users\13740\AppData\Local\Temp\cctWuNXI.s 			page 25


 1042 0442 80BD     		pop	{r7, pc}
 1043              	.L65:
 1044              		.align	2
 1045              	.L64:
 1046 0444 404E3100 		.word	3231296
 1047 0448 00000000 		.word	AppIMPCfg
 1048              		.cfi_endproc
 1049              	.LFE4:
 1050              		.size	AppIMPSeqCfgGen, .-AppIMPSeqCfgGen
 1051              		.section	.text.AppIMPSeqMeasureGen,"ax",%progbits
 1052              		.align	2
 1053              		.code	16
 1054              		.thumb_func
 1055              		.type	AppIMPSeqMeasureGen, %function
 1056              	AppIMPSeqMeasureGen:
 1057              	.LFB5:
 319:Impedance.c   **** 
 320:Impedance.c   **** 
 321:Impedance.c   **** static AD5940Err AppIMPSeqMeasureGen(void)
 322:Impedance.c   **** {
 1058              		.loc 1 322 0
 1059              		.cfi_startproc
 1060              		@ args = 0, pretend = 0, frame = 64
 1061              		@ frame_needed = 1, uses_anonymous_args = 0
 1062 0000 80B5     		push	{r7, lr}
 1063              		.cfi_def_cfa_offset 8
 1064              		.cfi_offset 7, -8
 1065              		.cfi_offset 14, -4
 1066 0002 90B0     		sub	sp, sp, #64
 1067              		.cfi_def_cfa_offset 72
 1068 0004 00AF     		add	r7, sp, #0
 1069              		.cfi_def_cfa_register 7
 323:Impedance.c   ****   AD5940Err error = AD5940ERR_OK;
 1070              		.loc 1 323 0
 1071 0006 0023     		movs	r3, #0
 1072 0008 FB63     		str	r3, [r7, #60]
 324:Impedance.c   ****   const uint32_t *pSeqCmd;
 325:Impedance.c   ****   uint32_t SeqLen;
 326:Impedance.c   ****   
 327:Impedance.c   ****   uint32_t WaitClks;
 328:Impedance.c   ****   SWMatrixCfg_Type sw_cfg;
 329:Impedance.c   ****   ClksCalInfo_Type clks_cal;
 330:Impedance.c   **** 
 331:Impedance.c   ****   clks_cal.DataType = DATATYPE_DFT;
 1073              		.loc 1 331 0
 1074 000a 3B00     		movs	r3, r7
 1075 000c 0322     		movs	r2, #3
 1076 000e 1A60     		str	r2, [r3]
 332:Impedance.c   ****   clks_cal.DftSrc = AppIMPCfg.DftSrc;
 1077              		.loc 1 332 0
 1078 0010 734B     		ldr	r3, .L71
 1079 0012 1A6E     		ldr	r2, [r3, #96]
 1080 0014 3B00     		movs	r3, r7
 1081 0016 5A61     		str	r2, [r3, #20]
 333:Impedance.c   ****   clks_cal.DataCount = 1L<<(AppIMPCfg.DftNum+2); /* 2^(DFTNUMBER+2) */
 1082              		.loc 1 333 0
 1083 0018 714B     		ldr	r3, .L71
ARM GAS  C:\Users\13740\AppData\Local\Temp\cctWuNXI.s 			page 26


 1084 001a DB6D     		ldr	r3, [r3, #92]
 1085 001c 0233     		adds	r3, r3, #2
 1086 001e 0122     		movs	r2, #1
 1087 0020 9A40     		lsls	r2, r2, r3
 1088 0022 1300     		movs	r3, r2
 1089 0024 1A00     		movs	r2, r3
 1090 0026 3B00     		movs	r3, r7
 1091 0028 5A60     		str	r2, [r3, #4]
 334:Impedance.c   ****   clks_cal.ADCSinc2Osr = AppIMPCfg.ADCSinc2Osr;
 1092              		.loc 1 334 0
 1093 002a 6D4B     		ldr	r3, .L71
 1094 002c 6D22     		movs	r2, #109
 1095 002e 9B5C     		ldrb	r3, [r3, r2]
 1096 0030 1A00     		movs	r2, r3
 1097 0032 3B00     		movs	r3, r7
 1098 0034 DA60     		str	r2, [r3, #12]
 335:Impedance.c   ****   clks_cal.ADCSinc3Osr = AppIMPCfg.ADCSinc3Osr;
 1099              		.loc 1 335 0
 1100 0036 6A4B     		ldr	r3, .L71
 1101 0038 6C22     		movs	r2, #108
 1102 003a 9B5C     		ldrb	r3, [r3, r2]
 1103 003c 1A00     		movs	r2, r3
 1104 003e 3B00     		movs	r3, r7
 1105 0040 9A60     		str	r2, [r3, #8]
 336:Impedance.c   ****   clks_cal.ADCAvgNum = AppIMPCfg.ADCAvgNum;
 1106              		.loc 1 336 0
 1107 0042 674B     		ldr	r3, .L71
 1108 0044 6E22     		movs	r2, #110
 1109 0046 9B5C     		ldrb	r3, [r3, r2]
 1110 0048 1A00     		movs	r2, r3
 1111 004a 3B00     		movs	r3, r7
 1112 004c 1A61     		str	r2, [r3, #16]
 337:Impedance.c   ****   clks_cal.RatioSys2AdcClk = AppIMPCfg.SysClkFreq/AppIMPCfg.AdcClkFreq;
 1113              		.loc 1 337 0
 1114 004e 644B     		ldr	r3, .L71
 1115 0050 1A6A     		ldr	r2, [r3, #32]
 1116 0052 634B     		ldr	r3, .L71
 1117 0054 5B6A     		ldr	r3, [r3, #36]
 1118 0056 191C     		adds	r1, r3, #0
 1119 0058 101C     		adds	r0, r2, #0
 1120 005a FFF7FEFF 		bl	__aeabi_fdiv
 1121 005e 031C     		adds	r3, r0, #0
 1122 0060 1A1C     		adds	r2, r3, #0
 1123 0062 3B00     		movs	r3, r7
 1124 0064 DA61     		str	r2, [r3, #28]
 338:Impedance.c   ****   AD5940_ClksCalculate(&clks_cal, &WaitClks);
 1125              		.loc 1 338 0
 1126 0066 3023     		movs	r3, #48
 1127 0068 FA18     		adds	r2, r7, r3
 1128 006a 3B00     		movs	r3, r7
 1129 006c 1100     		movs	r1, r2
 1130 006e 1800     		movs	r0, r3
 1131 0070 FFF7FEFF 		bl	AD5940_ClksCalculate
 339:Impedance.c   **** 
 340:Impedance.c   ****   AD5940_SEQGenCtrl(bTRUE);
 1132              		.loc 1 340 0
 1133 0074 0120     		movs	r0, #1
ARM GAS  C:\Users\13740\AppData\Local\Temp\cctWuNXI.s 			page 27


 1134 0076 FFF7FEFF 		bl	AD5940_SEQGenCtrl
 341:Impedance.c   ****   AD5940_SEQGpioCtrlS(AGPIO_Pin2); /* Set GPIO1, clear others that under control */
 1135              		.loc 1 341 0
 1136 007a 0420     		movs	r0, #4
 1137 007c FFF7FEFF 		bl	AD5940_SEQGpioCtrlS
 342:Impedance.c   ****   AD5940_SEQGenInsert(SEQ_WAIT(16*250));  /* @todo wait 250us? */
 1138              		.loc 1 342 0
 1139 0080 FA23     		movs	r3, #250
 1140 0082 1B01     		lsls	r3, r3, #4
 1141 0084 1800     		movs	r0, r3
 1142 0086 FFF7FEFF 		bl	AD5940_SEQGenInsert
 343:Impedance.c   ****   sw_cfg.Dswitch = SWD_RCAL0;
 1143              		.loc 1 343 0
 1144 008a 2023     		movs	r3, #32
 1145 008c FB18     		adds	r3, r7, r3
 1146 008e 0122     		movs	r2, #1
 1147 0090 1A60     		str	r2, [r3]
 344:Impedance.c   ****   sw_cfg.Pswitch = SWP_RCAL0;
 1148              		.loc 1 344 0
 1149 0092 2023     		movs	r3, #32
 1150 0094 FB18     		adds	r3, r7, r3
 1151 0096 0122     		movs	r2, #1
 1152 0098 5A60     		str	r2, [r3, #4]
 345:Impedance.c   ****   sw_cfg.Nswitch = SWN_RCAL1;
 1153              		.loc 1 345 0
 1154 009a 2023     		movs	r3, #32
 1155 009c FB18     		adds	r3, r7, r3
 1156 009e 8022     		movs	r2, #128
 1157 00a0 9200     		lsls	r2, r2, #2
 1158 00a2 9A60     		str	r2, [r3, #8]
 346:Impedance.c   ****   sw_cfg.Tswitch = SWT_RCAL1|SWT_TRTIA;
 1159              		.loc 1 346 0
 1160 00a4 2023     		movs	r3, #32
 1161 00a6 FB18     		adds	r3, r7, r3
 1162 00a8 9022     		movs	r2, #144
 1163 00aa 1201     		lsls	r2, r2, #4
 1164 00ac DA60     		str	r2, [r3, #12]
 347:Impedance.c   ****   AD5940_SWMatrixCfgS(&sw_cfg);
 1165              		.loc 1 347 0
 1166 00ae 2023     		movs	r3, #32
 1167 00b0 FB18     		adds	r3, r7, r3
 1168 00b2 1800     		movs	r0, r3
 1169 00b4 FFF7FEFF 		bl	AD5940_SWMatrixCfgS
 348:Impedance.c   **** 	AD5940_AFECtrlS(AFECTRL_HSTIAPWR|AFECTRL_INAMPPWR|AFECTRL_EXTBUFPWR|\
 1170              		.loc 1 348 0
 1171 00b8 4A4B     		ldr	r3, .L71+4
 1172 00ba 0121     		movs	r1, #1
 1173 00bc 1800     		movs	r0, r3
 1174 00be FFF7FEFF 		bl	AD5940_AFECtrlS
 349:Impedance.c   ****                 AFECTRL_WG|AFECTRL_DACREFPWR|AFECTRL_HSDACPWR|\
 350:Impedance.c   ****                 AFECTRL_SINC2NOTCH, bTRUE);
 351:Impedance.c   ****   AD5940_AFECtrlS(AFECTRL_WG|AFECTRL_ADCPWR, bTRUE);  /* Enable Waveform generator */
 1175              		.loc 1 351 0
 1176 00c2 8123     		movs	r3, #129
 1177 00c4 DB01     		lsls	r3, r3, #7
 1178 00c6 0121     		movs	r1, #1
 1179 00c8 1800     		movs	r0, r3
ARM GAS  C:\Users\13740\AppData\Local\Temp\cctWuNXI.s 			page 28


 1180 00ca FFF7FEFF 		bl	AD5940_AFECtrlS
 352:Impedance.c   ****   //delay for signal settling DFT_WAIT
 353:Impedance.c   ****   AD5940_SEQGenInsert(SEQ_WAIT(16*10));
 1181              		.loc 1 353 0
 1182 00ce A020     		movs	r0, #160
 1183 00d0 FFF7FEFF 		bl	AD5940_SEQGenInsert
 354:Impedance.c   ****   AD5940_AFECtrlS(AFECTRL_ADCCNV|AFECTRL_DFT, bTRUE);  /* Start ADC convert and DFT */
 1184              		.loc 1 354 0
 1185 00d4 8123     		movs	r3, #129
 1186 00d6 1B02     		lsls	r3, r3, #8
 1187 00d8 0121     		movs	r1, #1
 1188 00da 1800     		movs	r0, r3
 1189 00dc FFF7FEFF 		bl	AD5940_AFECtrlS
 355:Impedance.c   ****   AD5940_SEQGenInsert(SEQ_WAIT(WaitClks));
 1190              		.loc 1 355 0
 1191 00e0 3B6B     		ldr	r3, [r7, #48]
 1192 00e2 9B00     		lsls	r3, r3, #2
 1193 00e4 9B08     		lsrs	r3, r3, #2
 1194 00e6 1800     		movs	r0, r3
 1195 00e8 FFF7FEFF 		bl	AD5940_SEQGenInsert
 356:Impedance.c   ****   //wait for first data ready
 357:Impedance.c   ****   AD5940_AFECtrlS(AFECTRL_ADCPWR|AFECTRL_ADCCNV|AFECTRL_DFT|AFECTRL_WG, bFALSE);  /* Stop ADC conve
 1196              		.loc 1 357 0
 1197 00ec 3E4B     		ldr	r3, .L71+8
 1198 00ee 0021     		movs	r1, #0
 1199 00f0 1800     		movs	r0, r3
 1200 00f2 FFF7FEFF 		bl	AD5940_AFECtrlS
 358:Impedance.c   **** 
 359:Impedance.c   ****   /* Configure matrix for external Rz */
 360:Impedance.c   ****   sw_cfg.Dswitch = AppIMPCfg.DswitchSel;
 1201              		.loc 1 360 0
 1202 00f6 3A4B     		ldr	r3, .L71
 1203 00f8 DA6A     		ldr	r2, [r3, #44]
 1204 00fa 2023     		movs	r3, #32
 1205 00fc FB18     		adds	r3, r7, r3
 1206 00fe 1A60     		str	r2, [r3]
 361:Impedance.c   ****   sw_cfg.Pswitch = AppIMPCfg.PswitchSel;
 1207              		.loc 1 361 0
 1208 0100 374B     		ldr	r3, .L71
 1209 0102 1A6B     		ldr	r2, [r3, #48]
 1210 0104 2023     		movs	r3, #32
 1211 0106 FB18     		adds	r3, r7, r3
 1212 0108 5A60     		str	r2, [r3, #4]
 362:Impedance.c   ****   sw_cfg.Nswitch = AppIMPCfg.NswitchSel;
 1213              		.loc 1 362 0
 1214 010a 354B     		ldr	r3, .L71
 1215 010c 5A6B     		ldr	r2, [r3, #52]
 1216 010e 2023     		movs	r3, #32
 1217 0110 FB18     		adds	r3, r7, r3
 1218 0112 9A60     		str	r2, [r3, #8]
 363:Impedance.c   ****   sw_cfg.Tswitch = SWT_TRTIA|AppIMPCfg.TswitchSel;
 1219              		.loc 1 363 0
 1220 0114 324B     		ldr	r3, .L71
 1221 0116 9B6B     		ldr	r3, [r3, #56]
 1222 0118 8022     		movs	r2, #128
 1223 011a 5200     		lsls	r2, r2, #1
 1224 011c 1A43     		orrs	r2, r3
ARM GAS  C:\Users\13740\AppData\Local\Temp\cctWuNXI.s 			page 29


 1225 011e 2023     		movs	r3, #32
 1226 0120 FB18     		adds	r3, r7, r3
 1227 0122 DA60     		str	r2, [r3, #12]
 364:Impedance.c   ****   AD5940_SWMatrixCfgS(&sw_cfg);
 1228              		.loc 1 364 0
 1229 0124 2023     		movs	r3, #32
 1230 0126 FB18     		adds	r3, r7, r3
 1231 0128 1800     		movs	r0, r3
 1232 012a FFF7FEFF 		bl	AD5940_SWMatrixCfgS
 365:Impedance.c   ****   AD5940_AFECtrlS(AFECTRL_ADCPWR|AFECTRL_WG, bTRUE);  /* Enable Waveform generator */
 1233              		.loc 1 365 0
 1234 012e 8123     		movs	r3, #129
 1235 0130 DB01     		lsls	r3, r3, #7
 1236 0132 0121     		movs	r1, #1
 1237 0134 1800     		movs	r0, r3
 1238 0136 FFF7FEFF 		bl	AD5940_AFECtrlS
 366:Impedance.c   ****   AD5940_SEQGenInsert(SEQ_WAIT(16*10));  //delay for signal settling DFT_WAIT
 1239              		.loc 1 366 0
 1240 013a A020     		movs	r0, #160
 1241 013c FFF7FEFF 		bl	AD5940_SEQGenInsert
 367:Impedance.c   ****   AD5940_AFECtrlS(AFECTRL_ADCCNV|AFECTRL_DFT, bTRUE);  /* Start ADC convert and DFT */
 1242              		.loc 1 367 0
 1243 0140 8123     		movs	r3, #129
 1244 0142 1B02     		lsls	r3, r3, #8
 1245 0144 0121     		movs	r1, #1
 1246 0146 1800     		movs	r0, r3
 1247 0148 FFF7FEFF 		bl	AD5940_AFECtrlS
 368:Impedance.c   ****   AD5940_SEQGenInsert(SEQ_WAIT(WaitClks));  /* wait for first data ready */
 1248              		.loc 1 368 0
 1249 014c 3B6B     		ldr	r3, [r7, #48]
 1250 014e 9B00     		lsls	r3, r3, #2
 1251 0150 9B08     		lsrs	r3, r3, #2
 1252 0152 1800     		movs	r0, r3
 1253 0154 FFF7FEFF 		bl	AD5940_SEQGenInsert
 369:Impedance.c   ****   AD5940_AFECtrlS(AFECTRL_ADCCNV|AFECTRL_DFT|AFECTRL_WG|AFECTRL_ADCPWR, bFALSE);  /* Stop ADC conve
 1254              		.loc 1 369 0
 1255 0158 234B     		ldr	r3, .L71+8
 1256 015a 0021     		movs	r1, #0
 1257 015c 1800     		movs	r0, r3
 1258 015e FFF7FEFF 		bl	AD5940_AFECtrlS
 370:Impedance.c   ****     AD5940_AFECtrlS(AFECTRL_HSTIAPWR|AFECTRL_INAMPPWR|AFECTRL_EXTBUFPWR|\
 1259              		.loc 1 370 0
 1260 0162 204B     		ldr	r3, .L71+4
 1261 0164 0021     		movs	r1, #0
 1262 0166 1800     		movs	r0, r3
 1263 0168 FFF7FEFF 		bl	AD5940_AFECtrlS
 371:Impedance.c   ****                 AFECTRL_WG|AFECTRL_DACREFPWR|AFECTRL_HSDACPWR|\
 372:Impedance.c   ****                 AFECTRL_SINC2NOTCH, bFALSE);
 373:Impedance.c   ****   AD5940_SEQGpioCtrlS(0); /* Clr GPIO1 */
 1264              		.loc 1 373 0
 1265 016c 0020     		movs	r0, #0
 1266 016e FFF7FEFF 		bl	AD5940_SEQGpioCtrlS
 374:Impedance.c   **** 
 375:Impedance.c   ****   AD5940_EnterSleepS();/* Goto hibernate */
 1267              		.loc 1 375 0
 1268 0172 FFF7FEFF 		bl	AD5940_EnterSleepS
 376:Impedance.c   **** 
ARM GAS  C:\Users\13740\AppData\Local\Temp\cctWuNXI.s 			page 30


 377:Impedance.c   ****   /* Sequence end. */
 378:Impedance.c   ****   error = AD5940_SEQGenFetchSeq(&pSeqCmd, &SeqLen);
 1269              		.loc 1 378 0
 1270 0176 3423     		movs	r3, #52
 1271 0178 FA18     		adds	r2, r7, r3
 1272 017a 3823     		movs	r3, #56
 1273 017c FB18     		adds	r3, r7, r3
 1274 017e 1100     		movs	r1, r2
 1275 0180 1800     		movs	r0, r3
 1276 0182 FFF7FEFF 		bl	AD5940_SEQGenFetchSeq
 1277 0186 0300     		movs	r3, r0
 1278 0188 FB63     		str	r3, [r7, #60]
 379:Impedance.c   ****   AD5940_SEQGenCtrl(bFALSE); /* Stop sequencer generator */
 1279              		.loc 1 379 0
 1280 018a 0020     		movs	r0, #0
 1281 018c FFF7FEFF 		bl	AD5940_SEQGenCtrl
 380:Impedance.c   **** 
 381:Impedance.c   ****   if(error == AD5940ERR_OK)
 1282              		.loc 1 381 0
 1283 0190 FB6B     		ldr	r3, [r7, #60]
 1284 0192 002B     		cmp	r3, #0
 1285 0194 1FD1     		bne	.L67
 382:Impedance.c   ****   {
 383:Impedance.c   ****     AppIMPCfg.MeasureSeqInfo.SeqId = SEQID_0;
 1286              		.loc 1 383 0
 1287 0196 124B     		ldr	r3, .L71
 1288 0198 B022     		movs	r2, #176
 1289 019a 0021     		movs	r1, #0
 1290 019c 9950     		str	r1, [r3, r2]
 384:Impedance.c   ****     AppIMPCfg.MeasureSeqInfo.SeqRamAddr = AppIMPCfg.InitSeqInfo.SeqRamAddr + AppIMPCfg.InitSeqInfo.
 1291              		.loc 1 384 0
 1292 019e 104B     		ldr	r3, .L71
 1293 01a0 A022     		movs	r2, #160
 1294 01a2 9A58     		ldr	r2, [r3, r2]
 1295 01a4 0E4B     		ldr	r3, .L71
 1296 01a6 A421     		movs	r1, #164
 1297 01a8 5B58     		ldr	r3, [r3, r1]
 1298 01aa D218     		adds	r2, r2, r3
 1299 01ac 0C4B     		ldr	r3, .L71
 1300 01ae B421     		movs	r1, #180
 1301 01b0 5A50     		str	r2, [r3, r1]
 385:Impedance.c   ****     AppIMPCfg.MeasureSeqInfo.pSeqCmd = pSeqCmd;
 1302              		.loc 1 385 0
 1303 01b2 BA6B     		ldr	r2, [r7, #56]
 1304 01b4 0A4B     		ldr	r3, .L71
 1305 01b6 C021     		movs	r1, #192
 1306 01b8 5A50     		str	r2, [r3, r1]
 386:Impedance.c   ****     AppIMPCfg.MeasureSeqInfo.SeqLen = SeqLen;
 1307              		.loc 1 386 0
 1308 01ba 7A6B     		ldr	r2, [r7, #52]
 1309 01bc 084B     		ldr	r3, .L71
 1310 01be B821     		movs	r1, #184
 1311 01c0 5A50     		str	r2, [r3, r1]
 387:Impedance.c   ****     /* Write command to SRAM */
 388:Impedance.c   ****     AD5940_SEQCmdWrite(AppIMPCfg.MeasureSeqInfo.SeqRamAddr, pSeqCmd, SeqLen);
 1312              		.loc 1 388 0
 1313 01c2 074B     		ldr	r3, .L71
ARM GAS  C:\Users\13740\AppData\Local\Temp\cctWuNXI.s 			page 31


 1314 01c4 B422     		movs	r2, #180
 1315 01c6 9B58     		ldr	r3, [r3, r2]
 1316 01c8 B96B     		ldr	r1, [r7, #56]
 1317 01ca 7A6B     		ldr	r2, [r7, #52]
 1318 01cc 1800     		movs	r0, r3
 1319 01ce FFF7FEFF 		bl	AD5940_SEQCmdWrite
 389:Impedance.c   ****   }
 390:Impedance.c   ****   else
 391:Impedance.c   ****     return error; /* Error */
 392:Impedance.c   ****   return AD5940ERR_OK;
 1320              		.loc 1 392 0
 1321 01d2 0023     		movs	r3, #0
 1322 01d4 00E0     		b	.L70
 1323              	.L67:
 391:Impedance.c   ****   return AD5940ERR_OK;
 1324              		.loc 1 391 0
 1325 01d6 FB6B     		ldr	r3, [r7, #60]
 1326              	.L70:
 393:Impedance.c   **** }
 1327              		.loc 1 393 0 discriminator 1
 1328 01d8 1800     		movs	r0, r3
 1329 01da BD46     		mov	sp, r7
 1330 01dc 10B0     		add	sp, sp, #64
 1331              		@ sp needed
 1332 01de 80BD     		pop	{r7, pc}
 1333              	.L72:
 1334              		.align	2
 1335              	.L71:
 1336 01e0 00000000 		.word	AppIMPCfg
 1337 01e4 404E1100 		.word	1134144
 1338 01e8 80C10000 		.word	49536
 1339              		.cfi_endproc
 1340              	.LFE5:
 1341              		.size	AppIMPSeqMeasureGen, .-AppIMPSeqMeasureGen
 1342              		.section	.text.AppIMPInit,"ax",%progbits
 1343              		.align	2
 1344              		.global	AppIMPInit
 1345              		.code	16
 1346              		.thumb_func
 1347              		.type	AppIMPInit, %function
 1348              	AppIMPInit:
 1349              	.LFB6:
 394:Impedance.c   **** 
 395:Impedance.c   **** 
 396:Impedance.c   **** /* This function provide application initialize. It can also enable Wupt that will automatically tr
 397:Impedance.c   **** int32_t AppIMPInit(uint32_t *pBuffer, uint32_t BufferSize)
 398:Impedance.c   **** {
 1350              		.loc 1 398 0
 1351              		.cfi_startproc
 1352              		@ args = 0, pretend = 0, frame = 48
 1353              		@ frame_needed = 1, uses_anonymous_args = 0
 1354 0000 80B5     		push	{r7, lr}
 1355              		.cfi_def_cfa_offset 8
 1356              		.cfi_offset 7, -8
 1357              		.cfi_offset 14, -4
 1358 0002 8CB0     		sub	sp, sp, #48
 1359              		.cfi_def_cfa_offset 56
ARM GAS  C:\Users\13740\AppData\Local\Temp\cctWuNXI.s 			page 32


 1360 0004 00AF     		add	r7, sp, #0
 1361              		.cfi_def_cfa_register 7
 1362 0006 7860     		str	r0, [r7, #4]
 1363 0008 3960     		str	r1, [r7]
 399:Impedance.c   ****   AD5940Err error = AD5940ERR_OK;  
 1364              		.loc 1 399 0
 1365 000a 0023     		movs	r3, #0
 1366 000c FB62     		str	r3, [r7, #44]
 400:Impedance.c   ****   SEQCfg_Type seq_cfg;
 401:Impedance.c   ****   FIFOCfg_Type fifo_cfg;
 402:Impedance.c   **** 
 403:Impedance.c   ****   if(AD5940_WakeUp(10) > 10)  /* Wakeup AFE by read register, read 10 times at most */
 1367              		.loc 1 403 0
 1368 000e 0A20     		movs	r0, #10
 1369 0010 FFF7FEFF 		bl	AD5940_WakeUp
 1370 0014 0300     		movs	r3, r0
 1371 0016 0A2B     		cmp	r3, #10
 1372 0018 02D9     		bls	.L74
 404:Impedance.c   ****     return AD5940ERR_WAKEUP;  /* Wakeup Failed */
 1373              		.loc 1 404 0
 1374 001a 0923     		movs	r3, #9
 1375 001c 5B42     		rsbs	r3, r3, #0
 1376 001e AEE0     		b	.L83
 1377              	.L74:
 405:Impedance.c   **** 
 406:Impedance.c   ****   /* Configure sequencer and stop it */
 407:Impedance.c   ****   seq_cfg.SeqMemSize = SEQMEMSIZE_2KB;  /* 2kB SRAM is used for sequencer, others for data FIFO */
 1378              		.loc 1 407 0
 1379 0020 2023     		movs	r3, #32
 1380 0022 FB18     		adds	r3, r7, r3
 1381 0024 0122     		movs	r2, #1
 1382 0026 1A60     		str	r2, [r3]
 408:Impedance.c   ****   seq_cfg.SeqBreakEn = bFALSE;
 1383              		.loc 1 408 0
 1384 0028 2023     		movs	r3, #32
 1385 002a FB18     		adds	r3, r7, r3
 1386 002c 0022     		movs	r2, #0
 1387 002e 5A71     		strb	r2, [r3, #5]
 409:Impedance.c   ****   seq_cfg.SeqIgnoreEn = bTRUE;
 1388              		.loc 1 409 0
 1389 0030 2023     		movs	r3, #32
 1390 0032 FB18     		adds	r3, r7, r3
 1391 0034 0122     		movs	r2, #1
 1392 0036 9A71     		strb	r2, [r3, #6]
 410:Impedance.c   ****   seq_cfg.SeqCntCRCClr = bTRUE;
 1393              		.loc 1 410 0
 1394 0038 2023     		movs	r3, #32
 1395 003a FB18     		adds	r3, r7, r3
 1396 003c 0122     		movs	r2, #1
 1397 003e DA71     		strb	r2, [r3, #7]
 411:Impedance.c   ****   seq_cfg.SeqEnable = bFALSE;
 1398              		.loc 1 411 0
 1399 0040 2023     		movs	r3, #32
 1400 0042 FB18     		adds	r3, r7, r3
 1401 0044 0022     		movs	r2, #0
 1402 0046 1A71     		strb	r2, [r3, #4]
 412:Impedance.c   ****   seq_cfg.SeqWrTimer = 0;
ARM GAS  C:\Users\13740\AppData\Local\Temp\cctWuNXI.s 			page 33


 1403              		.loc 1 412 0
 1404 0048 2023     		movs	r3, #32
 1405 004a FB18     		adds	r3, r7, r3
 1406 004c 0022     		movs	r2, #0
 1407 004e 9A60     		str	r2, [r3, #8]
 413:Impedance.c   ****   AD5940_SEQCfg(&seq_cfg);
 1408              		.loc 1 413 0
 1409 0050 2023     		movs	r3, #32
 1410 0052 FB18     		adds	r3, r7, r3
 1411 0054 1800     		movs	r0, r3
 1412 0056 FFF7FEFF 		bl	AD5940_SEQCfg
 414:Impedance.c   ****   
 415:Impedance.c   ****   /* Reconfigure FIFO */
 416:Impedance.c   ****   AD5940_FIFOCtrlS(FIFOSRC_DFT, bFALSE);									/* Disable FIFO firstly */
 1413              		.loc 1 416 0
 1414 005a 0021     		movs	r1, #0
 1415 005c 0220     		movs	r0, #2
 1416 005e FFF7FEFF 		bl	AD5940_FIFOCtrlS
 417:Impedance.c   ****   fifo_cfg.FIFOEn = bTRUE;
 1417              		.loc 1 417 0
 1418 0062 0C23     		movs	r3, #12
 1419 0064 FB18     		adds	r3, r7, r3
 1420 0066 0122     		movs	r2, #1
 1421 0068 1A70     		strb	r2, [r3]
 418:Impedance.c   ****   fifo_cfg.FIFOMode = FIFOMODE_FIFO;
 1422              		.loc 1 418 0
 1423 006a 0C23     		movs	r3, #12
 1424 006c FB18     		adds	r3, r7, r3
 1425 006e 0222     		movs	r2, #2
 1426 0070 5A60     		str	r2, [r3, #4]
 419:Impedance.c   ****   fifo_cfg.FIFOSize = FIFOSIZE_4KB;                       /* 4kB for FIFO, The reset 2kB for sequen
 1427              		.loc 1 419 0
 1428 0072 0C23     		movs	r3, #12
 1429 0074 FB18     		adds	r3, r7, r3
 1430 0076 0222     		movs	r2, #2
 1431 0078 9A60     		str	r2, [r3, #8]
 420:Impedance.c   ****   fifo_cfg.FIFOSrc = FIFOSRC_DFT;
 1432              		.loc 1 420 0
 1433 007a 0C23     		movs	r3, #12
 1434 007c FB18     		adds	r3, r7, r3
 1435 007e 0222     		movs	r2, #2
 1436 0080 DA60     		str	r2, [r3, #12]
 421:Impedance.c   ****   fifo_cfg.FIFOThresh = AppIMPCfg.FifoThresh;              /* DFT result. One pair for RCAL, anothe
 1437              		.loc 1 421 0
 1438 0082 414B     		ldr	r3, .L84
 1439 0084 8822     		movs	r2, #136
 1440 0086 9A58     		ldr	r2, [r3, r2]
 1441 0088 0C23     		movs	r3, #12
 1442 008a FB18     		adds	r3, r7, r3
 1443 008c 1A61     		str	r2, [r3, #16]
 422:Impedance.c   ****   AD5940_FIFOCfg(&fifo_cfg);
 1444              		.loc 1 422 0
 1445 008e 0C23     		movs	r3, #12
 1446 0090 FB18     		adds	r3, r7, r3
 1447 0092 1800     		movs	r0, r3
 1448 0094 FFF7FEFF 		bl	AD5940_FIFOCfg
 423:Impedance.c   ****   AD5940_INTCClrFlag(AFEINTSRC_ALLINT);
ARM GAS  C:\Users\13740\AppData\Local\Temp\cctWuNXI.s 			page 34


 1449              		.loc 1 423 0
 1450 0098 0123     		movs	r3, #1
 1451 009a 5B42     		rsbs	r3, r3, #0
 1452 009c 1800     		movs	r0, r3
 1453 009e FFF7FEFF 		bl	AD5940_INTCClrFlag
 424:Impedance.c   **** 
 425:Impedance.c   ****   /* Start sequence generator */
 426:Impedance.c   ****   /* Initialize sequencer generator */
 427:Impedance.c   ****   if((AppIMPCfg.IMPInited == bFALSE)||\
 1454              		.loc 1 427 0
 1455 00a2 394B     		ldr	r3, .L84
 1456 00a4 9822     		movs	r2, #152
 1457 00a6 9B5C     		ldrb	r3, [r3, r2]
 1458 00a8 002B     		cmp	r3, #0
 1459 00aa 03D0     		beq	.L76
 428:Impedance.c   ****        (AppIMPCfg.bParaChanged == bTRUE))
 1460              		.loc 1 428 0 discriminator 1
 1461 00ac 364B     		ldr	r3, .L84
 1462 00ae 1B78     		ldrb	r3, [r3]
 427:Impedance.c   ****        (AppIMPCfg.bParaChanged == bTRUE))
 1463              		.loc 1 427 0 discriminator 1
 1464 00b0 012B     		cmp	r3, #1
 1465 00b2 26D1     		bne	.L77
 1466              	.L76:
 429:Impedance.c   ****   {
 430:Impedance.c   ****     if(pBuffer == 0)  return AD5940ERR_PARA;
 1467              		.loc 1 430 0
 1468 00b4 7B68     		ldr	r3, [r7, #4]
 1469 00b6 002B     		cmp	r3, #0
 1470 00b8 02D1     		bne	.L78
 1471              		.loc 1 430 0 is_stmt 0 discriminator 1
 1472 00ba 0223     		movs	r3, #2
 1473 00bc 5B42     		rsbs	r3, r3, #0
 1474 00be 5EE0     		b	.L83
 1475              	.L78:
 431:Impedance.c   ****     if(BufferSize == 0) return AD5940ERR_PARA;   
 1476              		.loc 1 431 0 is_stmt 1
 1477 00c0 3B68     		ldr	r3, [r7]
 1478 00c2 002B     		cmp	r3, #0
 1479 00c4 02D1     		bne	.L79
 1480              		.loc 1 431 0 is_stmt 0 discriminator 1
 1481 00c6 0223     		movs	r3, #2
 1482 00c8 5B42     		rsbs	r3, r3, #0
 1483 00ca 58E0     		b	.L83
 1484              	.L79:
 432:Impedance.c   ****     AD5940_SEQGenInit(pBuffer, BufferSize);
 1485              		.loc 1 432 0 is_stmt 1
 1486 00cc 3A68     		ldr	r2, [r7]
 1487 00ce 7B68     		ldr	r3, [r7, #4]
 1488 00d0 1100     		movs	r1, r2
 1489 00d2 1800     		movs	r0, r3
 1490 00d4 FFF7FEFF 		bl	AD5940_SEQGenInit
 433:Impedance.c   **** 
 434:Impedance.c   ****     /* Generate initialize sequence */
 435:Impedance.c   ****     error = AppIMPSeqCfgGen(); /* Application initialization sequence using either MCU or sequencer
 1491              		.loc 1 435 0
 1492 00d8 FFF7FEFF 		bl	AppIMPSeqCfgGen
ARM GAS  C:\Users\13740\AppData\Local\Temp\cctWuNXI.s 			page 35


 1493 00dc 0300     		movs	r3, r0
 1494 00de FB62     		str	r3, [r7, #44]
 436:Impedance.c   ****     if(error != AD5940ERR_OK) return error;
 1495              		.loc 1 436 0
 1496 00e0 FB6A     		ldr	r3, [r7, #44]
 1497 00e2 002B     		cmp	r3, #0
 1498 00e4 01D0     		beq	.L80
 1499              		.loc 1 436 0 is_stmt 0 discriminator 1
 1500 00e6 FB6A     		ldr	r3, [r7, #44]
 1501 00e8 49E0     		b	.L83
 1502              	.L80:
 437:Impedance.c   **** 
 438:Impedance.c   ****     /* Generate measurement sequence */
 439:Impedance.c   ****     error = AppIMPSeqMeasureGen();
 1503              		.loc 1 439 0 is_stmt 1
 1504 00ea FFF7FEFF 		bl	AppIMPSeqMeasureGen
 1505 00ee 0300     		movs	r3, r0
 1506 00f0 FB62     		str	r3, [r7, #44]
 440:Impedance.c   ****     if(error != AD5940ERR_OK) return error;
 1507              		.loc 1 440 0
 1508 00f2 FB6A     		ldr	r3, [r7, #44]
 1509 00f4 002B     		cmp	r3, #0
 1510 00f6 01D0     		beq	.L81
 1511              		.loc 1 440 0 is_stmt 0 discriminator 1
 1512 00f8 FB6A     		ldr	r3, [r7, #44]
 1513 00fa 40E0     		b	.L83
 1514              	.L81:
 441:Impedance.c   **** 
 442:Impedance.c   ****     AppIMPCfg.bParaChanged = bFALSE; /* Clear this flag as we already implemented the new configura
 1515              		.loc 1 442 0 is_stmt 1
 1516 00fc 224B     		ldr	r3, .L84
 1517 00fe 0022     		movs	r2, #0
 1518 0100 1A70     		strb	r2, [r3]
 1519              	.L77:
 443:Impedance.c   ****   }
 444:Impedance.c   **** 
 445:Impedance.c   ****   /* Initialization sequencer  */
 446:Impedance.c   ****   AppIMPCfg.InitSeqInfo.WriteSRAM = bFALSE;
 1520              		.loc 1 446 0
 1521 0102 214B     		ldr	r3, .L84
 1522 0104 A822     		movs	r2, #168
 1523 0106 0021     		movs	r1, #0
 1524 0108 9954     		strb	r1, [r3, r2]
 447:Impedance.c   ****   AD5940_SEQInfoCfg(&AppIMPCfg.InitSeqInfo);
 1525              		.loc 1 447 0
 1526 010a 204B     		ldr	r3, .L84+4
 1527 010c 1800     		movs	r0, r3
 1528 010e FFF7FEFF 		bl	AD5940_SEQInfoCfg
 448:Impedance.c   ****   seq_cfg.SeqEnable = bTRUE;
 1529              		.loc 1 448 0
 1530 0112 2023     		movs	r3, #32
 1531 0114 FB18     		adds	r3, r7, r3
 1532 0116 0122     		movs	r2, #1
 1533 0118 1A71     		strb	r2, [r3, #4]
 449:Impedance.c   ****   AD5940_SEQCfg(&seq_cfg);  /* Enable sequencer */
 1534              		.loc 1 449 0
 1535 011a 2023     		movs	r3, #32
ARM GAS  C:\Users\13740\AppData\Local\Temp\cctWuNXI.s 			page 36


 1536 011c FB18     		adds	r3, r7, r3
 1537 011e 1800     		movs	r0, r3
 1538 0120 FFF7FEFF 		bl	AD5940_SEQCfg
 450:Impedance.c   ****   AD5940_SEQMmrTrig(AppIMPCfg.InitSeqInfo.SeqId);
 1539              		.loc 1 450 0
 1540 0124 184B     		ldr	r3, .L84
 1541 0126 9C22     		movs	r2, #156
 1542 0128 9B58     		ldr	r3, [r3, r2]
 1543 012a 1800     		movs	r0, r3
 1544 012c FFF7FEFF 		bl	AD5940_SEQMmrTrig
 451:Impedance.c   ****   while(AD5940_INTCTestFlag(AFEINTC_1, AFEINTSRC_ENDSEQ) == bFALSE);
 1545              		.loc 1 451 0
 1546 0130 C046     		nop
 1547              	.L82:
 1548              		.loc 1 451 0 is_stmt 0 discriminator 1
 1549 0132 8023     		movs	r3, #128
 1550 0134 1B02     		lsls	r3, r3, #8
 1551 0136 1900     		movs	r1, r3
 1552 0138 0120     		movs	r0, #1
 1553 013a FFF7FEFF 		bl	AD5940_INTCTestFlag
 1554 013e 031E     		subs	r3, r0, #0
 1555 0140 F7D0     		beq	.L82
 452:Impedance.c   ****   
 453:Impedance.c   ****   /* Measurement sequence  */
 454:Impedance.c   ****   AppIMPCfg.MeasureSeqInfo.WriteSRAM = bFALSE;
 1556              		.loc 1 454 0 is_stmt 1
 1557 0142 114B     		ldr	r3, .L84
 1558 0144 BC22     		movs	r2, #188
 1559 0146 0021     		movs	r1, #0
 1560 0148 9954     		strb	r1, [r3, r2]
 455:Impedance.c   ****   AD5940_SEQInfoCfg(&AppIMPCfg.MeasureSeqInfo);
 1561              		.loc 1 455 0
 1562 014a 114B     		ldr	r3, .L84+8
 1563 014c 1800     		movs	r0, r3
 1564 014e FFF7FEFF 		bl	AD5940_SEQInfoCfg
 456:Impedance.c   **** 
 457:Impedance.c   ****   seq_cfg.SeqEnable = bTRUE;
 1565              		.loc 1 457 0
 1566 0152 2023     		movs	r3, #32
 1567 0154 FB18     		adds	r3, r7, r3
 1568 0156 0122     		movs	r2, #1
 1569 0158 1A71     		strb	r2, [r3, #4]
 458:Impedance.c   ****   AD5940_SEQCfg(&seq_cfg);  /* Enable sequencer, and wait for trigger */
 1570              		.loc 1 458 0
 1571 015a 2023     		movs	r3, #32
 1572 015c FB18     		adds	r3, r7, r3
 1573 015e 1800     		movs	r0, r3
 1574 0160 FFF7FEFF 		bl	AD5940_SEQCfg
 459:Impedance.c   ****   AD5940_ClrMCUIntFlag();   /* Clear interrupt flag generated before */
 1575              		.loc 1 459 0
 1576 0164 FFF7FEFF 		bl	AD5940_ClrMCUIntFlag
 460:Impedance.c   **** 
 461:Impedance.c   ****   AD5940_AFEPwrBW(AppIMPCfg.PwrMod, AFEBW_250KHZ);
 1577              		.loc 1 461 0
 1578 0168 074B     		ldr	r3, .L84
 1579 016a DB6B     		ldr	r3, [r3, #60]
 1580 016c 0321     		movs	r1, #3
ARM GAS  C:\Users\13740\AppData\Local\Temp\cctWuNXI.s 			page 37


 1581 016e 1800     		movs	r0, r3
 1582 0170 FFF7FEFF 		bl	AD5940_AFEPwrBW
 462:Impedance.c   **** 
 463:Impedance.c   ****   AppIMPCfg.IMPInited = bTRUE;  /* IMP application has been initialized. */
 1583              		.loc 1 463 0
 1584 0174 044B     		ldr	r3, .L84
 1585 0176 9822     		movs	r2, #152
 1586 0178 0121     		movs	r1, #1
 1587 017a 9954     		strb	r1, [r3, r2]
 464:Impedance.c   ****   return AD5940ERR_OK;
 1588              		.loc 1 464 0
 1589 017c 0023     		movs	r3, #0
 1590              	.L83:
 465:Impedance.c   **** }
 1591              		.loc 1 465 0 discriminator 1
 1592 017e 1800     		movs	r0, r3
 1593 0180 BD46     		mov	sp, r7
 1594 0182 0CB0     		add	sp, sp, #48
 1595              		@ sp needed
 1596 0184 80BD     		pop	{r7, pc}
 1597              	.L85:
 1598 0186 C046     		.align	2
 1599              	.L84:
 1600 0188 00000000 		.word	AppIMPCfg
 1601 018c 9C000000 		.word	AppIMPCfg+156
 1602 0190 B0000000 		.word	AppIMPCfg+176
 1603              		.cfi_endproc
 1604              	.LFE6:
 1605              		.size	AppIMPInit, .-AppIMPInit
 1606              		.section	.text.AppIMPRegModify,"ax",%progbits
 1607              		.align	2
 1608              		.global	AppIMPRegModify
 1609              		.code	16
 1610              		.thumb_func
 1611              		.type	AppIMPRegModify, %function
 1612              	AppIMPRegModify:
 1613              	.LFB7:
 466:Impedance.c   **** 
 467:Impedance.c   **** /* Modify registers when AFE wakeup */
 468:Impedance.c   **** int32_t AppIMPRegModify(int32_t * const pData, uint32_t *pDataCount)
 469:Impedance.c   **** {
 1614              		.loc 1 469 0
 1615              		.cfi_startproc
 1616              		@ args = 0, pretend = 0, frame = 8
 1617              		@ frame_needed = 1, uses_anonymous_args = 0
 1618 0000 80B5     		push	{r7, lr}
 1619              		.cfi_def_cfa_offset 8
 1620              		.cfi_offset 7, -8
 1621              		.cfi_offset 14, -4
 1622 0002 82B0     		sub	sp, sp, #8
 1623              		.cfi_def_cfa_offset 16
 1624 0004 00AF     		add	r7, sp, #0
 1625              		.cfi_def_cfa_register 7
 1626 0006 7860     		str	r0, [r7, #4]
 1627 0008 3960     		str	r1, [r7]
 470:Impedance.c   ****   if(AppIMPCfg.NumOfData > 0)
 1628              		.loc 1 470 0
ARM GAS  C:\Users\13740\AppData\Local\Temp\cctWuNXI.s 			page 38


 1629 000a 1B4B     		ldr	r3, .L91
 1630 000c 9B69     		ldr	r3, [r3, #24]
 1631 000e 002B     		cmp	r3, #0
 1632 0010 15DD     		ble	.L87
 471:Impedance.c   ****   {
 472:Impedance.c   ****     AppIMPCfg.FifoDataCount += *pDataCount/4;
 1633              		.loc 1 472 0
 1634 0012 194B     		ldr	r3, .L91
 1635 0014 C822     		movs	r2, #200
 1636 0016 9A58     		ldr	r2, [r3, r2]
 1637 0018 3B68     		ldr	r3, [r7]
 1638 001a 1B68     		ldr	r3, [r3]
 1639 001c 9B08     		lsrs	r3, r3, #2
 1640 001e D218     		adds	r2, r2, r3
 1641 0020 154B     		ldr	r3, .L91
 1642 0022 C821     		movs	r1, #200
 1643 0024 5A50     		str	r2, [r3, r1]
 473:Impedance.c   ****     if(AppIMPCfg.FifoDataCount >= AppIMPCfg.NumOfData)
 1644              		.loc 1 473 0
 1645 0026 144B     		ldr	r3, .L91
 1646 0028 C822     		movs	r2, #200
 1647 002a 9A58     		ldr	r2, [r3, r2]
 1648 002c 124B     		ldr	r3, .L91
 1649 002e 9B69     		ldr	r3, [r3, #24]
 1650 0030 9A42     		cmp	r2, r3
 1651 0032 04D3     		bcc	.L87
 474:Impedance.c   ****     {
 475:Impedance.c   ****       AD5940_WUPTCtrl(bFALSE);
 1652              		.loc 1 475 0
 1653 0034 0020     		movs	r0, #0
 1654 0036 FFF7FEFF 		bl	AD5940_WUPTCtrl
 476:Impedance.c   ****       return AD5940ERR_OK;
 1655              		.loc 1 476 0
 1656 003a 0023     		movs	r3, #0
 1657 003c 18E0     		b	.L88
 1658              	.L87:
 477:Impedance.c   ****     }
 478:Impedance.c   ****   }
 479:Impedance.c   ****   if(AppIMPCfg.StopRequired == bTRUE)
 1659              		.loc 1 479 0
 1660 003e 0E4B     		ldr	r3, .L91
 1661 0040 C422     		movs	r2, #196
 1662 0042 9B5C     		ldrb	r3, [r3, r2]
 1663 0044 012B     		cmp	r3, #1
 1664 0046 04D1     		bne	.L89
 480:Impedance.c   ****   {
 481:Impedance.c   ****     AD5940_WUPTCtrl(bFALSE);
 1665              		.loc 1 481 0
 1666 0048 0020     		movs	r0, #0
 1667 004a FFF7FEFF 		bl	AD5940_WUPTCtrl
 482:Impedance.c   ****     return AD5940ERR_OK;
 1668              		.loc 1 482 0
 1669 004e 0023     		movs	r3, #0
 1670 0050 0EE0     		b	.L88
 1671              	.L89:
 483:Impedance.c   ****   }
 484:Impedance.c   ****   if(AppIMPCfg.SweepCfg.SweepEn) /* Need to set new frequency and set power mode */
ARM GAS  C:\Users\13740\AppData\Local\Temp\cctWuNXI.s 			page 39


 1672              		.loc 1 484 0
 1673 0052 094B     		ldr	r3, .L91
 1674 0054 7022     		movs	r2, #112
 1675 0056 9B5C     		ldrb	r3, [r3, r2]
 1676 0058 002B     		cmp	r3, #0
 1677 005a 08D0     		beq	.L90
 485:Impedance.c   ****   {
 486:Impedance.c   ****     AD5940_WGFreqCtrlS(AppIMPCfg.SweepNextFreq, AppIMPCfg.SysClkFreq);
 1678              		.loc 1 486 0
 1679 005c 064B     		ldr	r3, .L91
 1680 005e 9022     		movs	r2, #144
 1681 0060 9A58     		ldr	r2, [r3, r2]
 1682 0062 054B     		ldr	r3, .L91
 1683 0064 1B6A     		ldr	r3, [r3, #32]
 1684 0066 191C     		adds	r1, r3, #0
 1685 0068 101C     		adds	r0, r2, #0
 1686 006a FFF7FEFF 		bl	AD5940_WGFreqCtrlS
 1687              	.L90:
 487:Impedance.c   ****   }
 488:Impedance.c   ****   return AD5940ERR_OK;
 1688              		.loc 1 488 0
 1689 006e 0023     		movs	r3, #0
 1690              	.L88:
 489:Impedance.c   **** }
 1691              		.loc 1 489 0
 1692 0070 1800     		movs	r0, r3
 1693 0072 BD46     		mov	sp, r7
 1694 0074 02B0     		add	sp, sp, #8
 1695              		@ sp needed
 1696 0076 80BD     		pop	{r7, pc}
 1697              	.L92:
 1698              		.align	2
 1699              	.L91:
 1700 0078 00000000 		.word	AppIMPCfg
 1701              		.cfi_endproc
 1702              	.LFE7:
 1703              		.size	AppIMPRegModify, .-AppIMPRegModify
 1704              		.global	__aeabi_i2f
 1705              		.global	__aeabi_f2d
 1706              		.global	__aeabi_d2f
 1707              		.global	__aeabi_i2d
 1708              		.global	__aeabi_fsub
 1709              		.section	.text.AppIMPDataProcess,"ax",%progbits
 1710              		.align	2
 1711              		.global	AppIMPDataProcess
 1712              		.code	16
 1713              		.thumb_func
 1714              		.type	AppIMPDataProcess, %function
 1715              	AppIMPDataProcess:
 1716              	.LFB8:
 490:Impedance.c   **** 
 491:Impedance.c   **** /* Depending on the data type, do appropriate data pre-process before return back to controller */
 492:Impedance.c   **** int32_t AppIMPDataProcess(int32_t * const pData, uint32_t *pDataCount)
 493:Impedance.c   **** {
 1717              		.loc 1 493 0
 1718              		.cfi_startproc
 1719              		@ args = 0, pretend = 0, frame = 56
ARM GAS  C:\Users\13740\AppData\Local\Temp\cctWuNXI.s 			page 40


 1720              		@ frame_needed = 1, uses_anonymous_args = 0
 1721 0000 B0B5     		push	{r4, r5, r7, lr}
 1722              		.cfi_def_cfa_offset 16
 1723              		.cfi_offset 4, -16
 1724              		.cfi_offset 5, -12
 1725              		.cfi_offset 7, -8
 1726              		.cfi_offset 14, -4
 1727 0002 8EB0     		sub	sp, sp, #56
 1728              		.cfi_def_cfa_offset 72
 1729 0004 00AF     		add	r7, sp, #0
 1730              		.cfi_def_cfa_register 7
 1731 0006 7860     		str	r0, [r7, #4]
 1732 0008 3960     		str	r1, [r7]
 494:Impedance.c   ****   uint32_t DataCount = *pDataCount;
 1733              		.loc 1 494 0
 1734 000a 3B68     		ldr	r3, [r7]
 1735 000c 1B68     		ldr	r3, [r3]
 1736 000e BB62     		str	r3, [r7, #40]
 495:Impedance.c   ****   uint32_t ImpResCount = DataCount/4;
 1737              		.loc 1 495 0
 1738 0010 BB6A     		ldr	r3, [r7, #40]
 1739 0012 9B08     		lsrs	r3, r3, #2
 1740 0014 7B62     		str	r3, [r7, #36]
 496:Impedance.c   **** 
 497:Impedance.c   ****   fImpPol_Type * const pOut = (fImpPol_Type*)pData;
 1741              		.loc 1 497 0
 1742 0016 7B68     		ldr	r3, [r7, #4]
 1743 0018 3B62     		str	r3, [r7, #32]
 498:Impedance.c   ****   iImpCar_Type * pSrcData = (iImpCar_Type*)pData;
 1744              		.loc 1 498 0
 1745 001a 7B68     		ldr	r3, [r7, #4]
 1746 001c 7B63     		str	r3, [r7, #52]
 499:Impedance.c   **** 
 500:Impedance.c   ****   *pDataCount = 0;
 1747              		.loc 1 500 0
 1748 001e 3B68     		ldr	r3, [r7]
 1749 0020 0022     		movs	r2, #0
 1750 0022 1A60     		str	r2, [r3]
 501:Impedance.c   **** 
 502:Impedance.c   ****   DataCount = (DataCount/4)*4;/* We expect RCAL data together with Rz data. One DFT result has two 
 1751              		.loc 1 502 0
 1752 0024 BB6A     		ldr	r3, [r7, #40]
 1753 0026 9B08     		lsrs	r3, r3, #2
 1754 0028 9B00     		lsls	r3, r3, #2
 1755 002a BB62     		str	r3, [r7, #40]
 1756              	.LBB5:
 503:Impedance.c   **** 
 504:Impedance.c   ****   /* Convert DFT result to int32_t type */
 505:Impedance.c   ****   for(uint32_t i=0; i<DataCount; i++)
 1757              		.loc 1 505 0
 1758 002c 0023     		movs	r3, #0
 1759 002e 3B63     		str	r3, [r7, #48]
 1760 0030 24E0     		b	.L94
 1761              	.L96:
 506:Impedance.c   ****   {
 507:Impedance.c   ****     pData[i] &= 0x3ffff; /* @todo option to check ECC */
 1762              		.loc 1 507 0
ARM GAS  C:\Users\13740\AppData\Local\Temp\cctWuNXI.s 			page 41


 1763 0032 3B6B     		ldr	r3, [r7, #48]
 1764 0034 9B00     		lsls	r3, r3, #2
 1765 0036 7A68     		ldr	r2, [r7, #4]
 1766 0038 D318     		adds	r3, r2, r3
 1767 003a 3A6B     		ldr	r2, [r7, #48]
 1768 003c 9200     		lsls	r2, r2, #2
 1769 003e 7968     		ldr	r1, [r7, #4]
 1770 0040 8A18     		adds	r2, r1, r2
 1771 0042 1268     		ldr	r2, [r2]
 1772 0044 9203     		lsls	r2, r2, #14
 1773 0046 920B     		lsrs	r2, r2, #14
 1774 0048 1A60     		str	r2, [r3]
 508:Impedance.c   ****     if(pData[i]&(1L<<17)) /* Bit17 is sign bit */
 1775              		.loc 1 508 0
 1776 004a 3B6B     		ldr	r3, [r7, #48]
 1777 004c 9B00     		lsls	r3, r3, #2
 1778 004e 7A68     		ldr	r2, [r7, #4]
 1779 0050 D318     		adds	r3, r2, r3
 1780 0052 1A68     		ldr	r2, [r3]
 1781 0054 8023     		movs	r3, #128
 1782 0056 9B02     		lsls	r3, r3, #10
 1783 0058 1340     		ands	r3, r2
 1784 005a 0CD0     		beq	.L95
 509:Impedance.c   ****     {
 510:Impedance.c   ****       pData[i] |= 0xfffc0000; /* Data is 18bit in two's complement, bit17 is the sign bit */
 1785              		.loc 1 510 0
 1786 005c 3B6B     		ldr	r3, [r7, #48]
 1787 005e 9B00     		lsls	r3, r3, #2
 1788 0060 7A68     		ldr	r2, [r7, #4]
 1789 0062 D318     		adds	r3, r2, r3
 1790 0064 3A6B     		ldr	r2, [r7, #48]
 1791 0066 9200     		lsls	r2, r2, #2
 1792 0068 7968     		ldr	r1, [r7, #4]
 1793 006a 8A18     		adds	r2, r1, r2
 1794 006c 1268     		ldr	r2, [r2]
 1795 006e 1100     		movs	r1, r2
 1796 0070 854A     		ldr	r2, .L101
 1797 0072 0A43     		orrs	r2, r1
 1798 0074 1A60     		str	r2, [r3]
 1799              	.L95:
 505:Impedance.c   ****   {
 1800              		.loc 1 505 0 discriminator 2
 1801 0076 3B6B     		ldr	r3, [r7, #48]
 1802 0078 0133     		adds	r3, r3, #1
 1803 007a 3B63     		str	r3, [r7, #48]
 1804              	.L94:
 505:Impedance.c   ****   {
 1805              		.loc 1 505 0 is_stmt 0 discriminator 1
 1806 007c 3A6B     		ldr	r2, [r7, #48]
 1807 007e BB6A     		ldr	r3, [r7, #40]
 1808 0080 9A42     		cmp	r2, r3
 1809 0082 D6D3     		bcc	.L96
 1810              	.LBE5:
 1811              	.LBB6:
 511:Impedance.c   ****     }
 512:Impedance.c   ****   }
 513:Impedance.c   ****   for(uint32_t i=0; i<ImpResCount; i++)
ARM GAS  C:\Users\13740\AppData\Local\Temp\cctWuNXI.s 			page 42


 1812              		.loc 1 513 0 is_stmt 1
 1813 0084 0023     		movs	r3, #0
 1814 0086 FB62     		str	r3, [r7, #44]
 1815 0088 D4E0     		b	.L97
 1816              	.L98:
 1817              	.LBB7:
 514:Impedance.c   ****   {
 515:Impedance.c   ****     iImpCar_Type *pDftRcal, *pDftRz;
 516:Impedance.c   **** 
 517:Impedance.c   ****     pDftRcal = pSrcData++;
 1818              		.loc 1 517 0 discriminator 3
 1819 008a 7B6B     		ldr	r3, [r7, #52]
 1820 008c 1A00     		movs	r2, r3
 1821 008e 0832     		adds	r2, r2, #8
 1822 0090 7A63     		str	r2, [r7, #52]
 1823 0092 FB61     		str	r3, [r7, #28]
 518:Impedance.c   ****     pDftRz = pSrcData++;
 1824              		.loc 1 518 0 discriminator 3
 1825 0094 7B6B     		ldr	r3, [r7, #52]
 1826 0096 1A00     		movs	r2, r3
 1827 0098 0832     		adds	r2, r2, #8
 1828 009a 7A63     		str	r2, [r7, #52]
 1829 009c BB61     		str	r3, [r7, #24]
 519:Impedance.c   ****     float RzMag,RzPhase;
 520:Impedance.c   ****     float RcalMag, RcalPhase;
 521:Impedance.c   ****     
 522:Impedance.c   ****     RcalMag = sqrt((float)pDftRcal->Real*pDftRcal->Real+(float)pDftRcal->Image*pDftRcal->Image);
 1830              		.loc 1 522 0 discriminator 3
 1831 009e FB69     		ldr	r3, [r7, #28]
 1832 00a0 1B68     		ldr	r3, [r3]
 1833 00a2 1800     		movs	r0, r3
 1834 00a4 FFF7FEFF 		bl	__aeabi_i2f
 1835 00a8 041C     		adds	r4, r0, #0
 1836 00aa FB69     		ldr	r3, [r7, #28]
 1837 00ac 1B68     		ldr	r3, [r3]
 1838 00ae 1800     		movs	r0, r3
 1839 00b0 FFF7FEFF 		bl	__aeabi_i2f
 1840 00b4 031C     		adds	r3, r0, #0
 1841 00b6 191C     		adds	r1, r3, #0
 1842 00b8 201C     		adds	r0, r4, #0
 1843 00ba FFF7FEFF 		bl	__aeabi_fmul
 1844 00be 031C     		adds	r3, r0, #0
 1845 00c0 1C1C     		adds	r4, r3, #0
 1846 00c2 FB69     		ldr	r3, [r7, #28]
 1847 00c4 5B68     		ldr	r3, [r3, #4]
 1848 00c6 1800     		movs	r0, r3
 1849 00c8 FFF7FEFF 		bl	__aeabi_i2f
 1850 00cc 051C     		adds	r5, r0, #0
 1851 00ce FB69     		ldr	r3, [r7, #28]
 1852 00d0 5B68     		ldr	r3, [r3, #4]
 1853 00d2 1800     		movs	r0, r3
 1854 00d4 FFF7FEFF 		bl	__aeabi_i2f
 1855 00d8 031C     		adds	r3, r0, #0
 1856 00da 191C     		adds	r1, r3, #0
 1857 00dc 281C     		adds	r0, r5, #0
 1858 00de FFF7FEFF 		bl	__aeabi_fmul
 1859 00e2 031C     		adds	r3, r0, #0
ARM GAS  C:\Users\13740\AppData\Local\Temp\cctWuNXI.s 			page 43


 1860 00e4 191C     		adds	r1, r3, #0
 1861 00e6 201C     		adds	r0, r4, #0
 1862 00e8 FFF7FEFF 		bl	__aeabi_fadd
 1863 00ec 031C     		adds	r3, r0, #0
 1864 00ee 181C     		adds	r0, r3, #0
 1865 00f0 FFF7FEFF 		bl	__aeabi_f2d
 1866 00f4 0300     		movs	r3, r0
 1867 00f6 0C00     		movs	r4, r1
 1868 00f8 1800     		movs	r0, r3
 1869 00fa 2100     		movs	r1, r4
 1870 00fc FFF7FEFF 		bl	sqrt
 1871 0100 0300     		movs	r3, r0
 1872 0102 0C00     		movs	r4, r1
 1873 0104 1800     		movs	r0, r3
 1874 0106 2100     		movs	r1, r4
 1875 0108 FFF7FEFF 		bl	__aeabi_d2f
 1876 010c 031C     		adds	r3, r0, #0
 1877 010e 7B61     		str	r3, [r7, #20]
 523:Impedance.c   ****     RcalPhase = atan2(-pDftRcal->Image,pDftRcal->Real);
 1878              		.loc 1 523 0 discriminator 3
 1879 0110 FB69     		ldr	r3, [r7, #28]
 1880 0112 5B68     		ldr	r3, [r3, #4]
 1881 0114 5B42     		rsbs	r3, r3, #0
 1882 0116 1800     		movs	r0, r3
 1883 0118 FFF7FEFF 		bl	__aeabi_i2d
 1884 011c 0400     		movs	r4, r0
 1885 011e 0D00     		movs	r5, r1
 1886 0120 FB69     		ldr	r3, [r7, #28]
 1887 0122 1B68     		ldr	r3, [r3]
 1888 0124 1800     		movs	r0, r3
 1889 0126 FFF7FEFF 		bl	__aeabi_i2d
 1890 012a 0200     		movs	r2, r0
 1891 012c 0B00     		movs	r3, r1
 1892 012e 2000     		movs	r0, r4
 1893 0130 2900     		movs	r1, r5
 1894 0132 FFF7FEFF 		bl	atan2
 1895 0136 0300     		movs	r3, r0
 1896 0138 0C00     		movs	r4, r1
 1897 013a 1800     		movs	r0, r3
 1898 013c 2100     		movs	r1, r4
 1899 013e FFF7FEFF 		bl	__aeabi_d2f
 1900 0142 031C     		adds	r3, r0, #0
 1901 0144 3B61     		str	r3, [r7, #16]
 524:Impedance.c   ****     RzMag = sqrt((float)pDftRz->Real*pDftRz->Real+(float)pDftRz->Image*pDftRz->Image);
 1902              		.loc 1 524 0 discriminator 3
 1903 0146 BB69     		ldr	r3, [r7, #24]
 1904 0148 1B68     		ldr	r3, [r3]
 1905 014a 1800     		movs	r0, r3
 1906 014c FFF7FEFF 		bl	__aeabi_i2f
 1907 0150 041C     		adds	r4, r0, #0
 1908 0152 BB69     		ldr	r3, [r7, #24]
 1909 0154 1B68     		ldr	r3, [r3]
 1910 0156 1800     		movs	r0, r3
 1911 0158 FFF7FEFF 		bl	__aeabi_i2f
 1912 015c 031C     		adds	r3, r0, #0
 1913 015e 191C     		adds	r1, r3, #0
 1914 0160 201C     		adds	r0, r4, #0
ARM GAS  C:\Users\13740\AppData\Local\Temp\cctWuNXI.s 			page 44


 1915 0162 FFF7FEFF 		bl	__aeabi_fmul
 1916 0166 031C     		adds	r3, r0, #0
 1917 0168 1C1C     		adds	r4, r3, #0
 1918 016a BB69     		ldr	r3, [r7, #24]
 1919 016c 5B68     		ldr	r3, [r3, #4]
 1920 016e 1800     		movs	r0, r3
 1921 0170 FFF7FEFF 		bl	__aeabi_i2f
 1922 0174 051C     		adds	r5, r0, #0
 1923 0176 BB69     		ldr	r3, [r7, #24]
 1924 0178 5B68     		ldr	r3, [r3, #4]
 1925 017a 1800     		movs	r0, r3
 1926 017c FFF7FEFF 		bl	__aeabi_i2f
 1927 0180 031C     		adds	r3, r0, #0
 1928 0182 191C     		adds	r1, r3, #0
 1929 0184 281C     		adds	r0, r5, #0
 1930 0186 FFF7FEFF 		bl	__aeabi_fmul
 1931 018a 031C     		adds	r3, r0, #0
 1932 018c 191C     		adds	r1, r3, #0
 1933 018e 201C     		adds	r0, r4, #0
 1934 0190 FFF7FEFF 		bl	__aeabi_fadd
 1935 0194 031C     		adds	r3, r0, #0
 1936 0196 181C     		adds	r0, r3, #0
 1937 0198 FFF7FEFF 		bl	__aeabi_f2d
 1938 019c 0300     		movs	r3, r0
 1939 019e 0C00     		movs	r4, r1
 1940 01a0 1800     		movs	r0, r3
 1941 01a2 2100     		movs	r1, r4
 1942 01a4 FFF7FEFF 		bl	sqrt
 1943 01a8 0300     		movs	r3, r0
 1944 01aa 0C00     		movs	r4, r1
 1945 01ac 1800     		movs	r0, r3
 1946 01ae 2100     		movs	r1, r4
 1947 01b0 FFF7FEFF 		bl	__aeabi_d2f
 1948 01b4 031C     		adds	r3, r0, #0
 1949 01b6 FB60     		str	r3, [r7, #12]
 525:Impedance.c   ****     RzPhase = atan2(-pDftRz->Image,pDftRz->Real);
 1950              		.loc 1 525 0 discriminator 3
 1951 01b8 BB69     		ldr	r3, [r7, #24]
 1952 01ba 5B68     		ldr	r3, [r3, #4]
 1953 01bc 5B42     		rsbs	r3, r3, #0
 1954 01be 1800     		movs	r0, r3
 1955 01c0 FFF7FEFF 		bl	__aeabi_i2d
 1956 01c4 0400     		movs	r4, r0
 1957 01c6 0D00     		movs	r5, r1
 1958 01c8 BB69     		ldr	r3, [r7, #24]
 1959 01ca 1B68     		ldr	r3, [r3]
 1960 01cc 1800     		movs	r0, r3
 1961 01ce FFF7FEFF 		bl	__aeabi_i2d
 1962 01d2 0200     		movs	r2, r0
 1963 01d4 0B00     		movs	r3, r1
 1964 01d6 2000     		movs	r0, r4
 1965 01d8 2900     		movs	r1, r5
 1966 01da FFF7FEFF 		bl	atan2
 1967 01de 0300     		movs	r3, r0
 1968 01e0 0C00     		movs	r4, r1
 1969 01e2 1800     		movs	r0, r3
 1970 01e4 2100     		movs	r1, r4
ARM GAS  C:\Users\13740\AppData\Local\Temp\cctWuNXI.s 			page 45


 1971 01e6 FFF7FEFF 		bl	__aeabi_d2f
 1972 01ea 031C     		adds	r3, r0, #0
 1973 01ec BB60     		str	r3, [r7, #8]
 526:Impedance.c   **** 
 527:Impedance.c   ****     RzMag = RcalMag/RzMag*AppIMPCfg.RcalVal;
 1974              		.loc 1 527 0 discriminator 3
 1975 01ee F968     		ldr	r1, [r7, #12]
 1976 01f0 7869     		ldr	r0, [r7, #20]
 1977 01f2 FFF7FEFF 		bl	__aeabi_fdiv
 1978 01f6 031C     		adds	r3, r0, #0
 1979 01f8 1A1C     		adds	r2, r3, #0
 1980 01fa 244B     		ldr	r3, .L101+4
 1981 01fc 9B6A     		ldr	r3, [r3, #40]
 1982 01fe 191C     		adds	r1, r3, #0
 1983 0200 101C     		adds	r0, r2, #0
 1984 0202 FFF7FEFF 		bl	__aeabi_fmul
 1985 0206 031C     		adds	r3, r0, #0
 1986 0208 FB60     		str	r3, [r7, #12]
 528:Impedance.c   ****     RzPhase = RcalPhase - RzPhase;
 1987              		.loc 1 528 0 discriminator 3
 1988 020a B968     		ldr	r1, [r7, #8]
 1989 020c 3869     		ldr	r0, [r7, #16]
 1990 020e FFF7FEFF 		bl	__aeabi_fsub
 1991 0212 031C     		adds	r3, r0, #0
 1992 0214 BB60     		str	r3, [r7, #8]
 529:Impedance.c   ****     //printf("V:%d,%d,I:%d,%d ",pDftRcal->Real,pDftRcal->Image, pDftRz->Real, pDftRz->Image);
 530:Impedance.c   ****     
 531:Impedance.c   ****     pOut[i].Magnitude = RzMag;
 1993              		.loc 1 531 0 discriminator 3
 1994 0216 FB6A     		ldr	r3, [r7, #44]
 1995 0218 DB00     		lsls	r3, r3, #3
 1996 021a 3A6A     		ldr	r2, [r7, #32]
 1997 021c D318     		adds	r3, r2, r3
 1998 021e FA68     		ldr	r2, [r7, #12]
 1999 0220 1A60     		str	r2, [r3]
 532:Impedance.c   ****     pOut[i].Phase = RzPhase;
 2000              		.loc 1 532 0 discriminator 3
 2001 0222 FB6A     		ldr	r3, [r7, #44]
 2002 0224 DB00     		lsls	r3, r3, #3
 2003 0226 3A6A     		ldr	r2, [r7, #32]
 2004 0228 D318     		adds	r3, r2, r3
 2005 022a BA68     		ldr	r2, [r7, #8]
 2006 022c 5A60     		str	r2, [r3, #4]
 2007              	.LBE7:
 513:Impedance.c   ****   {
 2008              		.loc 1 513 0 discriminator 3
 2009 022e FB6A     		ldr	r3, [r7, #44]
 2010 0230 0133     		adds	r3, r3, #1
 2011 0232 FB62     		str	r3, [r7, #44]
 2012              	.L97:
 513:Impedance.c   ****   {
 2013              		.loc 1 513 0 is_stmt 0 discriminator 1
 2014 0234 FA6A     		ldr	r2, [r7, #44]
 2015 0236 7B6A     		ldr	r3, [r7, #36]
 2016 0238 9A42     		cmp	r2, r3
 2017 023a 00D2     		bcs	.LCB1711
 2018 023c 25E7     		b	.L98	@long jump
ARM GAS  C:\Users\13740\AppData\Local\Temp\cctWuNXI.s 			page 46


 2019              	.LCB1711:
 2020              	.LBE6:
 533:Impedance.c   ****   }
 534:Impedance.c   ****   *pDataCount = ImpResCount; 
 2021              		.loc 1 534 0 is_stmt 1
 2022 023e 3B68     		ldr	r3, [r7]
 2023 0240 7A6A     		ldr	r2, [r7, #36]
 2024 0242 1A60     		str	r2, [r3]
 535:Impedance.c   ****   AppIMPCfg.FreqofData = AppIMPCfg.SweepCurrFreq;
 2025              		.loc 1 535 0
 2026 0244 114B     		ldr	r3, .L101+4
 2027 0246 8C22     		movs	r2, #140
 2028 0248 9A58     		ldr	r2, [r3, r2]
 2029 024a 104B     		ldr	r3, .L101+4
 2030 024c 9421     		movs	r1, #148
 2031 024e 5A50     		str	r2, [r3, r1]
 536:Impedance.c   ****   /* Calculate next frequency point */
 537:Impedance.c   ****   if(AppIMPCfg.SweepCfg.SweepEn == bTRUE)
 2032              		.loc 1 537 0
 2033 0250 0E4B     		ldr	r3, .L101+4
 2034 0252 7022     		movs	r2, #112
 2035 0254 9B5C     		ldrb	r3, [r3, r2]
 2036 0256 012B     		cmp	r3, #1
 2037 0258 11D1     		bne	.L99
 538:Impedance.c   ****   {
 539:Impedance.c   ****     AppIMPCfg.FreqofData = AppIMPCfg.SweepCurrFreq;
 2038              		.loc 1 539 0
 2039 025a 0C4B     		ldr	r3, .L101+4
 2040 025c 8C22     		movs	r2, #140
 2041 025e 9A58     		ldr	r2, [r3, r2]
 2042 0260 0A4B     		ldr	r3, .L101+4
 2043 0262 9421     		movs	r1, #148
 2044 0264 5A50     		str	r2, [r3, r1]
 540:Impedance.c   ****     AppIMPCfg.SweepCurrFreq = AppIMPCfg.SweepNextFreq;
 2045              		.loc 1 540 0
 2046 0266 094B     		ldr	r3, .L101+4
 2047 0268 9022     		movs	r2, #144
 2048 026a 9A58     		ldr	r2, [r3, r2]
 2049 026c 074B     		ldr	r3, .L101+4
 2050 026e 8C21     		movs	r1, #140
 2051 0270 5A50     		str	r2, [r3, r1]
 541:Impedance.c   ****     AD5940_SweepNext(&AppIMPCfg.SweepCfg, &AppIMPCfg.SweepNextFreq);
 2052              		.loc 1 541 0
 2053 0272 074A     		ldr	r2, .L101+8
 2054 0274 074B     		ldr	r3, .L101+12
 2055 0276 1100     		movs	r1, r2
 2056 0278 1800     		movs	r0, r3
 2057 027a FFF7FEFF 		bl	AD5940_SweepNext
 2058              	.L99:
 542:Impedance.c   ****   }
 543:Impedance.c   **** 
 544:Impedance.c   ****   return 0;
 2059              		.loc 1 544 0
 2060 027e 0023     		movs	r3, #0
 545:Impedance.c   **** }
 2061              		.loc 1 545 0
 2062 0280 1800     		movs	r0, r3
ARM GAS  C:\Users\13740\AppData\Local\Temp\cctWuNXI.s 			page 47


 2063 0282 BD46     		mov	sp, r7
 2064 0284 0EB0     		add	sp, sp, #56
 2065              		@ sp needed
 2066 0286 B0BD     		pop	{r4, r5, r7, pc}
 2067              	.L102:
 2068              		.align	2
 2069              	.L101:
 2070 0288 0000FCFF 		.word	-262144
 2071 028c 00000000 		.word	AppIMPCfg
 2072 0290 90000000 		.word	AppIMPCfg+144
 2073 0294 70000000 		.word	AppIMPCfg+112
 2074              		.cfi_endproc
 2075              	.LFE8:
 2076              		.size	AppIMPDataProcess, .-AppIMPDataProcess
 2077              		.section	.text.AppIMPISR,"ax",%progbits
 2078              		.align	2
 2079              		.global	AppIMPISR
 2080              		.code	16
 2081              		.thumb_func
 2082              		.type	AppIMPISR, %function
 2083              	AppIMPISR:
 2084              	.LFB9:
 546:Impedance.c   **** 
 547:Impedance.c   **** /**
 548:Impedance.c   **** 
 549:Impedance.c   **** */
 550:Impedance.c   **** int32_t AppIMPISR(void *pBuff, uint32_t *pCount)
 551:Impedance.c   **** {
 2085              		.loc 1 551 0
 2086              		.cfi_startproc
 2087              		@ args = 0, pretend = 0, frame = 16
 2088              		@ frame_needed = 1, uses_anonymous_args = 0
 2089 0000 80B5     		push	{r7, lr}
 2090              		.cfi_def_cfa_offset 8
 2091              		.cfi_offset 7, -8
 2092              		.cfi_offset 14, -4
 2093 0002 84B0     		sub	sp, sp, #16
 2094              		.cfi_def_cfa_offset 24
 2095 0004 00AF     		add	r7, sp, #0
 2096              		.cfi_def_cfa_register 7
 2097 0006 7860     		str	r0, [r7, #4]
 2098 0008 3960     		str	r1, [r7]
 552:Impedance.c   ****   uint32_t BuffCount;
 553:Impedance.c   ****   uint32_t FifoCnt;
 554:Impedance.c   ****   BuffCount = *pCount;
 2099              		.loc 1 554 0
 2100 000a 3B68     		ldr	r3, [r7]
 2101 000c 1B68     		ldr	r3, [r3]
 2102 000e FB60     		str	r3, [r7, #12]
 555:Impedance.c   ****   
 556:Impedance.c   ****   *pCount = 0;
 2103              		.loc 1 556 0
 2104 0010 3B68     		ldr	r3, [r7]
 2105 0012 0022     		movs	r2, #0
 2106 0014 1A60     		str	r2, [r3]
 557:Impedance.c   ****   
 558:Impedance.c   ****   if(AD5940_WakeUp(10) > 10)  /* Wakeup AFE by read register, read 10 times at most */
ARM GAS  C:\Users\13740\AppData\Local\Temp\cctWuNXI.s 			page 48


 2107              		.loc 1 558 0
 2108 0016 0A20     		movs	r0, #10
 2109 0018 FFF7FEFF 		bl	AD5940_WakeUp
 2110 001c 0300     		movs	r3, r0
 2111 001e 0A2B     		cmp	r3, #10
 2112 0020 02D9     		bls	.L104
 559:Impedance.c   ****     return AD5940ERR_WAKEUP;  /* Wakeup Failed */
 2113              		.loc 1 559 0
 2114 0022 0923     		movs	r3, #9
 2115 0024 5B42     		rsbs	r3, r3, #0
 2116 0026 34E0     		b	.L107
 2117              	.L104:
 560:Impedance.c   ****   AD5940_SleepKeyCtrlS(SLPKEY_LOCK);  /* Prohibit AFE to enter sleep mode. */
 2118              		.loc 1 560 0
 2119 0028 0020     		movs	r0, #0
 2120 002a FFF7FEFF 		bl	AD5940_SleepKeyCtrlS
 561:Impedance.c   **** 
 562:Impedance.c   ****   if(AD5940_INTCTestFlag(AFEINTC_0, AFEINTSRC_DATAFIFOTHRESH) == bTRUE)
 2121              		.loc 1 562 0
 2122 002e 8023     		movs	r3, #128
 2123 0030 9B04     		lsls	r3, r3, #18
 2124 0032 1900     		movs	r1, r3
 2125 0034 0020     		movs	r0, #0
 2126 0036 FFF7FEFF 		bl	AD5940_INTCTestFlag
 2127 003a 0300     		movs	r3, r0
 2128 003c 012B     		cmp	r3, #1
 2129 003e 27D1     		bne	.L106
 563:Impedance.c   ****   {
 564:Impedance.c   ****     /* Now there should be 4 data in FIFO */
 565:Impedance.c   ****     FifoCnt = (AD5940_FIFOGetCnt()/4)*4;
 2130              		.loc 1 565 0
 2131 0040 FFF7FEFF 		bl	AD5940_FIFOGetCnt
 2132 0044 0300     		movs	r3, r0
 2133 0046 9B08     		lsrs	r3, r3, #2
 2134 0048 9B00     		lsls	r3, r3, #2
 2135 004a BB60     		str	r3, [r7, #8]
 566:Impedance.c   ****     
 567:Impedance.c   ****     if(FifoCnt > BuffCount)
 568:Impedance.c   ****     {
 569:Impedance.c   ****       ///@todo buffer is limited.
 570:Impedance.c   ****     }
 571:Impedance.c   ****     AD5940_FIFORd((uint32_t *)pBuff, FifoCnt);
 2136              		.loc 1 571 0
 2137 004c BA68     		ldr	r2, [r7, #8]
 2138 004e 7B68     		ldr	r3, [r7, #4]
 2139 0050 1100     		movs	r1, r2
 2140 0052 1800     		movs	r0, r3
 2141 0054 FFF7FEFF 		bl	AD5940_FIFORd
 572:Impedance.c   ****     AD5940_INTCClrFlag(AFEINTSRC_DATAFIFOTHRESH);
 2142              		.loc 1 572 0
 2143 0058 8023     		movs	r3, #128
 2144 005a 9B04     		lsls	r3, r3, #18
 2145 005c 1800     		movs	r0, r3
 2146 005e FFF7FEFF 		bl	AD5940_INTCClrFlag
 573:Impedance.c   ****     AppIMPRegModify(pBuff, &FifoCnt);   /* If there is need to do AFE re-configure, do it here when
 2147              		.loc 1 573 0
 2148 0062 0823     		movs	r3, #8
ARM GAS  C:\Users\13740\AppData\Local\Temp\cctWuNXI.s 			page 49


 2149 0064 FA18     		adds	r2, r7, r3
 2150 0066 7B68     		ldr	r3, [r7, #4]
 2151 0068 1100     		movs	r1, r2
 2152 006a 1800     		movs	r0, r3
 2153 006c FFF7FEFF 		bl	AppIMPRegModify
 574:Impedance.c   ****     //AD5940_EnterSleepS(); /* Manually put AFE back to hibernate mode. This operation only takes e
 575:Impedance.c   ****     AD5940_SleepKeyCtrlS(SLPKEY_UNLOCK);  /* Allow AFE to enter sleep mode. */
 2154              		.loc 1 575 0
 2155 0070 0A4B     		ldr	r3, .L108
 2156 0072 1800     		movs	r0, r3
 2157 0074 FFF7FEFF 		bl	AD5940_SleepKeyCtrlS
 576:Impedance.c   ****     /* Process data */ 
 577:Impedance.c   ****     AppIMPDataProcess((int32_t*)pBuff,&FifoCnt); 
 2158              		.loc 1 577 0
 2159 0078 0823     		movs	r3, #8
 2160 007a FA18     		adds	r2, r7, r3
 2161 007c 7B68     		ldr	r3, [r7, #4]
 2162 007e 1100     		movs	r1, r2
 2163 0080 1800     		movs	r0, r3
 2164 0082 FFF7FEFF 		bl	AppIMPDataProcess
 578:Impedance.c   ****     *pCount = FifoCnt;
 2165              		.loc 1 578 0
 2166 0086 BA68     		ldr	r2, [r7, #8]
 2167 0088 3B68     		ldr	r3, [r7]
 2168 008a 1A60     		str	r2, [r3]
 579:Impedance.c   ****     return 0;
 2169              		.loc 1 579 0
 2170 008c 0023     		movs	r3, #0
 2171 008e 00E0     		b	.L107
 2172              	.L106:
 580:Impedance.c   ****   }
 581:Impedance.c   ****   
 582:Impedance.c   ****   return 0;
 2173              		.loc 1 582 0
 2174 0090 0023     		movs	r3, #0
 2175              	.L107:
 583:Impedance.c   **** } 
 2176              		.loc 1 583 0 discriminator 1
 2177 0092 1800     		movs	r0, r3
 2178 0094 BD46     		mov	sp, r7
 2179 0096 04B0     		add	sp, sp, #16
 2180              		@ sp needed
 2181 0098 80BD     		pop	{r7, pc}
 2182              	.L109:
 2183 009a C046     		.align	2
 2184              	.L108:
 2185 009c E5470A00 		.word	673765
 2186              		.cfi_endproc
 2187              	.LFE9:
 2188              		.size	AppIMPISR, .-AppIMPISR
 2189              		.text
 2190              	.Letext0:
 2191              		.file 2 "f:\\infineon\\psoc creator\\4.4\\psoc creator\\import\\gnu\\arm\\5.4.1\\arm-none-eabi\\in
 2192              		.file 3 "f:\\infineon\\psoc creator\\4.4\\psoc creator\\import\\gnu\\arm\\5.4.1\\arm-none-eabi\\in
 2193              		.file 4 "ad5940.h"
 2194              		.file 5 "Impedance.h"
 2195              		.section	.debug_info,"",%progbits
ARM GAS  C:\Users\13740\AppData\Local\Temp\cctWuNXI.s 			page 50


 2196              	.Ldebug_info0:
 2197 0000 5A100000 		.4byte	0x105a
 2198 0004 0400     		.2byte	0x4
 2199 0006 00000000 		.4byte	.Ldebug_abbrev0
 2200 000a 04       		.byte	0x4
 2201 000b 01       		.uleb128 0x1
 2202 000c 35010000 		.4byte	.LASF255
 2203 0010 0C       		.byte	0xc
 2204 0011 BE030000 		.4byte	.LASF256
 2205 0015 BC0A0000 		.4byte	.LASF257
 2206 0019 00000000 		.4byte	.Ldebug_ranges0+0
 2207 001d 00000000 		.4byte	0
 2208 0021 00000000 		.4byte	.Ldebug_line0
 2209 0025 02       		.uleb128 0x2
 2210 0026 04       		.byte	0x4
 2211 0027 05       		.byte	0x5
 2212 0028 696E7400 		.ascii	"int\000"
 2213 002c 03       		.uleb128 0x3
 2214 002d 04       		.byte	0x4
 2215 002e 07       		.byte	0x7
 2216 002f CE000000 		.4byte	.LASF0
 2217 0033 03       		.uleb128 0x3
 2218 0034 08       		.byte	0x8
 2219 0035 05       		.byte	0x5
 2220 0036 27060000 		.4byte	.LASF1
 2221 003a 03       		.uleb128 0x3
 2222 003b 08       		.byte	0x8
 2223 003c 04       		.byte	0x4
 2224 003d 27070000 		.4byte	.LASF2
 2225 0041 03       		.uleb128 0x3
 2226 0042 01       		.byte	0x1
 2227 0043 06       		.byte	0x6
 2228 0044 310A0000 		.4byte	.LASF3
 2229 0048 04       		.uleb128 0x4
 2230 0049 98080000 		.4byte	.LASF6
 2231 004d 02       		.byte	0x2
 2232 004e 1D       		.byte	0x1d
 2233 004f 53000000 		.4byte	0x53
 2234 0053 03       		.uleb128 0x3
 2235 0054 01       		.byte	0x1
 2236 0055 08       		.byte	0x8
 2237 0056 82090000 		.4byte	.LASF4
 2238 005a 03       		.uleb128 0x3
 2239 005b 02       		.byte	0x2
 2240 005c 05       		.byte	0x5
 2241 005d B8070000 		.4byte	.LASF5
 2242 0061 04       		.uleb128 0x4
 2243 0062 67030000 		.4byte	.LASF7
 2244 0066 02       		.byte	0x2
 2245 0067 2B       		.byte	0x2b
 2246 0068 6C000000 		.4byte	0x6c
 2247 006c 03       		.uleb128 0x3
 2248 006d 02       		.byte	0x2
 2249 006e 07       		.byte	0x7
 2250 006f 500A0000 		.4byte	.LASF8
 2251 0073 04       		.uleb128 0x4
 2252 0074 FB000000 		.4byte	.LASF9
ARM GAS  C:\Users\13740\AppData\Local\Temp\cctWuNXI.s 			page 51


 2253 0078 02       		.byte	0x2
 2254 0079 3F       		.byte	0x3f
 2255 007a 7E000000 		.4byte	0x7e
 2256 007e 03       		.uleb128 0x3
 2257 007f 04       		.byte	0x4
 2258 0080 05       		.byte	0x5
 2259 0081 F1070000 		.4byte	.LASF10
 2260 0085 04       		.uleb128 0x4
 2261 0086 90090000 		.4byte	.LASF11
 2262 008a 02       		.byte	0x2
 2263 008b 41       		.byte	0x41
 2264 008c 90000000 		.4byte	0x90
 2265 0090 03       		.uleb128 0x3
 2266 0091 04       		.byte	0x4
 2267 0092 07       		.byte	0x7
 2268 0093 0F090000 		.4byte	.LASF12
 2269 0097 03       		.uleb128 0x3
 2270 0098 08       		.byte	0x8
 2271 0099 07       		.byte	0x7
 2272 009a 3B030000 		.4byte	.LASF13
 2273 009e 03       		.uleb128 0x3
 2274 009f 04       		.byte	0x4
 2275 00a0 07       		.byte	0x7
 2276 00a1 FF080000 		.4byte	.LASF14
 2277 00a5 05       		.uleb128 0x5
 2278 00a6 04       		.byte	0x4
 2279 00a7 03       		.uleb128 0x3
 2280 00a8 01       		.byte	0x1
 2281 00a9 08       		.byte	0x8
 2282 00aa F2040000 		.4byte	.LASF15
 2283 00ae 03       		.uleb128 0x3
 2284 00af 08       		.byte	0x8
 2285 00b0 04       		.byte	0x4
 2286 00b1 AC0A0000 		.4byte	.LASF16
 2287 00b5 03       		.uleb128 0x3
 2288 00b6 04       		.byte	0x4
 2289 00b7 04       		.byte	0x4
 2290 00b8 F4020000 		.4byte	.LASF17
 2291 00bc 04       		.uleb128 0x4
 2292 00bd AD050000 		.4byte	.LASF18
 2293 00c1 03       		.byte	0x3
 2294 00c2 18       		.byte	0x18
 2295 00c3 48000000 		.4byte	0x48
 2296 00c7 04       		.uleb128 0x4
 2297 00c8 40070000 		.4byte	.LASF19
 2298 00cc 03       		.byte	0x3
 2299 00cd 24       		.byte	0x24
 2300 00ce 61000000 		.4byte	0x61
 2301 00d2 04       		.uleb128 0x4
 2302 00d3 31090000 		.4byte	.LASF20
 2303 00d7 03       		.byte	0x3
 2304 00d8 2C       		.byte	0x2c
 2305 00d9 73000000 		.4byte	0x73
 2306 00dd 04       		.uleb128 0x4
 2307 00de B7020000 		.4byte	.LASF21
 2308 00e2 03       		.byte	0x3
 2309 00e3 30       		.byte	0x30
ARM GAS  C:\Users\13740\AppData\Local\Temp\cctWuNXI.s 			page 52


 2310 00e4 85000000 		.4byte	0x85
 2311 00e8 06       		.uleb128 0x6
 2312 00e9 450B0000 		.4byte	.LASF22
 2313 00ed 04       		.byte	0x4
 2314 00ee 7210     		.2byte	0x1072
 2315 00f0 D2000000 		.4byte	0xd2
 2316 00f4 07       		.uleb128 0x7
 2317 00f5 01       		.byte	0x1
 2318 00f6 53000000 		.4byte	0x53
 2319 00fa 04       		.byte	0x4
 2320 00fb 7810     		.2byte	0x1078
 2321 00fd 0E010000 		.4byte	0x10e
 2322 0101 08       		.uleb128 0x8
 2323 0102 7C060000 		.4byte	.LASF23
 2324 0106 00       		.byte	0
 2325 0107 08       		.uleb128 0x8
 2326 0108 57050000 		.4byte	.LASF24
 2327 010c 01       		.byte	0x1
 2328 010d 00       		.byte	0
 2329 010e 06       		.uleb128 0x6
 2330 010f EC060000 		.4byte	.LASF25
 2331 0113 04       		.byte	0x4
 2332 0114 7A10     		.2byte	0x107a
 2333 0116 F4000000 		.4byte	0xf4
 2334 011a 09       		.uleb128 0x9
 2335 011b 0D       		.byte	0xd
 2336 011c 04       		.byte	0x4
 2337 011d 7C10     		.2byte	0x107c
 2338 011f CD010000 		.4byte	0x1cd
 2339 0123 0A       		.uleb128 0xa
 2340 0124 94000000 		.4byte	.LASF26
 2341 0128 04       		.byte	0x4
 2342 0129 7F10     		.2byte	0x107f
 2343 012b 0E010000 		.4byte	0x10e
 2344 012f 00       		.byte	0
 2345 0130 0A       		.uleb128 0xa
 2346 0131 A1050000 		.4byte	.LASF27
 2347 0135 04       		.byte	0x4
 2348 0136 8010     		.2byte	0x1080
 2349 0138 0E010000 		.4byte	0x10e
 2350 013c 01       		.byte	0x1
 2351 013d 0A       		.uleb128 0xa
 2352 013e 6F070000 		.4byte	.LASF28
 2353 0142 04       		.byte	0x4
 2354 0143 8110     		.2byte	0x1081
 2355 0145 0E010000 		.4byte	0x10e
 2356 0149 02       		.byte	0x2
 2357 014a 0A       		.uleb128 0xa
 2358 014b 59090000 		.4byte	.LASF29
 2359 014f 04       		.byte	0x4
 2360 0150 8210     		.2byte	0x1082
 2361 0152 0E010000 		.4byte	0x10e
 2362 0156 03       		.byte	0x3
 2363 0157 0A       		.uleb128 0xa
 2364 0158 6A0B0000 		.4byte	.LASF30
 2365 015c 04       		.byte	0x4
 2366 015d 8310     		.2byte	0x1083
ARM GAS  C:\Users\13740\AppData\Local\Temp\cctWuNXI.s 			page 53


 2367 015f 0E010000 		.4byte	0x10e
 2368 0163 04       		.byte	0x4
 2369 0164 0A       		.uleb128 0xa
 2370 0165 9D040000 		.4byte	.LASF31
 2371 0169 04       		.byte	0x4
 2372 016a 8510     		.2byte	0x1085
 2373 016c 0E010000 		.4byte	0x10e
 2374 0170 05       		.byte	0x5
 2375 0171 0A       		.uleb128 0xa
 2376 0172 BD090000 		.4byte	.LASF32
 2377 0176 04       		.byte	0x4
 2378 0177 8610     		.2byte	0x1086
 2379 0179 0E010000 		.4byte	0x10e
 2380 017d 06       		.byte	0x6
 2381 017e 0A       		.uleb128 0xa
 2382 017f 7D020000 		.4byte	.LASF33
 2383 0183 04       		.byte	0x4
 2384 0184 8710     		.2byte	0x1087
 2385 0186 0E010000 		.4byte	0x10e
 2386 018a 07       		.byte	0x7
 2387 018b 0A       		.uleb128 0xa
 2388 018c 12060000 		.4byte	.LASF34
 2389 0190 04       		.byte	0x4
 2390 0191 8910     		.2byte	0x1089
 2391 0193 0E010000 		.4byte	0x10e
 2392 0197 08       		.byte	0x8
 2393 0198 0A       		.uleb128 0xa
 2394 0199 0F030000 		.4byte	.LASF35
 2395 019d 04       		.byte	0x4
 2396 019e 8B10     		.2byte	0x108b
 2397 01a0 0E010000 		.4byte	0x10e
 2398 01a4 09       		.byte	0x9
 2399 01a5 0A       		.uleb128 0xa
 2400 01a6 B8080000 		.4byte	.LASF36
 2401 01aa 04       		.byte	0x4
 2402 01ab 8C10     		.2byte	0x108c
 2403 01ad 0E010000 		.4byte	0x10e
 2404 01b1 0A       		.byte	0xa
 2405 01b2 0A       		.uleb128 0xa
 2406 01b3 F5060000 		.4byte	.LASF37
 2407 01b7 04       		.byte	0x4
 2408 01b8 8D10     		.2byte	0x108d
 2409 01ba 0E010000 		.4byte	0x10e
 2410 01be 0B       		.byte	0xb
 2411 01bf 0A       		.uleb128 0xa
 2412 01c0 71060000 		.4byte	.LASF38
 2413 01c4 04       		.byte	0x4
 2414 01c5 8E10     		.2byte	0x108e
 2415 01c7 0E010000 		.4byte	0x10e
 2416 01cb 0C       		.byte	0xc
 2417 01cc 00       		.byte	0
 2418 01cd 06       		.uleb128 0x6
 2419 01ce B0040000 		.4byte	.LASF39
 2420 01d2 04       		.byte	0x4
 2421 01d3 8F10     		.2byte	0x108f
 2422 01d5 1A010000 		.4byte	0x11a
 2423 01d9 09       		.uleb128 0x9
ARM GAS  C:\Users\13740\AppData\Local\Temp\cctWuNXI.s 			page 54


 2424 01da 0C       		.byte	0xc
 2425 01db 04       		.byte	0x4
 2426 01dc 9910     		.2byte	0x1099
 2427 01de 0A020000 		.4byte	0x20a
 2428 01e2 0A       		.uleb128 0xa
 2429 01e3 71040000 		.4byte	.LASF40
 2430 01e7 04       		.byte	0x4
 2431 01e8 9B10     		.2byte	0x109b
 2432 01ea DD000000 		.4byte	0xdd
 2433 01ee 00       		.byte	0
 2434 01ef 0A       		.uleb128 0xa
 2435 01f0 5E040000 		.4byte	.LASF41
 2436 01f4 04       		.byte	0x4
 2437 01f5 9C10     		.2byte	0x109c
 2438 01f7 DD000000 		.4byte	0xdd
 2439 01fb 04       		.byte	0x4
 2440 01fc 0A       		.uleb128 0xa
 2441 01fd 76050000 		.4byte	.LASF42
 2442 0201 04       		.byte	0x4
 2443 0202 9D10     		.2byte	0x109d
 2444 0204 DD000000 		.4byte	0xdd
 2445 0208 08       		.byte	0x8
 2446 0209 00       		.byte	0
 2447 020a 06       		.uleb128 0x6
 2448 020b 070A0000 		.4byte	.LASF43
 2449 020f 04       		.byte	0x4
 2450 0210 9E10     		.2byte	0x109e
 2451 0212 D9010000 		.4byte	0x1d9
 2452 0216 09       		.uleb128 0x9
 2453 0217 18       		.byte	0x18
 2454 0218 04       		.byte	0x4
 2455 0219 A310     		.2byte	0x10a3
 2456 021b AF020000 		.4byte	0x2af
 2457 021f 0A       		.uleb128 0xa
 2458 0220 03030000 		.4byte	.LASF44
 2459 0224 04       		.byte	0x4
 2460 0225 A510     		.2byte	0x10a5
 2461 0227 DD000000 		.4byte	0xdd
 2462 022b 00       		.byte	0
 2463 022c 0A       		.uleb128 0xa
 2464 022d 58070000 		.4byte	.LASF45
 2465 0231 04       		.byte	0x4
 2466 0232 A610     		.2byte	0x10a6
 2467 0234 DD000000 		.4byte	0xdd
 2468 0238 04       		.byte	0x4
 2469 0239 0A       		.uleb128 0xa
 2470 023a 23020000 		.4byte	.LASF46
 2471 023e 04       		.byte	0x4
 2472 023f A710     		.2byte	0x10a7
 2473 0241 DD000000 		.4byte	0xdd
 2474 0245 08       		.byte	0x8
 2475 0246 0A       		.uleb128 0xa
 2476 0247 E7000000 		.4byte	.LASF47
 2477 024b 04       		.byte	0x4
 2478 024c A810     		.2byte	0x10a8
 2479 024e DD000000 		.4byte	0xdd
 2480 0252 0C       		.byte	0xc
ARM GAS  C:\Users\13740\AppData\Local\Temp\cctWuNXI.s 			page 55


 2481 0253 0A       		.uleb128 0xa
 2482 0254 B5060000 		.4byte	.LASF48
 2483 0258 04       		.byte	0x4
 2484 0259 A910     		.2byte	0x10a9
 2485 025b 0E010000 		.4byte	0x10e
 2486 025f 10       		.byte	0x10
 2487 0260 0A       		.uleb128 0xa
 2488 0261 50070000 		.4byte	.LASF49
 2489 0265 04       		.byte	0x4
 2490 0266 AA10     		.2byte	0x10aa
 2491 0268 0E010000 		.4byte	0x10e
 2492 026c 11       		.byte	0x11
 2493 026d 0A       		.uleb128 0xa
 2494 026e 750A0000 		.4byte	.LASF50
 2495 0272 04       		.byte	0x4
 2496 0273 AB10     		.2byte	0x10ab
 2497 0275 0E010000 		.4byte	0x10e
 2498 0279 12       		.byte	0x12
 2499 027a 0A       		.uleb128 0xa
 2500 027b D9080000 		.4byte	.LASF51
 2501 027f 04       		.byte	0x4
 2502 0280 AC10     		.2byte	0x10ac
 2503 0282 0E010000 		.4byte	0x10e
 2504 0286 13       		.byte	0x13
 2505 0287 0A       		.uleb128 0xa
 2506 0288 BD060000 		.4byte	.LASF52
 2507 028c 04       		.byte	0x4
 2508 028d AD10     		.2byte	0x10ad
 2509 028f 0E010000 		.4byte	0x10e
 2510 0293 14       		.byte	0x14
 2511 0294 0A       		.uleb128 0xa
 2512 0295 69050000 		.4byte	.LASF53
 2513 0299 04       		.byte	0x4
 2514 029a AE10     		.2byte	0x10ae
 2515 029c 0E010000 		.4byte	0x10e
 2516 02a0 15       		.byte	0x15
 2517 02a1 0A       		.uleb128 0xa
 2518 02a2 DB020000 		.4byte	.LASF54
 2519 02a6 04       		.byte	0x4
 2520 02a7 AF10     		.2byte	0x10af
 2521 02a9 0E010000 		.4byte	0x10e
 2522 02ad 16       		.byte	0x16
 2523 02ae 00       		.byte	0
 2524 02af 06       		.uleb128 0x6
 2525 02b0 4C040000 		.4byte	.LASF55
 2526 02b4 04       		.byte	0x4
 2527 02b5 B010     		.2byte	0x10b0
 2528 02b7 16020000 		.4byte	0x216
 2529 02bb 09       		.uleb128 0x9
 2530 02bc 0C       		.byte	0xc
 2531 02bd 04       		.byte	0x4
 2532 02be B610     		.2byte	0x10b6
 2533 02c0 EC020000 		.4byte	0x2ec
 2534 02c4 0A       		.uleb128 0xa
 2535 02c5 2A090000 		.4byte	.LASF56
 2536 02c9 04       		.byte	0x4
 2537 02ca B810     		.2byte	0x10b8
ARM GAS  C:\Users\13740\AppData\Local\Temp\cctWuNXI.s 			page 56


 2538 02cc DD000000 		.4byte	0xdd
 2539 02d0 00       		.byte	0
 2540 02d1 0A       		.uleb128 0xa
 2541 02d2 83060000 		.4byte	.LASF57
 2542 02d6 04       		.byte	0x4
 2543 02d7 B910     		.2byte	0x10b9
 2544 02d9 DD000000 		.4byte	0xdd
 2545 02dd 04       		.byte	0x4
 2546 02de 0A       		.uleb128 0xa
 2547 02df 21090000 		.4byte	.LASF58
 2548 02e3 04       		.byte	0x4
 2549 02e4 BA10     		.2byte	0x10ba
 2550 02e6 0E010000 		.4byte	0x10e
 2551 02ea 08       		.byte	0x8
 2552 02eb 00       		.byte	0
 2553 02ec 06       		.uleb128 0x6
 2554 02ed 60020000 		.4byte	.LASF59
 2555 02f1 04       		.byte	0x4
 2556 02f2 BB10     		.2byte	0x10bb
 2557 02f4 BB020000 		.4byte	0x2bb
 2558 02f8 09       		.uleb128 0x9
 2559 02f9 08       		.byte	0x8
 2560 02fa 04       		.byte	0x4
 2561 02fb C010     		.2byte	0x10c0
 2562 02fd 36030000 		.4byte	0x336
 2563 0301 0A       		.uleb128 0xa
 2564 0302 A9040000 		.4byte	.LASF60
 2565 0306 04       		.byte	0x4
 2566 0307 C210     		.2byte	0x10c2
 2567 0309 C7000000 		.4byte	0xc7
 2568 030d 00       		.byte	0
 2569 030e 0A       		.uleb128 0xa
 2570 030f 9B090000 		.4byte	.LASF61
 2571 0313 04       		.byte	0x4
 2572 0314 C310     		.2byte	0x10c3
 2573 0316 C7000000 		.4byte	0xc7
 2574 031a 02       		.byte	0x2
 2575 031b 0A       		.uleb128 0xa
 2576 031c D1090000 		.4byte	.LASF62
 2577 0320 04       		.byte	0x4
 2578 0321 C410     		.2byte	0x10c4
 2579 0323 C7000000 		.4byte	0xc7
 2580 0327 04       		.byte	0x4
 2581 0328 0A       		.uleb128 0xa
 2582 0329 D8040000 		.4byte	.LASF63
 2583 032d 04       		.byte	0x4
 2584 032e C510     		.2byte	0x10c5
 2585 0330 C7000000 		.4byte	0xc7
 2586 0334 06       		.byte	0x6
 2587 0335 00       		.byte	0
 2588 0336 06       		.uleb128 0x6
 2589 0337 4F0B0000 		.4byte	.LASF64
 2590 033b 04       		.byte	0x4
 2591 033c C610     		.2byte	0x10c6
 2592 033e F8020000 		.4byte	0x2f8
 2593 0342 09       		.uleb128 0x9
 2594 0343 0C       		.byte	0xc
ARM GAS  C:\Users\13740\AppData\Local\Temp\cctWuNXI.s 			page 57


 2595 0344 04       		.byte	0x4
 2596 0345 CB10     		.2byte	0x10cb
 2597 0347 73030000 		.4byte	0x373
 2598 034b 0A       		.uleb128 0xa
 2599 034c ED080000 		.4byte	.LASF65
 2600 0350 04       		.byte	0x4
 2601 0351 CD10     		.2byte	0x10cd
 2602 0353 DD000000 		.4byte	0xdd
 2603 0357 00       		.byte	0
 2604 0358 0A       		.uleb128 0xa
 2605 0359 AE000000 		.4byte	.LASF66
 2606 035d 04       		.byte	0x4
 2607 035e CE10     		.2byte	0x10ce
 2608 0360 DD000000 		.4byte	0xdd
 2609 0364 04       		.byte	0x4
 2610 0365 0A       		.uleb128 0xa
 2611 0366 64070000 		.4byte	.LASF67
 2612 036a 04       		.byte	0x4
 2613 036b CF10     		.2byte	0x10cf
 2614 036d 0E010000 		.4byte	0x10e
 2615 0371 08       		.byte	0x8
 2616 0372 00       		.byte	0
 2617 0373 06       		.uleb128 0x6
 2618 0374 840A0000 		.4byte	.LASF68
 2619 0378 04       		.byte	0x4
 2620 0379 D010     		.2byte	0x10d0
 2621 037b 42030000 		.4byte	0x342
 2622 037f 09       		.uleb128 0x9
 2623 0380 10       		.byte	0x10
 2624 0381 04       		.byte	0x4
 2625 0382 D410     		.2byte	0x10d4
 2626 0384 BD030000 		.4byte	0x3bd
 2627 0388 0A       		.uleb128 0xa
 2628 0389 B0080000 		.4byte	.LASF69
 2629 038d 04       		.byte	0x4
 2630 038e D610     		.2byte	0x10d6
 2631 0390 DD000000 		.4byte	0xdd
 2632 0394 00       		.byte	0
 2633 0395 0A       		.uleb128 0xa
 2634 0396 47050000 		.4byte	.LASF70
 2635 039a 04       		.byte	0x4
 2636 039b D710     		.2byte	0x10d7
 2637 039d DD000000 		.4byte	0xdd
 2638 03a1 04       		.byte	0x4
 2639 03a2 0A       		.uleb128 0xa
 2640 03a3 A2030000 		.4byte	.LASF71
 2641 03a7 04       		.byte	0x4
 2642 03a8 D810     		.2byte	0x10d8
 2643 03aa DD000000 		.4byte	0xdd
 2644 03ae 08       		.byte	0x8
 2645 03af 0A       		.uleb128 0xa
 2646 03b0 01060000 		.4byte	.LASF72
 2647 03b4 04       		.byte	0x4
 2648 03b5 D910     		.2byte	0x10d9
 2649 03b7 DD000000 		.4byte	0xdd
 2650 03bb 0C       		.byte	0xc
 2651 03bc 00       		.byte	0
ARM GAS  C:\Users\13740\AppData\Local\Temp\cctWuNXI.s 			page 58


 2652 03bd 06       		.uleb128 0x6
 2653 03be 340B0000 		.4byte	.LASF73
 2654 03c2 04       		.byte	0x4
 2655 03c3 DA10     		.2byte	0x10da
 2656 03c5 7F030000 		.4byte	0x37f
 2657 03c9 09       		.uleb128 0x9
 2658 03ca 24       		.byte	0x24
 2659 03cb 04       		.byte	0x4
 2660 03cc DD10     		.2byte	0x10dd
 2661 03ce 48040000 		.4byte	0x448
 2662 03d2 0A       		.uleb128 0xa
 2663 03d3 13020000 		.4byte	.LASF74
 2664 03d7 04       		.byte	0x4
 2665 03d8 DF10     		.2byte	0x10df
 2666 03da DD000000 		.4byte	0xdd
 2667 03de 00       		.byte	0
 2668 03df 0A       		.uleb128 0xa
 2669 03e0 79040000 		.4byte	.LASF75
 2670 03e4 04       		.byte	0x4
 2671 03e5 E010     		.2byte	0x10e0
 2672 03e7 DD000000 		.4byte	0xdd
 2673 03eb 04       		.byte	0x4
 2674 03ec 0A       		.uleb128 0xa
 2675 03ed EB050000 		.4byte	.LASF76
 2676 03f1 04       		.byte	0x4
 2677 03f2 E110     		.2byte	0x10e1
 2678 03f4 DD000000 		.4byte	0xdd
 2679 03f8 08       		.byte	0x8
 2680 03f9 0A       		.uleb128 0xa
 2681 03fa A1060000 		.4byte	.LASF77
 2682 03fe 04       		.byte	0x4
 2683 03ff E210     		.2byte	0x10e2
 2684 0401 DD000000 		.4byte	0xdd
 2685 0405 0C       		.byte	0xc
 2686 0406 0A       		.uleb128 0xa
 2687 0407 2F050000 		.4byte	.LASF78
 2688 040b 04       		.byte	0x4
 2689 040c E310     		.2byte	0x10e3
 2690 040e 0E010000 		.4byte	0x10e
 2691 0412 10       		.byte	0x10
 2692 0413 0A       		.uleb128 0xa
 2693 0414 B5050000 		.4byte	.LASF79
 2694 0418 04       		.byte	0x4
 2695 0419 E410     		.2byte	0x10e4
 2696 041b DD000000 		.4byte	0xdd
 2697 041f 14       		.byte	0x14
 2698 0420 0A       		.uleb128 0xa
 2699 0421 33070000 		.4byte	.LASF80
 2700 0425 04       		.byte	0x4
 2701 0426 E510     		.2byte	0x10e5
 2702 0428 DD000000 		.4byte	0xdd
 2703 042c 18       		.byte	0x18
 2704 042d 0A       		.uleb128 0xa
 2705 042e 8B080000 		.4byte	.LASF81
 2706 0432 04       		.byte	0x4
 2707 0433 E610     		.2byte	0x10e6
 2708 0435 DD000000 		.4byte	0xdd
ARM GAS  C:\Users\13740\AppData\Local\Temp\cctWuNXI.s 			page 59


 2709 0439 1C       		.byte	0x1c
 2710 043a 0A       		.uleb128 0xa
 2711 043b E2090000 		.4byte	.LASF82
 2712 043f 04       		.byte	0x4
 2713 0440 E710     		.2byte	0x10e7
 2714 0442 DD000000 		.4byte	0xdd
 2715 0446 20       		.byte	0x20
 2716 0447 00       		.byte	0
 2717 0448 06       		.uleb128 0x6
 2718 0449 180B0000 		.4byte	.LASF83
 2719 044d 04       		.byte	0x4
 2720 044e E810     		.2byte	0x10e8
 2721 0450 C9030000 		.4byte	0x3c9
 2722 0454 09       		.uleb128 0x9
 2723 0455 0C       		.byte	0xc
 2724 0456 04       		.byte	0x4
 2725 0457 EB10     		.2byte	0x10eb
 2726 0459 85040000 		.4byte	0x485
 2727 045d 0A       		.uleb128 0xa
 2728 045e 60000000 		.4byte	.LASF84
 2729 0462 04       		.byte	0x4
 2730 0463 ED10     		.2byte	0x10ed
 2731 0465 DD000000 		.4byte	0xdd
 2732 0469 00       		.byte	0
 2733 046a 0A       		.uleb128 0xa
 2734 046b 00000000 		.4byte	.LASF85
 2735 046f 04       		.byte	0x4
 2736 0470 EE10     		.2byte	0x10ee
 2737 0472 DD000000 		.4byte	0xdd
 2738 0476 04       		.byte	0x4
 2739 0477 0A       		.uleb128 0xa
 2740 0478 F7040000 		.4byte	.LASF86
 2741 047c 04       		.byte	0x4
 2742 047d EF10     		.2byte	0x10ef
 2743 047f DD000000 		.4byte	0xdd
 2744 0483 08       		.byte	0x8
 2745 0484 00       		.byte	0
 2746 0485 06       		.uleb128 0x6
 2747 0486 BF040000 		.4byte	.LASF87
 2748 048a 04       		.byte	0x4
 2749 048b F010     		.2byte	0x10f0
 2750 048d 54040000 		.4byte	0x454
 2751 0491 09       		.uleb128 0x9
 2752 0492 20       		.byte	0x20
 2753 0493 04       		.byte	0x4
 2754 0494 0211     		.2byte	0x1102
 2755 0496 1D050000 		.4byte	0x51d
 2756 049a 0A       		.uleb128 0xa
 2757 049b 25000000 		.4byte	.LASF88
 2758 049f 04       		.byte	0x4
 2759 04a0 0411     		.2byte	0x1104
 2760 04a2 DD000000 		.4byte	0xdd
 2761 04a6 00       		.byte	0
 2762 04a7 0A       		.uleb128 0xa
 2763 04a8 09060000 		.4byte	.LASF89
 2764 04ac 04       		.byte	0x4
 2765 04ad 0511     		.2byte	0x1105
ARM GAS  C:\Users\13740\AppData\Local\Temp\cctWuNXI.s 			page 60


 2766 04af DD000000 		.4byte	0xdd
 2767 04b3 04       		.byte	0x4
 2768 04b4 0A       		.uleb128 0xa
 2769 04b5 A9020000 		.4byte	.LASF90
 2770 04b9 04       		.byte	0x4
 2771 04ba 0611     		.2byte	0x1106
 2772 04bc DD000000 		.4byte	0xdd
 2773 04c0 08       		.byte	0x8
 2774 04c1 0A       		.uleb128 0xa
 2775 04c2 81030000 		.4byte	.LASF91
 2776 04c6 04       		.byte	0x4
 2777 04c7 0711     		.2byte	0x1107
 2778 04c9 DD000000 		.4byte	0xdd
 2779 04cd 0C       		.byte	0xc
 2780 04ce 0A       		.uleb128 0xa
 2781 04cf 3D080000 		.4byte	.LASF92
 2782 04d3 04       		.byte	0x4
 2783 04d4 0811     		.2byte	0x1108
 2784 04d6 DD000000 		.4byte	0xdd
 2785 04da 10       		.byte	0x10
 2786 04db 0A       		.uleb128 0xa
 2787 04dc 2A030000 		.4byte	.LASF93
 2788 04e0 04       		.byte	0x4
 2789 04e1 0911     		.2byte	0x1109
 2790 04e3 DD000000 		.4byte	0xdd
 2791 04e7 14       		.byte	0x14
 2792 04e8 0A       		.uleb128 0xa
 2793 04e9 39090000 		.4byte	.LASF94
 2794 04ed 04       		.byte	0x4
 2795 04ee 0A11     		.2byte	0x110a
 2796 04f0 0E010000 		.4byte	0x10e
 2797 04f4 18       		.byte	0x18
 2798 04f5 0A       		.uleb128 0xa
 2799 04f6 480A0000 		.4byte	.LASF95
 2800 04fa 04       		.byte	0x4
 2801 04fb 0B11     		.2byte	0x110b
 2802 04fd 0E010000 		.4byte	0x10e
 2803 0501 19       		.byte	0x19
 2804 0502 0A       		.uleb128 0xa
 2805 0503 A5090000 		.4byte	.LASF96
 2806 0507 04       		.byte	0x4
 2807 0508 0C11     		.2byte	0x110c
 2808 050a C7000000 		.4byte	0xc7
 2809 050e 1A       		.byte	0x1a
 2810 050f 0A       		.uleb128 0xa
 2811 0510 EF000000 		.4byte	.LASF97
 2812 0514 04       		.byte	0x4
 2813 0515 0D11     		.2byte	0x110d
 2814 0517 C7000000 		.4byte	0xc7
 2815 051b 1C       		.byte	0x1c
 2816 051c 00       		.byte	0
 2817 051d 06       		.uleb128 0x6
 2818 051e E4030000 		.4byte	.LASF98
 2819 0522 04       		.byte	0x4
 2820 0523 0E11     		.2byte	0x110e
 2821 0525 91040000 		.4byte	0x491
 2822 0529 09       		.uleb128 0x9
ARM GAS  C:\Users\13740\AppData\Local\Temp\cctWuNXI.s 			page 61


 2823 052a 1C       		.byte	0x1c
 2824 052b 04       		.byte	0x4
 2825 052c 1311     		.2byte	0x1113
 2826 052e 9B050000 		.4byte	0x59b
 2827 0532 0A       		.uleb128 0xa
 2828 0533 2D020000 		.4byte	.LASF99
 2829 0537 04       		.byte	0x4
 2830 0538 1511     		.2byte	0x1115
 2831 053a DD000000 		.4byte	0xdd
 2832 053e 00       		.byte	0
 2833 053f 0A       		.uleb128 0xa
 2834 0540 C3010000 		.4byte	.LASF100
 2835 0544 04       		.byte	0x4
 2836 0545 1611     		.2byte	0x1116
 2837 0547 DD000000 		.4byte	0xdd
 2838 054b 04       		.byte	0x4
 2839 054c 0A       		.uleb128 0xa
 2840 054d CD040000 		.4byte	.LASF101
 2841 0551 04       		.byte	0x4
 2842 0552 1711     		.2byte	0x1117
 2843 0554 DD000000 		.4byte	0xdd
 2844 0558 08       		.byte	0x8
 2845 0559 0A       		.uleb128 0xa
 2846 055a 05010000 		.4byte	.LASF102
 2847 055e 04       		.byte	0x4
 2848 055f 1811     		.2byte	0x1118
 2849 0561 DD000000 		.4byte	0xdd
 2850 0565 0C       		.byte	0xc
 2851 0566 0A       		.uleb128 0xa
 2852 0567 8A060000 		.4byte	.LASF103
 2853 056b 04       		.byte	0x4
 2854 056c 1911     		.2byte	0x1119
 2855 056e DD000000 		.4byte	0xdd
 2856 0572 10       		.byte	0x10
 2857 0573 0A       		.uleb128 0xa
 2858 0574 100B0000 		.4byte	.LASF104
 2859 0578 04       		.byte	0x4
 2860 0579 1A11     		.2byte	0x111a
 2861 057b DD000000 		.4byte	0xdd
 2862 057f 14       		.byte	0x14
 2863 0580 0A       		.uleb128 0xa
 2864 0581 1D060000 		.4byte	.LASF105
 2865 0585 04       		.byte	0x4
 2866 0586 1B11     		.2byte	0x111b
 2867 0588 0E010000 		.4byte	0x10e
 2868 058c 18       		.byte	0x18
 2869 058d 0A       		.uleb128 0xa
 2870 058e 41090000 		.4byte	.LASF106
 2871 0592 04       		.byte	0x4
 2872 0593 1C11     		.2byte	0x111c
 2873 0595 0E010000 		.4byte	0x10e
 2874 0599 19       		.byte	0x19
 2875 059a 00       		.byte	0
 2876 059b 06       		.uleb128 0x6
 2877 059c 8A020000 		.4byte	.LASF107
 2878 05a0 04       		.byte	0x4
 2879 05a1 1D11     		.2byte	0x111d
ARM GAS  C:\Users\13740\AppData\Local\Temp\cctWuNXI.s 			page 62


 2880 05a3 29050000 		.4byte	0x529
 2881 05a7 09       		.uleb128 0x9
 2882 05a8 18       		.byte	0x18
 2883 05a9 04       		.byte	0x4
 2884 05aa 3211     		.2byte	0x1132
 2885 05ac FF050000 		.4byte	0x5ff
 2886 05b0 0A       		.uleb128 0xa
 2887 05b1 F00A0000 		.4byte	.LASF108
 2888 05b5 04       		.byte	0x4
 2889 05b6 3411     		.2byte	0x1134
 2890 05b8 DD000000 		.4byte	0xdd
 2891 05bc 00       		.byte	0
 2892 05bd 0A       		.uleb128 0xa
 2893 05be 000B0000 		.4byte	.LASF109
 2894 05c2 04       		.byte	0x4
 2895 05c3 3511     		.2byte	0x1135
 2896 05c5 DD000000 		.4byte	0xdd
 2897 05c9 04       		.byte	0x4
 2898 05ca 0A       		.uleb128 0xa
 2899 05cb 78000000 		.4byte	.LASF110
 2900 05cf 04       		.byte	0x4
 2901 05d0 3611     		.2byte	0x1136
 2902 05d2 DD000000 		.4byte	0xdd
 2903 05d6 08       		.byte	0x8
 2904 05d7 0A       		.uleb128 0xa
 2905 05d8 86000000 		.4byte	.LASF111
 2906 05dc 04       		.byte	0x4
 2907 05dd 3711     		.2byte	0x1137
 2908 05df DD000000 		.4byte	0xdd
 2909 05e3 0C       		.byte	0xc
 2910 05e4 0A       		.uleb128 0xa
 2911 05e5 38000000 		.4byte	.LASF112
 2912 05e9 04       		.byte	0x4
 2913 05ea 3811     		.2byte	0x1138
 2914 05ec DD000000 		.4byte	0xdd
 2915 05f0 10       		.byte	0x10
 2916 05f1 0A       		.uleb128 0xa
 2917 05f2 46000000 		.4byte	.LASF113
 2918 05f6 04       		.byte	0x4
 2919 05f7 3911     		.2byte	0x1139
 2920 05f9 DD000000 		.4byte	0xdd
 2921 05fd 14       		.byte	0x14
 2922 05fe 00       		.byte	0
 2923 05ff 06       		.uleb128 0x6
 2924 0600 E7010000 		.4byte	.LASF114
 2925 0604 04       		.byte	0x4
 2926 0605 3A11     		.2byte	0x113a
 2927 0607 A7050000 		.4byte	0x5a7
 2928 060b 09       		.uleb128 0x9
 2929 060c 10       		.byte	0x10
 2930 060d 04       		.byte	0x4
 2931 060e 3F11     		.2byte	0x113f
 2932 0610 49060000 		.4byte	0x649
 2933 0614 0A       		.uleb128 0xa
 2934 0615 B9000000 		.4byte	.LASF115
 2935 0619 04       		.byte	0x4
 2936 061a 4111     		.2byte	0x1141
ARM GAS  C:\Users\13740\AppData\Local\Temp\cctWuNXI.s 			page 63


 2937 061c DD000000 		.4byte	0xdd
 2938 0620 00       		.byte	0
 2939 0621 0A       		.uleb128 0xa
 2940 0622 F6090000 		.4byte	.LASF116
 2941 0626 04       		.byte	0x4
 2942 0627 4211     		.2byte	0x1142
 2943 0629 DD000000 		.4byte	0xdd
 2944 062d 04       		.byte	0x4
 2945 062e 0A       		.uleb128 0xa
 2946 062f 9E0A0000 		.4byte	.LASF117
 2947 0633 04       		.byte	0x4
 2948 0634 4311     		.2byte	0x1143
 2949 0636 DD000000 		.4byte	0xdd
 2950 063a 08       		.byte	0x8
 2951 063b 0A       		.uleb128 0xa
 2952 063c E7020000 		.4byte	.LASF118
 2953 0640 04       		.byte	0x4
 2954 0641 4411     		.2byte	0x1144
 2955 0643 DD000000 		.4byte	0xdd
 2956 0647 0C       		.byte	0xc
 2957 0648 00       		.byte	0
 2958 0649 06       		.uleb128 0x6
 2959 064a A2080000 		.4byte	.LASF119
 2960 064e 04       		.byte	0x4
 2961 064f 4511     		.2byte	0x1145
 2962 0651 0B060000 		.4byte	0x60b
 2963 0655 09       		.uleb128 0x9
 2964 0656 34       		.byte	0x34
 2965 0657 04       		.byte	0x4
 2966 0658 4A11     		.2byte	0x114a
 2967 065a AD060000 		.4byte	0x6ad
 2968 065e 0A       		.uleb128 0xa
 2969 065f D4020000 		.4byte	.LASF120
 2970 0663 04       		.byte	0x4
 2971 0664 4C11     		.2byte	0x114c
 2972 0666 DD000000 		.4byte	0xdd
 2973 066a 00       		.byte	0
 2974 066b 0A       		.uleb128 0xa
 2975 066c D8090000 		.4byte	.LASF121
 2976 0670 04       		.byte	0x4
 2977 0671 4D11     		.2byte	0x114d
 2978 0673 0E010000 		.4byte	0x10e
 2979 0677 04       		.byte	0x4
 2980 0678 0A       		.uleb128 0xa
 2981 0679 54000000 		.4byte	.LASF122
 2982 067d 04       		.byte	0x4
 2983 067e 4E11     		.2byte	0x114e
 2984 0680 0E010000 		.4byte	0x10e
 2985 0684 05       		.byte	0x5
 2986 0685 0A       		.uleb128 0xa
 2987 0686 7D0B0000 		.4byte	.LASF123
 2988 068a 04       		.byte	0x4
 2989 068b 4F11     		.2byte	0x114f
 2990 068d FF050000 		.4byte	0x5ff
 2991 0691 08       		.byte	0x8
 2992 0692 0A       		.uleb128 0xa
 2993 0693 760B0000 		.4byte	.LASF124
ARM GAS  C:\Users\13740\AppData\Local\Temp\cctWuNXI.s 			page 64


 2994 0697 04       		.byte	0x4
 2995 0698 5011     		.2byte	0x1150
 2996 069a 49060000 		.4byte	0x649
 2997 069e 20       		.byte	0x20
 2998 069f 0A       		.uleb128 0xa
 2999 06a0 49070000 		.4byte	.LASF125
 3000 06a4 04       		.byte	0x4
 3001 06a5 5111     		.2byte	0x1151
 3002 06a7 DD000000 		.4byte	0xdd
 3003 06ab 30       		.byte	0x30
 3004 06ac 00       		.byte	0
 3005 06ad 06       		.uleb128 0x6
 3006 06ae D9070000 		.4byte	.LASF126
 3007 06b2 04       		.byte	0x4
 3008 06b3 5211     		.2byte	0x1152
 3009 06b5 55060000 		.4byte	0x655
 3010 06b9 09       		.uleb128 0x9
 3011 06ba 74       		.byte	0x74
 3012 06bb 04       		.byte	0x4
 3013 06bc 5711     		.2byte	0x1157
 3014 06be F7060000 		.4byte	0x6f7
 3015 06c2 0A       		.uleb128 0xa
 3016 06c3 FA020000 		.4byte	.LASF127
 3017 06c7 04       		.byte	0x4
 3018 06c8 5911     		.2byte	0x1159
 3019 06ca BD030000 		.4byte	0x3bd
 3020 06ce 00       		.byte	0
 3021 06cf 0A       		.uleb128 0xa
 3022 06d0 63060000 		.4byte	.LASF128
 3023 06d4 04       		.byte	0x4
 3024 06d5 5A11     		.2byte	0x115a
 3025 06d7 85040000 		.4byte	0x485
 3026 06db 10       		.byte	0x10
 3027 06dc 0A       		.uleb128 0xa
 3028 06dd F0090000 		.4byte	.LASF129
 3029 06e1 04       		.byte	0x4
 3030 06e2 5B11     		.2byte	0x115b
 3031 06e4 AD060000 		.4byte	0x6ad
 3032 06e8 1C       		.byte	0x1c
 3033 06e9 0A       		.uleb128 0xa
 3034 06ea 8F030000 		.4byte	.LASF130
 3035 06ee 04       		.byte	0x4
 3036 06ef 5C11     		.2byte	0x115c
 3037 06f1 48040000 		.4byte	0x448
 3038 06f5 50       		.byte	0x50
 3039 06f6 00       		.byte	0
 3040 06f7 06       		.uleb128 0x6
 3041 06f8 D5030000 		.4byte	.LASF131
 3042 06fc 04       		.byte	0x4
 3043 06fd 5D11     		.2byte	0x115d
 3044 06ff B9060000 		.4byte	0x6b9
 3045 0703 09       		.uleb128 0x9
 3046 0704 3C       		.byte	0x3c
 3047 0705 04       		.byte	0x4
 3048 0706 6211     		.2byte	0x1162
 3049 0708 27070000 		.4byte	0x727
 3050 070c 0A       		.uleb128 0xa
ARM GAS  C:\Users\13740\AppData\Local\Temp\cctWuNXI.s 			page 65


 3051 070d 2C040000 		.4byte	.LASF132
 3052 0711 04       		.byte	0x4
 3053 0712 6411     		.2byte	0x1164
 3054 0714 1D050000 		.4byte	0x51d
 3055 0718 00       		.byte	0
 3056 0719 0A       		.uleb128 0xa
 3057 071a C8090000 		.4byte	.LASF133
 3058 071e 04       		.byte	0x4
 3059 071f 6511     		.2byte	0x1165
 3060 0721 9B050000 		.4byte	0x59b
 3061 0725 20       		.byte	0x20
 3062 0726 00       		.byte	0
 3063 0727 06       		.uleb128 0x6
 3064 0728 72030000 		.4byte	.LASF134
 3065 072c 04       		.byte	0x4
 3066 072d 6611     		.2byte	0x1166
 3067 072f 03070000 		.4byte	0x703
 3068 0733 09       		.uleb128 0x9
 3069 0734 44       		.byte	0x44
 3070 0735 04       		.byte	0x4
 3071 0736 6B11     		.2byte	0x116b
 3072 0738 7E070000 		.4byte	0x77e
 3073 073c 0A       		.uleb128 0xa
 3074 073d 7B070000 		.4byte	.LASF135
 3075 0741 04       		.byte	0x4
 3076 0742 6D11     		.2byte	0x116d
 3077 0744 0A020000 		.4byte	0x20a
 3078 0748 00       		.byte	0
 3079 0749 0A       		.uleb128 0xa
 3080 074a 77080000 		.4byte	.LASF136
 3081 074e 04       		.byte	0x4
 3082 074f 6E11     		.2byte	0x116e
 3083 0751 AF020000 		.4byte	0x2af
 3084 0755 0C       		.byte	0xc
 3085 0756 0A       		.uleb128 0xa
 3086 0757 F7010000 		.4byte	.LASF137
 3087 075b 04       		.byte	0x4
 3088 075c 6F11     		.2byte	0x116f
 3089 075e 36030000 		.4byte	0x336
 3090 0762 24       		.byte	0x24
 3091 0763 0A       		.uleb128 0xa
 3092 0764 9A050000 		.4byte	.LASF138
 3093 0768 04       		.byte	0x4
 3094 0769 7011     		.2byte	0x1170
 3095 076b EC020000 		.4byte	0x2ec
 3096 076f 2C       		.byte	0x2c
 3097 0770 0A       		.uleb128 0xa
 3098 0771 4F050000 		.4byte	.LASF139
 3099 0775 04       		.byte	0x4
 3100 0776 7111     		.2byte	0x1171
 3101 0778 73030000 		.4byte	0x373
 3102 077c 38       		.byte	0x38
 3103 077d 00       		.byte	0
 3104 077e 06       		.uleb128 0x6
 3105 077f DB000000 		.4byte	.LASF140
 3106 0783 04       		.byte	0x4
 3107 0784 7211     		.2byte	0x1172
ARM GAS  C:\Users\13740\AppData\Local\Temp\cctWuNXI.s 			page 66


 3108 0786 33070000 		.4byte	0x733
 3109 078a 09       		.uleb128 0x9
 3110 078b 14       		.byte	0x14
 3111 078c 04       		.byte	0x4
 3112 078d 8311     		.2byte	0x1183
 3113 078f D5070000 		.4byte	0x7d5
 3114 0793 0A       		.uleb128 0xa
 3115 0794 08090000 		.4byte	.LASF141
 3116 0798 04       		.byte	0x4
 3117 0799 8511     		.2byte	0x1185
 3118 079b 0E010000 		.4byte	0x10e
 3119 079f 00       		.byte	0
 3120 07a0 0A       		.uleb128 0xa
 3121 07a1 00070000 		.4byte	.LASF142
 3122 07a5 04       		.byte	0x4
 3123 07a6 8611     		.2byte	0x1186
 3124 07a8 DD000000 		.4byte	0xdd
 3125 07ac 04       		.byte	0x4
 3126 07ad 0A       		.uleb128 0xa
 3127 07ae 05020000 		.4byte	.LASF143
 3128 07b2 04       		.byte	0x4
 3129 07b3 8711     		.2byte	0x1187
 3130 07b5 DD000000 		.4byte	0xdd
 3131 07b9 08       		.byte	0x8
 3132 07ba 0A       		.uleb128 0xa
 3133 07bb 20050000 		.4byte	.LASF144
 3134 07bf 04       		.byte	0x4
 3135 07c0 8811     		.2byte	0x1188
 3136 07c2 DD000000 		.4byte	0xdd
 3137 07c6 0C       		.byte	0xc
 3138 07c7 0A       		.uleb128 0xa
 3139 07c8 66040000 		.4byte	.LASF145
 3140 07cc 04       		.byte	0x4
 3141 07cd 8911     		.2byte	0x1189
 3142 07cf DD000000 		.4byte	0xdd
 3143 07d3 10       		.byte	0x10
 3144 07d4 00       		.byte	0
 3145 07d5 06       		.uleb128 0x6
 3146 07d6 4C090000 		.4byte	.LASF146
 3147 07da 04       		.byte	0x4
 3148 07db 8A11     		.2byte	0x118a
 3149 07dd 8A070000 		.4byte	0x78a
 3150 07e1 09       		.uleb128 0x9
 3151 07e2 0C       		.byte	0xc
 3152 07e3 04       		.byte	0x4
 3153 07e4 8F11     		.2byte	0x118f
 3154 07e6 39080000 		.4byte	0x839
 3155 07ea 0A       		.uleb128 0xa
 3156 07eb AA030000 		.4byte	.LASF147
 3157 07ef 04       		.byte	0x4
 3158 07f0 9111     		.2byte	0x1191
 3159 07f2 DD000000 		.4byte	0xdd
 3160 07f6 00       		.byte	0
 3161 07f7 0A       		.uleb128 0xa
 3162 07f8 10000000 		.4byte	.LASF148
 3163 07fc 04       		.byte	0x4
 3164 07fd 9211     		.2byte	0x1192
ARM GAS  C:\Users\13740\AppData\Local\Temp\cctWuNXI.s 			page 67


 3165 07ff 0E010000 		.4byte	0x10e
 3166 0803 04       		.byte	0x4
 3167 0804 0A       		.uleb128 0xa
 3168 0805 86070000 		.4byte	.LASF149
 3169 0809 04       		.byte	0x4
 3170 080a 9311     		.2byte	0x1193
 3171 080c 0E010000 		.4byte	0x10e
 3172 0810 05       		.byte	0x5
 3173 0811 0A       		.uleb128 0xa
 3174 0812 3D020000 		.4byte	.LASF150
 3175 0816 04       		.byte	0x4
 3176 0817 9411     		.2byte	0x1194
 3177 0819 0E010000 		.4byte	0x10e
 3178 081d 06       		.byte	0x6
 3179 081e 0A       		.uleb128 0xa
 3180 081f CE050000 		.4byte	.LASF151
 3181 0823 04       		.byte	0x4
 3182 0824 9511     		.2byte	0x1195
 3183 0826 0E010000 		.4byte	0x10e
 3184 082a 07       		.byte	0x7
 3185 082b 0A       		.uleb128 0xa
 3186 082c 54080000 		.4byte	.LASF152
 3187 0830 04       		.byte	0x4
 3188 0831 9611     		.2byte	0x1196
 3189 0833 DD000000 		.4byte	0xdd
 3190 0837 08       		.byte	0x8
 3191 0838 00       		.byte	0
 3192 0839 06       		.uleb128 0x6
 3193 083a 54020000 		.4byte	.LASF153
 3194 083e 04       		.byte	0x4
 3195 083f 9711     		.2byte	0x1197
 3196 0841 E1070000 		.4byte	0x7e1
 3197 0845 09       		.uleb128 0x9
 3198 0846 14       		.byte	0x14
 3199 0847 04       		.byte	0x4
 3200 0848 9C11     		.2byte	0x119c
 3201 084a 90080000 		.4byte	0x890
 3202 084e 0A       		.uleb128 0xa
 3203 084f 0A000000 		.4byte	.LASF154
 3204 0853 04       		.byte	0x4
 3205 0854 9E11     		.2byte	0x119e
 3206 0856 DD000000 		.4byte	0xdd
 3207 085a 00       		.byte	0
 3208 085b 0A       		.uleb128 0xa
 3209 085c 5C030000 		.4byte	.LASF155
 3210 0860 04       		.byte	0x4
 3211 0861 9F11     		.2byte	0x119f
 3212 0863 DD000000 		.4byte	0xdd
 3213 0867 04       		.byte	0x4
 3214 0868 0A       		.uleb128 0xa
 3215 0869 20070000 		.4byte	.LASF156
 3216 086d 04       		.byte	0x4
 3217 086e A011     		.2byte	0x11a0
 3218 0870 DD000000 		.4byte	0xdd
 3219 0874 08       		.byte	0x8
 3220 0875 0A       		.uleb128 0xa
 3221 0876 33080000 		.4byte	.LASF157
ARM GAS  C:\Users\13740\AppData\Local\Temp\cctWuNXI.s 			page 68


 3222 087a 04       		.byte	0x4
 3223 087b A111     		.2byte	0x11a1
 3224 087d 0E010000 		.4byte	0x10e
 3225 0881 0C       		.byte	0xc
 3226 0882 0A       		.uleb128 0xa
 3227 0883 A90B0000 		.4byte	.LASF158
 3228 0887 04       		.byte	0x4
 3229 0888 A211     		.2byte	0x11a2
 3230 088a 90080000 		.4byte	0x890
 3231 088e 10       		.byte	0x10
 3232 088f 00       		.byte	0
 3233 0890 0B       		.uleb128 0xb
 3234 0891 04       		.byte	0x4
 3235 0892 96080000 		.4byte	0x896
 3236 0896 0C       		.uleb128 0xc
 3237 0897 DD000000 		.4byte	0xdd
 3238 089b 06       		.uleb128 0x6
 3239 089c 35040000 		.4byte	.LASF159
 3240 08a0 04       		.byte	0x4
 3241 08a1 A311     		.2byte	0x11a3
 3242 08a3 45080000 		.4byte	0x845
 3243 08a7 09       		.uleb128 0x9
 3244 08a8 48       		.byte	0x48
 3245 08a9 04       		.byte	0x4
 3246 08aa AF11     		.2byte	0x11af
 3247 08ac F2080000 		.4byte	0x8f2
 3248 08b0 0A       		.uleb128 0xa
 3249 08b1 CE060000 		.4byte	.LASF160
 3250 08b5 04       		.byte	0x4
 3251 08b6 B111     		.2byte	0x11b1
 3252 08b8 DD000000 		.4byte	0xdd
 3253 08bc 00       		.byte	0
 3254 08bd 0A       		.uleb128 0xa
 3255 08be 6B0A0000 		.4byte	.LASF161
 3256 08c2 04       		.byte	0x4
 3257 08c3 B211     		.2byte	0x11b2
 3258 08c5 F2080000 		.4byte	0x8f2
 3259 08c9 04       		.byte	0x4
 3260 08ca 0A       		.uleb128 0xa
 3261 08cb F3050000 		.4byte	.LASF162
 3262 08cf 04       		.byte	0x4
 3263 08d0 B311     		.2byte	0x11b3
 3264 08d2 02090000 		.4byte	0x902
 3265 08d6 24       		.byte	0x24
 3266 08d7 0A       		.uleb128 0xa
 3267 08d8 02040000 		.4byte	.LASF163
 3268 08dc 04       		.byte	0x4
 3269 08dd B411     		.2byte	0x11b4
 3270 08df 02090000 		.4byte	0x902
 3271 08e3 34       		.byte	0x34
 3272 08e4 0A       		.uleb128 0xa
 3273 08e5 C2070000 		.4byte	.LASF164
 3274 08e9 04       		.byte	0x4
 3275 08ea B511     		.2byte	0x11b5
 3276 08ec 0E010000 		.4byte	0x10e
 3277 08f0 44       		.byte	0x44
 3278 08f1 00       		.byte	0
ARM GAS  C:\Users\13740\AppData\Local\Temp\cctWuNXI.s 			page 69


 3279 08f2 0D       		.uleb128 0xd
 3280 08f3 DD000000 		.4byte	0xdd
 3281 08f7 02090000 		.4byte	0x902
 3282 08fb 0E       		.uleb128 0xe
 3283 08fc 9E000000 		.4byte	0x9e
 3284 0900 07       		.byte	0x7
 3285 0901 00       		.byte	0
 3286 0902 0D       		.uleb128 0xd
 3287 0903 DD000000 		.4byte	0xdd
 3288 0907 12090000 		.4byte	0x912
 3289 090b 0E       		.uleb128 0xe
 3290 090c 9E000000 		.4byte	0x9e
 3291 0910 03       		.byte	0x3
 3292 0911 00       		.byte	0
 3293 0912 06       		.uleb128 0x6
 3294 0913 3A050000 		.4byte	.LASF165
 3295 0917 04       		.byte	0x4
 3296 0918 B611     		.2byte	0x11b6
 3297 091a A7080000 		.4byte	0x8a7
 3298 091e 09       		.uleb128 0x9
 3299 091f 20       		.byte	0x20
 3300 0920 04       		.byte	0x4
 3301 0921 5712     		.2byte	0x1257
 3302 0923 9D090000 		.4byte	0x99d
 3303 0927 0A       		.uleb128 0xa
 3304 0928 D9060000 		.4byte	.LASF166
 3305 092c 04       		.byte	0x4
 3306 092d 5912     		.2byte	0x1259
 3307 092f DD000000 		.4byte	0xdd
 3308 0933 00       		.byte	0
 3309 0934 0A       		.uleb128 0xa
 3310 0935 AB060000 		.4byte	.LASF167
 3311 0939 04       		.byte	0x4
 3312 093a 5A12     		.2byte	0x125a
 3313 093c DD000000 		.4byte	0xdd
 3314 0940 04       		.byte	0x4
 3315 0941 0A       		.uleb128 0xa
 3316 0942 03030000 		.4byte	.LASF44
 3317 0946 04       		.byte	0x4
 3318 0947 5B12     		.2byte	0x125b
 3319 0949 DD000000 		.4byte	0xdd
 3320 094d 08       		.byte	0x8
 3321 094e 0A       		.uleb128 0xa
 3322 094f 58070000 		.4byte	.LASF45
 3323 0953 04       		.byte	0x4
 3324 0954 5C12     		.2byte	0x125c
 3325 0956 DD000000 		.4byte	0xdd
 3326 095a 0C       		.byte	0xc
 3327 095b 0A       		.uleb128 0xa
 3328 095c 23020000 		.4byte	.LASF46
 3329 0960 04       		.byte	0x4
 3330 0961 5D12     		.2byte	0x125d
 3331 0963 DD000000 		.4byte	0xdd
 3332 0967 10       		.byte	0x10
 3333 0968 0A       		.uleb128 0xa
 3334 0969 83060000 		.4byte	.LASF57
 3335 096d 04       		.byte	0x4
ARM GAS  C:\Users\13740\AppData\Local\Temp\cctWuNXI.s 			page 70


 3336 096e 5E12     		.2byte	0x125e
 3337 0970 DD000000 		.4byte	0xdd
 3338 0974 14       		.byte	0x14
 3339 0975 0A       		.uleb128 0xa
 3340 0976 E7000000 		.4byte	.LASF47
 3341 097a 04       		.byte	0x4
 3342 097b 5F12     		.2byte	0x125f
 3343 097d BC000000 		.4byte	0xbc
 3344 0981 18       		.byte	0x18
 3345 0982 0A       		.uleb128 0xa
 3346 0983 B5060000 		.4byte	.LASF48
 3347 0987 04       		.byte	0x4
 3348 0988 6012     		.2byte	0x1260
 3349 098a 0E010000 		.4byte	0x10e
 3350 098e 19       		.byte	0x19
 3351 098f 0A       		.uleb128 0xa
 3352 0990 C9070000 		.4byte	.LASF168
 3353 0994 04       		.byte	0x4
 3354 0995 6112     		.2byte	0x1261
 3355 0997 B5000000 		.4byte	0xb5
 3356 099b 1C       		.byte	0x1c
 3357 099c 00       		.byte	0
 3358 099d 06       		.uleb128 0x6
 3359 099e 3D060000 		.4byte	.LASF169
 3360 09a2 04       		.byte	0x4
 3361 09a3 6212     		.2byte	0x1262
 3362 09a5 1E090000 		.4byte	0x91e
 3363 09a9 09       		.uleb128 0x9
 3364 09aa 18       		.byte	0x18
 3365 09ab 04       		.byte	0x4
 3366 09ac 6712     		.2byte	0x1267
 3367 09ae 010A0000 		.4byte	0xa01
 3368 09b2 0A       		.uleb128 0xa
 3369 09b3 860B0000 		.4byte	.LASF170
 3370 09b7 04       		.byte	0x4
 3371 09b8 6912     		.2byte	0x1269
 3372 09ba 0E010000 		.4byte	0x10e
 3373 09be 00       		.byte	0
 3374 09bf 0A       		.uleb128 0xa
 3375 09c0 1A000000 		.4byte	.LASF171
 3376 09c4 04       		.byte	0x4
 3377 09c5 6A12     		.2byte	0x126a
 3378 09c7 B5000000 		.4byte	0xb5
 3379 09cb 04       		.byte	0x4
 3380 09cc 0A       		.uleb128 0xa
 3381 09cd 6D080000 		.4byte	.LASF172
 3382 09d1 04       		.byte	0x4
 3383 09d2 6B12     		.2byte	0x126b
 3384 09d4 B5000000 		.4byte	0xb5
 3385 09d8 08       		.byte	0x8
 3386 09d9 0A       		.uleb128 0xa
 3387 09da 5D050000 		.4byte	.LASF173
 3388 09de 04       		.byte	0x4
 3389 09df 6C12     		.2byte	0x126c
 3390 09e1 DD000000 		.4byte	0xdd
 3391 09e5 0C       		.byte	0xc
 3392 09e6 0A       		.uleb128 0xa
ARM GAS  C:\Users\13740\AppData\Local\Temp\cctWuNXI.s 			page 71


 3393 09e7 0F010000 		.4byte	.LASF174
 3394 09eb 04       		.byte	0x4
 3395 09ec 6D12     		.2byte	0x126d
 3396 09ee 0E010000 		.4byte	0x10e
 3397 09f2 10       		.byte	0x10
 3398 09f3 0A       		.uleb128 0xa
 3399 09f4 92040000 		.4byte	.LASF175
 3400 09f8 04       		.byte	0x4
 3401 09f9 6E12     		.2byte	0x126e
 3402 09fb DD000000 		.4byte	0xdd
 3403 09ff 14       		.byte	0x14
 3404 0a00 00       		.byte	0
 3405 0a01 06       		.uleb128 0x6
 3406 0a02 21080000 		.4byte	.LASF176
 3407 0a06 04       		.byte	0x4
 3408 0a07 6F12     		.2byte	0x126f
 3409 0a09 A9090000 		.4byte	0x9a9
 3410 0a0d 09       		.uleb128 0x9
 3411 0a0e 08       		.byte	0x8
 3412 0a0f 04       		.byte	0x4
 3413 0a10 7412     		.2byte	0x1274
 3414 0a12 310A0000 		.4byte	0xa31
 3415 0a16 0A       		.uleb128 0xa
 3416 0a17 F5080000 		.4byte	.LASF177
 3417 0a1b 04       		.byte	0x4
 3418 0a1c 7612     		.2byte	0x1276
 3419 0a1e B5000000 		.4byte	0xb5
 3420 0a22 00       		.byte	0
 3421 0a23 0A       		.uleb128 0xa
 3422 0a24 A3020000 		.4byte	.LASF178
 3423 0a28 04       		.byte	0x4
 3424 0a29 7712     		.2byte	0x1277
 3425 0a2b B5000000 		.4byte	0xb5
 3426 0a2f 04       		.byte	0x4
 3427 0a30 00       		.byte	0
 3428 0a31 06       		.uleb128 0x6
 3429 0a32 C1050000 		.4byte	.LASF179
 3430 0a36 04       		.byte	0x4
 3431 0a37 7812     		.2byte	0x1278
 3432 0a39 0D0A0000 		.4byte	0xa0d
 3433 0a3d 09       		.uleb128 0x9
 3434 0a3e 08       		.byte	0x8
 3435 0a3f 04       		.byte	0x4
 3436 0a40 8612     		.2byte	0x1286
 3437 0a42 610A0000 		.4byte	0xa61
 3438 0a46 0A       		.uleb128 0xa
 3439 0a47 E2040000 		.4byte	.LASF180
 3440 0a4b 04       		.byte	0x4
 3441 0a4c 8812     		.2byte	0x1288
 3442 0a4e D2000000 		.4byte	0xd2
 3443 0a52 00       		.byte	0
 3444 0a53 0A       		.uleb128 0xa
 3445 0a54 67080000 		.4byte	.LASF181
 3446 0a58 04       		.byte	0x4
 3447 0a59 8912     		.2byte	0x1289
 3448 0a5b D2000000 		.4byte	0xd2
 3449 0a5f 04       		.byte	0x4
ARM GAS  C:\Users\13740\AppData\Local\Temp\cctWuNXI.s 			page 72


 3450 0a60 00       		.byte	0
 3451 0a61 06       		.uleb128 0x6
 3452 0a62 13070000 		.4byte	.LASF182
 3453 0a66 04       		.byte	0x4
 3454 0a67 8A12     		.2byte	0x128a
 3455 0a69 3D0A0000 		.4byte	0xa3d
 3456 0a6d 0F       		.uleb128 0xf
 3457 0a6e CC       		.byte	0xcc
 3458 0a6f 05       		.byte	0x5
 3459 0a70 16       		.byte	0x16
 3460 0a71 560C0000 		.4byte	0xc56
 3461 0a75 10       		.uleb128 0x10
 3462 0a76 1D030000 		.4byte	.LASF183
 3463 0a7a 05       		.byte	0x5
 3464 0a7b 19       		.byte	0x19
 3465 0a7c 0E010000 		.4byte	0x10e
 3466 0a80 00       		.byte	0
 3467 0a81 10       		.uleb128 0x10
 3468 0a82 9C0B0000 		.4byte	.LASF184
 3469 0a86 05       		.byte	0x5
 3470 0a87 1A       		.byte	0x1a
 3471 0a88 DD000000 		.4byte	0xdd
 3472 0a8c 04       		.byte	0x4
 3473 0a8d 10       		.uleb128 0x10
 3474 0a8e F8030000 		.4byte	.LASF185
 3475 0a92 05       		.byte	0x5
 3476 0a93 1B       		.byte	0x1b
 3477 0a94 DD000000 		.4byte	0xdd
 3478 0a98 08       		.byte	0x8
 3479 0a99 10       		.uleb128 0x10
 3480 0a9a 04080000 		.4byte	.LASF186
 3481 0a9e 05       		.byte	0x5
 3482 0a9f 1C       		.byte	0x1c
 3483 0aa0 DD000000 		.4byte	0xdd
 3484 0aa4 0C       		.byte	0xc
 3485 0aa5 10       		.uleb128 0x10
 3486 0aa6 E4070000 		.4byte	.LASF187
 3487 0aaa 05       		.byte	0x5
 3488 0aab 1D       		.byte	0x1d
 3489 0aac DD000000 		.4byte	0xdd
 3490 0ab0 10       		.byte	0x10
 3491 0ab1 10       		.uleb128 0x10
 3492 0ab2 76020000 		.4byte	.LASF188
 3493 0ab6 05       		.byte	0x5
 3494 0ab7 1F       		.byte	0x1f
 3495 0ab8 B5000000 		.4byte	0xb5
 3496 0abc 14       		.byte	0x14
 3497 0abd 10       		.uleb128 0x10
 3498 0abe 42040000 		.4byte	.LASF189
 3499 0ac2 05       		.byte	0x5
 3500 0ac3 20       		.byte	0x20
 3501 0ac4 D2000000 		.4byte	0xd2
 3502 0ac8 18       		.byte	0x18
 3503 0ac9 10       		.uleb128 0x10
 3504 0aca 57060000 		.4byte	.LASF190
 3505 0ace 05       		.byte	0x5
 3506 0acf 21       		.byte	0x21
ARM GAS  C:\Users\13740\AppData\Local\Temp\cctWuNXI.s 			page 73


 3507 0ad0 B5000000 		.4byte	0xb5
 3508 0ad4 1C       		.byte	0x1c
 3509 0ad5 10       		.uleb128 0x10
 3510 0ad6 98020000 		.4byte	.LASF191
 3511 0ada 05       		.byte	0x5
 3512 0adb 22       		.byte	0x22
 3513 0adc B5000000 		.4byte	0xb5
 3514 0ae0 20       		.byte	0x20
 3515 0ae1 10       		.uleb128 0x10
 3516 0ae2 3D0A0000 		.4byte	.LASF192
 3517 0ae6 05       		.byte	0x5
 3518 0ae7 23       		.byte	0x23
 3519 0ae8 B5000000 		.4byte	0xb5
 3520 0aec 24       		.byte	0x24
 3521 0aed 10       		.uleb128 0x10
 3522 0aee 33030000 		.4byte	.LASF193
 3523 0af2 05       		.byte	0x5
 3524 0af3 24       		.byte	0x24
 3525 0af4 B5000000 		.4byte	0xb5
 3526 0af8 28       		.byte	0x28
 3527 0af9 10       		.uleb128 0x10
 3528 0afa 96060000 		.4byte	.LASF194
 3529 0afe 05       		.byte	0x5
 3530 0aff 26       		.byte	0x26
 3531 0b00 DD000000 		.4byte	0xdd
 3532 0b04 2C       		.byte	0x2c
 3533 0b05 10       		.uleb128 0x10
 3534 0b06 E7040000 		.4byte	.LASF195
 3535 0b0a 05       		.byte	0x5
 3536 0b0b 27       		.byte	0x27
 3537 0b0c DD000000 		.4byte	0xdd
 3538 0b10 30       		.byte	0x30
 3539 0b11 10       		.uleb128 0x10
 3540 0b12 B2090000 		.4byte	.LASF196
 3541 0b16 05       		.byte	0x5
 3542 0b17 28       		.byte	0x28
 3543 0b18 DD000000 		.4byte	0xdd
 3544 0b1c 34       		.byte	0x34
 3545 0b1d 10       		.uleb128 0x10
 3546 0b1e CA030000 		.4byte	.LASF197
 3547 0b22 05       		.byte	0x5
 3548 0b23 29       		.byte	0x29
 3549 0b24 DD000000 		.4byte	0xdd
 3550 0b28 38       		.byte	0x38
 3551 0b29 10       		.uleb128 0x10
 3552 0b2a 36020000 		.4byte	.LASF198
 3553 0b2e 05       		.byte	0x5
 3554 0b2f 2A       		.byte	0x2a
 3555 0b30 DD000000 		.4byte	0xdd
 3556 0b34 3C       		.byte	0x3c
 3557 0b35 10       		.uleb128 0x10
 3558 0b36 79040000 		.4byte	.LASF75
 3559 0b3a 05       		.byte	0x5
 3560 0b3b 2B       		.byte	0x2b
 3561 0b3c DD000000 		.4byte	0xdd
 3562 0b40 40       		.byte	0x40
 3563 0b41 10       		.uleb128 0x10
ARM GAS  C:\Users\13740\AppData\Local\Temp\cctWuNXI.s 			page 74


 3564 0b42 60000000 		.4byte	.LASF84
 3565 0b46 05       		.byte	0x5
 3566 0b47 2C       		.byte	0x2c
 3567 0b48 DD000000 		.4byte	0xdd
 3568 0b4c 44       		.byte	0x44
 3569 0b4d 10       		.uleb128 0x10
 3570 0b4e 00000000 		.4byte	.LASF85
 3571 0b52 05       		.byte	0x5
 3572 0b53 2D       		.byte	0x2d
 3573 0b54 DD000000 		.4byte	0xdd
 3574 0b58 48       		.byte	0x48
 3575 0b59 10       		.uleb128 0x10
 3576 0b5a F7040000 		.4byte	.LASF86
 3577 0b5e 05       		.byte	0x5
 3578 0b5f 2E       		.byte	0x2e
 3579 0b60 DD000000 		.4byte	0xdd
 3580 0b64 4C       		.byte	0x4c
 3581 0b65 10       		.uleb128 0x10
 3582 0b66 2E000000 		.4byte	.LASF199
 3583 0b6a 05       		.byte	0x5
 3584 0b6b 2F       		.byte	0x2f
 3585 0b6c B5000000 		.4byte	0xb5
 3586 0b70 50       		.byte	0x50
 3587 0b71 10       		.uleb128 0x10
 3588 0b72 4E060000 		.4byte	.LASF200
 3589 0b76 05       		.byte	0x5
 3590 0b77 30       		.byte	0x30
 3591 0b78 B5000000 		.4byte	0xb5
 3592 0b7c 54       		.byte	0x54
 3593 0b7d 10       		.uleb128 0x10
 3594 0b7e 11040000 		.4byte	.LASF201
 3595 0b82 05       		.byte	0x5
 3596 0b83 31       		.byte	0x31
 3597 0b84 B5000000 		.4byte	0xb5
 3598 0b88 58       		.byte	0x58
 3599 0b89 10       		.uleb128 0x10
 3600 0b8a 2A090000 		.4byte	.LASF56
 3601 0b8e 05       		.byte	0x5
 3602 0b8f 32       		.byte	0x32
 3603 0b90 DD000000 		.4byte	0xdd
 3604 0b94 5C       		.byte	0x5c
 3605 0b95 10       		.uleb128 0x10
 3606 0b96 83060000 		.4byte	.LASF57
 3607 0b9a 05       		.byte	0x5
 3608 0b9b 33       		.byte	0x33
 3609 0b9c DD000000 		.4byte	0xdd
 3610 0ba0 60       		.byte	0x60
 3611 0ba1 10       		.uleb128 0x10
 3612 0ba2 21090000 		.4byte	.LASF58
 3613 0ba6 05       		.byte	0x5
 3614 0ba7 34       		.byte	0x34
 3615 0ba8 0E010000 		.4byte	0x10e
 3616 0bac 64       		.byte	0x64
 3617 0bad 10       		.uleb128 0x10
 3618 0bae 260A0000 		.4byte	.LASF202
 3619 0bb2 05       		.byte	0x5
 3620 0bb3 35       		.byte	0x35
ARM GAS  C:\Users\13740\AppData\Local\Temp\cctWuNXI.s 			page 75


 3621 0bb4 DD000000 		.4byte	0xdd
 3622 0bb8 68       		.byte	0x68
 3623 0bb9 10       		.uleb128 0x10
 3624 0bba 03030000 		.4byte	.LASF44
 3625 0bbe 05       		.byte	0x5
 3626 0bbf 36       		.byte	0x36
 3627 0bc0 BC000000 		.4byte	0xbc
 3628 0bc4 6C       		.byte	0x6c
 3629 0bc5 10       		.uleb128 0x10
 3630 0bc6 58070000 		.4byte	.LASF45
 3631 0bca 05       		.byte	0x5
 3632 0bcb 37       		.byte	0x37
 3633 0bcc BC000000 		.4byte	0xbc
 3634 0bd0 6D       		.byte	0x6d
 3635 0bd1 10       		.uleb128 0x10
 3636 0bd2 23020000 		.4byte	.LASF46
 3637 0bd6 05       		.byte	0x5
 3638 0bd7 38       		.byte	0x38
 3639 0bd8 BC000000 		.4byte	0xbc
 3640 0bdc 6E       		.byte	0x6e
 3641 0bdd 10       		.uleb128 0x10
 3642 0bde B30A0000 		.4byte	.LASF203
 3643 0be2 05       		.byte	0x5
 3644 0be3 3A       		.byte	0x3a
 3645 0be4 010A0000 		.4byte	0xa01
 3646 0be8 70       		.byte	0x70
 3647 0be9 10       		.uleb128 0x10
 3648 0bea 5F0B0000 		.4byte	.LASF204
 3649 0bee 05       		.byte	0x5
 3650 0bef 3B       		.byte	0x3b
 3651 0bf0 DD000000 		.4byte	0xdd
 3652 0bf4 88       		.byte	0x88
 3653 0bf5 10       		.uleb128 0x10
 3654 0bf6 260B0000 		.4byte	.LASF205
 3655 0bfa 05       		.byte	0x5
 3656 0bfb 3E       		.byte	0x3e
 3657 0bfc B5000000 		.4byte	0xb5
 3658 0c00 8C       		.byte	0x8c
 3659 0c01 10       		.uleb128 0x10
 3660 0c02 8E0B0000 		.4byte	.LASF206
 3661 0c06 05       		.byte	0x5
 3662 0c07 3F       		.byte	0x3f
 3663 0c08 B5000000 		.4byte	0xb5
 3664 0c0c 90       		.byte	0x90
 3665 0c0d 10       		.uleb128 0x10
 3666 0c0e 2A010000 		.4byte	.LASF207
 3667 0c12 05       		.byte	0x5
 3668 0c13 40       		.byte	0x40
 3669 0c14 B5000000 		.4byte	0xb5
 3670 0c18 94       		.byte	0x94
 3671 0c19 10       		.uleb128 0x10
 3672 0c1a FA070000 		.4byte	.LASF208
 3673 0c1e 05       		.byte	0x5
 3674 0c1f 41       		.byte	0x41
 3675 0c20 0E010000 		.4byte	0x10e
 3676 0c24 98       		.byte	0x98
 3677 0c25 10       		.uleb128 0x10
ARM GAS  C:\Users\13740\AppData\Local\Temp\cctWuNXI.s 			page 76


 3678 0c26 D3010000 		.4byte	.LASF209
 3679 0c2a 05       		.byte	0x5
 3680 0c2b 42       		.byte	0x42
 3681 0c2c 9B080000 		.4byte	0x89b
 3682 0c30 9C       		.byte	0x9c
 3683 0c31 10       		.uleb128 0x10
 3684 0c32 9B070000 		.4byte	.LASF210
 3685 0c36 05       		.byte	0x5
 3686 0c37 43       		.byte	0x43
 3687 0c38 9B080000 		.4byte	0x89b
 3688 0c3c B0       		.byte	0xb0
 3689 0c3d 10       		.uleb128 0x10
 3690 0c3e 910A0000 		.4byte	.LASF211
 3691 0c42 05       		.byte	0x5
 3692 0c43 44       		.byte	0x44
 3693 0c44 0E010000 		.4byte	0x10e
 3694 0c48 C4       		.byte	0xc4
 3695 0c49 10       		.uleb128 0x10
 3696 0c4a A0000000 		.4byte	.LASF212
 3697 0c4e 05       		.byte	0x5
 3698 0c4f 45       		.byte	0x45
 3699 0c50 DD000000 		.4byte	0xdd
 3700 0c54 C8       		.byte	0xc8
 3701 0c55 00       		.byte	0
 3702 0c56 04       		.uleb128 0x4
 3703 0c57 CA080000 		.4byte	.LASF213
 3704 0c5b 05       		.byte	0x5
 3705 0c5c 46       		.byte	0x46
 3706 0c5d 6D0A0000 		.4byte	0xa6d
 3707 0c61 11       		.uleb128 0x11
 3708 0c62 14080000 		.4byte	.LASF214
 3709 0c66 01       		.byte	0x1
 3710 0c67 58       		.byte	0x58
 3711 0c68 D2000000 		.4byte	0xd2
 3712 0c6c 00000000 		.4byte	.LFB1
 3713 0c70 28000000 		.4byte	.LFE1-.LFB1
 3714 0c74 01       		.uleb128 0x1
 3715 0c75 9C       		.byte	0x9c
 3716 0c76 890C0000 		.4byte	0xc89
 3717 0c7a 12       		.uleb128 0x12
 3718 0c7b 6C060000 		.4byte	.LASF216
 3719 0c7f 01       		.byte	0x1
 3720 0c80 58       		.byte	0x58
 3721 0c81 A5000000 		.4byte	0xa5
 3722 0c85 02       		.uleb128 0x2
 3723 0c86 91       		.byte	0x91
 3724 0c87 74       		.sleb128 -12
 3725 0c88 00       		.byte	0
 3726 0c89 13       		.uleb128 0x13
 3727 0c8a 49020000 		.4byte	.LASF215
 3728 0c8e 01       		.byte	0x1
 3729 0c8f 62       		.byte	0x62
 3730 0c90 D2000000 		.4byte	0xd2
 3731 0c94 00000000 		.4byte	.LFB2
 3732 0c98 40010000 		.4byte	.LFE2-.LFB2
 3733 0c9c 01       		.uleb128 0x1
 3734 0c9d 9C       		.byte	0x9c
ARM GAS  C:\Users\13740\AppData\Local\Temp\cctWuNXI.s 			page 77


 3735 0c9e 050D0000 		.4byte	0xd05
 3736 0ca2 12       		.uleb128 0x12
 3737 0ca3 4C080000 		.4byte	.LASF217
 3738 0ca7 01       		.byte	0x1
 3739 0ca8 62       		.byte	0x62
 3740 0ca9 DD000000 		.4byte	0xdd
 3741 0cad 03       		.uleb128 0x3
 3742 0cae 91       		.byte	0x91
 3743 0caf 9C7F     		.sleb128 -100
 3744 0cb1 12       		.uleb128 0x12
 3745 0cb2 B2070000 		.4byte	.LASF218
 3746 0cb6 01       		.byte	0x1
 3747 0cb7 62       		.byte	0x62
 3748 0cb8 A5000000 		.4byte	0xa5
 3749 0cbc 03       		.uleb128 0x3
 3750 0cbd 91       		.byte	0x91
 3751 0cbe 987F     		.sleb128 -104
 3752 0cc0 14       		.uleb128 0x14
 3753 0cc1 1E000000 		.4byte	.LBB2
 3754 0cc5 7A000000 		.4byte	.LBE2-.LBB2
 3755 0cc9 DD0C0000 		.4byte	0xcdd
 3756 0ccd 15       		.uleb128 0x15
 3757 0cce CB020000 		.4byte	.LASF219
 3758 0cd2 01       		.byte	0x1
 3759 0cd3 69       		.byte	0x69
 3760 0cd4 12090000 		.4byte	0x912
 3761 0cd8 03       		.uleb128 0x3
 3762 0cd9 91       		.byte	0x91
 3763 0cda A07F     		.sleb128 -96
 3764 0cdc 00       		.byte	0
 3765 0cdd 16       		.uleb128 0x16
 3766 0cde EE000000 		.4byte	.LBB3
 3767 0ce2 3C000000 		.4byte	.LBE3-.LBB3
 3768 0ce6 15       		.uleb128 0x15
 3769 0ce7 C0020000 		.4byte	.LASF220
 3770 0ceb 01       		.byte	0x1
 3771 0cec 98       		.byte	0x98
 3772 0ced CD010000 		.4byte	0x1cd
 3773 0cf1 02       		.uleb128 0x2
 3774 0cf2 91       		.byte	0x91
 3775 0cf3 68       		.sleb128 -24
 3776 0cf4 15       		.uleb128 0x15
 3777 0cf5 CB010000 		.4byte	.LASF221
 3778 0cf9 01       		.byte	0x1
 3779 0cfa 99       		.byte	0x99
 3780 0cfb 27070000 		.4byte	0x727
 3781 0cff 03       		.uleb128 0x3
 3782 0d00 91       		.byte	0x91
 3783 0d01 A07F     		.sleb128 -96
 3784 0d03 00       		.byte	0
 3785 0d04 00       		.byte	0
 3786 0d05 17       		.uleb128 0x17
 3787 0d06 18010000 		.4byte	.LASF258
 3788 0d0a 01       		.byte	0x1
 3789 0d0b A8       		.byte	0xa8
 3790 0d0c B5000000 		.4byte	0xb5
 3791 0d10 00000000 		.4byte	.LFB3
ARM GAS  C:\Users\13740\AppData\Local\Temp\cctWuNXI.s 			page 78


 3792 0d14 24000000 		.4byte	.LFE3-.LFB3
 3793 0d18 01       		.uleb128 0x1
 3794 0d19 9C       		.byte	0x9c
 3795 0d1a 18       		.uleb128 0x18
 3796 0d1b DB050000 		.4byte	.LASF227
 3797 0d1f 01       		.byte	0x1
 3798 0d20 B1       		.byte	0xb1
 3799 0d21 E8000000 		.4byte	0xe8
 3800 0d25 00000000 		.4byte	.LFB4
 3801 0d29 4C040000 		.4byte	.LFE4-.LFB4
 3802 0d2d 01       		.uleb128 0x1
 3803 0d2e 9C       		.byte	0x9c
 3804 0d2f B10D0000 		.4byte	0xdb1
 3805 0d33 15       		.uleb128 0x15
 3806 0d34 1D020000 		.4byte	.LASF222
 3807 0d38 01       		.byte	0x1
 3808 0d39 B3       		.byte	0xb3
 3809 0d3a E8000000 		.4byte	0xe8
 3810 0d3e 02       		.uleb128 0x2
 3811 0d3f 91       		.byte	0x91
 3812 0d40 70       		.sleb128 -16
 3813 0d41 15       		.uleb128 0x15
 3814 0d42 A90B0000 		.4byte	.LASF158
 3815 0d46 01       		.byte	0x1
 3816 0d47 B4       		.byte	0xb4
 3817 0d48 90080000 		.4byte	0x890
 3818 0d4c 02       		.uleb128 0x2
 3819 0d4d 91       		.byte	0x91
 3820 0d4e 6C       		.sleb128 -20
 3821 0d4f 15       		.uleb128 0x15
 3822 0d50 20070000 		.4byte	.LASF156
 3823 0d54 01       		.byte	0x1
 3824 0d55 B5       		.byte	0xb5
 3825 0d56 DD000000 		.4byte	0xdd
 3826 0d5a 02       		.uleb128 0x2
 3827 0d5b 91       		.byte	0x91
 3828 0d5c 68       		.sleb128 -24
 3829 0d5d 15       		.uleb128 0x15
 3830 0d5e C0020000 		.4byte	.LASF220
 3831 0d62 01       		.byte	0x1
 3832 0d63 B6       		.byte	0xb6
 3833 0d64 CD010000 		.4byte	0x1cd
 3834 0d68 02       		.uleb128 0x2
 3835 0d69 91       		.byte	0x91
 3836 0d6a 58       		.sleb128 -40
 3837 0d6b 15       		.uleb128 0x15
 3838 0d6c 98030000 		.4byte	.LASF223
 3839 0d70 01       		.byte	0x1
 3840 0d71 B7       		.byte	0xb7
 3841 0d72 F7060000 		.4byte	0x6f7
 3842 0d76 03       		.uleb128 0x3
 3843 0d77 91       		.byte	0x91
 3844 0d78 E47E     		.sleb128 -156
 3845 0d7a 15       		.uleb128 0x15
 3846 0d7b 5F080000 		.4byte	.LASF224
 3847 0d7f 01       		.byte	0x1
 3848 0d80 B8       		.byte	0xb8
ARM GAS  C:\Users\13740\AppData\Local\Temp\cctWuNXI.s 			page 79


 3849 0d81 7E070000 		.4byte	0x77e
 3850 0d85 03       		.uleb128 0x3
 3851 0d86 91       		.byte	0x91
 3852 0d87 A07E     		.sleb128 -224
 3853 0d89 15       		.uleb128 0x15
 3854 0d8a C5000000 		.4byte	.LASF225
 3855 0d8e 01       		.byte	0x1
 3856 0d8f B9       		.byte	0xb9
 3857 0d90 B5000000 		.4byte	0xb5
 3858 0d94 02       		.uleb128 0x2
 3859 0d95 91       		.byte	0x91
 3860 0d96 74       		.sleb128 -12
 3861 0d97 16       		.uleb128 0x16
 3862 0d98 24020000 		.4byte	.LBB4
 3863 0d9c 90000000 		.4byte	.LBE4-.LBB4
 3864 0da0 15       		.uleb128 0x15
 3865 0da1 E2060000 		.4byte	.LASF226
 3866 0da5 01       		.byte	0x1
 3867 0da6 FF       		.byte	0xff
 3868 0da7 1D050000 		.4byte	0x51d
 3869 0dab 03       		.uleb128 0x3
 3870 0dac 91       		.byte	0x91
 3871 0dad 807E     		.sleb128 -256
 3872 0daf 00       		.byte	0
 3873 0db0 00       		.byte	0
 3874 0db1 19       		.uleb128 0x19
 3875 0db2 65090000 		.4byte	.LASF228
 3876 0db6 01       		.byte	0x1
 3877 0db7 4101     		.2byte	0x141
 3878 0db9 E8000000 		.4byte	0xe8
 3879 0dbd 00000000 		.4byte	.LFB5
 3880 0dc1 EC010000 		.4byte	.LFE5-.LFB5
 3881 0dc5 01       		.uleb128 0x1
 3882 0dc6 9C       		.byte	0x9c
 3883 0dc7 270E0000 		.4byte	0xe27
 3884 0dcb 1A       		.uleb128 0x1a
 3885 0dcc 1D020000 		.4byte	.LASF222
 3886 0dd0 01       		.byte	0x1
 3887 0dd1 4301     		.2byte	0x143
 3888 0dd3 E8000000 		.4byte	0xe8
 3889 0dd7 02       		.uleb128 0x2
 3890 0dd8 91       		.byte	0x91
 3891 0dd9 74       		.sleb128 -12
 3892 0dda 1A       		.uleb128 0x1a
 3893 0ddb A90B0000 		.4byte	.LASF158
 3894 0ddf 01       		.byte	0x1
 3895 0de0 4401     		.2byte	0x144
 3896 0de2 90080000 		.4byte	0x890
 3897 0de6 02       		.uleb128 0x2
 3898 0de7 91       		.byte	0x91
 3899 0de8 70       		.sleb128 -16
 3900 0de9 1A       		.uleb128 0x1a
 3901 0dea 20070000 		.4byte	.LASF156
 3902 0dee 01       		.byte	0x1
 3903 0def 4501     		.2byte	0x145
 3904 0df1 DD000000 		.4byte	0xdd
 3905 0df5 02       		.uleb128 0x2
ARM GAS  C:\Users\13740\AppData\Local\Temp\cctWuNXI.s 			page 80


 3906 0df6 91       		.byte	0x91
 3907 0df7 6C       		.sleb128 -20
 3908 0df8 1A       		.uleb128 0x1a
 3909 0df9 170A0000 		.4byte	.LASF229
 3910 0dfd 01       		.byte	0x1
 3911 0dfe 4701     		.2byte	0x147
 3912 0e00 DD000000 		.4byte	0xdd
 3913 0e04 02       		.uleb128 0x2
 3914 0e05 91       		.byte	0x91
 3915 0e06 68       		.sleb128 -24
 3916 0e07 1A       		.uleb128 0x1a
 3917 0e08 45080000 		.4byte	.LASF230
 3918 0e0c 01       		.byte	0x1
 3919 0e0d 4801     		.2byte	0x148
 3920 0e0f BD030000 		.4byte	0x3bd
 3921 0e13 02       		.uleb128 0x2
 3922 0e14 91       		.byte	0x91
 3923 0e15 58       		.sleb128 -40
 3924 0e16 1A       		.uleb128 0x1a
 3925 0e17 79090000 		.4byte	.LASF231
 3926 0e1b 01       		.byte	0x1
 3927 0e1c 4901     		.2byte	0x149
 3928 0e1e 9D090000 		.4byte	0x99d
 3929 0e22 03       		.uleb128 0x3
 3930 0e23 91       		.byte	0x91
 3931 0e24 B87F     		.sleb128 -72
 3932 0e26 00       		.byte	0
 3933 0e27 1B       		.uleb128 0x1b
 3934 0e28 6D000000 		.4byte	.LASF232
 3935 0e2c 01       		.byte	0x1
 3936 0e2d 8D01     		.2byte	0x18d
 3937 0e2f D2000000 		.4byte	0xd2
 3938 0e33 00000000 		.4byte	.LFB6
 3939 0e37 94010000 		.4byte	.LFE6-.LFB6
 3940 0e3b 01       		.uleb128 0x1
 3941 0e3c 9C       		.byte	0x9c
 3942 0e3d 8D0E0000 		.4byte	0xe8d
 3943 0e41 1C       		.uleb128 0x1c
 3944 0e42 DF010000 		.4byte	.LASF233
 3945 0e46 01       		.byte	0x1
 3946 0e47 8D01     		.2byte	0x18d
 3947 0e49 8D0E0000 		.4byte	0xe8d
 3948 0e4d 02       		.uleb128 0x2
 3949 0e4e 91       		.byte	0x91
 3950 0e4f 4C       		.sleb128 -52
 3951 0e50 1C       		.uleb128 0x1c
 3952 0e51 7D050000 		.4byte	.LASF234
 3953 0e55 01       		.byte	0x1
 3954 0e56 8D01     		.2byte	0x18d
 3955 0e58 DD000000 		.4byte	0xdd
 3956 0e5c 02       		.uleb128 0x2
 3957 0e5d 91       		.byte	0x91
 3958 0e5e 48       		.sleb128 -56
 3959 0e5f 1A       		.uleb128 0x1a
 3960 0e60 1D020000 		.4byte	.LASF222
 3961 0e64 01       		.byte	0x1
 3962 0e65 8F01     		.2byte	0x18f
ARM GAS  C:\Users\13740\AppData\Local\Temp\cctWuNXI.s 			page 81


 3963 0e67 E8000000 		.4byte	0xe8
 3964 0e6b 02       		.uleb128 0x2
 3965 0e6c 91       		.byte	0x91
 3966 0e6d 74       		.sleb128 -12
 3967 0e6e 1A       		.uleb128 0x1a
 3968 0e6f 630A0000 		.4byte	.LASF235
 3969 0e73 01       		.byte	0x1
 3970 0e74 9001     		.2byte	0x190
 3971 0e76 39080000 		.4byte	0x839
 3972 0e7a 02       		.uleb128 0x2
 3973 0e7b 91       		.byte	0x91
 3974 0e7c 68       		.sleb128 -24
 3975 0e7d 1A       		.uleb128 0x1a
 3976 0e7e B10B0000 		.4byte	.LASF236
 3977 0e82 01       		.byte	0x1
 3978 0e83 9101     		.2byte	0x191
 3979 0e85 D5070000 		.4byte	0x7d5
 3980 0e89 02       		.uleb128 0x2
 3981 0e8a 91       		.byte	0x91
 3982 0e8b 54       		.sleb128 -44
 3983 0e8c 00       		.byte	0
 3984 0e8d 0B       		.uleb128 0xb
 3985 0e8e 04       		.byte	0x4
 3986 0e8f DD000000 		.4byte	0xdd
 3987 0e93 1B       		.uleb128 0x1b
 3988 0e94 07050000 		.4byte	.LASF237
 3989 0e98 01       		.byte	0x1
 3990 0e99 D401     		.2byte	0x1d4
 3991 0e9b D2000000 		.4byte	0xd2
 3992 0e9f 00000000 		.4byte	.LFB7
 3993 0ea3 7C000000 		.4byte	.LFE7-.LFB7
 3994 0ea7 01       		.uleb128 0x1
 3995 0ea8 9C       		.byte	0x9c
 3996 0ea9 CC0E0000 		.4byte	0xecc
 3997 0ead 1C       		.uleb128 0x1c
 3998 0eae F2030000 		.4byte	.LASF238
 3999 0eb2 01       		.byte	0x1
 4000 0eb3 D401     		.2byte	0x1d4
 4001 0eb5 D20E0000 		.4byte	0xed2
 4002 0eb9 02       		.uleb128 0x2
 4003 0eba 91       		.byte	0x91
 4004 0ebb 74       		.sleb128 -12
 4005 0ebc 1C       		.uleb128 0x1c
 4006 0ebd 21040000 		.4byte	.LASF239
 4007 0ec1 01       		.byte	0x1
 4008 0ec2 D401     		.2byte	0x1d4
 4009 0ec4 8D0E0000 		.4byte	0xe8d
 4010 0ec8 02       		.uleb128 0x2
 4011 0ec9 91       		.byte	0x91
 4012 0eca 70       		.sleb128 -16
 4013 0ecb 00       		.byte	0
 4014 0ecc 0B       		.uleb128 0xb
 4015 0ecd 04       		.byte	0x4
 4016 0ece D2000000 		.4byte	0xd2
 4017 0ed2 0C       		.uleb128 0xc
 4018 0ed3 CC0E0000 		.4byte	0xecc
 4019 0ed7 1B       		.uleb128 0x1b
ARM GAS  C:\Users\13740\AppData\Local\Temp\cctWuNXI.s 			page 82


 4020 0ed8 88050000 		.4byte	.LASF240
 4021 0edc 01       		.byte	0x1
 4022 0edd EC01     		.2byte	0x1ec
 4023 0edf D2000000 		.4byte	0xd2
 4024 0ee3 00000000 		.4byte	.LFB8
 4025 0ee7 98020000 		.4byte	.LFE8-.LFB8
 4026 0eeb 01       		.uleb128 0x1
 4027 0eec 9C       		.byte	0x9c
 4028 0eed E40F0000 		.4byte	0xfe4
 4029 0ef1 1C       		.uleb128 0x1c
 4030 0ef2 F2030000 		.4byte	.LASF238
 4031 0ef6 01       		.byte	0x1
 4032 0ef7 EC01     		.2byte	0x1ec
 4033 0ef9 D20E0000 		.4byte	0xed2
 4034 0efd 03       		.uleb128 0x3
 4035 0efe 91       		.byte	0x91
 4036 0eff BC7F     		.sleb128 -68
 4037 0f01 1C       		.uleb128 0x1c
 4038 0f02 21040000 		.4byte	.LASF239
 4039 0f06 01       		.byte	0x1
 4040 0f07 EC01     		.2byte	0x1ec
 4041 0f09 8D0E0000 		.4byte	0xe8d
 4042 0f0d 03       		.uleb128 0x3
 4043 0f0e 91       		.byte	0x91
 4044 0f0f B87F     		.sleb128 -72
 4045 0f11 1A       		.uleb128 0x1a
 4046 0f12 AB060000 		.4byte	.LASF167
 4047 0f16 01       		.byte	0x1
 4048 0f17 EE01     		.2byte	0x1ee
 4049 0f19 DD000000 		.4byte	0xdd
 4050 0f1d 02       		.uleb128 0x2
 4051 0f1e 91       		.byte	0x91
 4052 0f1f 60       		.sleb128 -32
 4053 0f20 1A       		.uleb128 0x1a
 4054 0f21 86040000 		.4byte	.LASF241
 4055 0f25 01       		.byte	0x1
 4056 0f26 EF01     		.2byte	0x1ef
 4057 0f28 DD000000 		.4byte	0xdd
 4058 0f2c 02       		.uleb128 0x2
 4059 0f2d 91       		.byte	0x91
 4060 0f2e 5C       		.sleb128 -36
 4061 0f2f 1A       		.uleb128 0x1a
 4062 0f30 0E020000 		.4byte	.LASF242
 4063 0f34 01       		.byte	0x1
 4064 0f35 F101     		.2byte	0x1f1
 4065 0f37 EA0F0000 		.4byte	0xfea
 4066 0f3b 02       		.uleb128 0x2
 4067 0f3c 91       		.byte	0x91
 4068 0f3d 58       		.sleb128 -40
 4069 0f3e 1A       		.uleb128 0x1a
 4070 0f3f B5030000 		.4byte	.LASF243
 4071 0f43 01       		.byte	0x1
 4072 0f44 F201     		.2byte	0x1f2
 4073 0f46 EF0F0000 		.4byte	0xfef
 4074 0f4a 02       		.uleb128 0x2
 4075 0f4b 91       		.byte	0x91
 4076 0f4c 6C       		.sleb128 -20
ARM GAS  C:\Users\13740\AppData\Local\Temp\cctWuNXI.s 			page 83


 4077 0f4d 14       		.uleb128 0x14
 4078 0f4e 2C000000 		.4byte	.LBB5
 4079 0f52 58000000 		.4byte	.LBE5-.LBB5
 4080 0f56 680F0000 		.4byte	0xf68
 4081 0f5a 1D       		.uleb128 0x1d
 4082 0f5b 6900     		.ascii	"i\000"
 4083 0f5d 01       		.byte	0x1
 4084 0f5e F901     		.2byte	0x1f9
 4085 0f60 DD000000 		.4byte	0xdd
 4086 0f64 02       		.uleb128 0x2
 4087 0f65 91       		.byte	0x91
 4088 0f66 68       		.sleb128 -24
 4089 0f67 00       		.byte	0
 4090 0f68 16       		.uleb128 0x16
 4091 0f69 84000000 		.4byte	.LBB6
 4092 0f6d BA010000 		.4byte	.LBE6-.LBB6
 4093 0f71 1D       		.uleb128 0x1d
 4094 0f72 6900     		.ascii	"i\000"
 4095 0f74 01       		.byte	0x1
 4096 0f75 0102     		.2byte	0x201
 4097 0f77 DD000000 		.4byte	0xdd
 4098 0f7b 02       		.uleb128 0x2
 4099 0f7c 91       		.byte	0x91
 4100 0f7d 64       		.sleb128 -28
 4101 0f7e 16       		.uleb128 0x16
 4102 0f7f 8A000000 		.4byte	.LBB7
 4103 0f83 A4010000 		.4byte	.LBE7-.LBB7
 4104 0f87 1A       		.uleb128 0x1a
 4105 0f88 17050000 		.4byte	.LASF244
 4106 0f8c 01       		.byte	0x1
 4107 0f8d 0302     		.2byte	0x203
 4108 0f8f EF0F0000 		.4byte	0xfef
 4109 0f93 02       		.uleb128 0x2
 4110 0f94 91       		.byte	0x91
 4111 0f95 54       		.sleb128 -44
 4112 0f96 1A       		.uleb128 0x1a
 4113 0f97 28050000 		.4byte	.LASF245
 4114 0f9b 01       		.byte	0x1
 4115 0f9c 0302     		.2byte	0x203
 4116 0f9e EF0F0000 		.4byte	0xfef
 4117 0fa2 02       		.uleb128 0x2
 4118 0fa3 91       		.byte	0x91
 4119 0fa4 50       		.sleb128 -48
 4120 0fa5 1A       		.uleb128 0x1a
 4121 0fa6 C4080000 		.4byte	.LASF246
 4122 0faa 01       		.byte	0x1
 4123 0fab 0702     		.2byte	0x207
 4124 0fad B5000000 		.4byte	0xb5
 4125 0fb1 02       		.uleb128 0x2
 4126 0fb2 91       		.byte	0x91
 4127 0fb3 44       		.sleb128 -60
 4128 0fb4 1A       		.uleb128 0x1a
 4129 0fb5 19040000 		.4byte	.LASF247
 4130 0fb9 01       		.byte	0x1
 4131 0fba 0702     		.2byte	0x207
 4132 0fbc B5000000 		.4byte	0xb5
 4133 0fc0 02       		.uleb128 0x2
ARM GAS  C:\Users\13740\AppData\Local\Temp\cctWuNXI.s 			page 84


 4134 0fc1 91       		.byte	0x91
 4135 0fc2 40       		.sleb128 -64
 4136 0fc3 1A       		.uleb128 0x1a
 4137 0fc4 AA070000 		.4byte	.LASF248
 4138 0fc8 01       		.byte	0x1
 4139 0fc9 0802     		.2byte	0x208
 4140 0fcb B5000000 		.4byte	0xb5
 4141 0fcf 02       		.uleb128 0x2
 4142 0fd0 91       		.byte	0x91
 4143 0fd1 4C       		.sleb128 -52
 4144 0fd2 1A       		.uleb128 0x1a
 4145 0fd3 52030000 		.4byte	.LASF249
 4146 0fd7 01       		.byte	0x1
 4147 0fd8 0802     		.2byte	0x208
 4148 0fda B5000000 		.4byte	0xb5
 4149 0fde 02       		.uleb128 0x2
 4150 0fdf 91       		.byte	0x91
 4151 0fe0 48       		.sleb128 -56
 4152 0fe1 00       		.byte	0
 4153 0fe2 00       		.byte	0
 4154 0fe3 00       		.byte	0
 4155 0fe4 0B       		.uleb128 0xb
 4156 0fe5 04       		.byte	0x4
 4157 0fe6 310A0000 		.4byte	0xa31
 4158 0fea 0C       		.uleb128 0xc
 4159 0feb E40F0000 		.4byte	0xfe4
 4160 0fef 0B       		.uleb128 0xb
 4161 0ff0 04       		.byte	0x4
 4162 0ff1 610A0000 		.4byte	0xa61
 4163 0ff5 1B       		.uleb128 0x1b
 4164 0ff6 09070000 		.4byte	.LASF250
 4165 0ffa 01       		.byte	0x1
 4166 0ffb 2602     		.2byte	0x226
 4167 0ffd D2000000 		.4byte	0xd2
 4168 1001 00000000 		.4byte	.LFB9
 4169 1005 A0000000 		.4byte	.LFE9-.LFB9
 4170 1009 01       		.uleb128 0x1
 4171 100a 9C       		.byte	0x9c
 4172 100b 4C100000 		.4byte	0x104c
 4173 100f 1C       		.uleb128 0x1c
 4174 1010 200A0000 		.4byte	.LASF251
 4175 1014 01       		.byte	0x1
 4176 1015 2602     		.2byte	0x226
 4177 1017 A5000000 		.4byte	0xa5
 4178 101b 02       		.uleb128 0x2
 4179 101c 91       		.byte	0x91
 4180 101d 6C       		.sleb128 -20
 4181 101e 1C       		.uleb128 0x1c
 4182 101f 84080000 		.4byte	.LASF252
 4183 1023 01       		.byte	0x1
 4184 1024 2602     		.2byte	0x226
 4185 1026 8D0E0000 		.4byte	0xe8d
 4186 102a 02       		.uleb128 0x2
 4187 102b 91       		.byte	0x91
 4188 102c 68       		.sleb128 -24
 4189 102d 1A       		.uleb128 0x1a
 4190 102e 6C020000 		.4byte	.LASF253
ARM GAS  C:\Users\13740\AppData\Local\Temp\cctWuNXI.s 			page 85


 4191 1032 01       		.byte	0x1
 4192 1033 2802     		.2byte	0x228
 4193 1035 DD000000 		.4byte	0xdd
 4194 1039 02       		.uleb128 0x2
 4195 103a 91       		.byte	0x91
 4196 103b 74       		.sleb128 -12
 4197 103c 1A       		.uleb128 0x1a
 4198 103d 35060000 		.4byte	.LASF254
 4199 1041 01       		.byte	0x1
 4200 1042 2902     		.2byte	0x229
 4201 1044 DD000000 		.4byte	0xdd
 4202 1048 02       		.uleb128 0x2
 4203 1049 91       		.byte	0x91
 4204 104a 70       		.sleb128 -16
 4205 104b 00       		.byte	0
 4206 104c 1E       		.uleb128 0x1e
 4207 104d 91070000 		.4byte	.LASF259
 4208 1051 01       		.byte	0x1
 4209 1052 1E       		.byte	0x1e
 4210 1053 560C0000 		.4byte	0xc56
 4211 1057 05       		.uleb128 0x5
 4212 1058 03       		.byte	0x3
 4213 1059 00000000 		.4byte	AppIMPCfg
 4214 105d 00       		.byte	0
 4215              		.section	.debug_abbrev,"",%progbits
 4216              	.Ldebug_abbrev0:
 4217 0000 01       		.uleb128 0x1
 4218 0001 11       		.uleb128 0x11
 4219 0002 01       		.byte	0x1
 4220 0003 25       		.uleb128 0x25
 4221 0004 0E       		.uleb128 0xe
 4222 0005 13       		.uleb128 0x13
 4223 0006 0B       		.uleb128 0xb
 4224 0007 03       		.uleb128 0x3
 4225 0008 0E       		.uleb128 0xe
 4226 0009 1B       		.uleb128 0x1b
 4227 000a 0E       		.uleb128 0xe
 4228 000b 55       		.uleb128 0x55
 4229 000c 17       		.uleb128 0x17
 4230 000d 11       		.uleb128 0x11
 4231 000e 01       		.uleb128 0x1
 4232 000f 10       		.uleb128 0x10
 4233 0010 17       		.uleb128 0x17
 4234 0011 00       		.byte	0
 4235 0012 00       		.byte	0
 4236 0013 02       		.uleb128 0x2
 4237 0014 24       		.uleb128 0x24
 4238 0015 00       		.byte	0
 4239 0016 0B       		.uleb128 0xb
 4240 0017 0B       		.uleb128 0xb
 4241 0018 3E       		.uleb128 0x3e
 4242 0019 0B       		.uleb128 0xb
 4243 001a 03       		.uleb128 0x3
 4244 001b 08       		.uleb128 0x8
 4245 001c 00       		.byte	0
 4246 001d 00       		.byte	0
 4247 001e 03       		.uleb128 0x3
ARM GAS  C:\Users\13740\AppData\Local\Temp\cctWuNXI.s 			page 86


 4248 001f 24       		.uleb128 0x24
 4249 0020 00       		.byte	0
 4250 0021 0B       		.uleb128 0xb
 4251 0022 0B       		.uleb128 0xb
 4252 0023 3E       		.uleb128 0x3e
 4253 0024 0B       		.uleb128 0xb
 4254 0025 03       		.uleb128 0x3
 4255 0026 0E       		.uleb128 0xe
 4256 0027 00       		.byte	0
 4257 0028 00       		.byte	0
 4258 0029 04       		.uleb128 0x4
 4259 002a 16       		.uleb128 0x16
 4260 002b 00       		.byte	0
 4261 002c 03       		.uleb128 0x3
 4262 002d 0E       		.uleb128 0xe
 4263 002e 3A       		.uleb128 0x3a
 4264 002f 0B       		.uleb128 0xb
 4265 0030 3B       		.uleb128 0x3b
 4266 0031 0B       		.uleb128 0xb
 4267 0032 49       		.uleb128 0x49
 4268 0033 13       		.uleb128 0x13
 4269 0034 00       		.byte	0
 4270 0035 00       		.byte	0
 4271 0036 05       		.uleb128 0x5
 4272 0037 0F       		.uleb128 0xf
 4273 0038 00       		.byte	0
 4274 0039 0B       		.uleb128 0xb
 4275 003a 0B       		.uleb128 0xb
 4276 003b 00       		.byte	0
 4277 003c 00       		.byte	0
 4278 003d 06       		.uleb128 0x6
 4279 003e 16       		.uleb128 0x16
 4280 003f 00       		.byte	0
 4281 0040 03       		.uleb128 0x3
 4282 0041 0E       		.uleb128 0xe
 4283 0042 3A       		.uleb128 0x3a
 4284 0043 0B       		.uleb128 0xb
 4285 0044 3B       		.uleb128 0x3b
 4286 0045 05       		.uleb128 0x5
 4287 0046 49       		.uleb128 0x49
 4288 0047 13       		.uleb128 0x13
 4289 0048 00       		.byte	0
 4290 0049 00       		.byte	0
 4291 004a 07       		.uleb128 0x7
 4292 004b 04       		.uleb128 0x4
 4293 004c 01       		.byte	0x1
 4294 004d 0B       		.uleb128 0xb
 4295 004e 0B       		.uleb128 0xb
 4296 004f 49       		.uleb128 0x49
 4297 0050 13       		.uleb128 0x13
 4298 0051 3A       		.uleb128 0x3a
 4299 0052 0B       		.uleb128 0xb
 4300 0053 3B       		.uleb128 0x3b
 4301 0054 05       		.uleb128 0x5
 4302 0055 01       		.uleb128 0x1
 4303 0056 13       		.uleb128 0x13
 4304 0057 00       		.byte	0
ARM GAS  C:\Users\13740\AppData\Local\Temp\cctWuNXI.s 			page 87


 4305 0058 00       		.byte	0
 4306 0059 08       		.uleb128 0x8
 4307 005a 28       		.uleb128 0x28
 4308 005b 00       		.byte	0
 4309 005c 03       		.uleb128 0x3
 4310 005d 0E       		.uleb128 0xe
 4311 005e 1C       		.uleb128 0x1c
 4312 005f 0B       		.uleb128 0xb
 4313 0060 00       		.byte	0
 4314 0061 00       		.byte	0
 4315 0062 09       		.uleb128 0x9
 4316 0063 13       		.uleb128 0x13
 4317 0064 01       		.byte	0x1
 4318 0065 0B       		.uleb128 0xb
 4319 0066 0B       		.uleb128 0xb
 4320 0067 3A       		.uleb128 0x3a
 4321 0068 0B       		.uleb128 0xb
 4322 0069 3B       		.uleb128 0x3b
 4323 006a 05       		.uleb128 0x5
 4324 006b 01       		.uleb128 0x1
 4325 006c 13       		.uleb128 0x13
 4326 006d 00       		.byte	0
 4327 006e 00       		.byte	0
 4328 006f 0A       		.uleb128 0xa
 4329 0070 0D       		.uleb128 0xd
 4330 0071 00       		.byte	0
 4331 0072 03       		.uleb128 0x3
 4332 0073 0E       		.uleb128 0xe
 4333 0074 3A       		.uleb128 0x3a
 4334 0075 0B       		.uleb128 0xb
 4335 0076 3B       		.uleb128 0x3b
 4336 0077 05       		.uleb128 0x5
 4337 0078 49       		.uleb128 0x49
 4338 0079 13       		.uleb128 0x13
 4339 007a 38       		.uleb128 0x38
 4340 007b 0B       		.uleb128 0xb
 4341 007c 00       		.byte	0
 4342 007d 00       		.byte	0
 4343 007e 0B       		.uleb128 0xb
 4344 007f 0F       		.uleb128 0xf
 4345 0080 00       		.byte	0
 4346 0081 0B       		.uleb128 0xb
 4347 0082 0B       		.uleb128 0xb
 4348 0083 49       		.uleb128 0x49
 4349 0084 13       		.uleb128 0x13
 4350 0085 00       		.byte	0
 4351 0086 00       		.byte	0
 4352 0087 0C       		.uleb128 0xc
 4353 0088 26       		.uleb128 0x26
 4354 0089 00       		.byte	0
 4355 008a 49       		.uleb128 0x49
 4356 008b 13       		.uleb128 0x13
 4357 008c 00       		.byte	0
 4358 008d 00       		.byte	0
 4359 008e 0D       		.uleb128 0xd
 4360 008f 01       		.uleb128 0x1
 4361 0090 01       		.byte	0x1
ARM GAS  C:\Users\13740\AppData\Local\Temp\cctWuNXI.s 			page 88


 4362 0091 49       		.uleb128 0x49
 4363 0092 13       		.uleb128 0x13
 4364 0093 01       		.uleb128 0x1
 4365 0094 13       		.uleb128 0x13
 4366 0095 00       		.byte	0
 4367 0096 00       		.byte	0
 4368 0097 0E       		.uleb128 0xe
 4369 0098 21       		.uleb128 0x21
 4370 0099 00       		.byte	0
 4371 009a 49       		.uleb128 0x49
 4372 009b 13       		.uleb128 0x13
 4373 009c 2F       		.uleb128 0x2f
 4374 009d 0B       		.uleb128 0xb
 4375 009e 00       		.byte	0
 4376 009f 00       		.byte	0
 4377 00a0 0F       		.uleb128 0xf
 4378 00a1 13       		.uleb128 0x13
 4379 00a2 01       		.byte	0x1
 4380 00a3 0B       		.uleb128 0xb
 4381 00a4 0B       		.uleb128 0xb
 4382 00a5 3A       		.uleb128 0x3a
 4383 00a6 0B       		.uleb128 0xb
 4384 00a7 3B       		.uleb128 0x3b
 4385 00a8 0B       		.uleb128 0xb
 4386 00a9 01       		.uleb128 0x1
 4387 00aa 13       		.uleb128 0x13
 4388 00ab 00       		.byte	0
 4389 00ac 00       		.byte	0
 4390 00ad 10       		.uleb128 0x10
 4391 00ae 0D       		.uleb128 0xd
 4392 00af 00       		.byte	0
 4393 00b0 03       		.uleb128 0x3
 4394 00b1 0E       		.uleb128 0xe
 4395 00b2 3A       		.uleb128 0x3a
 4396 00b3 0B       		.uleb128 0xb
 4397 00b4 3B       		.uleb128 0x3b
 4398 00b5 0B       		.uleb128 0xb
 4399 00b6 49       		.uleb128 0x49
 4400 00b7 13       		.uleb128 0x13
 4401 00b8 38       		.uleb128 0x38
 4402 00b9 0B       		.uleb128 0xb
 4403 00ba 00       		.byte	0
 4404 00bb 00       		.byte	0
 4405 00bc 11       		.uleb128 0x11
 4406 00bd 2E       		.uleb128 0x2e
 4407 00be 01       		.byte	0x1
 4408 00bf 3F       		.uleb128 0x3f
 4409 00c0 19       		.uleb128 0x19
 4410 00c1 03       		.uleb128 0x3
 4411 00c2 0E       		.uleb128 0xe
 4412 00c3 3A       		.uleb128 0x3a
 4413 00c4 0B       		.uleb128 0xb
 4414 00c5 3B       		.uleb128 0x3b
 4415 00c6 0B       		.uleb128 0xb
 4416 00c7 27       		.uleb128 0x27
 4417 00c8 19       		.uleb128 0x19
 4418 00c9 49       		.uleb128 0x49
ARM GAS  C:\Users\13740\AppData\Local\Temp\cctWuNXI.s 			page 89


 4419 00ca 13       		.uleb128 0x13
 4420 00cb 11       		.uleb128 0x11
 4421 00cc 01       		.uleb128 0x1
 4422 00cd 12       		.uleb128 0x12
 4423 00ce 06       		.uleb128 0x6
 4424 00cf 40       		.uleb128 0x40
 4425 00d0 18       		.uleb128 0x18
 4426 00d1 9742     		.uleb128 0x2117
 4427 00d3 19       		.uleb128 0x19
 4428 00d4 01       		.uleb128 0x1
 4429 00d5 13       		.uleb128 0x13
 4430 00d6 00       		.byte	0
 4431 00d7 00       		.byte	0
 4432 00d8 12       		.uleb128 0x12
 4433 00d9 05       		.uleb128 0x5
 4434 00da 00       		.byte	0
 4435 00db 03       		.uleb128 0x3
 4436 00dc 0E       		.uleb128 0xe
 4437 00dd 3A       		.uleb128 0x3a
 4438 00de 0B       		.uleb128 0xb
 4439 00df 3B       		.uleb128 0x3b
 4440 00e0 0B       		.uleb128 0xb
 4441 00e1 49       		.uleb128 0x49
 4442 00e2 13       		.uleb128 0x13
 4443 00e3 02       		.uleb128 0x2
 4444 00e4 18       		.uleb128 0x18
 4445 00e5 00       		.byte	0
 4446 00e6 00       		.byte	0
 4447 00e7 13       		.uleb128 0x13
 4448 00e8 2E       		.uleb128 0x2e
 4449 00e9 01       		.byte	0x1
 4450 00ea 3F       		.uleb128 0x3f
 4451 00eb 19       		.uleb128 0x19
 4452 00ec 03       		.uleb128 0x3
 4453 00ed 0E       		.uleb128 0xe
 4454 00ee 3A       		.uleb128 0x3a
 4455 00ef 0B       		.uleb128 0xb
 4456 00f0 3B       		.uleb128 0x3b
 4457 00f1 0B       		.uleb128 0xb
 4458 00f2 27       		.uleb128 0x27
 4459 00f3 19       		.uleb128 0x19
 4460 00f4 49       		.uleb128 0x49
 4461 00f5 13       		.uleb128 0x13
 4462 00f6 11       		.uleb128 0x11
 4463 00f7 01       		.uleb128 0x1
 4464 00f8 12       		.uleb128 0x12
 4465 00f9 06       		.uleb128 0x6
 4466 00fa 40       		.uleb128 0x40
 4467 00fb 18       		.uleb128 0x18
 4468 00fc 9642     		.uleb128 0x2116
 4469 00fe 19       		.uleb128 0x19
 4470 00ff 01       		.uleb128 0x1
 4471 0100 13       		.uleb128 0x13
 4472 0101 00       		.byte	0
 4473 0102 00       		.byte	0
 4474 0103 14       		.uleb128 0x14
 4475 0104 0B       		.uleb128 0xb
ARM GAS  C:\Users\13740\AppData\Local\Temp\cctWuNXI.s 			page 90


 4476 0105 01       		.byte	0x1
 4477 0106 11       		.uleb128 0x11
 4478 0107 01       		.uleb128 0x1
 4479 0108 12       		.uleb128 0x12
 4480 0109 06       		.uleb128 0x6
 4481 010a 01       		.uleb128 0x1
 4482 010b 13       		.uleb128 0x13
 4483 010c 00       		.byte	0
 4484 010d 00       		.byte	0
 4485 010e 15       		.uleb128 0x15
 4486 010f 34       		.uleb128 0x34
 4487 0110 00       		.byte	0
 4488 0111 03       		.uleb128 0x3
 4489 0112 0E       		.uleb128 0xe
 4490 0113 3A       		.uleb128 0x3a
 4491 0114 0B       		.uleb128 0xb
 4492 0115 3B       		.uleb128 0x3b
 4493 0116 0B       		.uleb128 0xb
 4494 0117 49       		.uleb128 0x49
 4495 0118 13       		.uleb128 0x13
 4496 0119 02       		.uleb128 0x2
 4497 011a 18       		.uleb128 0x18
 4498 011b 00       		.byte	0
 4499 011c 00       		.byte	0
 4500 011d 16       		.uleb128 0x16
 4501 011e 0B       		.uleb128 0xb
 4502 011f 01       		.byte	0x1
 4503 0120 11       		.uleb128 0x11
 4504 0121 01       		.uleb128 0x1
 4505 0122 12       		.uleb128 0x12
 4506 0123 06       		.uleb128 0x6
 4507 0124 00       		.byte	0
 4508 0125 00       		.byte	0
 4509 0126 17       		.uleb128 0x17
 4510 0127 2E       		.uleb128 0x2e
 4511 0128 00       		.byte	0
 4512 0129 3F       		.uleb128 0x3f
 4513 012a 19       		.uleb128 0x19
 4514 012b 03       		.uleb128 0x3
 4515 012c 0E       		.uleb128 0xe
 4516 012d 3A       		.uleb128 0x3a
 4517 012e 0B       		.uleb128 0xb
 4518 012f 3B       		.uleb128 0x3b
 4519 0130 0B       		.uleb128 0xb
 4520 0131 27       		.uleb128 0x27
 4521 0132 19       		.uleb128 0x19
 4522 0133 49       		.uleb128 0x49
 4523 0134 13       		.uleb128 0x13
 4524 0135 11       		.uleb128 0x11
 4525 0136 01       		.uleb128 0x1
 4526 0137 12       		.uleb128 0x12
 4527 0138 06       		.uleb128 0x6
 4528 0139 40       		.uleb128 0x40
 4529 013a 18       		.uleb128 0x18
 4530 013b 9742     		.uleb128 0x2117
 4531 013d 19       		.uleb128 0x19
 4532 013e 00       		.byte	0
ARM GAS  C:\Users\13740\AppData\Local\Temp\cctWuNXI.s 			page 91


 4533 013f 00       		.byte	0
 4534 0140 18       		.uleb128 0x18
 4535 0141 2E       		.uleb128 0x2e
 4536 0142 01       		.byte	0x1
 4537 0143 03       		.uleb128 0x3
 4538 0144 0E       		.uleb128 0xe
 4539 0145 3A       		.uleb128 0x3a
 4540 0146 0B       		.uleb128 0xb
 4541 0147 3B       		.uleb128 0x3b
 4542 0148 0B       		.uleb128 0xb
 4543 0149 27       		.uleb128 0x27
 4544 014a 19       		.uleb128 0x19
 4545 014b 49       		.uleb128 0x49
 4546 014c 13       		.uleb128 0x13
 4547 014d 11       		.uleb128 0x11
 4548 014e 01       		.uleb128 0x1
 4549 014f 12       		.uleb128 0x12
 4550 0150 06       		.uleb128 0x6
 4551 0151 40       		.uleb128 0x40
 4552 0152 18       		.uleb128 0x18
 4553 0153 9642     		.uleb128 0x2116
 4554 0155 19       		.uleb128 0x19
 4555 0156 01       		.uleb128 0x1
 4556 0157 13       		.uleb128 0x13
 4557 0158 00       		.byte	0
 4558 0159 00       		.byte	0
 4559 015a 19       		.uleb128 0x19
 4560 015b 2E       		.uleb128 0x2e
 4561 015c 01       		.byte	0x1
 4562 015d 03       		.uleb128 0x3
 4563 015e 0E       		.uleb128 0xe
 4564 015f 3A       		.uleb128 0x3a
 4565 0160 0B       		.uleb128 0xb
 4566 0161 3B       		.uleb128 0x3b
 4567 0162 05       		.uleb128 0x5
 4568 0163 27       		.uleb128 0x27
 4569 0164 19       		.uleb128 0x19
 4570 0165 49       		.uleb128 0x49
 4571 0166 13       		.uleb128 0x13
 4572 0167 11       		.uleb128 0x11
 4573 0168 01       		.uleb128 0x1
 4574 0169 12       		.uleb128 0x12
 4575 016a 06       		.uleb128 0x6
 4576 016b 40       		.uleb128 0x40
 4577 016c 18       		.uleb128 0x18
 4578 016d 9642     		.uleb128 0x2116
 4579 016f 19       		.uleb128 0x19
 4580 0170 01       		.uleb128 0x1
 4581 0171 13       		.uleb128 0x13
 4582 0172 00       		.byte	0
 4583 0173 00       		.byte	0
 4584 0174 1A       		.uleb128 0x1a
 4585 0175 34       		.uleb128 0x34
 4586 0176 00       		.byte	0
 4587 0177 03       		.uleb128 0x3
 4588 0178 0E       		.uleb128 0xe
 4589 0179 3A       		.uleb128 0x3a
ARM GAS  C:\Users\13740\AppData\Local\Temp\cctWuNXI.s 			page 92


 4590 017a 0B       		.uleb128 0xb
 4591 017b 3B       		.uleb128 0x3b
 4592 017c 05       		.uleb128 0x5
 4593 017d 49       		.uleb128 0x49
 4594 017e 13       		.uleb128 0x13
 4595 017f 02       		.uleb128 0x2
 4596 0180 18       		.uleb128 0x18
 4597 0181 00       		.byte	0
 4598 0182 00       		.byte	0
 4599 0183 1B       		.uleb128 0x1b
 4600 0184 2E       		.uleb128 0x2e
 4601 0185 01       		.byte	0x1
 4602 0186 3F       		.uleb128 0x3f
 4603 0187 19       		.uleb128 0x19
 4604 0188 03       		.uleb128 0x3
 4605 0189 0E       		.uleb128 0xe
 4606 018a 3A       		.uleb128 0x3a
 4607 018b 0B       		.uleb128 0xb
 4608 018c 3B       		.uleb128 0x3b
 4609 018d 05       		.uleb128 0x5
 4610 018e 27       		.uleb128 0x27
 4611 018f 19       		.uleb128 0x19
 4612 0190 49       		.uleb128 0x49
 4613 0191 13       		.uleb128 0x13
 4614 0192 11       		.uleb128 0x11
 4615 0193 01       		.uleb128 0x1
 4616 0194 12       		.uleb128 0x12
 4617 0195 06       		.uleb128 0x6
 4618 0196 40       		.uleb128 0x40
 4619 0197 18       		.uleb128 0x18
 4620 0198 9642     		.uleb128 0x2116
 4621 019a 19       		.uleb128 0x19
 4622 019b 01       		.uleb128 0x1
 4623 019c 13       		.uleb128 0x13
 4624 019d 00       		.byte	0
 4625 019e 00       		.byte	0
 4626 019f 1C       		.uleb128 0x1c
 4627 01a0 05       		.uleb128 0x5
 4628 01a1 00       		.byte	0
 4629 01a2 03       		.uleb128 0x3
 4630 01a3 0E       		.uleb128 0xe
 4631 01a4 3A       		.uleb128 0x3a
 4632 01a5 0B       		.uleb128 0xb
 4633 01a6 3B       		.uleb128 0x3b
 4634 01a7 05       		.uleb128 0x5
 4635 01a8 49       		.uleb128 0x49
 4636 01a9 13       		.uleb128 0x13
 4637 01aa 02       		.uleb128 0x2
 4638 01ab 18       		.uleb128 0x18
 4639 01ac 00       		.byte	0
 4640 01ad 00       		.byte	0
 4641 01ae 1D       		.uleb128 0x1d
 4642 01af 34       		.uleb128 0x34
 4643 01b0 00       		.byte	0
 4644 01b1 03       		.uleb128 0x3
 4645 01b2 08       		.uleb128 0x8
 4646 01b3 3A       		.uleb128 0x3a
ARM GAS  C:\Users\13740\AppData\Local\Temp\cctWuNXI.s 			page 93


 4647 01b4 0B       		.uleb128 0xb
 4648 01b5 3B       		.uleb128 0x3b
 4649 01b6 05       		.uleb128 0x5
 4650 01b7 49       		.uleb128 0x49
 4651 01b8 13       		.uleb128 0x13
 4652 01b9 02       		.uleb128 0x2
 4653 01ba 18       		.uleb128 0x18
 4654 01bb 00       		.byte	0
 4655 01bc 00       		.byte	0
 4656 01bd 1E       		.uleb128 0x1e
 4657 01be 34       		.uleb128 0x34
 4658 01bf 00       		.byte	0
 4659 01c0 03       		.uleb128 0x3
 4660 01c1 0E       		.uleb128 0xe
 4661 01c2 3A       		.uleb128 0x3a
 4662 01c3 0B       		.uleb128 0xb
 4663 01c4 3B       		.uleb128 0x3b
 4664 01c5 0B       		.uleb128 0xb
 4665 01c6 49       		.uleb128 0x49
 4666 01c7 13       		.uleb128 0x13
 4667 01c8 3F       		.uleb128 0x3f
 4668 01c9 19       		.uleb128 0x19
 4669 01ca 02       		.uleb128 0x2
 4670 01cb 18       		.uleb128 0x18
 4671 01cc 00       		.byte	0
 4672 01cd 00       		.byte	0
 4673 01ce 00       		.byte	0
 4674              		.section	.debug_aranges,"",%progbits
 4675 0000 5C000000 		.4byte	0x5c
 4676 0004 0200     		.2byte	0x2
 4677 0006 00000000 		.4byte	.Ldebug_info0
 4678 000a 04       		.byte	0x4
 4679 000b 00       		.byte	0
 4680 000c 0000     		.2byte	0
 4681 000e 0000     		.2byte	0
 4682 0010 00000000 		.4byte	.LFB1
 4683 0014 28000000 		.4byte	.LFE1-.LFB1
 4684 0018 00000000 		.4byte	.LFB2
 4685 001c 40010000 		.4byte	.LFE2-.LFB2
 4686 0020 00000000 		.4byte	.LFB3
 4687 0024 24000000 		.4byte	.LFE3-.LFB3
 4688 0028 00000000 		.4byte	.LFB4
 4689 002c 4C040000 		.4byte	.LFE4-.LFB4
 4690 0030 00000000 		.4byte	.LFB5
 4691 0034 EC010000 		.4byte	.LFE5-.LFB5
 4692 0038 00000000 		.4byte	.LFB6
 4693 003c 94010000 		.4byte	.LFE6-.LFB6
 4694 0040 00000000 		.4byte	.LFB7
 4695 0044 7C000000 		.4byte	.LFE7-.LFB7
 4696 0048 00000000 		.4byte	.LFB8
 4697 004c 98020000 		.4byte	.LFE8-.LFB8
 4698 0050 00000000 		.4byte	.LFB9
 4699 0054 A0000000 		.4byte	.LFE9-.LFB9
 4700 0058 00000000 		.4byte	0
 4701 005c 00000000 		.4byte	0
 4702              		.section	.debug_ranges,"",%progbits
 4703              	.Ldebug_ranges0:
ARM GAS  C:\Users\13740\AppData\Local\Temp\cctWuNXI.s 			page 94


 4704 0000 00000000 		.4byte	.LFB1
 4705 0004 28000000 		.4byte	.LFE1
 4706 0008 00000000 		.4byte	.LFB2
 4707 000c 40010000 		.4byte	.LFE2
 4708 0010 00000000 		.4byte	.LFB3
 4709 0014 24000000 		.4byte	.LFE3
 4710 0018 00000000 		.4byte	.LFB4
 4711 001c 4C040000 		.4byte	.LFE4
 4712 0020 00000000 		.4byte	.LFB5
 4713 0024 EC010000 		.4byte	.LFE5
 4714 0028 00000000 		.4byte	.LFB6
 4715 002c 94010000 		.4byte	.LFE6
 4716 0030 00000000 		.4byte	.LFB7
 4717 0034 7C000000 		.4byte	.LFE7
 4718 0038 00000000 		.4byte	.LFB8
 4719 003c 98020000 		.4byte	.LFE8
 4720 0040 00000000 		.4byte	.LFB9
 4721 0044 A0000000 		.4byte	.LFE9
 4722 0048 00000000 		.4byte	0
 4723 004c 00000000 		.4byte	0
 4724              		.section	.debug_line,"",%progbits
 4725              	.Ldebug_line0:
 4726 0000 62030000 		.section	.debug_str,"MS",%progbits,1
 4726      02001401 
 4726      00000201 
 4726      FB0E0D00 
 4726      01010101 
 4727              	.LASF85:
 4728 0000 48734461 		.ascii	"HsDacGain\000"
 4728      63476169 
 4728      6E00
 4729              	.LASF154:
 4730 000a 53657149 		.ascii	"SeqId\000"
 4730      6400
 4731              	.LASF148:
 4732 0010 53657145 		.ascii	"SeqEnable\000"
 4732      6E61626C 
 4732      6500
 4733              	.LASF171:
 4734 001a 53776565 		.ascii	"SweepStart\000"
 4734      70537461 
 4734      727400
 4735              	.LASF88:
 4736 0025 4C706461 		.ascii	"LpdacSel\000"
 4736      6353656C 
 4736      00
 4737              	.LASF199:
 4738 002e 44616356 		.ascii	"DacVoltPP\000"
 4738      6F6C7450 
 4738      5000
 4739              	.LASF112:
 4740 0038 57475472 		.ascii	"WGTrapzSlope1\000"
 4740      61707A53 
 4740      6C6F7065 
 4740      3100
 4741              	.LASF113:
 4742 0046 57475472 		.ascii	"WGTrapzSlope2\000"
ARM GAS  C:\Users\13740\AppData\Local\Temp\cctWuNXI.s 			page 95


 4742      61707A53 
 4742      6C6F7065 
 4742      3200
 4743              	.LASF122:
 4744 0054 4F666673 		.ascii	"OffsetCalEn\000"
 4744      65744361 
 4744      6C456E00 
 4745              	.LASF84:
 4746 0060 45786369 		.ascii	"ExcitBufGain\000"
 4746      74427566 
 4746      4761696E 
 4746      00
 4747              	.LASF232:
 4748 006d 41707049 		.ascii	"AppIMPInit\000"
 4748      4D50496E 
 4748      697400
 4749              	.LASF110:
 4750 0078 57475472 		.ascii	"WGTrapzDelay1\000"
 4750      61707A44 
 4750      656C6179 
 4750      3100
 4751              	.LASF111:
 4752 0086 57475472 		.ascii	"WGTrapzDelay2\000"
 4752      61707A44 
 4752      656C6179 
 4752      3200
 4753              	.LASF26:
 4754 0094 48704261 		.ascii	"HpBandgapEn\000"
 4754      6E646761 
 4754      70456E00 
 4755              	.LASF212:
 4756 00a0 4669666F 		.ascii	"FifoDataCount\000"
 4756      44617461 
 4756      436F756E 
 4756      7400
 4757              	.LASF66:
 4758 00ae 53746174 		.ascii	"StatSample\000"
 4758      53616D70 
 4758      6C6500
 4759              	.LASF115:
 4760 00b9 53696E46 		.ascii	"SinFreqWord\000"
 4760      72657157 
 4760      6F726400 
 4761              	.LASF225:
 4762 00c5 73696E5F 		.ascii	"sin_freq\000"
 4762      66726571 
 4762      00
 4763              	.LASF0:
 4764 00ce 756E7369 		.ascii	"unsigned int\000"
 4764      676E6564 
 4764      20696E74 
 4764      00
 4765              	.LASF140:
 4766 00db 44535043 		.ascii	"DSPCfg_Type\000"
 4766      66675F54 
 4766      79706500 
 4767              	.LASF47:
ARM GAS  C:\Users\13740\AppData\Local\Temp\cctWuNXI.s 			page 96


 4768 00e7 41444352 		.ascii	"ADCRate\000"
 4768      61746500 
 4769              	.LASF97:
 4770 00ef 44616344 		.ascii	"DacData6Bit\000"
 4770      61746136 
 4770      42697400 
 4771              	.LASF9:
 4772 00fb 5F5F696E 		.ascii	"__int32_t\000"
 4772      7433325F 
 4772      7400
 4773              	.LASF102:
 4774 0105 4C705469 		.ascii	"LpTiaRtia\000"
 4774      61527469 
 4774      6100
 4775              	.LASF174:
 4776 010f 53776565 		.ascii	"SweepLog\000"
 4776      704C6F67 
 4776      00
 4777              	.LASF258:
 4778 0118 41707049 		.ascii	"AppIMPGetCurrFreq\000"
 4778      4D504765 
 4778      74437572 
 4778      72467265 
 4778      7100
 4779              	.LASF207:
 4780 012a 46726571 		.ascii	"FreqofData\000"
 4780      6F664461 
 4780      746100
 4781              	.LASF255:
 4782 0135 474E5520 		.ascii	"GNU C11 5.4.1 20160609 (release) [ARM/embedded-5-br"
 4782      43313120 
 4782      352E342E 
 4782      31203230 
 4782      31363036 
 4783 0168 616E6368 		.ascii	"anch revision 237715] -mcpu=cortex-m0 -mthumb -g -O"
 4783      20726576 
 4783      6973696F 
 4783      6E203233 
 4783      37373135 
 4784 019b 30202D66 		.ascii	"0 -ffunction-sections -ffat-lto-objects\000"
 4784      66756E63 
 4784      74696F6E 
 4784      2D736563 
 4784      74696F6E 
 4785              	.LASF100:
 4786 01c3 4C705469 		.ascii	"LpTiaRf\000"
 4786      61526600 
 4787              	.LASF221:
 4788 01cb 6C705F6C 		.ascii	"lp_loop\000"
 4788      6F6F7000 
 4789              	.LASF209:
 4790 01d3 496E6974 		.ascii	"InitSeqInfo\000"
 4790      53657149 
 4790      6E666F00 
 4791              	.LASF233:
 4792 01df 70427566 		.ascii	"pBuffer\000"
 4792      66657200 
ARM GAS  C:\Users\13740\AppData\Local\Temp\cctWuNXI.s 			page 97


 4793              	.LASF114:
 4794 01e7 57475472 		.ascii	"WGTrapzCfg_Type\000"
 4794      61707A43 
 4794      66675F54 
 4794      79706500 
 4795              	.LASF137:
 4796 01f7 41444344 		.ascii	"ADCDigCompCfg\000"
 4796      6967436F 
 4796      6D704366 
 4796      6700
 4797              	.LASF143:
 4798 0205 4649464F 		.ascii	"FIFOSize\000"
 4798      53697A65 
 4798      00
 4799              	.LASF242:
 4800 020e 704F7574 		.ascii	"pOut\000"
 4800      00
 4801              	.LASF74:
 4802 0213 48737469 		.ascii	"HstiaBias\000"
 4802      61426961 
 4802      7300
 4803              	.LASF222:
 4804 021d 6572726F 		.ascii	"error\000"
 4804      7200
 4805              	.LASF46:
 4806 0223 41444341 		.ascii	"ADCAvgNum\000"
 4806      76674E75 
 4806      6D00
 4807              	.LASF99:
 4808 022d 4C70416D 		.ascii	"LpAmpSel\000"
 4808      7053656C 
 4808      00
 4809              	.LASF198:
 4810 0236 5077724D 		.ascii	"PwrMod\000"
 4810      6F6400
 4811              	.LASF150:
 4812 023d 53657149 		.ascii	"SeqIgnoreEn\000"
 4812      676E6F72 
 4812      65456E00 
 4813              	.LASF215:
 4814 0249 41707049 		.ascii	"AppIMPCtrl\000"
 4814      4D504374 
 4814      726C00
 4815              	.LASF153:
 4816 0254 53455143 		.ascii	"SEQCfg_Type\000"
 4816      66675F54 
 4816      79706500 
 4817              	.LASF59:
 4818 0260 44465443 		.ascii	"DFTCfg_Type\000"
 4818      66675F54 
 4818      79706500 
 4819              	.LASF253:
 4820 026c 42756666 		.ascii	"BuffCount\000"
 4820      436F756E 
 4820      7400
 4821              	.LASF188:
 4822 0276 496D704F 		.ascii	"ImpODR\000"
ARM GAS  C:\Users\13740\AppData\Local\Temp\cctWuNXI.s 			page 98


 4822      445200
 4823              	.LASF33:
 4824 027d 4C705265 		.ascii	"LpRefBoostEn\000"
 4824      66426F6F 
 4824      7374456E 
 4824      00
 4825              	.LASF107:
 4826 028a 4C50416D 		.ascii	"LPAmpCfg_Type\000"
 4826      70436667 
 4826      5F547970 
 4826      6500
 4827              	.LASF191:
 4828 0298 53797343 		.ascii	"SysClkFreq\000"
 4828      6C6B4672 
 4828      657100
 4829              	.LASF178:
 4830 02a3 50686173 		.ascii	"Phase\000"
 4830      6500
 4831              	.LASF90:
 4832 02a9 4C704461 		.ascii	"LpDacVzeroMux\000"
 4832      63567A65 
 4832      726F4D75 
 4832      7800
 4833              	.LASF21:
 4834 02b7 75696E74 		.ascii	"uint32_t\000"
 4834      33325F74 
 4834      00
 4835              	.LASF220:
 4836 02c0 61666572 		.ascii	"aferef_cfg\000"
 4836      65665F63 
 4836      666700
 4837              	.LASF219:
 4838 02cb 77757074 		.ascii	"wupt_cfg\000"
 4838      5F636667 
 4838      00
 4839              	.LASF120:
 4840 02d4 57675479 		.ascii	"WgType\000"
 4840      706500
 4841              	.LASF54:
 4842 02db 5747436C 		.ascii	"WGClkEnable\000"
 4842      6B456E61 
 4842      626C6500 
 4843              	.LASF118:
 4844 02e7 53696E50 		.ascii	"SinPhaseWord\000"
 4844      68617365 
 4844      576F7264 
 4844      00
 4845              	.LASF17:
 4846 02f4 666C6F61 		.ascii	"float\000"
 4846      7400
 4847              	.LASF127:
 4848 02fa 53574D61 		.ascii	"SWMatCfg\000"
 4848      74436667 
 4848      00
 4849              	.LASF44:
 4850 0303 41444353 		.ascii	"ADCSinc3Osr\000"
 4850      696E6333 
ARM GAS  C:\Users\13740\AppData\Local\Temp\cctWuNXI.s 			page 99


 4850      4F737200 
 4851              	.LASF35:
 4852 030f 48703156 		.ascii	"Hp1V8ThemBuff\000"
 4852      38546865 
 4852      6D427566 
 4852      6600
 4853              	.LASF183:
 4854 031d 62506172 		.ascii	"bParaChanged\000"
 4854      61436861 
 4854      6E676564 
 4854      00
 4855              	.LASF93:
 4856 032a 4C704461 		.ascii	"LpDacRef\000"
 4856      63526566 
 4856      00
 4857              	.LASF193:
 4858 0333 5263616C 		.ascii	"RcalVal\000"
 4858      56616C00 
 4859              	.LASF13:
 4860 033b 6C6F6E67 		.ascii	"long long unsigned int\000"
 4860      206C6F6E 
 4860      6720756E 
 4860      7369676E 
 4860      65642069 
 4861              	.LASF249:
 4862 0352 5263616C 		.ascii	"RcalPhase\000"
 4862      50686173 
 4862      6500
 4863              	.LASF155:
 4864 035c 53657152 		.ascii	"SeqRamAddr\000"
 4864      616D4164 
 4864      647200
 4865              	.LASF7:
 4866 0367 5F5F7569 		.ascii	"__uint16_t\000"
 4866      6E743136 
 4866      5F7400
 4867              	.LASF134:
 4868 0372 4C504C6F 		.ascii	"LPLoopCfg_Type\000"
 4868      6F704366 
 4868      675F5479 
 4868      706500
 4869              	.LASF91:
 4870 0381 4C704461 		.ascii	"LpDacVbiasMux\000"
 4870      63566269 
 4870      61734D75 
 4870      7800
 4871              	.LASF130:
 4872 038f 48735469 		.ascii	"HsTiaCfg\000"
 4872      61436667 
 4872      00
 4873              	.LASF223:
 4874 0398 48734C6F 		.ascii	"HsLoopCfg\000"
 4874      6F704366 
 4874      6700
 4875              	.LASF71:
 4876 03a2 4E737769 		.ascii	"Nswitch\000"
 4876      74636800 
ARM GAS  C:\Users\13740\AppData\Local\Temp\cctWuNXI.s 			page 100


 4877              	.LASF147:
 4878 03aa 5365714D 		.ascii	"SeqMemSize\000"
 4878      656D5369 
 4878      7A6500
 4879              	.LASF243:
 4880 03b5 70537263 		.ascii	"pSrcData\000"
 4880      44617461 
 4880      00
 4881              	.LASF256:
 4882 03be 496D7065 		.ascii	"Impedance.c\000"
 4882      64616E63 
 4882      652E6300 
 4883              	.LASF197:
 4884 03ca 54737769 		.ascii	"TswitchSel\000"
 4884      74636853 
 4884      656C00
 4885              	.LASF131:
 4886 03d5 48534C6F 		.ascii	"HSLoopCfg_Type\000"
 4886      6F704366 
 4886      675F5479 
 4886      706500
 4887              	.LASF98:
 4888 03e4 4C504441 		.ascii	"LPDACCfg_Type\000"
 4888      43436667 
 4888      5F547970 
 4888      6500
 4889              	.LASF238:
 4890 03f2 70446174 		.ascii	"pData\000"
 4890      6100
 4891              	.LASF185:
 4892 03f8 4D617853 		.ascii	"MaxSeqLen\000"
 4892      65714C65 
 4892      6E00
 4893              	.LASF163:
 4894 0402 53657178 		.ascii	"SeqxWakeupTime\000"
 4894      57616B65 
 4894      75705469 
 4894      6D6500
 4895              	.LASF201:
 4896 0411 53696E46 		.ascii	"SinFreq\000"
 4896      72657100 
 4897              	.LASF247:
 4898 0419 527A5068 		.ascii	"RzPhase\000"
 4898      61736500 
 4899              	.LASF239:
 4900 0421 70446174 		.ascii	"pDataCount\000"
 4900      61436F75 
 4900      6E7400
 4901              	.LASF132:
 4902 042c 4C704461 		.ascii	"LpDacCfg\000"
 4902      63436667 
 4902      00
 4903              	.LASF159:
 4904 0435 53455149 		.ascii	"SEQInfo_Type\000"
 4904      6E666F5F 
 4904      54797065 
 4904      00
ARM GAS  C:\Users\13740\AppData\Local\Temp\cctWuNXI.s 			page 101


 4905              	.LASF189:
 4906 0442 4E756D4F 		.ascii	"NumOfData\000"
 4906      66446174 
 4906      6100
 4907              	.LASF55:
 4908 044c 41444346 		.ascii	"ADCFilterCfg_Type\000"
 4908      696C7465 
 4908      72436667 
 4908      5F547970 
 4908      6500
 4909              	.LASF41:
 4910 045e 4144434D 		.ascii	"ADCMuxN\000"
 4910      75784E00 
 4911              	.LASF145:
 4912 0466 4649464F 		.ascii	"FIFOThresh\000"
 4912      54687265 
 4912      736800
 4913              	.LASF40:
 4914 0471 4144434D 		.ascii	"ADCMuxP\000"
 4914      75785000 
 4915              	.LASF75:
 4916 0479 48737469 		.ascii	"HstiaRtiaSel\000"
 4916      61527469 
 4916      6153656C 
 4916      00
 4917              	.LASF241:
 4918 0486 496D7052 		.ascii	"ImpResCount\000"
 4918      6573436F 
 4918      756E7400 
 4919              	.LASF175:
 4920 0492 53776565 		.ascii	"SweepIndex\000"
 4920      70496E64 
 4920      657800
 4921              	.LASF31:
 4922 049d 4C704261 		.ascii	"LpBandgapEn\000"
 4922      6E646761 
 4922      70456E00 
 4923              	.LASF60:
 4924 04a9 4144434D 		.ascii	"ADCMin\000"
 4924      696E00
 4925              	.LASF39:
 4926 04b0 41464552 		.ascii	"AFERefCfg_Type\000"
 4926      65664366 
 4926      675F5479 
 4926      706500
 4927              	.LASF87:
 4928 04bf 48534441 		.ascii	"HSDACCfg_Type\000"
 4928      43436667 
 4928      5F547970 
 4928      6500
 4929              	.LASF101:
 4930 04cd 4C705469 		.ascii	"LpTiaRload\000"
 4930      61526C6F 
 4930      616400
 4931              	.LASF63:
 4932 04d8 4144434D 		.ascii	"ADCMaxHys\000"
 4932      61784879 
ARM GAS  C:\Users\13740\AppData\Local\Temp\cctWuNXI.s 			page 102


 4932      7300
 4933              	.LASF180:
 4934 04e2 5265616C 		.ascii	"Real\000"
 4934      00
 4935              	.LASF195:
 4936 04e7 50737769 		.ascii	"PswitchSel\000"
 4936      74636853 
 4936      656C00
 4937              	.LASF15:
 4938 04f2 63686172 		.ascii	"char\000"
 4938      00
 4939              	.LASF86:
 4940 04f7 48734461 		.ascii	"HsDacUpdateRate\000"
 4940      63557064 
 4940      61746552 
 4940      61746500 
 4941              	.LASF237:
 4942 0507 41707049 		.ascii	"AppIMPRegModify\000"
 4942      4D505265 
 4942      674D6F64 
 4942      69667900 
 4943              	.LASF244:
 4944 0517 70446674 		.ascii	"pDftRcal\000"
 4944      5263616C 
 4944      00
 4945              	.LASF144:
 4946 0520 4649464F 		.ascii	"FIFOSrc\000"
 4946      53726300 
 4947              	.LASF245:
 4948 0528 70446674 		.ascii	"pDftRz\000"
 4948      527A00
 4949              	.LASF78:
 4950 052f 44696F64 		.ascii	"DiodeClose\000"
 4950      65436C6F 
 4950      736500
 4951              	.LASF165:
 4952 053a 57555054 		.ascii	"WUPTCfg_Type\000"
 4952      4366675F 
 4952      54797065 
 4952      00
 4953              	.LASF70:
 4954 0547 50737769 		.ascii	"Pswitch\000"
 4954      74636800 
 4955              	.LASF139:
 4956 054f 53746174 		.ascii	"StatCfg\000"
 4956      43666700 
 4957              	.LASF24:
 4958 0557 62545255 		.ascii	"bTRUE\000"
 4958      4500
 4959              	.LASF173:
 4960 055d 53776565 		.ascii	"SweepPoints\000"
 4960      70506F69 
 4960      6E747300 
 4961              	.LASF53:
 4962 0569 44465443 		.ascii	"DFTClkEnable\000"
 4962      6C6B456E 
 4962      61626C65 
ARM GAS  C:\Users\13740\AppData\Local\Temp\cctWuNXI.s 			page 103


 4962      00
 4963              	.LASF42:
 4964 0576 41444350 		.ascii	"ADCPga\000"
 4964      676100
 4965              	.LASF234:
 4966 057d 42756666 		.ascii	"BufferSize\000"
 4966      65725369 
 4966      7A6500
 4967              	.LASF240:
 4968 0588 41707049 		.ascii	"AppIMPDataProcess\000"
 4968      4D504461 
 4968      74615072 
 4968      6F636573 
 4968      7300
 4969              	.LASF138:
 4970 059a 44667443 		.ascii	"DftCfg\000"
 4970      666700
 4971              	.LASF27:
 4972 05a1 48703156 		.ascii	"Hp1V8BuffEn\000"
 4972      38427566 
 4972      66456E00 
 4973              	.LASF18:
 4974 05ad 75696E74 		.ascii	"uint8_t\000"
 4974      385F7400 
 4975              	.LASF79:
 4976 05b5 48737469 		.ascii	"HstiaDeRtia\000"
 4976      61446552 
 4976      74696100 
 4977              	.LASF179:
 4978 05c1 66496D70 		.ascii	"fImpPol_Type\000"
 4978      506F6C5F 
 4978      54797065 
 4978      00
 4979              	.LASF151:
 4980 05ce 53657143 		.ascii	"SeqCntCRCClr\000"
 4980      6E744352 
 4980      43436C72 
 4980      00
 4981              	.LASF227:
 4982 05db 41707049 		.ascii	"AppIMPSeqCfgGen\000"
 4982      4D505365 
 4982      71436667 
 4982      47656E00 
 4983              	.LASF76:
 4984 05eb 45787452 		.ascii	"ExtRtia\000"
 4984      74696100 
 4985              	.LASF162:
 4986 05f3 53657178 		.ascii	"SeqxSleepTime\000"
 4986      536C6565 
 4986      7054696D 
 4986      6500
 4987              	.LASF72:
 4988 0601 54737769 		.ascii	"Tswitch\000"
 4988      74636800 
 4989              	.LASF89:
 4990 0609 4C704461 		.ascii	"LpDacSrc\000"
 4990      63537263 
ARM GAS  C:\Users\13740\AppData\Local\Temp\cctWuNXI.s 			page 104


 4990      00
 4991              	.LASF34:
 4992 0612 48534441 		.ascii	"HSDACRefEn\000"
 4992      43526566 
 4992      456E00
 4993              	.LASF105:
 4994 061d 4C705061 		.ascii	"LpPaPwrEn\000"
 4994      50777245 
 4994      6E00
 4995              	.LASF1:
 4996 0627 6C6F6E67 		.ascii	"long long int\000"
 4996      206C6F6E 
 4996      6720696E 
 4996      7400
 4997              	.LASF254:
 4998 0635 4669666F 		.ascii	"FifoCnt\000"
 4998      436E7400 
 4999              	.LASF169:
 5000 063d 436C6B73 		.ascii	"ClksCalInfo_Type\000"
 5000      43616C49 
 5000      6E666F5F 
 5000      54797065 
 5000      00
 5001              	.LASF200:
 5002 064e 42696173 		.ascii	"BiasVolt\000"
 5002      566F6C74 
 5002      00
 5003              	.LASF190:
 5004 0657 57757074 		.ascii	"WuptClkFreq\000"
 5004      436C6B46 
 5004      72657100 
 5005              	.LASF128:
 5006 0663 48734461 		.ascii	"HsDacCfg\000"
 5006      63436667 
 5006      00
 5007              	.LASF216:
 5008 066c 70436667 		.ascii	"pCfg\000"
 5008      00
 5009              	.LASF38:
 5010 0671 44697363 		.ascii	"Disc1V1Cap\000"
 5010      31563143 
 5010      617000
 5011              	.LASF23:
 5012 067c 6246414C 		.ascii	"bFALSE\000"
 5012      534500
 5013              	.LASF57:
 5014 0683 44667453 		.ascii	"DftSrc\000"
 5014      726300
 5015              	.LASF103:
 5016 068a 4C70416D 		.ascii	"LpAmpPwrMod\000"
 5016      70507772 
 5016      4D6F6400 
 5017              	.LASF194:
 5018 0696 44737769 		.ascii	"DswitchSel\000"
 5018      74636853 
 5018      656C00
 5019              	.LASF77:
ARM GAS  C:\Users\13740\AppData\Local\Temp\cctWuNXI.s 			page 105


 5020 06a1 48737469 		.ascii	"HstiaCtia\000"
 5020      61437469 
 5020      6100
 5021              	.LASF167:
 5022 06ab 44617461 		.ascii	"DataCount\000"
 5022      436F756E 
 5022      7400
 5023              	.LASF48:
 5024 06b5 42704E6F 		.ascii	"BpNotch\000"
 5024      74636800 
 5025              	.LASF52:
 5026 06bd 53696E63 		.ascii	"Sinc2NotchEnable\000"
 5026      324E6F74 
 5026      6368456E 
 5026      61626C65 
 5026      00
 5027              	.LASF160:
 5028 06ce 57757074 		.ascii	"WuptEndSeq\000"
 5028      456E6453 
 5028      657100
 5029              	.LASF166:
 5030 06d9 44617461 		.ascii	"DataType\000"
 5030      54797065 
 5030      00
 5031              	.LASF226:
 5032 06e2 6C706461 		.ascii	"lpdac_cfg\000"
 5032      635F6366 
 5032      6700
 5033              	.LASF25:
 5034 06ec 426F6F6C 		.ascii	"BoolFlag\000"
 5034      466C6167 
 5034      00
 5035              	.LASF37:
 5036 06f5 44697363 		.ascii	"Disc1V8Cap\000"
 5036      31563843 
 5036      617000
 5037              	.LASF142:
 5038 0700 4649464F 		.ascii	"FIFOMode\000"
 5038      4D6F6465 
 5038      00
 5039              	.LASF250:
 5040 0709 41707049 		.ascii	"AppIMPISR\000"
 5040      4D504953 
 5040      5200
 5041              	.LASF182:
 5042 0713 69496D70 		.ascii	"iImpCar_Type\000"
 5042      4361725F 
 5042      54797065 
 5042      00
 5043              	.LASF156:
 5044 0720 5365714C 		.ascii	"SeqLen\000"
 5044      656E00
 5045              	.LASF2:
 5046 0727 6C6F6E67 		.ascii	"long double\000"
 5046      20646F75 
 5046      626C6500 
 5047              	.LASF80:
ARM GAS  C:\Users\13740\AppData\Local\Temp\cctWuNXI.s 			page 106


 5048 0733 48737469 		.ascii	"HstiaDeRload\000"
 5048      61446552 
 5048      6C6F6164 
 5048      00
 5049              	.LASF19:
 5050 0740 75696E74 		.ascii	"uint16_t\000"
 5050      31365F74 
 5050      00
 5051              	.LASF125:
 5052 0749 5767436F 		.ascii	"WgCode\000"
 5052      646500
 5053              	.LASF49:
 5054 0750 42705369 		.ascii	"BpSinc3\000"
 5054      6E633300 
 5055              	.LASF45:
 5056 0758 41444353 		.ascii	"ADCSinc2Osr\000"
 5056      696E6332 
 5056      4F737200 
 5057              	.LASF67:
 5058 0764 53746174 		.ascii	"StatEnable\000"
 5058      456E6162 
 5058      6C6500
 5059              	.LASF28:
 5060 076f 48703156 		.ascii	"Hp1V1BuffEn\000"
 5060      31427566 
 5060      66456E00 
 5061              	.LASF135:
 5062 077b 41444342 		.ascii	"ADCBaseCfg\000"
 5062      61736543 
 5062      666700
 5063              	.LASF149:
 5064 0786 53657142 		.ascii	"SeqBreakEn\000"
 5064      7265616B 
 5064      456E00
 5065              	.LASF259:
 5066 0791 41707049 		.ascii	"AppIMPCfg\000"
 5066      4D504366 
 5066      6700
 5067              	.LASF210:
 5068 079b 4D656173 		.ascii	"MeasureSeqInfo\000"
 5068      75726553 
 5068      6571496E 
 5068      666F00
 5069              	.LASF248:
 5070 07aa 5263616C 		.ascii	"RcalMag\000"
 5070      4D616700 
 5071              	.LASF218:
 5072 07b2 70506172 		.ascii	"pPara\000"
 5072      6100
 5073              	.LASF5:
 5074 07b8 73686F72 		.ascii	"short int\000"
 5074      7420696E 
 5074      7400
 5075              	.LASF164:
 5076 07c2 57757074 		.ascii	"WuptEn\000"
 5076      456E00
 5077              	.LASF168:
ARM GAS  C:\Users\13740\AppData\Local\Temp\cctWuNXI.s 			page 107


 5078 07c9 52617469 		.ascii	"RatioSys2AdcClk\000"
 5078      6F537973 
 5078      32416463 
 5078      436C6B00 
 5079              	.LASF126:
 5080 07d9 57474366 		.ascii	"WGCfg_Type\000"
 5080      675F5479 
 5080      706500
 5081              	.LASF187:
 5082 07e4 4D617853 		.ascii	"MaxSeqLenCal\000"
 5082      65714C65 
 5082      6E43616C 
 5082      00
 5083              	.LASF10:
 5084 07f1 6C6F6E67 		.ascii	"long int\000"
 5084      20696E74 
 5084      00
 5085              	.LASF208:
 5086 07fa 494D5049 		.ascii	"IMPInited\000"
 5086      6E697465 
 5086      6400
 5087              	.LASF186:
 5088 0804 53657153 		.ascii	"SeqStartAddrCal\000"
 5088      74617274 
 5088      41646472 
 5088      43616C00 
 5089              	.LASF214:
 5090 0814 41707049 		.ascii	"AppIMPGetCfg\000"
 5090      4D504765 
 5090      74436667 
 5090      00
 5091              	.LASF176:
 5092 0821 536F6674 		.ascii	"SoftSweepCfg_Type\000"
 5092      53776565 
 5092      70436667 
 5092      5F547970 
 5092      6500
 5093              	.LASF157:
 5094 0833 57726974 		.ascii	"WriteSRAM\000"
 5094      65535241 
 5094      4D00
 5095              	.LASF92:
 5096 083d 4C704461 		.ascii	"LpDacSW\000"
 5096      63535700 
 5097              	.LASF230:
 5098 0845 73775F63 		.ascii	"sw_cfg\000"
 5098      666700
 5099              	.LASF217:
 5100 084c 436F6D6D 		.ascii	"Command\000"
 5100      616E6400 
 5101              	.LASF152:
 5102 0854 53657157 		.ascii	"SeqWrTimer\000"
 5102      7254696D 
 5102      657200
 5103              	.LASF224:
 5104 085f 6473705F 		.ascii	"dsp_cfg\000"
 5104      63666700 
ARM GAS  C:\Users\13740\AppData\Local\Temp\cctWuNXI.s 			page 108


 5105              	.LASF181:
 5106 0867 496D6167 		.ascii	"Image\000"
 5106      6500
 5107              	.LASF172:
 5108 086d 53776565 		.ascii	"SweepStop\000"
 5108      7053746F 
 5108      7000
 5109              	.LASF136:
 5110 0877 41444346 		.ascii	"ADCFilterCfg\000"
 5110      696C7465 
 5110      72436667 
 5110      00
 5111              	.LASF252:
 5112 0884 70436F75 		.ascii	"pCount\000"
 5112      6E7400
 5113              	.LASF81:
 5114 088b 48737469 		.ascii	"HstiaDe1Rtia\000"
 5114      61446531 
 5114      52746961 
 5114      00
 5115              	.LASF6:
 5116 0898 5F5F7569 		.ascii	"__uint8_t\000"
 5116      6E74385F 
 5116      7400
 5117              	.LASF119:
 5118 08a2 57475369 		.ascii	"WGSinCfg_Type\000"
 5118      6E436667 
 5118      5F547970 
 5118      6500
 5119              	.LASF69:
 5120 08b0 44737769 		.ascii	"Dswitch\000"
 5120      74636800 
 5121              	.LASF36:
 5122 08b8 48703156 		.ascii	"Hp1V8Ilimit\000"
 5122      38496C69 
 5122      6D697400 
 5123              	.LASF246:
 5124 08c4 527A4D61 		.ascii	"RzMag\000"
 5124      6700
 5125              	.LASF213:
 5126 08ca 41707049 		.ascii	"AppIMPCfg_Type\000"
 5126      4D504366 
 5126      675F5479 
 5126      706500
 5127              	.LASF51:
 5128 08d9 53696E63 		.ascii	"Sinc2NotchClkEnable\000"
 5128      324E6F74 
 5128      6368436C 
 5128      6B456E61 
 5128      626C6500 
 5129              	.LASF65:
 5130 08ed 53746174 		.ascii	"StatDev\000"
 5130      44657600 
 5131              	.LASF177:
 5132 08f5 4D61676E 		.ascii	"Magnitude\000"
 5132      69747564 
 5132      6500
ARM GAS  C:\Users\13740\AppData\Local\Temp\cctWuNXI.s 			page 109


 5133              	.LASF14:
 5134 08ff 73697A65 		.ascii	"sizetype\000"
 5134      74797065 
 5134      00
 5135              	.LASF141:
 5136 0908 4649464F 		.ascii	"FIFOEn\000"
 5136      456E00
 5137              	.LASF12:
 5138 090f 6C6F6E67 		.ascii	"long unsigned int\000"
 5138      20756E73 
 5138      69676E65 
 5138      6420696E 
 5138      7400
 5139              	.LASF58:
 5140 0921 48616E57 		.ascii	"HanWinEn\000"
 5140      696E456E 
 5140      00
 5141              	.LASF56:
 5142 092a 4466744E 		.ascii	"DftNum\000"
 5142      756D00
 5143              	.LASF20:
 5144 0931 696E7433 		.ascii	"int32_t\000"
 5144      325F7400 
 5145              	.LASF94:
 5146 0939 44617461 		.ascii	"DataRst\000"
 5146      52737400 
 5147              	.LASF106:
 5148 0941 4C705469 		.ascii	"LpTiaPwrEn\000"
 5148      61507772 
 5148      456E00
 5149              	.LASF146:
 5150 094c 4649464F 		.ascii	"FIFOCfg_Type\000"
 5150      4366675F 
 5150      54797065 
 5150      00
 5151              	.LASF29:
 5152 0959 4C703156 		.ascii	"Lp1V8BuffEn\000"
 5152      38427566 
 5152      66456E00 
 5153              	.LASF228:
 5154 0965 41707049 		.ascii	"AppIMPSeqMeasureGen\000"
 5154      4D505365 
 5154      714D6561 
 5154      73757265 
 5154      47656E00 
 5155              	.LASF231:
 5156 0979 636C6B73 		.ascii	"clks_cal\000"
 5156      5F63616C 
 5156      00
 5157              	.LASF4:
 5158 0982 756E7369 		.ascii	"unsigned char\000"
 5158      676E6564 
 5158      20636861 
 5158      7200
 5159              	.LASF11:
 5160 0990 5F5F7569 		.ascii	"__uint32_t\000"
 5160      6E743332 
ARM GAS  C:\Users\13740\AppData\Local\Temp\cctWuNXI.s 			page 110


 5160      5F7400
 5161              	.LASF61:
 5162 099b 4144434D 		.ascii	"ADCMinHys\000"
 5162      696E4879 
 5162      7300
 5163              	.LASF96:
 5164 09a5 44616344 		.ascii	"DacData12Bit\000"
 5164      61746131 
 5164      32426974 
 5164      00
 5165              	.LASF196:
 5166 09b2 4E737769 		.ascii	"NswitchSel\000"
 5166      74636853 
 5166      656C00
 5167              	.LASF32:
 5168 09bd 4C705265 		.ascii	"LpRefBufEn\000"
 5168      66427566 
 5168      456E00
 5169              	.LASF133:
 5170 09c8 4C70416D 		.ascii	"LpAmpCfg\000"
 5170      70436667 
 5170      00
 5171              	.LASF62:
 5172 09d1 4144434D 		.ascii	"ADCMax\000"
 5172      617800
 5173              	.LASF121:
 5174 09d8 4761696E 		.ascii	"GainCalEn\000"
 5174      43616C45 
 5174      6E00
 5175              	.LASF82:
 5176 09e2 48737469 		.ascii	"HstiaDe1Rload\000"
 5176      61446531 
 5176      526C6F61 
 5176      6400
 5177              	.LASF129:
 5178 09f0 57674366 		.ascii	"WgCfg\000"
 5178      6700
 5179              	.LASF116:
 5180 09f6 53696E41 		.ascii	"SinAmplitudeWord\000"
 5180      6D706C69 
 5180      74756465 
 5180      576F7264 
 5180      00
 5181              	.LASF43:
 5182 0a07 41444342 		.ascii	"ADCBaseCfg_Type\000"
 5182      61736543 
 5182      66675F54 
 5182      79706500 
 5183              	.LASF229:
 5184 0a17 57616974 		.ascii	"WaitClks\000"
 5184      436C6B73 
 5184      00
 5185              	.LASF251:
 5186 0a20 70427566 		.ascii	"pBuff\000"
 5186      6600
 5187              	.LASF202:
 5188 0a26 41646350 		.ascii	"AdcPgaGain\000"
ARM GAS  C:\Users\13740\AppData\Local\Temp\cctWuNXI.s 			page 111


 5188      67614761 
 5188      696E00
 5189              	.LASF3:
 5190 0a31 7369676E 		.ascii	"signed char\000"
 5190      65642063 
 5190      68617200 
 5191              	.LASF192:
 5192 0a3d 41646343 		.ascii	"AdcClkFreq\000"
 5192      6C6B4672 
 5192      657100
 5193              	.LASF95:
 5194 0a48 506F7765 		.ascii	"PowerEn\000"
 5194      72456E00 
 5195              	.LASF8:
 5196 0a50 73686F72 		.ascii	"short unsigned int\000"
 5196      7420756E 
 5196      7369676E 
 5196      65642069 
 5196      6E7400
 5197              	.LASF235:
 5198 0a63 7365715F 		.ascii	"seq_cfg\000"
 5198      63666700 
 5199              	.LASF161:
 5200 0a6b 57757074 		.ascii	"WuptOrder\000"
 5200      4F726465 
 5200      7200
 5201              	.LASF50:
 5202 0a75 53696E63 		.ascii	"Sinc3ClkEnable\000"
 5202      33436C6B 
 5202      456E6162 
 5202      6C6500
 5203              	.LASF68:
 5204 0a84 53746174 		.ascii	"StatCfg_Type\000"
 5204      4366675F 
 5204      54797065 
 5204      00
 5205              	.LASF211:
 5206 0a91 53746F70 		.ascii	"StopRequired\000"
 5206      52657175 
 5206      69726564 
 5206      00
 5207              	.LASF117:
 5208 0a9e 53696E4F 		.ascii	"SinOffsetWord\000"
 5208      66667365 
 5208      74576F72 
 5208      6400
 5209              	.LASF16:
 5210 0aac 646F7562 		.ascii	"double\000"
 5210      6C6500
 5211              	.LASF203:
 5212 0ab3 53776565 		.ascii	"SweepCfg\000"
 5212      70436667 
 5212      00
 5213              	.LASF257:
 5214 0abc 453A5C64 		.ascii	"E:\\desktop\\bu\\eda\\Transistor1-4414\\Transistor."
 5214      65736B74 
 5214      6F705C62 
ARM GAS  C:\Users\13740\AppData\Local\Temp\cctWuNXI.s 			page 112


 5214      755C6564 
 5214      615C5472 
 5215 0aea 63796473 		.ascii	"cydsn\000"
 5215      6E00
 5216              	.LASF108:
 5217 0af0 57475472 		.ascii	"WGTrapzDCLevel1\000"
 5217      61707A44 
 5217      434C6576 
 5217      656C3100 
 5218              	.LASF109:
 5219 0b00 57475472 		.ascii	"WGTrapzDCLevel2\000"
 5219      61707A44 
 5219      434C6576 
 5219      656C3200 
 5220              	.LASF104:
 5221 0b10 4C705469 		.ascii	"LpTiaSW\000"
 5221      61535700 
 5222              	.LASF83:
 5223 0b18 48535449 		.ascii	"HSTIACfg_Type\000"
 5223      41436667 
 5223      5F547970 
 5223      6500
 5224              	.LASF205:
 5225 0b26 53776565 		.ascii	"SweepCurrFreq\000"
 5225      70437572 
 5225      72467265 
 5225      7100
 5226              	.LASF73:
 5227 0b34 53574D61 		.ascii	"SWMatrixCfg_Type\000"
 5227      74726978 
 5227      4366675F 
 5227      54797065 
 5227      00
 5228              	.LASF22:
 5229 0b45 41443539 		.ascii	"AD5940Err\000"
 5229      34304572 
 5229      7200
 5230              	.LASF64:
 5231 0b4f 41444344 		.ascii	"ADCDigComp_Type\000"
 5231      6967436F 
 5231      6D705F54 
 5231      79706500 
 5232              	.LASF204:
 5233 0b5f 4669666F 		.ascii	"FifoThresh\000"
 5233      54687265 
 5233      736800
 5234              	.LASF30:
 5235 0b6a 4C703156 		.ascii	"Lp1V1BuffEn\000"
 5235      31427566 
 5235      66456E00 
 5236              	.LASF124:
 5237 0b76 53696E43 		.ascii	"SinCfg\000"
 5237      666700
 5238              	.LASF123:
 5239 0b7d 54726170 		.ascii	"TrapzCfg\000"
 5239      7A436667 
 5239      00
ARM GAS  C:\Users\13740\AppData\Local\Temp\cctWuNXI.s 			page 113


 5240              	.LASF170:
 5241 0b86 53776565 		.ascii	"SweepEn\000"
 5241      70456E00 
 5242              	.LASF206:
 5243 0b8e 53776565 		.ascii	"SweepNextFreq\000"
 5243      704E6578 
 5243      74467265 
 5243      7100
 5244              	.LASF184:
 5245 0b9c 53657153 		.ascii	"SeqStartAddr\000"
 5245      74617274 
 5245      41646472 
 5245      00
 5246              	.LASF158:
 5247 0ba9 70536571 		.ascii	"pSeqCmd\000"
 5247      436D6400 
 5248              	.LASF236:
 5249 0bb1 6669666F 		.ascii	"fifo_cfg\000"
 5249      5F636667 
 5249      00
 5250              		.ident	"GCC: (GNU Tools for ARM Embedded Processors) 5.4.1 20160609 (release) [ARM/embedded-5-bran
