ARM GAS  C:\Users\13740\AppData\Local\Temp\cc6vMOIu.s 			page 1


   1              		.syntax unified
   2              		.cpu cortex-m0
   3              		.fpu softvfp
   4              		.eabi_attribute 20, 1
   5              		.eabi_attribute 21, 1
   6              		.eabi_attribute 23, 3
   7              		.eabi_attribute 24, 1
   8              		.eabi_attribute 25, 1
   9              		.eabi_attribute 26, 1
  10              		.eabi_attribute 30, 6
  11              		.eabi_attribute 34, 0
  12              		.eabi_attribute 18, 4
  13              		.thumb
  14              		.syntax unified
  15              		.file	"main.c"
  16              		.text
  17              	.Ltext0:
  18              		.cfi_sections	.debug_frame
  19              		.global	g_SPI_Debug_Buf
  20              		.bss
  21              		.align	2
  22              		.type	g_SPI_Debug_Buf, %object
  23              		.size	g_SPI_Debug_Buf, 8
  24              	g_SPI_Debug_Buf:
  25 0000 00000000 		.space	8
  25      00000000 
  26              		.global	lastSendTime
  27              		.align	2
  28              		.type	lastSendTime, %object
  29              		.size	lastSendTime, 4
  30              	lastSendTime:
  31 0008 00000000 		.space	4
  32              		.global	mainTimer
  33              		.align	2
  34              		.type	mainTimer, %object
  35              		.size	mainTimer, 4
  36              	mainTimer:
  37 000c 00000000 		.space	4
  38              		.global	measurementFlag
  39              		.type	measurementFlag, %object
  40              		.size	measurementFlag, 1
  41              	measurementFlag:
  42 0010 00       		.space	1
  43              		.comm	apiResult,2,2
  44              		.global	sensorData
  45 0011 000000   		.align	2
  46              		.type	sensorData, %object
  47              		.size	sensorData, 32
  48              	sensorData:
  49 0014 00000000 		.space	32
  49      00000000 
  49      00000000 
  49      00000000 
  49      00000000 
  50              		.comm	pAmpCfg,4,4
  51              		.comm	ampBuffer,2048,4
  52              		.comm	ampResult,8,4
ARM GAS  C:\Users\13740\AppData\Local\Temp\cc6vMOIu.s 			page 2


  53              		.align	2
  54              	g_test_adiid:
  55 0034 00000000 		.space	4
  56              		.align	2
  57              	g_test_chipid:
  58 0038 00000000 		.space	4
  59              		.align	2
  60              	g_test_reg_0908:
  61 003c 00000000 		.space	4
  62              		.align	2
  63              	g_test_afecon:
  64 0040 00000000 		.space	4
  65              		.align	2
  66              	g_test_fifocon:
  67 0044 00000000 		.space	4
  68              		.align	1
  69              	g_test_fifo_count:
  70 0048 0000     		.space	2
  71              	g_test_done:
  72 004a 00       		.space	1
  73 004b 00       		.align	2
  74              	g_fifocon_measure:
  75 004c 00000000 		.space	4
  76              		.align	2
  77              	g_fifosta_measure:
  78 0050 00000000 		.space	4
  79              		.align	2
  80              	g_afecon_measure:
  81 0054 00000000 		.space	4
  82              		.align	2
  83              	g_fifo_count_measure:
  84 0058 00000000 		.space	4
  85              		.align	2
  86              	g_fifo_first_data:
  87 005c 00000000 		.space	4
  88              		.align	2
  89              	g_lptiacon_measure:
  90 0060 00000000 		.space	4
  91              		.align	2
  92              	g_adccon_measure:
  93 0064 00000000 		.space	4
  94              		.align	2
  95              	g_seqcon_measure:
  96 0068 00000000 		.space	4
  97              		.align	2
  98              	g_seqsta_measure:
  99 006c 00000000 		.space	4
 100              	g_init_state:
 101 0070 00       		.space	1
 102              	g_reg_index:
 103 0071 00       		.space	1
 104              		.global	g_RegTable
 105              		.section	.rodata
 106              		.align	2
 107              		.type	g_RegTable, %object
 108              		.size	g_RegTable, 112
 109              	g_RegTable:
ARM GAS  C:\Users\13740\AppData\Local\Temp\cc6vMOIu.s 			page 3


 110 0000 0809     		.short	2312
 111 0002 0000     		.space	2
 112 0004 C9020000 		.word	713
 113 0008 080C     		.short	3080
 114 000a 0000     		.space	2
 115 000c 6C200000 		.word	8300
 116 0010 F021     		.short	8688
 117 0012 0000     		.space	2
 118 0014 10000000 		.word	16
 119 0018 1004     		.short	1040
 120 001a 0000     		.space	2
 121 001c C9020000 		.word	713
 122 0020 280A     		.short	2600
 123 0022 0000     		.space	2
 124 0024 09000000 		.word	9
 125 0028 8C23     		.short	9100
 126 002a 0000     		.space	2
 127 002c 04010000 		.word	260
 128 0030 040A     		.short	2564
 129 0032 0000     		.space	2
 130 0034 59480000 		.word	18521
 131 0038 040A     		.short	2564
 132 003a 0000     		.space	2
 133 003c 7BF20000 		.word	62075
 134 0040 000A     		.short	2560
 135 0042 0000     		.space	2
 136 0044 09800000 		.word	32777
 137 0048 F022     		.short	8944
 138 004a 0000     		.space	2
 139 004c 00000000 		.word	0
 140 0050 3022     		.short	8752
 141 0052 0000     		.space	2
 142 0054 AFA587DE 		.word	-561535569
 143 0058 5022     		.short	8784
 144 005a 0000     		.space	2
 145 005c 3F100000 		.word	4159
 146 0060 B022     		.short	8880
 147 0062 0000     		.space	2
 148 0064 3C200000 		.word	8252
 149 0068 3022     		.short	8752
 150 006a 0000     		.space	2
 151 006c A0A587DE 		.word	-561535584
 152              		.align	2
 153              	.LC0:
 154 0070 5B494E49 		.ascii	"[INIT] Step 1: Resetting hardware...\015\000"
 154      545D2053 
 154      74657020 
 154      313A2052 
 154      65736574 
 155 0096 0000     		.align	2
 156              	.LC2:
 157 0098 5B494E49 		.ascii	"[INIT] Hardware Reset complete.\015\000"
 157      545D2048 
 157      61726477 
 157      61726520 
 157      52657365 
 158 00b9 000000   		.align	2
ARM GAS  C:\Users\13740\AppData\Local\Temp\cc6vMOIu.s 			page 4


 159              	.LC4:
 160 00bc 5B494E49 		.ascii	"[INIT] Step 2: Waking up SPI interface...\015\000"
 160      545D2053 
 160      74657020 
 160      323A2057 
 160      616B696E 
 161 00e7 00       		.align	2
 162              	.LC6:
 163 00e8 0D0A5B44 		.ascii	"\015\012[DEBUG] Verifying SPI Communication...\015\000"
 163      45425547 
 163      5D205665 
 163      72696679 
 163      696E6720 
 164 0112 0000     		.align	2
 165              	.LC8:
 166 0114 20205B41 		.ascii	"  [Attempt %d] ADIID: 0x%08lX, CHIPID: 0x%08lX\015\012"
 166      7474656D 
 166      70742025 
 166      645D2041 
 166      44494944 
 167 0144 00       		.ascii	"\000"
 168 0145 000000   		.align	2
 169              	.LC10:
 170 0148 2020E29C 		.ascii	"  \342\234\205 Communication Success!\015\000"
 170      8520436F 
 170      6D6D756E 
 170      69636174 
 170      696F6E20 
 171 0166 0000     		.align	2
 172              	.LC12:
 173 0168 20202020 		.ascii	"     -> Warning: Read 0x00. Check MISO Connection o"
 173      202D3E20 
 173      5761726E 
 173      696E673A 
 173      20526561 
 174 019b 7220506F 		.ascii	"r Power.\015\000"
 174      7765722E 
 174      0D00
 175 01a5 000000   		.align	2
 176              	.LC14:
 177 01a8 20202020 		.ascii	"     -> Warning: Read 0xFF. Check if MISO is shorte"
 177      202D3E20 
 177      5761726E 
 177      696E673A 
 177      20526561 
 178 01db 6420746F 		.ascii	"d to VDD.\015\000"
 178      20564444 
 178      2E0D00
 179 01e6 0000     		.align	2
 180              	.LC16:
 181 01e8 5B455252 		.ascii	"[ERROR] SPI Communication Failed. Halting Initializ"
 181      4F525D20 
 181      53504920 
 181      436F6D6D 
 181      756E6963 
 182 021b 6174696F 		.ascii	"ation.\015\000"
 182      6E2E0D00 
ARM GAS  C:\Users\13740\AppData\Local\Temp\cc6vMOIu.s 			page 5


 183 0223 00       		.align	2
 184              	.LC18:
 185 0224 0D0A5B49 		.ascii	"\015\012[INIT] Step 4: Running ADI Library Init (Ta"
 185      4E49545D 
 185      20537465 
 185      7020343A 
 185      2052756E 
 186 0251 626C6520 		.ascii	"ble 14)...\015\000"
 186      3134292E 
 186      2E2E0D00 
 187 025d 000000   		.align	2
 188              	.LC20:
 189 0260 5B494E49 		.ascii	"[INIT] Library Init complete.\015\000"
 189      545D204C 
 189      69627261 
 189      72792049 
 189      6E697420 
 190 027f 00       		.align	2
 191              	.LC22:
 192 0280 5B494E49 		.ascii	"[INIT] Step 5: Configuring Application Parameters.."
 192      545D2053 
 192      74657020 
 192      353A2043 
 192      6F6E6669 
 193 02b3 2E0D00   		.ascii	".\015\000"
 194 02b6 0000     		.align	2
 195              	.LC25:
 196 02b8 5B455252 		.ascii	"[ERROR] pAmpCfg is NULL!\015\000"
 196      4F525D20 
 196      70416D70 
 196      43666720 
 196      6973204E 
 197 02d2 0000     		.align	2
 198              	.LC27:
 199 02d4 5B494E49 		.ascii	"[INIT] Step 6: Calling AppAMPInit...\015\000"
 199      545D2053 
 199      74657020 
 199      363A2043 
 199      616C6C69 
 200 02fa 0000     		.align	2
 201              	.LC30:
 202 02fc 5B4F4B5D 		.ascii	"[OK] AD5941 System Initialized Successfully.\015\000"
 202      20414435 
 202      39343120 
 202      53797374 
 202      656D2049 
 203 032a 0000     		.align	2
 204              	.LC32:
 205 032c 20202020 		.ascii	"     AMPInited Flag: %d\015\012\000"
 205      20414D50 
 205      496E6974 
 205      65642046 
 205      6C61673A 
 206 0346 0000     		.align	2
 207              	.LC34:
 208 0348 5B455252 		.ascii	"[ERROR] AppAMPInit failed with error code: %d\015\012"
 208      4F525D20 
ARM GAS  C:\Users\13740\AppData\Local\Temp\cc6vMOIu.s 			page 6


 208      41707041 
 208      4D50496E 
 208      69742066 
 209 0377 00       		.ascii	"\000"
 210              		.section	.text.AD5941_Initialize,"ax",%progbits
 211              		.align	2
 212              		.global	AD5941_Initialize
 213              		.code	16
 214              		.thumb_func
 215              		.type	AD5941_Initialize, %function
 216              	AD5941_Initialize:
 217              	.LFB36:
 218              		.file 1 "main.c"
   1:main.c        **** /*******************************************************************************
   2:main.c        **** * File Name: main.c
   3:main.c        **** *
   4:main.c        **** * Version 2.0
   5:main.c        **** *
   6:main.c        **** * Description:
   7:main.c        **** *  多路生物传感器系统 - 修复后的完整版本
   8:main.c        **** *  使用AD5940内置ADC，不依赖PSoC ADC模块
   9:main.c        **** *
  10:main.c        **** ********************************************************************************/
  11:main.c        **** 
  12:main.c        **** // /* 链接数学库（GCC编译器） */
  13:main.c        **** // #pragma comment(lib, "libm.a")
  14:main.c        **** 
  15:main.c        **** #include "main.h"
  16:main.c        **** #include "ad5940.h"
  17:main.c        **** #include "ad5941_platform.h"
  18:main.c        **** #include "Amperometric.h"
  19:main.c        **** uint8_t g_SPI_Debug_Buf[8] = {0}; // 全局变量，记录最后一次读取的原始字节
  20:main.c        **** 
  21:main.c        **** // 在 main() 函数开头添加变量
  22:main.c        **** uint32 lastSendTime = 0;  // 上次发送数据的时间
  23:main.c        **** #define SEND_INTERVAL 3   // 每3秒发送一次数据
  24:main.c        **** 
  25:main.c        **** /*******************************************************************************
  26:main.c        **** * 全局变量
  27:main.c        **** *******************************************************************************/
  28:main.c        **** volatile uint32 mainTimer = 0;
  29:main.c        **** volatile uint8 measurementFlag = 0;
  30:main.c        **** CYBLE_API_RESULT_T apiResult;
  31:main.c        **** 
  32:main.c        **** // 传感器数据结构
  33:main.c        **** typedef struct {
  34:main.c        ****     float temperature;      // 温度 (°C) - 从AD5940读取
  35:main.c        ****     float glucose;         // 葡萄糖 (mM)
  36:main.c        ****     float lactate;         // 乳酸 (mM)
  37:main.c        ****     float uric_acid;       // 尿酸 (μM)
  38:main.c        ****     uint32 timestamp;      // 时间戳
  39:main.c        ****     
  40:main.c        ****     // 新增：原始电流值（从源表/AD5940读取）
  41:main.c        ****     float current_glucose_nA;   // 葡萄糖传感器电流 (nA)
  42:main.c        ****     float current_lactate_nA;   // 乳酸传感器电流 (nA)
  43:main.c        ****     float current_uric_nA;      // 尿酸传感器电流 (nA)    
  44:main.c        **** } SensorData_t;
ARM GAS  C:\Users\13740\AppData\Local\Temp\cc6vMOIu.s 			page 7


  45:main.c        **** 
  46:main.c        **** // 传感器数据全局变量（定义在main.h中的SensorData_t结构）
  47:main.c        **** SensorData_t sensorData = {0};
  48:main.c        **** 
  49:main.c        **** typedef enum {
  50:main.c        ****     SENSOR_GLUCOSE = 0,
  51:main.c        ****     SENSOR_LACTATE = 1,
  52:main.c        ****     SENSOR_URIC_ACID = 2,
  53:main.c        ****     SENSOR_COUNT = 3
  54:main.c        **** } AmperometricSensor_t;
  55:main.c        **** 
  56:main.c        **** 
  57:main.c        **** 
  58:main.c        **** 
  59:main.c        **** 
  60:main.c        **** // AD5941相关变量
  61:main.c        **** AppAMPCfg_Type *pAmpCfg;
  62:main.c        **** uint32 ampBuffer[512];  // 用于AppAMPInit的缓冲区
  63:main.c        **** fAmpRes_Type ampResult;
  64:main.c        **** 
  65:main.c        **** /*******************************************************************************
  66:main.c        **** * 状态机和诊断用的全局变量
  67:main.c        **** *******************************************************************************/
  68:main.c        **** static uint32_t g_test_adiid = 0;
  69:main.c        **** static uint32_t g_test_chipid = 0;
  70:main.c        **** static uint32_t g_test_reg_0908 = 0;
  71:main.c        **** static uint32_t g_test_afecon = 0;
  72:main.c        **** static uint32_t g_test_fifocon = 0;
  73:main.c        **** static uint16_t g_test_fifo_count = 0;
  74:main.c        **** static uint8_t g_test_done = 0;
  75:main.c        **** 
  76:main.c        **** // ⭐ FIFO测量读数全局变量
  77:main.c        **** static uint32_t g_fifocon_measure = 0;   // 测量中的FIFOCON
  78:main.c        **** static uint32_t g_fifosta_measure = 0;   // 测量中的FIFOSTA
  79:main.c        **** static uint32_t g_afecon_measure = 0;    // 测量中的AFECON
  80:main.c        **** static uint32_t g_fifo_count_measure = 0; // 测量中的FIFO计数
  81:main.c        **** static uint32_t g_fifo_first_data = 0;   // 第一个FIFO数据
  82:main.c        **** 
  83:main.c        **** // ⭐ 新增：关键寄存器诊断变量
  84:main.c        **** static uint32_t g_lptiacon_measure = 0;  // LPTIA配置 (0x2200)
  85:main.c        **** static uint32_t g_adccon_measure = 0;    // ADC配置 (0x2300)
  86:main.c        **** static uint32_t g_seqcon_measure = 0;    // 序列控制 (0x20F8)
  87:main.c        **** static uint32_t g_seqsta_measure = 0;    // 序列状态 (0x20FC)
  88:main.c        **** 
  89:main.c        **** // 状态机定义
  90:main.c        **** typedef enum {
  91:main.c        ****     INIT_IDLE = 0,
  92:main.c        ****     INIT_RESET,
  93:main.c        ****     INIT_CHECK_ID,
  94:main.c        ****     INIT_WRITE_REGS,
  95:main.c        ****     INIT_VERIFY_REG,      // ← 新增：验证寄存器写入
  96:main.c        ****     INIT_CHECK_AFE,       // ← 新增：检查AFE状态
  97:main.c        ****     INIT_CHECK_FIFO,      // ← 新增：检查FIFO状态
  98:main.c        ****     INIT_CONFIG_APP,
  99:main.c        ****     INIT_START_MEASUREMENT,
 100:main.c        ****     INIT_COMPLETE
 101:main.c        **** } InitState_t;
ARM GAS  C:\Users\13740\AppData\Local\Temp\cc6vMOIu.s 			page 8


 102:main.c        **** 
 103:main.c        **** static InitState_t g_init_state = INIT_IDLE;
 104:main.c        **** static uint8_t g_reg_index = 0;
 105:main.c        **** 
 106:main.c        **** // 寄存器表
 107:main.c        **** const struct {
 108:main.c        ****     uint16_t reg_addr;
 109:main.c        ****     uint32_t reg_data;
 110:main.c        **** } g_RegTable[] = {
 111:main.c        ****     {0x0908, 0x02c9},
 112:main.c        ****     {0x0c08, 0x206C},
 113:main.c        ****     {0x21F0, 0x0010},
 114:main.c        ****     {0x0410, 0x02c9},
 115:main.c        ****     {0x0A28, 0x0009},
 116:main.c        ****     {0x238c, 0x0104},
 117:main.c        ****     {0x0a04, 0x4859},
 118:main.c        ****     {0x0a04, 0xF27B},
 119:main.c        ****     {0x0a00, 0x8009},
 120:main.c        ****     {0x22F0, 0x0000},
 121:main.c        ****     {0x2230, 0xDE87A5AF},
 122:main.c        ****     {0x2250, 0x103F},
 123:main.c        ****     {0x22B0, 0x203C},
 124:main.c        ****     {0x2230, 0xDE87A5A0},
 125:main.c        **** };
 126:main.c        **** 
 127:main.c        **** #define REG_TABLE_SIZE (sizeof(g_RegTable)/sizeof(g_RegTable[0]))
 128:main.c        **** #define REG_AFE_FIFO_STA      0x2084
 129:main.c        **** 
 130:main.c        **** /*******************************************************************************
 131:main.c        **** * Function Name: AD5941_Initialize
 132:main.c        **** ********************************************************************************
 133:main.c        **** * Summary:
 134:main.c        **** *   初始化AD5941电化学前端芯片 - 修复后的版本
 135:main.c        **** *******************************************************************************/
 136:main.c        **** void AD5941_Initialize(void)
 137:main.c        **** {
 219              		.loc 1 137 0
 220              		.cfi_startproc
 221              		@ args = 0, pretend = 0, frame = 24
 222              		@ frame_needed = 1, uses_anonymous_args = 0
 223 0000 80B5     		push	{r7, lr}
 224              		.cfi_def_cfa_offset 8
 225              		.cfi_offset 7, -8
 226              		.cfi_offset 14, -4
 227 0002 86B0     		sub	sp, sp, #24
 228              		.cfi_def_cfa_offset 32
 229 0004 00AF     		add	r7, sp, #0
 230              		.cfi_def_cfa_register 7
 138:main.c        ****     AD5940Err error;
 139:main.c        ****     
 140:main.c        ****     // ====================================================================
 141:main.c        ****     // 步骤 1: 硬件复位与引脚状态强制初始化
 142:main.c        ****     // ====================================================================
 143:main.c        ****     printf("[INIT] Step 1: Resetting hardware...\r\n");
 231              		.loc 1 143 0
 232 0006 A94B     		ldr	r3, .L13
 233 0008 1800     		movs	r0, r3
ARM GAS  C:\Users\13740\AppData\Local\Temp\cc6vMOIu.s 			page 9


 234 000a FFF7FEFF 		bl	puts
 144:main.c        ****     
 145:main.c        ****     // 1.1 确保SPI总线处于空闲状态 (Mode 0: SCLK=0, CS=1)
 146:main.c        ****     // 防止引脚之前的状态导致芯片误判
 147:main.c        ****     AD5940_CS_Write(1);   
 235              		.loc 1 147 0
 236 000e 0120     		movs	r0, #1
 237 0010 FFF7FEFF 		bl	AD5940_CS_Write
 148:main.c        ****     AD5940_SCLK_Write(0); 
 238              		.loc 1 148 0
 239 0014 0020     		movs	r0, #0
 240 0016 FFF7FEFF 		bl	AD5940_SCLK_Write
 149:main.c        ****     AD5940_MOSI_Write(0); 
 241              		.loc 1 149 0
 242 001a 0020     		movs	r0, #0
 243 001c FFF7FEFF 		bl	AD5940_MOSI_Write
 150:main.c        ****     CyDelay(10);
 244              		.loc 1 150 0
 245 0020 0A20     		movs	r0, #10
 246 0022 FFF7FEFF 		bl	CyDelay
 151:main.c        **** 
 152:main.c        ****     // 1.2 执行硬件复位
 153:main.c        ****     AD5940_RST_Write(0);  // 拉低复位
 247              		.loc 1 153 0
 248 0026 0020     		movs	r0, #0
 249 0028 FFF7FEFF 		bl	AD5940_RST_Write
 154:main.c        ****     CyDelay(10);          // 保持10ms
 250              		.loc 1 154 0
 251 002c 0A20     		movs	r0, #10
 252 002e FFF7FEFF 		bl	CyDelay
 155:main.c        ****     AD5940_RST_Write(1);  // 释放复位
 253              		.loc 1 155 0
 254 0032 0120     		movs	r0, #1
 255 0034 FFF7FEFF 		bl	AD5940_RST_Write
 156:main.c        ****     CyDelay(100);         // 等待芯片内部加载 (Boot time)
 256              		.loc 1 156 0
 257 0038 6420     		movs	r0, #100
 258 003a FFF7FEFF 		bl	CyDelay
 157:main.c        ****     
 158:main.c        ****     printf("[INIT] Hardware Reset complete.\r\n");
 259              		.loc 1 158 0
 260 003e 9C4B     		ldr	r3, .L13+4
 261 0040 1800     		movs	r0, r3
 262 0042 FFF7FEFF 		bl	puts
 159:main.c        **** 
 160:main.c        ****     // ====================================================================
 161:main.c        ****     // 步骤 2: 唤醒 SPI 接口 (关键步骤！)
 162:main.c        ****     // ====================================================================
 163:main.c        ****     // AD5940 复位后处于休眠状态，需要一个 CS 下降沿来唤醒 SPI 接口
 164:main.c        ****     printf("[INIT] Step 2: Waking up SPI interface...\r\n");
 263              		.loc 1 164 0
 264 0046 9B4B     		ldr	r3, .L13+8
 265 0048 1800     		movs	r0, r3
 266 004a FFF7FEFF 		bl	puts
 165:main.c        ****     
 166:main.c        ****     AD5940_CS_Write(0);   // 拉低 CS 唤醒
 267              		.loc 1 166 0
ARM GAS  C:\Users\13740\AppData\Local\Temp\cc6vMOIu.s 			page 10


 268 004e 0020     		movs	r0, #0
 269 0050 FFF7FEFF 		bl	AD5940_CS_Write
 167:main.c        ****     CyDelayUs(100);       // 保持一小段时间
 270              		.loc 1 167 0
 271 0054 6420     		movs	r0, #100
 272 0056 FFF7FEFF 		bl	CyDelayUs
 168:main.c        ****     AD5940_CS_Write(1);   // 拉高 CS
 273              		.loc 1 168 0
 274 005a 0120     		movs	r0, #1
 275 005c FFF7FEFF 		bl	AD5940_CS_Write
 169:main.c        ****     CyDelay(10);          // 等待接口准备就绪
 276              		.loc 1 169 0
 277 0060 0A20     		movs	r0, #10
 278 0062 FFF7FEFF 		bl	CyDelay
 170:main.c        **** 
 171:main.c        ****     // 初始化 MCU SPI 资源变量
 172:main.c        ****     AD5940_MCUResourceInit(NULL);
 279              		.loc 1 172 0
 280 0066 0020     		movs	r0, #0
 281 0068 FFF7FEFF 		bl	AD5940_MCUResourceInit
 173:main.c        **** 
 174:main.c        ****     // ====================================================================
 175:main.c        ****     // 步骤 3: 寄存器通信测试 (ID 检查)
 176:main.c        ****     // ====================================================================
 177:main.c        ****     printf("\r\n[DEBUG] Verifying SPI Communication...\r\n");
 282              		.loc 1 177 0
 283 006c 924B     		ldr	r3, .L13+12
 284 006e 1800     		movs	r0, r3
 285 0070 FFF7FEFF 		bl	puts
 178:main.c        ****     
 179:main.c        ****     uint32_t adiid = 0;
 286              		.loc 1 179 0
 287 0074 0023     		movs	r3, #0
 288 0076 FB60     		str	r3, [r7, #12]
 180:main.c        ****     uint32_t chipid = 0;
 289              		.loc 1 180 0
 290 0078 0023     		movs	r3, #0
 291 007a BB60     		str	r3, [r7, #8]
 181:main.c        ****     uint8_t id_valid = 0;
 292              		.loc 1 181 0
 293 007c 1723     		movs	r3, #23
 294 007e FB18     		adds	r3, r7, r3
 295 0080 0022     		movs	r2, #0
 296 0082 1A70     		strb	r2, [r3]
 297              	.LBB2:
 182:main.c        **** 
 183:main.c        ****     // 尝试读取3次，排除偶发的上电不稳定
 184:main.c        ****     for(int attempt = 1; attempt <= 3; attempt++)
 298              		.loc 1 184 0
 299 0084 0123     		movs	r3, #1
 300 0086 3B61     		str	r3, [r7, #16]
 301 0088 45E0     		b	.L2
 302              	.L8:
 185:main.c        ****     {
 186:main.c        ****         adiid = AD5940_ReadReg(REG_AFECON_ADIID);
 303              		.loc 1 186 0
 304 008a 8023     		movs	r3, #128
ARM GAS  C:\Users\13740\AppData\Local\Temp\cc6vMOIu.s 			page 11


 305 008c DB00     		lsls	r3, r3, #3
 306 008e 1800     		movs	r0, r3
 307 0090 FFF7FEFF 		bl	AD5940_ReadReg
 308 0094 0300     		movs	r3, r0
 309 0096 FB60     		str	r3, [r7, #12]
 187:main.c        ****         chipid = AD5940_ReadReg(REG_AFECON_CHIPID);
 310              		.loc 1 187 0
 311 0098 884B     		ldr	r3, .L13+16
 312 009a 1800     		movs	r0, r3
 313 009c FFF7FEFF 		bl	AD5940_ReadReg
 314 00a0 0300     		movs	r3, r0
 315 00a2 BB60     		str	r3, [r7, #8]
 188:main.c        ****         
 189:main.c        ****         printf("  [Attempt %d] ADIID: 0x%08lX, CHIPID: 0x%08lX\r\n", attempt, adiid, chipid);
 316              		.loc 1 189 0
 317 00a4 BB68     		ldr	r3, [r7, #8]
 318 00a6 FA68     		ldr	r2, [r7, #12]
 319 00a8 3969     		ldr	r1, [r7, #16]
 320 00aa 8548     		ldr	r0, .L13+20
 321 00ac FFF7FEFF 		bl	printf
 190:main.c        **** 
 191:main.c        ****         // 判定标准：ADIID 应为 0x4144, CHIPID 应为 0x5502 (AD5941) 或 0x5501 (AD5940)
 192:main.c        ****         if(adiid == 0x4144 && (chipid == 0x5501 || chipid == 0x5502))
 322              		.loc 1 192 0
 323 00b0 FB68     		ldr	r3, [r7, #12]
 324 00b2 844A     		ldr	r2, .L13+24
 325 00b4 9342     		cmp	r3, r2
 326 00b6 10D1     		bne	.L3
 327              		.loc 1 192 0 is_stmt 0 discriminator 1
 328 00b8 BB68     		ldr	r3, [r7, #8]
 329 00ba 834A     		ldr	r2, .L13+28
 330 00bc 9342     		cmp	r3, r2
 331 00be 03D0     		beq	.L4
 332              		.loc 1 192 0 discriminator 2
 333 00c0 BB68     		ldr	r3, [r7, #8]
 334 00c2 824A     		ldr	r2, .L13+32
 335 00c4 9342     		cmp	r3, r2
 336 00c6 08D1     		bne	.L3
 337              	.L4:
 193:main.c        ****         {
 194:main.c        ****             id_valid = 1;
 338              		.loc 1 194 0 is_stmt 1
 339 00c8 1723     		movs	r3, #23
 340 00ca FB18     		adds	r3, r7, r3
 341 00cc 0122     		movs	r2, #1
 342 00ce 1A70     		strb	r2, [r3]
 195:main.c        ****             printf("  ✅ Communication Success!\r\n");
 343              		.loc 1 195 0
 344 00d0 7F4B     		ldr	r3, .L13+36
 345 00d2 1800     		movs	r0, r3
 346 00d4 FFF7FEFF 		bl	puts
 196:main.c        ****             break;
 347              		.loc 1 196 0
 348 00d8 20E0     		b	.L5
 349              	.L3:
 197:main.c        ****         }
 198:main.c        ****         else
ARM GAS  C:\Users\13740\AppData\Local\Temp\cc6vMOIu.s 			page 12


 199:main.c        ****         {
 200:main.c        ****             // 如果读到全是 0，可能是 MISO 没连好或者芯片没电
 201:main.c        ****             // 如果读到全是 F，可能是 MISO 短路到 VCC
 202:main.c        ****             if(adiid == 0x0000) printf("     -> Warning: Read 0x00. Check MISO Connection or Power.
 350              		.loc 1 202 0
 351 00da FB68     		ldr	r3, [r7, #12]
 352 00dc 002B     		cmp	r3, #0
 353 00de 03D1     		bne	.L6
 354              		.loc 1 202 0 is_stmt 0 discriminator 1
 355 00e0 7C4B     		ldr	r3, .L13+40
 356 00e2 1800     		movs	r0, r3
 357 00e4 FFF7FEFF 		bl	puts
 358              	.L6:
 203:main.c        ****             if(adiid == 0xFFFF) printf("     -> Warning: Read 0xFF. Check if MISO is shorted to VDD
 359              		.loc 1 203 0 is_stmt 1
 360 00e8 FB68     		ldr	r3, [r7, #12]
 361 00ea 7B4A     		ldr	r2, .L13+44
 362 00ec 9342     		cmp	r3, r2
 363 00ee 03D1     		bne	.L7
 364              		.loc 1 203 0 is_stmt 0 discriminator 1
 365 00f0 7A4B     		ldr	r3, .L13+48
 366 00f2 1800     		movs	r0, r3
 367 00f4 FFF7FEFF 		bl	puts
 368              	.L7:
 204:main.c        ****             
 205:main.c        ****             // 失败重试前再次尝试唤醒
 206:main.c        ****             AD5940_CS_Write(0); CyDelayUs(20); AD5940_CS_Write(1);
 369              		.loc 1 206 0 is_stmt 1 discriminator 2
 370 00f8 0020     		movs	r0, #0
 371 00fa FFF7FEFF 		bl	AD5940_CS_Write
 372 00fe 1420     		movs	r0, #20
 373 0100 FFF7FEFF 		bl	CyDelayUs
 374 0104 0120     		movs	r0, #1
 375 0106 FFF7FEFF 		bl	AD5940_CS_Write
 207:main.c        ****             CyDelay(50);
 376              		.loc 1 207 0 discriminator 2
 377 010a 3220     		movs	r0, #50
 378 010c FFF7FEFF 		bl	CyDelay
 184:main.c        ****     {
 379              		.loc 1 184 0 discriminator 2
 380 0110 3B69     		ldr	r3, [r7, #16]
 381 0112 0133     		adds	r3, r3, #1
 382 0114 3B61     		str	r3, [r7, #16]
 383              	.L2:
 184:main.c        ****     {
 384              		.loc 1 184 0 is_stmt 0 discriminator 1
 385 0116 3B69     		ldr	r3, [r7, #16]
 386 0118 032B     		cmp	r3, #3
 387 011a B6DD     		ble	.L8
 388              	.L5:
 389              	.LBE2:
 208:main.c        ****         }
 209:main.c        ****     }
 210:main.c        **** 
 211:main.c        ****     if(!id_valid)
 390              		.loc 1 211 0 is_stmt 1
 391 011c 1723     		movs	r3, #23
ARM GAS  C:\Users\13740\AppData\Local\Temp\cc6vMOIu.s 			page 13


 392 011e FB18     		adds	r3, r7, r3
 393 0120 1B78     		ldrb	r3, [r3]
 394 0122 002B     		cmp	r3, #0
 395 0124 03D1     		bne	.L9
 212:main.c        ****     {
 213:main.c        ****         printf("[ERROR] SPI Communication Failed. Halting Initialization.\r\n");
 396              		.loc 1 213 0
 397 0126 6E4B     		ldr	r3, .L13+52
 398 0128 1800     		movs	r0, r3
 399 012a FFF7FEFF 		bl	puts
 400              	.L9:
 214:main.c        ****         // 这里可以选择 return，或者继续尝试(有时候是 glitch)
 215:main.c        ****         // return; 
 216:main.c        ****     }
 217:main.c        **** 
 218:main.c        ****     // ====================================================================
 219:main.c        ****     // 步骤 4: 执行 ADI 库初始化 (AD5940_Initialize)
 220:main.c        ****     // ====================================================================
 221:main.c        ****     // 这个函数会向芯片写入大量的校准数据和默认配置
 222:main.c        ****     printf("\r\n[INIT] Step 4: Running ADI Library Init (Table 14)...\r\n");
 401              		.loc 1 222 0
 402 012e 6D4B     		ldr	r3, .L13+56
 403 0130 1800     		movs	r0, r3
 404 0132 FFF7FEFF 		bl	puts
 223:main.c        ****     AD5940_Initialize(); 
 405              		.loc 1 223 0
 406 0136 FFF7FEFF 		bl	AD5940_Initialize
 224:main.c        ****     printf("[INIT] Library Init complete.\r\n");
 407              		.loc 1 224 0
 408 013a 6B4B     		ldr	r3, .L13+60
 409 013c 1800     		movs	r0, r3
 410 013e FFF7FEFF 		bl	puts
 225:main.c        ****     
 226:main.c        ****     // 再次等待 AFE 稳定
 227:main.c        ****     CyDelay(100); 
 411              		.loc 1 227 0
 412 0142 6420     		movs	r0, #100
 413 0144 FFF7FEFF 		bl	CyDelay
 228:main.c        **** 
 229:main.c        ****     // ====================================================================
 230:main.c        ****     // 步骤 5: 配置安培法 (Amperometric) 参数
 231:main.c        ****     // ====================================================================
 232:main.c        ****     printf("[INIT] Step 5: Configuring Application Parameters...\r\n");
 414              		.loc 1 232 0
 415 0148 684B     		ldr	r3, .L13+64
 416 014a 1800     		movs	r0, r3
 417 014c FFF7FEFF 		bl	puts
 233:main.c        ****     
 234:main.c        ****     AppAMPGetCfg(&pAmpCfg);
 418              		.loc 1 234 0
 419 0150 674B     		ldr	r3, .L13+68
 420 0152 1800     		movs	r0, r3
 421 0154 FFF7FEFF 		bl	AppAMPGetCfg
 235:main.c        ****     if(pAmpCfg == NULL)
 422              		.loc 1 235 0
 423 0158 654B     		ldr	r3, .L13+68
 424 015a 1B68     		ldr	r3, [r3]
ARM GAS  C:\Users\13740\AppData\Local\Temp\cc6vMOIu.s 			page 14


 425 015c 002B     		cmp	r3, #0
 426 015e 04D1     		bne	.L10
 236:main.c        ****     {
 237:main.c        ****         printf("[ERROR] pAmpCfg is NULL!\r\n");
 427              		.loc 1 237 0
 428 0160 644B     		ldr	r3, .L13+72
 429 0162 1800     		movs	r0, r3
 430 0164 FFF7FEFF 		bl	puts
 238:main.c        ****         return;
 431              		.loc 1 238 0
 432 0168 9CE0     		b	.L1
 433              	.L10:
 239:main.c        ****     }
 240:main.c        ****     
 241:main.c        ****     AD5940_LPModeClkS(LPMODECLK_LFOSC);
 434              		.loc 1 241 0
 435 016a 0120     		movs	r0, #1
 436 016c FFF7FEFF 		bl	AD5940_LPModeClkS
 242:main.c        **** 
 243:main.c        ****     // --- 基础配置 ---
 244:main.c        ****     pAmpCfg->bParaChanged = bTRUE;
 437              		.loc 1 244 0
 438 0170 5F4B     		ldr	r3, .L13+68
 439 0172 1B68     		ldr	r3, [r3]
 440 0174 0122     		movs	r2, #1
 441 0176 1A70     		strb	r2, [r3]
 245:main.c        ****     pAmpCfg->SeqStartAddr = 0;
 442              		.loc 1 245 0
 443 0178 5D4B     		ldr	r3, .L13+68
 444 017a 1B68     		ldr	r3, [r3]
 445 017c 0022     		movs	r2, #0
 446 017e 5A60     		str	r2, [r3, #4]
 246:main.c        ****     pAmpCfg->MaxSeqLen = 512;
 447              		.loc 1 246 0
 448 0180 5B4B     		ldr	r3, .L13+68
 449 0182 1B68     		ldr	r3, [r3]
 450 0184 8022     		movs	r2, #128
 451 0186 9200     		lsls	r2, r2, #2
 452 0188 9A60     		str	r2, [r3, #8]
 247:main.c        ****     pAmpCfg->SeqStartAddrCal = 0;
 453              		.loc 1 247 0
 454 018a 594B     		ldr	r3, .L13+68
 455 018c 1B68     		ldr	r3, [r3]
 456 018e 0022     		movs	r2, #0
 457 0190 DA60     		str	r2, [r3, #12]
 248:main.c        ****     pAmpCfg->MaxSeqLenCal = 512;
 458              		.loc 1 248 0
 459 0192 574B     		ldr	r3, .L13+68
 460 0194 1B68     		ldr	r3, [r3]
 461 0196 8022     		movs	r2, #128
 462 0198 9200     		lsls	r2, r2, #2
 463 019a 1A61     		str	r2, [r3, #16]
 249:main.c        ****     
 250:main.c        ****     // --- 时钟与电源 ---
 251:main.c        ****     pAmpCfg->SysClkFreq = 16000000.0;
 464              		.loc 1 251 0
 465 019c 544B     		ldr	r3, .L13+68
ARM GAS  C:\Users\13740\AppData\Local\Temp\cc6vMOIu.s 			page 15


 466 019e 1B68     		ldr	r3, [r3]
 467 01a0 554A     		ldr	r2, .L13+76
 468 01a2 9A61     		str	r2, [r3, #24]
 252:main.c        ****     pAmpCfg->WuptClkFreq = 32000.0;
 469              		.loc 1 252 0
 470 01a4 524B     		ldr	r3, .L13+68
 471 01a6 1B68     		ldr	r3, [r3]
 472 01a8 544A     		ldr	r2, .L13+80
 473 01aa DA61     		str	r2, [r3, #28]
 253:main.c        ****     pAmpCfg->AdcClkFreq = 16000000.0;
 474              		.loc 1 253 0
 475 01ac 504B     		ldr	r3, .L13+68
 476 01ae 1B68     		ldr	r3, [r3]
 477 01b0 514A     		ldr	r2, .L13+76
 478 01b2 1A62     		str	r2, [r3, #32]
 254:main.c        ****     pAmpCfg->PwrMod = AFEPWR_LP; // 低功耗
 479              		.loc 1 254 0
 480 01b4 4E4B     		ldr	r3, .L13+68
 481 01b6 1B68     		ldr	r3, [r3]
 482 01b8 0022     		movs	r2, #0
 483 01ba 9A63     		str	r2, [r3, #56]
 255:main.c        **** 
 256:main.c        ****     // --- 测量参数 ---
 257:main.c        ****     pAmpCfg->AmpODR = 10.0;      // 采样率 10Hz
 484              		.loc 1 257 0
 485 01bc 4C4B     		ldr	r3, .L13+68
 486 01be 1B68     		ldr	r3, [r3]
 487 01c0 4F4A     		ldr	r2, .L13+84
 488 01c2 9A62     		str	r2, [r3, #40]
 258:main.c        ****     pAmpCfg->NumOfData = -1;     // -1 表示无限连续测量
 489              		.loc 1 258 0
 490 01c4 4A4B     		ldr	r3, .L13+68
 491 01c6 1B68     		ldr	r3, [r3]
 492 01c8 0122     		movs	r2, #1
 493 01ca 5242     		rsbs	r2, r2, #0
 494 01cc DA62     		str	r2, [r3, #44]
 259:main.c        ****     pAmpCfg->FifoThresh = 4;     // FIFO 阈值
 495              		.loc 1 259 0
 496 01ce 484B     		ldr	r3, .L13+68
 497 01d0 1B68     		ldr	r3, [r3]
 498 01d2 0422     		movs	r2, #4
 499 01d4 5A62     		str	r2, [r3, #36]
 260:main.c        **** 
 261:main.c        ****     // --- 电化学参数 (根据你的代码) ---
 262:main.c        ****     pAmpCfg->RcalVal = 10000.0;     // 10k 校准电阻
 500              		.loc 1 262 0
 501 01d6 464B     		ldr	r3, .L13+68
 502 01d8 1B68     		ldr	r3, [r3]
 503 01da 4A4A     		ldr	r2, .L13+88
 504 01dc 1A63     		str	r2, [r3, #48]
 263:main.c        ****     pAmpCfg->ADCRefVolt = 1.82;     // Vref 1.82V
 505              		.loc 1 263 0
 506 01de 444B     		ldr	r3, .L13+68
 507 01e0 1B68     		ldr	r3, [r3]
 508 01e2 494A     		ldr	r2, .L13+92
 509 01e4 5A63     		str	r2, [r3, #52]
 264:main.c        ****     pAmpCfg->ExtRtia = bFALSE;      // 使用内部 RTIA
ARM GAS  C:\Users\13740\AppData\Local\Temp\cc6vMOIu.s 			page 16


 510              		.loc 1 264 0
 511 01e6 424B     		ldr	r3, .L13+68
 512 01e8 1B68     		ldr	r3, [r3]
 513 01ea 6422     		movs	r2, #100
 514 01ec 0021     		movs	r1, #0
 515 01ee 9954     		strb	r1, [r3, r2]
 265:main.c        **** 
 266:main.c        ****     // --- LPTIA (低功耗跨阻放大器) ---
 267:main.c        ****     pAmpCfg->LptiaRtiaSel = LPTIARTIA_10K; // 反馈电阻 10k
 516              		.loc 1 267 0
 517 01f0 3F4B     		ldr	r3, .L13+68
 518 01f2 1B68     		ldr	r3, [r3]
 519 01f4 0822     		movs	r2, #8
 520 01f6 9A64     		str	r2, [r3, #72]
 268:main.c        ****     pAmpCfg->LpTiaRf = LPTIARF_1M;         // 滤波电阻
 521              		.loc 1 268 0
 522 01f8 3D4B     		ldr	r3, .L13+68
 523 01fa 1B68     		ldr	r3, [r3]
 524 01fc 0722     		movs	r2, #7
 525 01fe DA64     		str	r2, [r3, #76]
 269:main.c        ****     pAmpCfg->LpTiaRl = LPTIARLOAD_100R;    // 负载电阻
 526              		.loc 1 269 0
 527 0200 3B4B     		ldr	r3, .L13+68
 528 0202 1B68     		ldr	r3, [r3]
 529 0204 0422     		movs	r2, #4
 530 0206 1A65     		str	r2, [r3, #80]
 270:main.c        ****     
 271:main.c        ****     // --- 偏置电压 ---
 272:main.c        ****     pAmpCfg->Vzero = 1100.0;      // Vzero = 1.1V
 531              		.loc 1 272 0
 532 0208 394B     		ldr	r3, .L13+68
 533 020a 1B68     		ldr	r3, [r3]
 534 020c 3F4A     		ldr	r2, .L13+96
 535 020e DA65     		str	r2, [r3, #92]
 273:main.c        ****     pAmpCfg->SensorBias = 0.0;    // Vbias = 0V (Sensor = Vzero)
 536              		.loc 1 273 0
 537 0210 374B     		ldr	r3, .L13+68
 538 0212 1B68     		ldr	r3, [r3]
 539 0214 0022     		movs	r2, #0
 540 0216 1A66     		str	r2, [r3, #96]
 274:main.c        **** 
 275:main.c        ****     // --- ADC ---
 276:main.c        ****     pAmpCfg->ADCPgaGain = ADCPGA_1P5;
 541              		.loc 1 276 0
 542 0218 354B     		ldr	r3, .L13+68
 543 021a 1B68     		ldr	r3, [r3]
 544 021c 0122     		movs	r2, #1
 545 021e DA63     		str	r2, [r3, #60]
 277:main.c        ****     pAmpCfg->ADCSinc3Osr = ADCSINC3OSR_4;
 546              		.loc 1 277 0
 547 0220 334B     		ldr	r3, .L13+68
 548 0222 1B68     		ldr	r3, [r3]
 549 0224 4022     		movs	r2, #64
 550 0226 0121     		movs	r1, #1
 551 0228 9954     		strb	r1, [r3, r2]
 278:main.c        ****     pAmpCfg->ADCSinc2Osr = ADCSINC2OSR_178;
 552              		.loc 1 278 0
ARM GAS  C:\Users\13740\AppData\Local\Temp\cc6vMOIu.s 			page 17


 553 022a 314B     		ldr	r3, .L13+68
 554 022c 1B68     		ldr	r3, [r3]
 555 022e 4122     		movs	r2, #65
 556 0230 0321     		movs	r1, #3
 557 0232 9954     		strb	r1, [r3, r2]
 279:main.c        ****     pAmpCfg->DataFifoSrc = FIFOSRC_SINC3;
 558              		.loc 1 279 0
 559 0234 2E4B     		ldr	r3, .L13+68
 560 0236 1B68     		ldr	r3, [r3]
 561 0238 0022     		movs	r2, #0
 562 023a 5A64     		str	r2, [r3, #68]
 280:main.c        **** 
 281:main.c        ****     // 清除状态
 282:main.c        ****     pAmpCfg->AMPInited = bFALSE;
 563              		.loc 1 282 0
 564 023c 2C4B     		ldr	r3, .L13+68
 565 023e 1B68     		ldr	r3, [r3]
 566 0240 6C22     		movs	r2, #108
 567 0242 0021     		movs	r1, #0
 568 0244 9954     		strb	r1, [r3, r2]
 283:main.c        ****     pAmpCfg->StopRequired = bFALSE;
 569              		.loc 1 283 0
 570 0246 2A4B     		ldr	r3, .L13+68
 571 0248 1B68     		ldr	r3, [r3]
 572 024a 9822     		movs	r2, #152
 573 024c 0021     		movs	r1, #0
 574 024e 9954     		strb	r1, [r3, r2]
 284:main.c        ****     pAmpCfg->FifoDataCount = 0;
 575              		.loc 1 284 0
 576 0250 274B     		ldr	r3, .L13+68
 577 0252 1B68     		ldr	r3, [r3]
 578 0254 9C22     		movs	r2, #156
 579 0256 0021     		movs	r1, #0
 580 0258 9950     		str	r1, [r3, r2]
 285:main.c        **** 
 286:main.c        ****     // ====================================================================
 287:main.c        ****     // 步骤 6: 启动应用
 288:main.c        ****     // ====================================================================
 289:main.c        ****     printf("[INIT] Step 6: Calling AppAMPInit...\r\n");
 581              		.loc 1 289 0
 582 025a 2D4B     		ldr	r3, .L13+100
 583 025c 1800     		movs	r0, r3
 584 025e FFF7FEFF 		bl	puts
 290:main.c        ****     error = AppAMPInit(ampBuffer, 512);
 585              		.loc 1 290 0
 586 0262 8023     		movs	r3, #128
 587 0264 9A00     		lsls	r2, r3, #2
 588 0266 2B4B     		ldr	r3, .L13+104
 589 0268 1100     		movs	r1, r2
 590 026a 1800     		movs	r0, r3
 591 026c FFF7FEFF 		bl	AppAMPInit
 592 0270 0300     		movs	r3, r0
 593 0272 7B60     		str	r3, [r7, #4]
 291:main.c        ****     
 292:main.c        ****     if(error == AD5940ERR_OK)
 594              		.loc 1 292 0
 595 0274 7B68     		ldr	r3, [r7, #4]
ARM GAS  C:\Users\13740\AppData\Local\Temp\cc6vMOIu.s 			page 18


 596 0276 002B     		cmp	r3, #0
 597 0278 0ED1     		bne	.L12
 293:main.c        ****     {
 294:main.c        ****         printf("[OK] AD5941 System Initialized Successfully.\r\n");
 598              		.loc 1 294 0
 599 027a 274B     		ldr	r3, .L13+108
 600 027c 1800     		movs	r0, r3
 601 027e FFF7FEFF 		bl	puts
 295:main.c        ****         printf("     AMPInited Flag: %d\r\n", pAmpCfg->AMPInited);
 602              		.loc 1 295 0
 603 0282 1B4B     		ldr	r3, .L13+68
 604 0284 1B68     		ldr	r3, [r3]
 605 0286 6C22     		movs	r2, #108
 606 0288 9B5C     		ldrb	r3, [r3, r2]
 607 028a 1A00     		movs	r2, r3
 608 028c 234B     		ldr	r3, .L13+112
 609 028e 1100     		movs	r1, r2
 610 0290 1800     		movs	r0, r3
 611 0292 FFF7FEFF 		bl	printf
 612 0296 05E0     		b	.L1
 613              	.L12:
 296:main.c        ****     }
 297:main.c        ****     else
 298:main.c        ****     {
 299:main.c        ****         printf("[ERROR] AppAMPInit failed with error code: %d\r\n", error);
 614              		.loc 1 299 0
 615 0298 7A68     		ldr	r2, [r7, #4]
 616 029a 214B     		ldr	r3, .L13+116
 617 029c 1100     		movs	r1, r2
 618 029e 1800     		movs	r0, r3
 619 02a0 FFF7FEFF 		bl	printf
 620              	.L1:
 300:main.c        ****     }
 301:main.c        **** }
 621              		.loc 1 301 0
 622 02a4 BD46     		mov	sp, r7
 623 02a6 06B0     		add	sp, sp, #24
 624              		@ sp needed
 625 02a8 80BD     		pop	{r7, pc}
 626              	.L14:
 627 02aa C046     		.align	2
 628              	.L13:
 629 02ac 70000000 		.word	.LC0
 630 02b0 98000000 		.word	.LC2
 631 02b4 BC000000 		.word	.LC4
 632 02b8 E8000000 		.word	.LC6
 633 02bc 04040000 		.word	1028
 634 02c0 14010000 		.word	.LC8
 635 02c4 44410000 		.word	16708
 636 02c8 01550000 		.word	21761
 637 02cc 02550000 		.word	21762
 638 02d0 48010000 		.word	.LC10
 639 02d4 68010000 		.word	.LC12
 640 02d8 FFFF0000 		.word	65535
 641 02dc A8010000 		.word	.LC14
 642 02e0 E8010000 		.word	.LC16
 643 02e4 24020000 		.word	.LC18
ARM GAS  C:\Users\13740\AppData\Local\Temp\cc6vMOIu.s 			page 19


 644 02e8 60020000 		.word	.LC20
 645 02ec 80020000 		.word	.LC22
 646 02f0 00000000 		.word	pAmpCfg
 647 02f4 B8020000 		.word	.LC25
 648 02f8 0024744B 		.word	1265902592
 649 02fc 0000FA46 		.word	1190789120
 650 0300 00002041 		.word	1092616192
 651 0304 00401C46 		.word	1176256512
 652 0308 C3F5E83F 		.word	1072231875
 653 030c 00808944 		.word	1149861888
 654 0310 D4020000 		.word	.LC27
 655 0314 00000000 		.word	ampBuffer
 656 0318 FC020000 		.word	.LC30
 657 031c 2C030000 		.word	.LC32
 658 0320 48030000 		.word	.LC34
 659              		.cfi_endproc
 660              	.LFE36:
 661              		.size	AD5941_Initialize, .-AD5941_Initialize
 662              		.section	.rodata
 663              		.align	2
 664              	.LC36:
 665 0378 0A3D3D3D 		.ascii	"\012=== ELECTRODE CONFIGURATION ===\000"
 665      20454C45 
 665      4354524F 
 665      44452043 
 665      4F4E4649 
 666 0399 000000   		.align	2
 667              	.LC38:
 668 039c 5B444542 		.ascii	"[DEBUG] Electrode Control Pin Status:\000"
 668      55475D20 
 668      456C6563 
 668      74726F64 
 668      6520436F 
 669 03c2 0000     		.align	2
 670              	.LC40:
 671 03c4 20202020 		.ascii	"    AMP1_EN (Glucose): %d\012\000"
 671      414D5031 
 671      5F454E20 
 671      28476C75 
 671      636F7365 
 672 03df 00       		.align	2
 673              	.LC42:
 674 03e0 20202020 		.ascii	"    AMP2_EN (Lactate): %d\012\000"
 674      414D5032 
 674      5F454E20 
 674      284C6163 
 674      74617465 
 675 03fb 00       		.align	2
 676              	.LC44:
 677 03fc 20202020 		.ascii	"    AMP3_EN (Uric Acid): %d\012\000"
 677      414D5033 
 677      5F454E20 
 677      28557269 
 677      63204163 
 678 0419 000000   		.align	2
 679              	.LC46:
 680 041c 0A5B4348 		.ascii	"\012[CHECK] Please verify:\000"
ARM GAS  C:\Users\13740\AppData\Local\Temp\cc6vMOIu.s 			page 20


 680      45434B5D 
 680      20506C65 
 680      61736520 
 680      76657269 
 681              		.align	2
 682              	.LC48:
 683 0434 20202020 		.ascii	"    1. WE (Working Electrode): Connected to appropr"
 683      312E2057 
 683      45202857 
 683      6F726B69 
 683      6E672045 
 684 0467 69617465 		.ascii	"iate sensor\000"
 684      2073656E 
 684      736F7200 
 685 0473 00       		.align	2
 686              	.LC50:
 687 0474 20202020 		.ascii	"    2. RE (Reference Electrode): Connected to Ag/Ag"
 687      322E2052 
 687      45202852 
 687      65666572 
 687      656E6365 
 688 04a7 436C206F 		.ascii	"Cl or similar\000"
 688      72207369 
 688      6D696C61 
 688      7200
 689 04b5 000000   		.align	2
 690              	.LC52:
 691 04b8 20202020 		.ascii	"    3. CE (Counter Electrode): Connected to carbon "
 691      332E2043 
 691      45202843 
 691      6F756E74 
 691      65722045 
 692 04eb 6F722073 		.ascii	"or similar\000"
 692      696D696C 
 692      617200
 693              		.global	__aeabi_f2d
 694 04f6 0000     		.align	2
 695              	.LC55:
 696 04f8 20202020 		.ascii	"    4. Sensor bias voltage: %.1f mV\012\000"
 696      342E2053 
 696      656E736F 
 696      72206269 
 696      61732076 
 697 051d 000000   		.align	2
 698              	.LC57:
 699 0520 20202020 		.ascii	"    5. RTIA value: %.0f Ohm\012\000"
 699      352E2052 
 699      54494120 
 699      76616C75 
 699      653A2025 
 700 053d 000000   		.align	2
 701              	.LC59:
 702 0540 3D3D3D20 		.ascii	"=== ELECTRODE TEST END ===\012\000"
 702      454C4543 
 702      54524F44 
 702      45205445 
 702      53542045 
ARM GAS  C:\Users\13740\AppData\Local\Temp\cc6vMOIu.s 			page 21


 703              		.section	.text.DiagnosticsElectrodes,"ax",%progbits
 704              		.align	2
 705              		.global	DiagnosticsElectrodes
 706              		.code	16
 707              		.thumb_func
 708              		.type	DiagnosticsElectrodes, %function
 709              	DiagnosticsElectrodes:
 710              	.LFB37:
 302:main.c        **** 
 303:main.c        **** 
 304:main.c        **** 
 305:main.c        **** /*******************************************************************************
 306:main.c        **** * Function Name: DiagnosticsElectrodes
 307:main.c        **** ********************************************************************************
 308:main.c        **** * Summary:
 309:main.c        **** *   诊断电极配置和接线
 310:main.c        **** *******************************************************************************/
 311:main.c        **** void DiagnosticsElectrodes(void)
 312:main.c        **** {
 711              		.loc 1 312 0
 712              		.cfi_startproc
 713              		@ args = 0, pretend = 0, frame = 0
 714              		@ frame_needed = 1, uses_anonymous_args = 0
 715 0000 B0B5     		push	{r4, r5, r7, lr}
 716              		.cfi_def_cfa_offset 16
 717              		.cfi_offset 4, -16
 718              		.cfi_offset 5, -12
 719              		.cfi_offset 7, -8
 720              		.cfi_offset 14, -4
 721 0002 00AF     		add	r7, sp, #0
 722              		.cfi_def_cfa_register 7
 313:main.c        ****     printf("\n=== ELECTRODE CONFIGURATION ===\n");
 723              		.loc 1 313 0
 724 0004 2A4B     		ldr	r3, .L16
 725 0006 1800     		movs	r0, r3
 726 0008 FFF7FEFF 		bl	puts
 314:main.c        ****     
 315:main.c        ****     printf("[DEBUG] Electrode Control Pin Status:\n");
 727              		.loc 1 315 0
 728 000c 294B     		ldr	r3, .L16+4
 729 000e 1800     		movs	r0, r3
 730 0010 FFF7FEFF 		bl	puts
 316:main.c        ****     printf("    AMP1_EN (Glucose): %d\n", (int)AMP1_EN_Read());
 731              		.loc 1 316 0
 732 0014 FFF7FEFF 		bl	AMP1_EN_Read
 733 0018 0300     		movs	r3, r0
 734 001a 1A00     		movs	r2, r3
 735 001c 264B     		ldr	r3, .L16+8
 736 001e 1100     		movs	r1, r2
 737 0020 1800     		movs	r0, r3
 738 0022 FFF7FEFF 		bl	printf
 317:main.c        ****     printf("    AMP2_EN (Lactate): %d\n", (int)AMP2_EN_Read());
 739              		.loc 1 317 0
 740 0026 FFF7FEFF 		bl	AMP2_EN_Read
 741 002a 0300     		movs	r3, r0
 742 002c 1A00     		movs	r2, r3
 743 002e 234B     		ldr	r3, .L16+12
ARM GAS  C:\Users\13740\AppData\Local\Temp\cc6vMOIu.s 			page 22


 744 0030 1100     		movs	r1, r2
 745 0032 1800     		movs	r0, r3
 746 0034 FFF7FEFF 		bl	printf
 318:main.c        ****     printf("    AMP3_EN (Uric Acid): %d\n", (int)AMP3_EN_Read());
 747              		.loc 1 318 0
 748 0038 FFF7FEFF 		bl	AMP3_EN_Read
 749 003c 0300     		movs	r3, r0
 750 003e 1A00     		movs	r2, r3
 751 0040 1F4B     		ldr	r3, .L16+16
 752 0042 1100     		movs	r1, r2
 753 0044 1800     		movs	r0, r3
 754 0046 FFF7FEFF 		bl	printf
 319:main.c        ****     
 320:main.c        ****     printf("\n[CHECK] Please verify:\n");
 755              		.loc 1 320 0
 756 004a 1E4B     		ldr	r3, .L16+20
 757 004c 1800     		movs	r0, r3
 758 004e FFF7FEFF 		bl	puts
 321:main.c        ****     printf("    1. WE (Working Electrode): Connected to appropriate sensor\n");
 759              		.loc 1 321 0
 760 0052 1D4B     		ldr	r3, .L16+24
 761 0054 1800     		movs	r0, r3
 762 0056 FFF7FEFF 		bl	puts
 322:main.c        ****     printf("    2. RE (Reference Electrode): Connected to Ag/AgCl or similar\n");
 763              		.loc 1 322 0
 764 005a 1C4B     		ldr	r3, .L16+28
 765 005c 1800     		movs	r0, r3
 766 005e FFF7FEFF 		bl	puts
 323:main.c        ****     printf("    3. CE (Counter Electrode): Connected to carbon or similar\n");
 767              		.loc 1 323 0
 768 0062 1B4B     		ldr	r3, .L16+32
 769 0064 1800     		movs	r0, r3
 770 0066 FFF7FEFF 		bl	puts
 324:main.c        ****     printf("    4. Sensor bias voltage: %.1f mV\n", (double)pAmpCfg->SensorBias);
 771              		.loc 1 324 0
 772 006a 1A4B     		ldr	r3, .L16+36
 773 006c 1B68     		ldr	r3, [r3]
 774 006e 1B6E     		ldr	r3, [r3, #96]
 775 0070 181C     		adds	r0, r3, #0
 776 0072 FFF7FEFF 		bl	__aeabi_f2d
 777 0076 0300     		movs	r3, r0
 778 0078 0C00     		movs	r4, r1
 779 007a 1749     		ldr	r1, .L16+40
 780 007c 1A00     		movs	r2, r3
 781 007e 2300     		movs	r3, r4
 782 0080 0800     		movs	r0, r1
 783 0082 FFF7FEFF 		bl	printf
 325:main.c        ****     printf("    5. RTIA value: %.0f Ohm\n", (double)pAmpCfg->RtiaCalValue.Magnitude);
 784              		.loc 1 325 0
 785 0086 134B     		ldr	r3, .L16+36
 786 0088 1B68     		ldr	r3, [r3]
 787 008a 5B6D     		ldr	r3, [r3, #84]
 788 008c 181C     		adds	r0, r3, #0
 789 008e FFF7FEFF 		bl	__aeabi_f2d
 790 0092 0300     		movs	r3, r0
 791 0094 0C00     		movs	r4, r1
 792 0096 1149     		ldr	r1, .L16+44
ARM GAS  C:\Users\13740\AppData\Local\Temp\cc6vMOIu.s 			page 23


 793 0098 1A00     		movs	r2, r3
 794 009a 2300     		movs	r3, r4
 795 009c 0800     		movs	r0, r1
 796 009e FFF7FEFF 		bl	printf
 326:main.c        ****     
 327:main.c        ****     printf("=== ELECTRODE TEST END ===\n\n");
 797              		.loc 1 327 0
 798 00a2 0F4B     		ldr	r3, .L16+48
 799 00a4 1800     		movs	r0, r3
 800 00a6 FFF7FEFF 		bl	puts
 328:main.c        **** }
 801              		.loc 1 328 0
 802 00aa C046     		nop
 803 00ac BD46     		mov	sp, r7
 804              		@ sp needed
 805 00ae B0BD     		pop	{r4, r5, r7, pc}
 806              	.L17:
 807              		.align	2
 808              	.L16:
 809 00b0 78030000 		.word	.LC36
 810 00b4 9C030000 		.word	.LC38
 811 00b8 C4030000 		.word	.LC40
 812 00bc E0030000 		.word	.LC42
 813 00c0 FC030000 		.word	.LC44
 814 00c4 1C040000 		.word	.LC46
 815 00c8 34040000 		.word	.LC48
 816 00cc 74040000 		.word	.LC50
 817 00d0 B8040000 		.word	.LC52
 818 00d4 00000000 		.word	pAmpCfg
 819 00d8 F8040000 		.word	.LC55
 820 00dc 20050000 		.word	.LC57
 821 00e0 40050000 		.word	.LC59
 822              		.cfi_endproc
 823              	.LFE37:
 824              		.size	DiagnosticsElectrodes, .-DiagnosticsElectrodes
 825              		.section	.rodata
 826              		.align	2
 827              	.LC61:
 828 055c 0A3D3D3D 		.ascii	"\012========== FIFO DIAGNOSTIC ==========\000"
 828      3D3D3D3D 
 828      3D3D3D20 
 828      4649464F 
 828      20444941 
 829 0583 00       		.align	2
 830              	.LC63:
 831 0584 4649464F 		.ascii	"FIFOCON (0x2080): 0x%08lX\012\000"
 831      434F4E20 
 831      28307832 
 831      30383029 
 831      3A203078 
 832 059f 00       		.align	2
 833              	.LC65:
 834 05a0 59455300 		.ascii	"YES\000"
 835              		.align	2
 836              	.LC67:
 837 05a4 4E4F20E2 		.ascii	"NO \342\206\220 \351\227\256\351\242\230\357\274\201"
 837      869020E9 
ARM GAS  C:\Users\13740\AppData\Local\Temp\cc6vMOIu.s 			page 24


 837      97AEE9A2 
 837      98EFBC81 
 838 05b4 00       		.ascii	"\000"
 839 05b5 000000   		.align	2
 840              	.LC69:
 841 05b8 20204649 		.ascii	"  FIFO Enable: %s\012\000"
 841      464F2045 
 841      6E61626C 
 841      653A2025 
 841      730A00
 842 05cb 00       		.align	2
 843              	.LC71:
 844 05cc 20204461 		.ascii	"  Data Source: 0x%lX\012\000"
 844      74612053 
 844      6F757263 
 844      653A2030 
 844      78256C58 
 845 05e2 0000     		.align	2
 846              	.LC73:
 847 05e4 4649464F 		.ascii	"FIFOSTA (0x2084): 0x%08lX\012\000"
 847      53544120 
 847      28307832 
 847      30383429 
 847      3A203078 
 848 05ff 00       		.align	2
 849              	.LC75:
 850 0600 20204649 		.ascii	"  FIFO Count: %d\012\000"
 850      464F2043 
 850      6F756E74 
 850      3A202564 
 850      0A00
 851 0612 0000     		.align	2
 852              	.LC77:
 853 0614 59455320 		.ascii	"YES \342\206\220 \344\270\245\351\207\215!\000"
 853      E2869020 
 853      E4B8A5E9 
 853      878D2100 
 854              		.align	2
 855              	.LC79:
 856 0624 4E4F00   		.ascii	"NO\000"
 857 0627 00       		.align	2
 858              	.LC81:
 859 0628 20204649 		.ascii	"  FIFO Overflow: %s\012\000"
 859      464F204F 
 859      76657266 
 859      6C6F773A 
 859      2025730A 
 860 063d 000000   		.align	2
 861              	.LC83:
 862 0640 41464543 		.ascii	"AFECON (0x2000): 0x%08lX\012\000"
 862      4F4E2028 
 862      30783230 
 862      3030293A 
 862      20307825 
 863 065a 0000     		.align	2
 864              	.LC85:
 865 065c 4F4E00   		.ascii	"ON\000"
ARM GAS  C:\Users\13740\AppData\Local\Temp\cc6vMOIu.s 			page 25


 866 065f 00       		.align	2
 867              	.LC87:
 868 0660 4F464620 		.ascii	"OFF \342\206\220 \351\227\256\351\242\230\357\274\201"
 868      E2869020 
 868      E997AEE9 
 868      A298EFBC 
 868      81
 869 0671 00       		.ascii	"\000"
 870 0672 0000     		.align	2
 871              	.LC89:
 872 0674 20204146 		.ascii	"  AFE Power: %s\012\000"
 872      4520506F 
 872      7765723A 
 872      2025730A 
 872      00
 873 0685 000000   		.align	2
 874              	.LC91:
 875 0688 20204144 		.ascii	"  ADC Enable: %s\012\000"
 875      4320456E 
 875      61626C65 
 875      3A202573 
 875      0A00
 876 069a 0000     		.align	2
 877              	.LC93:
 878 069c 41444343 		.ascii	"ADCCON (0x2300): 0x%08lX\012\000"
 878      4F4E2028 
 878      30783233 
 878      3030293A 
 878      20307825 
 879 06b6 0000     		.align	2
 880              	.LC95:
 881 06b8 4C505449 		.ascii	"LPTIACON (0x2200): 0x%08lX\012\000"
 881      41434F4E 
 881      20283078 
 881      32323030 
 881      293A2030 
 882              		.align	2
 883              	.LC97:
 884 06d4 20204C50 		.ascii	"  LPTIA Enable: %s\012\000"
 884      54494120 
 884      456E6162 
 884      6C653A20 
 884      25730A00 
 885              		.align	2
 886              	.LC100:
 887 06e8 0A417070 		.ascii	"\012AppAMP Config:\000"
 887      414D5020 
 887      436F6E66 
 887      69673A00 
 888              		.align	2
 889              	.LC102:
 890 06f8 2020414D 		.ascii	"  AMPInited: %d\012\000"
 890      50496E69 
 890      7465643A 
 890      2025640A 
 890      00
 891 0709 000000   		.align	2
ARM GAS  C:\Users\13740\AppData\Local\Temp\cc6vMOIu.s 			page 26


 892              	.LC104:
 893 070c 20205374 		.ascii	"  StopRequired: %d\012\000"
 893      6F705265 
 893      71756972 
 893      65643A20 
 893      25640A00 
 894              		.align	2
 895              	.LC106:
 896 0720 20204669 		.ascii	"  FifoDataCount: %lu\012\000"
 896      666F4461 
 896      7461436F 
 896      756E743A 
 896      20256C75 
 897 0736 0000     		.align	2
 898              	.LC108:
 899 0738 2020416D 		.ascii	"  AmpODR: %.1f Hz\012\000"
 899      704F4452 
 899      3A20252E 
 899      31662048 
 899      7A0A00
 900 074b 00       		.align	2
 901              	.LC110:
 902 074c 20204E75 		.ascii	"  NumOfData: %ld\012\000"
 902      6D4F6644 
 902      6174613A 
 902      20256C64 
 902      0A00
 903 075e 0000     		.align	2
 904              	.LC112:
 905 0760 70416D70 		.ascii	"pAmpCfg is NULL! \342\206\220 \344\270\245\351\207\215"
 905      43666720 
 905      6973204E 
 905      554C4C21 
 905      20E28690 
 906 077b E997AEE9 		.ascii	"\351\227\256\351\242\230\000"
 906      A29800
 907 0782 0000     		.align	2
 908              	.LC114:
 909 0784 0A52756E 		.ascii	"\012Runtime Flags:\000"
 909      74696D65 
 909      20466C61 
 909      67733A00 
 910              		.align	2
 911              	.LC117:
 912 0794 2020675F 		.ascii	"  g_init_state: %d (should be %d)\012\000"
 912      696E6974 
 912      5F737461 
 912      74653A20 
 912      25642028 
 913 07b7 00       		.align	2
 914              	.LC120:
 915 07b8 2020675F 		.ascii	"  g_test_done: %d (should be 1)\012\000"
 915      74657374 
 915      5F646F6E 
 915      653A2025 
 915      64202873 
 916 07d9 000000   		.align	2
ARM GAS  C:\Users\13740\AppData\Local\Temp\cc6vMOIu.s 			page 27


 917              	.LC122:
 918 07dc 3D3D3D3D 		.ascii	"========================================\012\000"
 918      3D3D3D3D 
 918      3D3D3D3D 
 918      3D3D3D3D 
 918      3D3D3D3D 
 919              		.section	.text.DiagnoseFIFO,"ax",%progbits
 920              		.align	2
 921              		.global	DiagnoseFIFO
 922              		.code	16
 923              		.thumb_func
 924              		.type	DiagnoseFIFO, %function
 925              	DiagnoseFIFO:
 926              	.LFB38:
 329:main.c        **** 
 330:main.c        **** 
 331:main.c        **** 
 332:main.c        **** /*******************************************************************************
 333:main.c        **** * ⚠️ FIFO诊断函数：检查FIFO配置和状态
 334:main.c        **** *******************************************************************************/
 335:main.c        **** void DiagnoseFIFO(void)
 336:main.c        **** {
 927              		.loc 1 336 0
 928              		.cfi_startproc
 929              		@ args = 0, pretend = 0, frame = 24
 930              		@ frame_needed = 1, uses_anonymous_args = 0
 931 0000 90B5     		push	{r4, r7, lr}
 932              		.cfi_def_cfa_offset 12
 933              		.cfi_offset 4, -12
 934              		.cfi_offset 7, -8
 935              		.cfi_offset 14, -4
 936 0002 87B0     		sub	sp, sp, #28
 937              		.cfi_def_cfa_offset 40
 938 0004 00AF     		add	r7, sp, #0
 939              		.cfi_def_cfa_register 7
 337:main.c        ****     printf("\n========== FIFO DIAGNOSTIC ==========\n");
 940              		.loc 1 337 0
 941 0006 774B     		ldr	r3, .L31
 942 0008 1800     		movs	r0, r3
 943 000a FFF7FEFF 		bl	puts
 338:main.c        ****     
 339:main.c        ****     // 1. 检查FIFO配置寄存器
 340:main.c        ****     uint32_t fifocon = AD5940_ReadReg(0x2080);
 944              		.loc 1 340 0
 945 000e 8223     		movs	r3, #130
 946 0010 9B01     		lsls	r3, r3, #6
 947 0012 1800     		movs	r0, r3
 948 0014 FFF7FEFF 		bl	AD5940_ReadReg
 949 0018 0300     		movs	r3, r0
 950 001a 7B61     		str	r3, [r7, #20]
 341:main.c        ****     printf("FIFOCON (0x2080): 0x%08lX\n", fifocon);
 951              		.loc 1 341 0
 952 001c 7A69     		ldr	r2, [r7, #20]
 953 001e 724B     		ldr	r3, .L31+4
 954 0020 1100     		movs	r1, r2
 955 0022 1800     		movs	r0, r3
 956 0024 FFF7FEFF 		bl	printf
ARM GAS  C:\Users\13740\AppData\Local\Temp\cc6vMOIu.s 			page 28


 342:main.c        ****     printf("  FIFO Enable: %s\n", (fifocon & 0x01) ? "YES" : "NO ← 问题！");
 957              		.loc 1 342 0
 958 0028 7B69     		ldr	r3, [r7, #20]
 959 002a 0122     		movs	r2, #1
 960 002c 1340     		ands	r3, r2
 961 002e 01D0     		beq	.L19
 962              		.loc 1 342 0 is_stmt 0 discriminator 1
 963 0030 6E4B     		ldr	r3, .L31+8
 964 0032 00E0     		b	.L20
 965              	.L19:
 966              		.loc 1 342 0 discriminator 2
 967 0034 6E4B     		ldr	r3, .L31+12
 968              	.L20:
 969              		.loc 1 342 0 discriminator 4
 970 0036 6F4A     		ldr	r2, .L31+16
 971 0038 1900     		movs	r1, r3
 972 003a 1000     		movs	r0, r2
 973 003c FFF7FEFF 		bl	printf
 343:main.c        ****     printf("  Data Source: 0x%lX\n", (fifocon >> 2) & 0x07);
 974              		.loc 1 343 0 is_stmt 1 discriminator 4
 975 0040 7B69     		ldr	r3, [r7, #20]
 976 0042 9B08     		lsrs	r3, r3, #2
 977 0044 0722     		movs	r2, #7
 978 0046 1A40     		ands	r2, r3
 979 0048 6B4B     		ldr	r3, .L31+20
 980 004a 1100     		movs	r1, r2
 981 004c 1800     		movs	r0, r3
 982 004e FFF7FEFF 		bl	printf
 344:main.c        ****     
 345:main.c        ****     // 2. 检查FIFO状态
 346:main.c        ****     uint32_t fifosta = AD5940_ReadReg(0x2084);
 983              		.loc 1 346 0 discriminator 4
 984 0052 6A4B     		ldr	r3, .L31+24
 985 0054 1800     		movs	r0, r3
 986 0056 FFF7FEFF 		bl	AD5940_ReadReg
 987 005a 0300     		movs	r3, r0
 988 005c 3B61     		str	r3, [r7, #16]
 347:main.c        ****     printf("FIFOSTA (0x2084): 0x%08lX\n", fifosta);
 989              		.loc 1 347 0 discriminator 4
 990 005e 3A69     		ldr	r2, [r7, #16]
 991 0060 674B     		ldr	r3, .L31+28
 992 0062 1100     		movs	r1, r2
 993 0064 1800     		movs	r0, r3
 994 0066 FFF7FEFF 		bl	printf
 348:main.c        ****     printf("  FIFO Count: %d\n", fifosta & 0x7FF);
 995              		.loc 1 348 0 discriminator 4
 996 006a 3B69     		ldr	r3, [r7, #16]
 997 006c 5B05     		lsls	r3, r3, #21
 998 006e 5A0D     		lsrs	r2, r3, #21
 999 0070 644B     		ldr	r3, .L31+32
 1000 0072 1100     		movs	r1, r2
 1001 0074 1800     		movs	r0, r3
 1002 0076 FFF7FEFF 		bl	printf
 349:main.c        ****     printf("  FIFO Overflow: %s\n", (fifosta & 0x1000) ? "YES ← 严重!" : "NO");
 1003              		.loc 1 349 0 discriminator 4
 1004 007a 3A69     		ldr	r2, [r7, #16]
 1005 007c 8023     		movs	r3, #128
ARM GAS  C:\Users\13740\AppData\Local\Temp\cc6vMOIu.s 			page 29


 1006 007e 5B01     		lsls	r3, r3, #5
 1007 0080 1340     		ands	r3, r2
 1008 0082 01D0     		beq	.L21
 1009              		.loc 1 349 0 is_stmt 0 discriminator 1
 1010 0084 604B     		ldr	r3, .L31+36
 1011 0086 00E0     		b	.L22
 1012              	.L21:
 1013              		.loc 1 349 0 discriminator 2
 1014 0088 604B     		ldr	r3, .L31+40
 1015              	.L22:
 1016              		.loc 1 349 0 discriminator 4
 1017 008a 614A     		ldr	r2, .L31+44
 1018 008c 1900     		movs	r1, r3
 1019 008e 1000     		movs	r0, r2
 1020 0090 FFF7FEFF 		bl	printf
 350:main.c        ****     
 351:main.c        ****     // 3. 检查AFE配置
 352:main.c        ****     uint32_t afecon = AD5940_ReadReg(0x2000);
 1021              		.loc 1 352 0 is_stmt 1 discriminator 4
 1022 0094 8023     		movs	r3, #128
 1023 0096 9B01     		lsls	r3, r3, #6
 1024 0098 1800     		movs	r0, r3
 1025 009a FFF7FEFF 		bl	AD5940_ReadReg
 1026 009e 0300     		movs	r3, r0
 1027 00a0 FB60     		str	r3, [r7, #12]
 353:main.c        ****     printf("AFECON (0x2000): 0x%08lX\n", afecon);
 1028              		.loc 1 353 0 discriminator 4
 1029 00a2 FA68     		ldr	r2, [r7, #12]
 1030 00a4 5B4B     		ldr	r3, .L31+48
 1031 00a6 1100     		movs	r1, r2
 1032 00a8 1800     		movs	r0, r3
 1033 00aa FFF7FEFF 		bl	printf
 354:main.c        ****     printf("  AFE Power: %s\n", (afecon & 0x01) ? "ON" : "OFF ← 问题！");
 1034              		.loc 1 354 0 discriminator 4
 1035 00ae FB68     		ldr	r3, [r7, #12]
 1036 00b0 0122     		movs	r2, #1
 1037 00b2 1340     		ands	r3, r2
 1038 00b4 01D0     		beq	.L23
 1039              		.loc 1 354 0 is_stmt 0 discriminator 1
 1040 00b6 584B     		ldr	r3, .L31+52
 1041 00b8 00E0     		b	.L24
 1042              	.L23:
 1043              		.loc 1 354 0 discriminator 2
 1044 00ba 584B     		ldr	r3, .L31+56
 1045              	.L24:
 1046              		.loc 1 354 0 discriminator 4
 1047 00bc 584A     		ldr	r2, .L31+60
 1048 00be 1900     		movs	r1, r3
 1049 00c0 1000     		movs	r0, r2
 1050 00c2 FFF7FEFF 		bl	printf
 355:main.c        ****     printf("  ADC Enable: %s\n", (afecon & 0x02) ? "YES" : "NO ← 问题！");
 1051              		.loc 1 355 0 is_stmt 1 discriminator 4
 1052 00c6 FB68     		ldr	r3, [r7, #12]
 1053 00c8 0222     		movs	r2, #2
 1054 00ca 1340     		ands	r3, r2
 1055 00cc 01D0     		beq	.L25
 1056              		.loc 1 355 0 is_stmt 0 discriminator 1
ARM GAS  C:\Users\13740\AppData\Local\Temp\cc6vMOIu.s 			page 30


 1057 00ce 474B     		ldr	r3, .L31+8
 1058 00d0 00E0     		b	.L26
 1059              	.L25:
 1060              		.loc 1 355 0 discriminator 2
 1061 00d2 474B     		ldr	r3, .L31+12
 1062              	.L26:
 1063              		.loc 1 355 0 discriminator 4
 1064 00d4 534A     		ldr	r2, .L31+64
 1065 00d6 1900     		movs	r1, r3
 1066 00d8 1000     		movs	r0, r2
 1067 00da FFF7FEFF 		bl	printf
 356:main.c        ****     
 357:main.c        ****     // 4. 检查ADC配置
 358:main.c        ****     uint32_t adccon = AD5940_ReadReg(0x2300);
 1068              		.loc 1 358 0 is_stmt 1 discriminator 4
 1069 00de 8C23     		movs	r3, #140
 1070 00e0 9B01     		lsls	r3, r3, #6
 1071 00e2 1800     		movs	r0, r3
 1072 00e4 FFF7FEFF 		bl	AD5940_ReadReg
 1073 00e8 0300     		movs	r3, r0
 1074 00ea BB60     		str	r3, [r7, #8]
 359:main.c        ****     printf("ADCCON (0x2300): 0x%08lX\n", adccon);
 1075              		.loc 1 359 0 discriminator 4
 1076 00ec BA68     		ldr	r2, [r7, #8]
 1077 00ee 4E4B     		ldr	r3, .L31+68
 1078 00f0 1100     		movs	r1, r2
 1079 00f2 1800     		movs	r0, r3
 1080 00f4 FFF7FEFF 		bl	printf
 360:main.c        ****     
 361:main.c        ****     // 5. 检查LPTIA配置
 362:main.c        ****     uint32_t lptiacon = AD5940_ReadReg(0x2200);
 1081              		.loc 1 362 0 discriminator 4
 1082 00f8 8823     		movs	r3, #136
 1083 00fa 9B01     		lsls	r3, r3, #6
 1084 00fc 1800     		movs	r0, r3
 1085 00fe FFF7FEFF 		bl	AD5940_ReadReg
 1086 0102 0300     		movs	r3, r0
 1087 0104 7B60     		str	r3, [r7, #4]
 363:main.c        ****     printf("LPTIACON (0x2200): 0x%08lX\n", lptiacon);
 1088              		.loc 1 363 0 discriminator 4
 1089 0106 7A68     		ldr	r2, [r7, #4]
 1090 0108 484B     		ldr	r3, .L31+72
 1091 010a 1100     		movs	r1, r2
 1092 010c 1800     		movs	r0, r3
 1093 010e FFF7FEFF 		bl	printf
 364:main.c        ****     printf("  LPTIA Enable: %s\n", (lptiacon & 0x01) ? "YES" : "NO ← 问题！");
 1094              		.loc 1 364 0 discriminator 4
 1095 0112 7B68     		ldr	r3, [r7, #4]
 1096 0114 0122     		movs	r2, #1
 1097 0116 1340     		ands	r3, r2
 1098 0118 01D0     		beq	.L27
 1099              		.loc 1 364 0 is_stmt 0 discriminator 1
 1100 011a 344B     		ldr	r3, .L31+8
 1101 011c 00E0     		b	.L28
 1102              	.L27:
 1103              		.loc 1 364 0 discriminator 2
 1104 011e 344B     		ldr	r3, .L31+12
ARM GAS  C:\Users\13740\AppData\Local\Temp\cc6vMOIu.s 			page 31


 1105              	.L28:
 1106              		.loc 1 364 0 discriminator 4
 1107 0120 434A     		ldr	r2, .L31+76
 1108 0122 1900     		movs	r1, r3
 1109 0124 1000     		movs	r0, r2
 1110 0126 FFF7FEFF 		bl	printf
 365:main.c        ****     
 366:main.c        ****     // 6. 检查AppAMP状态
 367:main.c        ****     if(pAmpCfg != NULL)
 1111              		.loc 1 367 0 is_stmt 1 discriminator 4
 1112 012a 424B     		ldr	r3, .L31+80
 1113 012c 1B68     		ldr	r3, [r3]
 1114 012e 002B     		cmp	r3, #0
 1115 0130 37D0     		beq	.L29
 368:main.c        ****     {
 369:main.c        ****         printf("\nAppAMP Config:\n");
 1116              		.loc 1 369 0
 1117 0132 414B     		ldr	r3, .L31+84
 1118 0134 1800     		movs	r0, r3
 1119 0136 FFF7FEFF 		bl	puts
 370:main.c        ****         printf("  AMPInited: %d\n", pAmpCfg->AMPInited);
 1120              		.loc 1 370 0
 1121 013a 3E4B     		ldr	r3, .L31+80
 1122 013c 1B68     		ldr	r3, [r3]
 1123 013e 6C22     		movs	r2, #108
 1124 0140 9B5C     		ldrb	r3, [r3, r2]
 1125 0142 1A00     		movs	r2, r3
 1126 0144 3D4B     		ldr	r3, .L31+88
 1127 0146 1100     		movs	r1, r2
 1128 0148 1800     		movs	r0, r3
 1129 014a FFF7FEFF 		bl	printf
 371:main.c        ****         printf("  StopRequired: %d\n", pAmpCfg->StopRequired);
 1130              		.loc 1 371 0
 1131 014e 394B     		ldr	r3, .L31+80
 1132 0150 1B68     		ldr	r3, [r3]
 1133 0152 9822     		movs	r2, #152
 1134 0154 9B5C     		ldrb	r3, [r3, r2]
 1135 0156 1A00     		movs	r2, r3
 1136 0158 394B     		ldr	r3, .L31+92
 1137 015a 1100     		movs	r1, r2
 1138 015c 1800     		movs	r0, r3
 1139 015e FFF7FEFF 		bl	printf
 372:main.c        ****         printf("  FifoDataCount: %lu\n", pAmpCfg->FifoDataCount);
 1140              		.loc 1 372 0
 1141 0162 344B     		ldr	r3, .L31+80
 1142 0164 1B68     		ldr	r3, [r3]
 1143 0166 9C22     		movs	r2, #156
 1144 0168 9A58     		ldr	r2, [r3, r2]
 1145 016a 364B     		ldr	r3, .L31+96
 1146 016c 1100     		movs	r1, r2
 1147 016e 1800     		movs	r0, r3
 1148 0170 FFF7FEFF 		bl	printf
 373:main.c        ****         printf("  AmpODR: %.1f Hz\n", pAmpCfg->AmpODR);
 1149              		.loc 1 373 0
 1150 0174 2F4B     		ldr	r3, .L31+80
 1151 0176 1B68     		ldr	r3, [r3]
 1152 0178 9B6A     		ldr	r3, [r3, #40]
ARM GAS  C:\Users\13740\AppData\Local\Temp\cc6vMOIu.s 			page 32


 1153 017a 181C     		adds	r0, r3, #0
 1154 017c FFF7FEFF 		bl	__aeabi_f2d
 1155 0180 0300     		movs	r3, r0
 1156 0182 0C00     		movs	r4, r1
 1157 0184 3049     		ldr	r1, .L31+100
 1158 0186 1A00     		movs	r2, r3
 1159 0188 2300     		movs	r3, r4
 1160 018a 0800     		movs	r0, r1
 1161 018c FFF7FEFF 		bl	printf
 374:main.c        ****         printf("  NumOfData: %ld\n", pAmpCfg->NumOfData);
 1162              		.loc 1 374 0
 1163 0190 284B     		ldr	r3, .L31+80
 1164 0192 1B68     		ldr	r3, [r3]
 1165 0194 DA6A     		ldr	r2, [r3, #44]
 1166 0196 2D4B     		ldr	r3, .L31+104
 1167 0198 1100     		movs	r1, r2
 1168 019a 1800     		movs	r0, r3
 1169 019c FFF7FEFF 		bl	printf
 1170 01a0 03E0     		b	.L30
 1171              	.L29:
 375:main.c        ****     }
 376:main.c        ****     else
 377:main.c        ****     {
 378:main.c        ****         printf("pAmpCfg is NULL! ← 严重问题\n");
 1172              		.loc 1 378 0
 1173 01a2 2B4B     		ldr	r3, .L31+108
 1174 01a4 1800     		movs	r0, r3
 1175 01a6 FFF7FEFF 		bl	puts
 1176              	.L30:
 379:main.c        ****     }
 380:main.c        ****     
 381:main.c        ****     // 7. 检查运行标志
 382:main.c        ****     printf("\nRuntime Flags:\n");
 1177              		.loc 1 382 0
 1178 01aa 2A4B     		ldr	r3, .L31+112
 1179 01ac 1800     		movs	r0, r3
 1180 01ae FFF7FEFF 		bl	puts
 383:main.c        ****     printf("  g_init_state: %d (should be %d)\n", g_init_state, INIT_COMPLETE);
 1181              		.loc 1 383 0
 1182 01b2 294B     		ldr	r3, .L31+116
 1183 01b4 1B78     		ldrb	r3, [r3]
 1184 01b6 1900     		movs	r1, r3
 1185 01b8 284B     		ldr	r3, .L31+120
 1186 01ba 0922     		movs	r2, #9
 1187 01bc 1800     		movs	r0, r3
 1188 01be FFF7FEFF 		bl	printf
 384:main.c        ****     printf("  g_test_done: %d (should be 1)\n", g_test_done);
 1189              		.loc 1 384 0
 1190 01c2 274B     		ldr	r3, .L31+124
 1191 01c4 1B78     		ldrb	r3, [r3]
 1192 01c6 1A00     		movs	r2, r3
 1193 01c8 264B     		ldr	r3, .L31+128
 1194 01ca 1100     		movs	r1, r2
 1195 01cc 1800     		movs	r0, r3
 1196 01ce FFF7FEFF 		bl	printf
 385:main.c        ****     
 386:main.c        ****     printf("========================================\n\n");
ARM GAS  C:\Users\13740\AppData\Local\Temp\cc6vMOIu.s 			page 33


 1197              		.loc 1 386 0
 1198 01d2 254B     		ldr	r3, .L31+132
 1199 01d4 1800     		movs	r0, r3
 1200 01d6 FFF7FEFF 		bl	puts
 387:main.c        **** }
 1201              		.loc 1 387 0
 1202 01da C046     		nop
 1203 01dc BD46     		mov	sp, r7
 1204 01de 07B0     		add	sp, sp, #28
 1205              		@ sp needed
 1206 01e0 90BD     		pop	{r4, r7, pc}
 1207              	.L32:
 1208 01e2 C046     		.align	2
 1209              	.L31:
 1210 01e4 5C050000 		.word	.LC61
 1211 01e8 84050000 		.word	.LC63
 1212 01ec A0050000 		.word	.LC65
 1213 01f0 A4050000 		.word	.LC67
 1214 01f4 B8050000 		.word	.LC69
 1215 01f8 CC050000 		.word	.LC71
 1216 01fc 84200000 		.word	8324
 1217 0200 E4050000 		.word	.LC73
 1218 0204 00060000 		.word	.LC75
 1219 0208 14060000 		.word	.LC77
 1220 020c 24060000 		.word	.LC79
 1221 0210 28060000 		.word	.LC81
 1222 0214 40060000 		.word	.LC83
 1223 0218 5C060000 		.word	.LC85
 1224 021c 60060000 		.word	.LC87
 1225 0220 74060000 		.word	.LC89
 1226 0224 88060000 		.word	.LC91
 1227 0228 9C060000 		.word	.LC93
 1228 022c B8060000 		.word	.LC95
 1229 0230 D4060000 		.word	.LC97
 1230 0234 00000000 		.word	pAmpCfg
 1231 0238 E8060000 		.word	.LC100
 1232 023c F8060000 		.word	.LC102
 1233 0240 0C070000 		.word	.LC104
 1234 0244 20070000 		.word	.LC106
 1235 0248 38070000 		.word	.LC108
 1236 024c 4C070000 		.word	.LC110
 1237 0250 60070000 		.word	.LC112
 1238 0254 84070000 		.word	.LC114
 1239 0258 70000000 		.word	g_init_state
 1240 025c 94070000 		.word	.LC117
 1241 0260 4A000000 		.word	g_test_done
 1242 0264 B8070000 		.word	.LC120
 1243 0268 DC070000 		.word	.LC122
 1244              		.cfi_endproc
 1245              	.LFE38:
 1246              		.size	DiagnoseFIFO, .-DiagnoseFIFO
 1247              		.section	.rodata
 1248 0806 0000     		.align	2
 1249              	.LC124:
 1250 0808 0A5B4649 		.ascii	"\012[FIX] Force enabling FIFO...\000"
 1250      585D2046 
 1250      6F726365 
ARM GAS  C:\Users\13740\AppData\Local\Temp\cc6vMOIu.s 			page 34


 1250      20656E61 
 1250      626C696E 
 1251 0826 0000     		.align	2
 1252              	.LC126:
 1253 0828 5B464958 		.ascii	"[FIX] New FIFOCON: 0x%08lX\012\000"
 1253      5D204E65 
 1253      77204649 
 1253      464F434F 
 1253      4E3A2030 
 1254              		.align	2
 1255              	.LC128:
 1256 0844 5B4F4B5D 		.ascii	"[OK] FIFO enabled!\000"
 1256      20464946 
 1256      4F20656E 
 1256      61626C65 
 1256      642100
 1257 0857 00       		.align	2
 1258              	.LC130:
 1259 0858 5B455252 		.ascii	"[ERROR] FIFO still disabled!\000"
 1259      4F525D20 
 1259      4649464F 
 1259      20737469 
 1259      6C6C2064 
 1260              		.section	.text.ForceFIFOEnable,"ax",%progbits
 1261              		.align	2
 1262              		.global	ForceFIFOEnable
 1263              		.code	16
 1264              		.thumb_func
 1265              		.type	ForceFIFOEnable, %function
 1266              	ForceFIFOEnable:
 1267              	.LFB39:
 388:main.c        **** 
 389:main.c        **** 
 390:main.c        **** /*******************************************************************************
 391:main.c        **** * ⚠️ 修复函数：强制使能FIFO
 392:main.c        **** *******************************************************************************/
 393:main.c        **** void ForceFIFOEnable(void)
 394:main.c        **** {
 1268              		.loc 1 394 0
 1269              		.cfi_startproc
 1270              		@ args = 0, pretend = 0, frame = 8
 1271              		@ frame_needed = 1, uses_anonymous_args = 0
 1272 0000 80B5     		push	{r7, lr}
 1273              		.cfi_def_cfa_offset 8
 1274              		.cfi_offset 7, -8
 1275              		.cfi_offset 14, -4
 1276 0002 82B0     		sub	sp, sp, #8
 1277              		.cfi_def_cfa_offset 16
 1278 0004 00AF     		add	r7, sp, #0
 1279              		.cfi_def_cfa_register 7
 395:main.c        ****     printf("\n[FIX] Force enabling FIFO...\n");
 1280              		.loc 1 395 0
 1281 0006 214B     		ldr	r3, .L37
 1282 0008 1800     		movs	r0, r3
 1283 000a FFF7FEFF 		bl	puts
 396:main.c        ****     
 397:main.c        ****     // 1. 使能FIFO
ARM GAS  C:\Users\13740\AppData\Local\Temp\cc6vMOIu.s 			page 35


 398:main.c        ****     uint32_t fifocon = AD5940_ReadReg(0x2080);
 1284              		.loc 1 398 0
 1285 000e 8223     		movs	r3, #130
 1286 0010 9B01     		lsls	r3, r3, #6
 1287 0012 1800     		movs	r0, r3
 1288 0014 FFF7FEFF 		bl	AD5940_ReadReg
 1289 0018 0300     		movs	r3, r0
 1290 001a 7B60     		str	r3, [r7, #4]
 399:main.c        ****     fifocon |= 0x00000001;  // 使能FIFO
 1291              		.loc 1 399 0
 1292 001c 7B68     		ldr	r3, [r7, #4]
 1293 001e 0122     		movs	r2, #1
 1294 0020 1343     		orrs	r3, r2
 1295 0022 7B60     		str	r3, [r7, #4]
 400:main.c        ****     AD5940_WriteReg(0x2080, fifocon);
 1296              		.loc 1 400 0
 1297 0024 7A68     		ldr	r2, [r7, #4]
 1298 0026 8223     		movs	r3, #130
 1299 0028 9B01     		lsls	r3, r3, #6
 1300 002a 1100     		movs	r1, r2
 1301 002c 1800     		movs	r0, r3
 1302 002e FFF7FEFF 		bl	AD5940_WriteReg
 401:main.c        ****     
 402:main.c        ****     // 2. 设置数据源为SINC3
 403:main.c        ****     fifocon &= ~(0x07 << 2);  // 清除数据源位
 1303              		.loc 1 403 0
 1304 0032 7B68     		ldr	r3, [r7, #4]
 1305 0034 1C22     		movs	r2, #28
 1306 0036 9343     		bics	r3, r2
 1307 0038 7B60     		str	r3, [r7, #4]
 404:main.c        ****     fifocon |= (0x03 << 2);   // SINC3输出
 1308              		.loc 1 404 0
 1309 003a 7B68     		ldr	r3, [r7, #4]
 1310 003c 0C22     		movs	r2, #12
 1311 003e 1343     		orrs	r3, r2
 1312 0040 7B60     		str	r3, [r7, #4]
 405:main.c        ****     AD5940_WriteReg(0x2080, fifocon);
 1313              		.loc 1 405 0
 1314 0042 7A68     		ldr	r2, [r7, #4]
 1315 0044 8223     		movs	r3, #130
 1316 0046 9B01     		lsls	r3, r3, #6
 1317 0048 1100     		movs	r1, r2
 1318 004a 1800     		movs	r0, r3
 1319 004c FFF7FEFF 		bl	AD5940_WriteReg
 406:main.c        ****     
 407:main.c        ****     // 3. 验证
 408:main.c        ****     uint32_t verify = AD5940_ReadReg(0x2080);
 1320              		.loc 1 408 0
 1321 0050 8223     		movs	r3, #130
 1322 0052 9B01     		lsls	r3, r3, #6
 1323 0054 1800     		movs	r0, r3
 1324 0056 FFF7FEFF 		bl	AD5940_ReadReg
 1325 005a 0300     		movs	r3, r0
 1326 005c 3B60     		str	r3, [r7]
 409:main.c        ****     printf("[FIX] New FIFOCON: 0x%08lX\n", verify);
 1327              		.loc 1 409 0
 1328 005e 3A68     		ldr	r2, [r7]
ARM GAS  C:\Users\13740\AppData\Local\Temp\cc6vMOIu.s 			page 36


 1329 0060 0B4B     		ldr	r3, .L37+4
 1330 0062 1100     		movs	r1, r2
 1331 0064 1800     		movs	r0, r3
 1332 0066 FFF7FEFF 		bl	printf
 410:main.c        ****     
 411:main.c        ****     if(verify & 0x01)
 1333              		.loc 1 411 0
 1334 006a 3B68     		ldr	r3, [r7]
 1335 006c 0122     		movs	r2, #1
 1336 006e 1340     		ands	r3, r2
 1337 0070 04D0     		beq	.L34
 412:main.c        ****     {
 413:main.c        ****         printf("[OK] FIFO enabled!\n");
 1338              		.loc 1 413 0
 1339 0072 084B     		ldr	r3, .L37+8
 1340 0074 1800     		movs	r0, r3
 1341 0076 FFF7FEFF 		bl	puts
 414:main.c        ****     }
 415:main.c        ****     else
 416:main.c        ****     {
 417:main.c        ****         printf("[ERROR] FIFO still disabled!\n");
 418:main.c        ****     }
 419:main.c        **** }
 1342              		.loc 1 419 0
 1343 007a 03E0     		b	.L36
 1344              	.L34:
 417:main.c        ****     }
 1345              		.loc 1 417 0
 1346 007c 064B     		ldr	r3, .L37+12
 1347 007e 1800     		movs	r0, r3
 1348 0080 FFF7FEFF 		bl	puts
 1349              	.L36:
 1350              		.loc 1 419 0
 1351 0084 C046     		nop
 1352 0086 BD46     		mov	sp, r7
 1353 0088 02B0     		add	sp, sp, #8
 1354              		@ sp needed
 1355 008a 80BD     		pop	{r7, pc}
 1356              	.L38:
 1357              		.align	2
 1358              	.L37:
 1359 008c 08080000 		.word	.LC124
 1360 0090 28080000 		.word	.LC126
 1361 0094 44080000 		.word	.LC128
 1362 0098 58080000 		.word	.LC130
 1363              		.cfi_endproc
 1364              	.LFE39:
 1365              		.size	ForceFIFOEnable, .-ForceFIFOEnable
 1366              		.global	__aeabi_fmul
 1367              		.section	.text.MeasureAmperometricSensor,"ax",%progbits
 1368              		.align	2
 1369              		.global	MeasureAmperometricSensor
 1370              		.code	16
 1371              		.thumb_func
 1372              		.type	MeasureAmperometricSensor, %function
 1373              	MeasureAmperometricSensor:
 1374              	.LFB40:
ARM GAS  C:\Users\13740\AppData\Local\Temp\cc6vMOIu.s 			page 37


 420:main.c        **** 
 421:main.c        **** 
 422:main.c        **** 
 423:main.c        **** /*******************************************************************************
 424:main.c        **** * Function Name: MeasureAmperometricSensor
 425:main.c        **** ********************************************************************************
 426:main.c        **** * Summary:
 427:main.c        **** *   测量安培法传感器 - 修复后版本
 428:main.c        **** *   不使用AMux，直接使用AD5941的WE0/WE1/WE2通道
 429:main.c        **** *******************************************************************************/
 430:main.c        **** float MeasureAmperometricSensor(AmperometricSensor_t sensorType)
 431:main.c        **** {
 1375              		.loc 1 431 0
 1376              		.cfi_startproc
 1377              		@ args = 0, pretend = 0, frame = 24
 1378              		@ frame_needed = 1, uses_anonymous_args = 0
 1379 0000 80B5     		push	{r7, lr}
 1380              		.cfi_def_cfa_offset 8
 1381              		.cfi_offset 7, -8
 1382              		.cfi_offset 14, -4
 1383 0002 86B0     		sub	sp, sp, #24
 1384              		.cfi_def_cfa_offset 32
 1385 0004 00AF     		add	r7, sp, #0
 1386              		.cfi_def_cfa_register 7
 1387 0006 0200     		movs	r2, r0
 1388 0008 FB1D     		adds	r3, r7, #7
 1389 000a 1A70     		strb	r2, [r3]
 432:main.c        ****     float current_uA = 0;
 1390              		.loc 1 432 0
 1391 000c 0023     		movs	r3, #0
 1392 000e 7B61     		str	r3, [r7, #20]
 433:main.c        ****     uint32_t dataCount = 0;
 1393              		.loc 1 433 0
 1394 0010 0023     		movs	r3, #0
 1395 0012 FB60     		str	r3, [r7, #12]
 434:main.c        ****     AD5940Err error;
 435:main.c        ****     
 436:main.c        ****     
 437:main.c        ****     // 注意：如果不使用AMux，AD5941会使用默认的WE0通道
 438:main.c        ****     // 如果需要切换WE通道，需要在配置中修改
 439:main.c        ****     
 440:main.c        ****     // 启动测量
 441:main.c        ****     error = AppAMPCtrl(AMPCTRL_START, NULL);
 1396              		.loc 1 441 0
 1397 0014 0021     		movs	r1, #0
 1398 0016 0020     		movs	r0, #0
 1399 0018 FFF7FEFF 		bl	AppAMPCtrl
 1400 001c 0300     		movs	r3, r0
 1401 001e 3B61     		str	r3, [r7, #16]
 442:main.c        ****     if(error != AD5940ERR_OK)
 1402              		.loc 1 442 0
 1403 0020 3B69     		ldr	r3, [r7, #16]
 1404 0022 002B     		cmp	r3, #0
 1405 0024 01D0     		beq	.L40
 443:main.c        ****     {
 444:main.c        ****         return 0;
 1406              		.loc 1 444 0
ARM GAS  C:\Users\13740\AppData\Local\Temp\cc6vMOIu.s 			page 38


 1407 0026 0023     		movs	r3, #0
 1408 0028 20E0     		b	.L43
 1409              	.L40:
 445:main.c        ****     }
 446:main.c        ****     
 447:main.c        ****     // 等待测量稳定（安培法需要500ms）
 448:main.c        ****     CyDelay(500);
 1410              		.loc 1 448 0
 1411 002a FA23     		movs	r3, #250
 1412 002c 5B00     		lsls	r3, r3, #1
 1413 002e 1800     		movs	r0, r3
 1414 0030 FFF7FEFF 		bl	CyDelay
 449:main.c        ****     
 450:main.c        ****     // 读取FIFO数据
 451:main.c        ****     error = AppAMPISR(&ampResult, &dataCount);
 1415              		.loc 1 451 0
 1416 0034 0C23     		movs	r3, #12
 1417 0036 FA18     		adds	r2, r7, r3
 1418 0038 0E4B     		ldr	r3, .L44
 1419 003a 1100     		movs	r1, r2
 1420 003c 1800     		movs	r0, r3
 1421 003e FFF7FEFF 		bl	AppAMPISR
 1422 0042 0300     		movs	r3, r0
 1423 0044 3B61     		str	r3, [r7, #16]
 452:main.c        ****     
 453:main.c        ****     if(error == AD5940ERR_OK && dataCount > 0)
 1424              		.loc 1 453 0
 1425 0046 3B69     		ldr	r3, [r7, #16]
 1426 0048 002B     		cmp	r3, #0
 1427 004a 0AD1     		bne	.L42
 1428              		.loc 1 453 0 is_stmt 0 discriminator 1
 1429 004c FB68     		ldr	r3, [r7, #12]
 1430 004e 002B     		cmp	r3, #0
 1431 0050 07D0     		beq	.L42
 454:main.c        ****     {
 455:main.c        ****         // 获取电流值（fAmpRes_Type结构体中的Current成员）
 456:main.c        ****         current_uA = ampResult.Current * 1000.0;  // 转换为nA
 1432              		.loc 1 456 0 is_stmt 1
 1433 0052 084B     		ldr	r3, .L44
 1434 0054 1B68     		ldr	r3, [r3]
 1435 0056 0849     		ldr	r1, .L44+4
 1436 0058 181C     		adds	r0, r3, #0
 1437 005a FFF7FEFF 		bl	__aeabi_fmul
 1438 005e 031C     		adds	r3, r0, #0
 1439 0060 7B61     		str	r3, [r7, #20]
 1440              	.L42:
 457:main.c        ****     }
 458:main.c        ****     else
 459:main.c        ****     {
 460:main.c        ****     }
 461:main.c        ****     
 462:main.c        ****     // 停止测量
 463:main.c        ****     AppAMPCtrl(AMPCTRL_STOPNOW, NULL);
 1441              		.loc 1 463 0
 1442 0062 0021     		movs	r1, #0
 1443 0064 0120     		movs	r0, #1
 1444 0066 FFF7FEFF 		bl	AppAMPCtrl
ARM GAS  C:\Users\13740\AppData\Local\Temp\cc6vMOIu.s 			page 39


 464:main.c        ****     
 465:main.c        ****     return current_uA;
 1445              		.loc 1 465 0
 1446 006a 7B69     		ldr	r3, [r7, #20]
 1447              	.L43:
 466:main.c        **** }
 1448              		.loc 1 466 0 discriminator 1
 1449 006c 181C     		adds	r0, r3, #0
 1450 006e BD46     		mov	sp, r7
 1451 0070 06B0     		add	sp, sp, #24
 1452              		@ sp needed
 1453 0072 80BD     		pop	{r7, pc}
 1454              	.L45:
 1455              		.align	2
 1456              	.L44:
 1457 0074 00000000 		.word	ampResult
 1458 0078 00007A44 		.word	1148846080
 1459              		.cfi_endproc
 1460              	.LFE40:
 1461              		.size	MeasureAmperometricSensor, .-MeasureAmperometricSensor
 1462              		.global	__aeabi_ddiv
 1463              		.global	__aeabi_d2f
 1464              		.section	.text.ConvertCurrentToConcentration,"ax",%progbits
 1465              		.align	2
 1466              		.global	ConvertCurrentToConcentration
 1467              		.code	16
 1468              		.thumb_func
 1469              		.type	ConvertCurrentToConcentration, %function
 1470              	ConvertCurrentToConcentration:
 1471              	.LFB41:
 467:main.c        **** 
 468:main.c        **** /*******************************************************************************
 469:main.c        **** * Function Name: ConvertCurrentToConcentration
 470:main.c        **** ********************************************************************************
 471:main.c        **** * Summary:
 472:main.c        **** *   将电流值转换为浓度（根据论文校准系数）
 473:main.c        **** *******************************************************************************/
 474:main.c        **** float ConvertCurrentToConcentration(float current_nA, uint8 sensorType)
 475:main.c        **** {
 1472              		.loc 1 475 0
 1473              		.cfi_startproc
 1474              		@ args = 0, pretend = 0, frame = 16
 1475              		@ frame_needed = 1, uses_anonymous_args = 0
 1476 0000 90B5     		push	{r4, r7, lr}
 1477              		.cfi_def_cfa_offset 12
 1478              		.cfi_offset 4, -12
 1479              		.cfi_offset 7, -8
 1480              		.cfi_offset 14, -4
 1481 0002 85B0     		sub	sp, sp, #20
 1482              		.cfi_def_cfa_offset 32
 1483 0004 00AF     		add	r7, sp, #0
 1484              		.cfi_def_cfa_register 7
 1485 0006 7860     		str	r0, [r7, #4]
 1486 0008 0A00     		movs	r2, r1
 1487 000a FB1C     		adds	r3, r7, #3
 1488 000c 1A70     		strb	r2, [r3]
 476:main.c        ****     float concentration = 0;
ARM GAS  C:\Users\13740\AppData\Local\Temp\cc6vMOIu.s 			page 40


 1489              		.loc 1 476 0
 1490 000e 0023     		movs	r3, #0
 1491 0010 FB60     		str	r3, [r7, #12]
 477:main.c        ****     
 478:main.c        ****     switch(sensorType)
 1492              		.loc 1 478 0
 1493 0012 FB1C     		adds	r3, r7, #3
 1494 0014 1B78     		ldrb	r3, [r3]
 1495 0016 012B     		cmp	r3, #1
 1496 0018 13D0     		beq	.L48
 1497 001a 022B     		cmp	r3, #2
 1498 001c 21D0     		beq	.L49
 1499 001e 002B     		cmp	r3, #0
 1500 0020 2FD1     		bne	.L53
 479:main.c        ****     {
 480:main.c        ****         case SENSOR_GLUCOSE:
 481:main.c        ****             concentration = current_nA / 16.34;  // 16.34 nA/mM
 1501              		.loc 1 481 0
 1502 0022 7868     		ldr	r0, [r7, #4]
 1503 0024 FFF7FEFF 		bl	__aeabi_f2d
 1504 0028 1A4A     		ldr	r2, .L54
 1505 002a 1B4B     		ldr	r3, .L54+4
 1506 002c FFF7FEFF 		bl	__aeabi_ddiv
 1507 0030 0300     		movs	r3, r0
 1508 0032 0C00     		movs	r4, r1
 1509 0034 1800     		movs	r0, r3
 1510 0036 2100     		movs	r1, r4
 1511 0038 FFF7FEFF 		bl	__aeabi_d2f
 1512 003c 031C     		adds	r3, r0, #0
 1513 003e FB60     		str	r3, [r7, #12]
 482:main.c        ****             break;
 1514              		.loc 1 482 0
 1515 0040 22E0     		b	.L51
 1516              	.L48:
 483:main.c        ****             
 484:main.c        ****         case SENSOR_LACTATE:
 485:main.c        ****             concentration = current_nA / 41.44;  // 41.44 nA/mM
 1517              		.loc 1 485 0
 1518 0042 7868     		ldr	r0, [r7, #4]
 1519 0044 FFF7FEFF 		bl	__aeabi_f2d
 1520 0048 144A     		ldr	r2, .L54+8
 1521 004a 154B     		ldr	r3, .L54+12
 1522 004c FFF7FEFF 		bl	__aeabi_ddiv
 1523 0050 0300     		movs	r3, r0
 1524 0052 0C00     		movs	r4, r1
 1525 0054 1800     		movs	r0, r3
 1526 0056 2100     		movs	r1, r4
 1527 0058 FFF7FEFF 		bl	__aeabi_d2f
 1528 005c 031C     		adds	r3, r0, #0
 1529 005e FB60     		str	r3, [r7, #12]
 486:main.c        ****             break;
 1530              		.loc 1 486 0
 1531 0060 12E0     		b	.L51
 1532              	.L49:
 487:main.c        ****             
 488:main.c        ****         case SENSOR_URIC_ACID:
 489:main.c        ****             concentration = current_nA / 189.60; // 189.60 nA/μM
ARM GAS  C:\Users\13740\AppData\Local\Temp\cc6vMOIu.s 			page 41


 1533              		.loc 1 489 0
 1534 0062 7868     		ldr	r0, [r7, #4]
 1535 0064 FFF7FEFF 		bl	__aeabi_f2d
 1536 0068 0E4A     		ldr	r2, .L54+16
 1537 006a 0F4B     		ldr	r3, .L54+20
 1538 006c FFF7FEFF 		bl	__aeabi_ddiv
 1539 0070 0300     		movs	r3, r0
 1540 0072 0C00     		movs	r4, r1
 1541 0074 1800     		movs	r0, r3
 1542 0076 2100     		movs	r1, r4
 1543 0078 FFF7FEFF 		bl	__aeabi_d2f
 1544 007c 031C     		adds	r3, r0, #0
 1545 007e FB60     		str	r3, [r7, #12]
 490:main.c        ****             break;
 1546              		.loc 1 490 0
 1547 0080 02E0     		b	.L51
 1548              	.L53:
 491:main.c        ****             
 492:main.c        ****         default:
 493:main.c        ****             concentration = 0;
 1549              		.loc 1 493 0
 1550 0082 0023     		movs	r3, #0
 1551 0084 FB60     		str	r3, [r7, #12]
 494:main.c        ****             break;
 1552              		.loc 1 494 0
 1553 0086 C046     		nop
 1554              	.L51:
 495:main.c        ****     }
 496:main.c        ****     
 497:main.c        ****     return concentration;
 1555              		.loc 1 497 0
 1556 0088 FB68     		ldr	r3, [r7, #12]
 498:main.c        **** }
 1557              		.loc 1 498 0
 1558 008a 181C     		adds	r0, r3, #0
 1559 008c BD46     		mov	sp, r7
 1560 008e 05B0     		add	sp, sp, #20
 1561              		@ sp needed
 1562 0090 90BD     		pop	{r4, r7, pc}
 1563              	.L55:
 1564 0092 C046     		.align	2
 1565              	.L54:
 1566 0094 D7A3703D 		.word	1030792151
 1567 0098 0A573040 		.word	1076909834
 1568 009c B81E85EB 		.word	-343597384
 1569 00a0 51B84440 		.word	1078245457
 1570 00a4 33333333 		.word	858993459
 1571 00a8 33B36740 		.word	1080537907
 1572              		.cfi_endproc
 1573              	.LFE41:
 1574              		.size	ConvertCurrentToConcentration, .-ConvertCurrentToConcentration
 1575              		.section	.text.MeasureTemperature,"ax",%progbits
 1576              		.align	2
 1577              		.global	MeasureTemperature
 1578              		.code	16
 1579              		.thumb_func
 1580              		.type	MeasureTemperature, %function
ARM GAS  C:\Users\13740\AppData\Local\Temp\cc6vMOIu.s 			page 42


 1581              	MeasureTemperature:
 1582              	.LFB42:
 499:main.c        **** 
 500:main.c        **** /*******************************************************************************
 501:main.c        **** * Function Name: MeasureTemperature
 502:main.c        **** ********************************************************************************
 503:main.c        **** * Summary:
 504:main.c        **** *   使用AD5940的ADC测量温度传感器
 505:main.c        **** *   替代PSoC的ADC模块
 506:main.c        **** *******************************************************************************/
 507:main.c        **** float MeasureTemperature(void)
 508:main.c        **** {
 1583              		.loc 1 508 0
 1584              		.cfi_startproc
 1585              		@ args = 0, pretend = 0, frame = 8
 1586              		@ frame_needed = 1, uses_anonymous_args = 0
 1587 0000 80B5     		push	{r7, lr}
 1588              		.cfi_def_cfa_offset 8
 1589              		.cfi_offset 7, -8
 1590              		.cfi_offset 14, -4
 1591 0002 82B0     		sub	sp, sp, #8
 1592              		.cfi_def_cfa_offset 16
 1593 0004 00AF     		add	r7, sp, #0
 1594              		.cfi_def_cfa_register 7
 509:main.c        ****     float temperature = 25.0;  // 默认室温
 1595              		.loc 1 509 0
 1596 0006 044B     		ldr	r3, .L58
 1597 0008 7B60     		str	r3, [r7, #4]
 510:main.c        ****     uint32_t adcCode;
 511:main.c        ****     float voltage, resistance;
 512:main.c        ****     
 513:main.c        ****     
 514:main.c        ****     // 方法1: 使用AD5940的辅助ADC（AUX ADC）测量温度传感器
 515:main.c        ****     // 注意：需要配置AD5940的GPIO或者AUX输入来连接温度传感器
 516:main.c        ****     
 517:main.c        ****     // 这里提供一个简化的实现
 518:main.c        ****     // 实际应用中，你需要：
 519:main.c        ****     // 1. 配置AD5940的GPIO/AUX为ADC输入
 520:main.c        ****     // 2. 读取ADC值
 521:main.c        ****     // 3. 转换为温度
 522:main.c        ****     
 523:main.c        ****     // 示例代码（需要根据实际硬件调整）:
 524:main.c        ****     /*
 525:main.c        ****     AD5940_StructInit(&ADCInit, sizeof(ADCInit));
 526:main.c        ****     ADCInit.ADCMuxP = ADCMUXP_AIN2;  // 假设温度传感器连接到AIN2
 527:main.c        ****     ADCInit.ADCMuxN = ADCMUXN_VSET1P1;
 528:main.c        ****     AD5940_ADCInit(&ADCInit);
 529:main.c        ****     
 530:main.c        ****     AD5940_ADCStart();
 531:main.c        ****     CyDelay(10);
 532:main.c        ****     adcCode = AD5940_ReadADC();
 533:main.c        ****     
 534:main.c        ****     voltage = (adcCode * 1.82) / 32768.0;  // 转换为电压
 535:main.c        ****     resistance = 1000.0 * voltage / (3.3 - voltage);  // 假设分压电路
 536:main.c        ****     temperature = 25.0 + (resistance - 1000.0) / (1000.0 * 0.0021);
 537:main.c        ****     */
 538:main.c        ****     
ARM GAS  C:\Users\13740\AppData\Local\Temp\cc6vMOIu.s 			page 43


 539:main.c        ****     // 临时方案：从系统读取或使用固定值
 540:main.c        ****     temperature = 37.0;  // 假设体温
 1598              		.loc 1 540 0
 1599 000a 044B     		ldr	r3, .L58+4
 1600 000c 7B60     		str	r3, [r7, #4]
 541:main.c        ****     
 542:main.c        ****     
 543:main.c        ****     return temperature;
 1601              		.loc 1 543 0
 1602 000e 7B68     		ldr	r3, [r7, #4]
 544:main.c        **** }
 1603              		.loc 1 544 0
 1604 0010 181C     		adds	r0, r3, #0
 1605 0012 BD46     		mov	sp, r7
 1606 0014 02B0     		add	sp, sp, #8
 1607              		@ sp needed
 1608 0016 80BD     		pop	{r7, pc}
 1609              	.L59:
 1610              		.align	2
 1611              	.L58:
 1612 0018 0000C841 		.word	1103626240
 1613 001c 00001442 		.word	1108606976
 1614              		.cfi_endproc
 1615              	.LFE42:
 1616              		.size	MeasureTemperature, .-MeasureTemperature
 1617              		.section	.text.ReadCurrentFromAD5940,"ax",%progbits
 1618              		.align	2
 1619              		.global	ReadCurrentFromAD5940
 1620              		.code	16
 1621              		.thumb_func
 1622              		.type	ReadCurrentFromAD5940, %function
 1623              	ReadCurrentFromAD5940:
 1624              	.LFB43:
 545:main.c        **** 
 546:main.c        **** 
 547:main.c        **** /*******************************************************************************
 548:main.c        **** * Function Name: ReadCurrentFromAD5940
 549:main.c        **** ********************************************************************************
 550:main.c        **** * Summary:
 551:main.c        **** *   从 AD5940 读取实际电流值（安培法测量）
 552:main.c        **** *   
 553:main.c        **** * Parameters:
 554:main.c        **** *   sensorType: 传感器类型（GLUCOSE, LACTATE, URIC_ACID）
 555:main.c        **** *
 556:main.c        **** * Return:
 557:main.c        **** *   float: 电流值（单位：nA）
 558:main.c        **** *******************************************************************************/
 559:main.c        **** float ReadCurrentFromAD5940(AmperometricSensor_t sensorType)
 560:main.c        **** {
 1625              		.loc 1 560 0
 1626              		.cfi_startproc
 1627              		@ args = 0, pretend = 0, frame = 24
 1628              		@ frame_needed = 1, uses_anonymous_args = 0
 1629 0000 80B5     		push	{r7, lr}
 1630              		.cfi_def_cfa_offset 8
 1631              		.cfi_offset 7, -8
 1632              		.cfi_offset 14, -4
ARM GAS  C:\Users\13740\AppData\Local\Temp\cc6vMOIu.s 			page 44


 1633 0002 86B0     		sub	sp, sp, #24
 1634              		.cfi_def_cfa_offset 32
 1635 0004 00AF     		add	r7, sp, #0
 1636              		.cfi_def_cfa_register 7
 1637 0006 0200     		movs	r2, r0
 1638 0008 FB1D     		adds	r3, r7, #7
 1639 000a 1A70     		strb	r2, [r3]
 561:main.c        ****     float current_nA = 0;
 1640              		.loc 1 561 0
 1641 000c 0023     		movs	r3, #0
 1642 000e 7B61     		str	r3, [r7, #20]
 562:main.c        ****     uint32_t dataCount = 0;
 1643              		.loc 1 562 0
 1644 0010 0023     		movs	r3, #0
 1645 0012 BB60     		str	r3, [r7, #8]
 563:main.c        ****     AD5940Err error;
 564:main.c        ****     static uint32_t ampFifoBuffer[256];  // 存储FIFO数据的缓冲区
 565:main.c        ****     
 566:main.c        ****     // 1. 配置 AD5940 为安培法测量模式
 567:main.c        ****     AppAMPGetCfg(&pAmpCfg);
 1646              		.loc 1 567 0
 1647 0014 494B     		ldr	r3, .L73
 1648 0016 1800     		movs	r0, r3
 1649 0018 FFF7FEFF 		bl	AppAMPGetCfg
 568:main.c        ****     
 569:main.c        ****     // 根据传感器类型设置工作电极
 570:main.c        ****     switch(sensorType)
 1650              		.loc 1 570 0
 1651 001c FB1D     		adds	r3, r7, #7
 1652 001e 1B78     		ldrb	r3, [r3]
 1653 0020 012B     		cmp	r3, #1
 1654 0022 0DD0     		beq	.L62
 1655 0024 022B     		cmp	r3, #2
 1656 0026 15D0     		beq	.L63
 1657 0028 002B     		cmp	r3, #0
 1658 002a 1DD1     		bne	.L61
 571:main.c        ****     {
 572:main.c        ****         case SENSOR_GLUCOSE:
 573:main.c        ****             AMP1_EN_Write(1);  // 启用通道1
 1659              		.loc 1 573 0
 1660 002c 0120     		movs	r0, #1
 1661 002e FFF7FEFF 		bl	AMP1_EN_Write
 574:main.c        ****             AMP2_EN_Write(0);
 1662              		.loc 1 574 0
 1663 0032 0020     		movs	r0, #0
 1664 0034 FFF7FEFF 		bl	AMP2_EN_Write
 575:main.c        ****             AMP3_EN_Write(0);
 1665              		.loc 1 575 0
 1666 0038 0020     		movs	r0, #0
 1667 003a FFF7FEFF 		bl	AMP3_EN_Write
 576:main.c        ****             break;
 1668              		.loc 1 576 0
 1669 003e 13E0     		b	.L61
 1670              	.L62:
 577:main.c        ****             
 578:main.c        ****         case SENSOR_LACTATE:
 579:main.c        ****             AMP1_EN_Write(0);
ARM GAS  C:\Users\13740\AppData\Local\Temp\cc6vMOIu.s 			page 45


 1671              		.loc 1 579 0
 1672 0040 0020     		movs	r0, #0
 1673 0042 FFF7FEFF 		bl	AMP1_EN_Write
 580:main.c        ****             AMP2_EN_Write(1);  // 启用通道2
 1674              		.loc 1 580 0
 1675 0046 0120     		movs	r0, #1
 1676 0048 FFF7FEFF 		bl	AMP2_EN_Write
 581:main.c        ****             AMP3_EN_Write(0);
 1677              		.loc 1 581 0
 1678 004c 0020     		movs	r0, #0
 1679 004e FFF7FEFF 		bl	AMP3_EN_Write
 582:main.c        ****             break;
 1680              		.loc 1 582 0
 1681 0052 09E0     		b	.L61
 1682              	.L63:
 583:main.c        ****             
 584:main.c        ****         case SENSOR_URIC_ACID:
 585:main.c        ****             AMP1_EN_Write(0);
 1683              		.loc 1 585 0
 1684 0054 0020     		movs	r0, #0
 1685 0056 FFF7FEFF 		bl	AMP1_EN_Write
 586:main.c        ****             AMP2_EN_Write(0);
 1686              		.loc 1 586 0
 1687 005a 0020     		movs	r0, #0
 1688 005c FFF7FEFF 		bl	AMP2_EN_Write
 587:main.c        ****             AMP3_EN_Write(1);  // 启用通道3
 1689              		.loc 1 587 0
 1690 0060 0120     		movs	r0, #1
 1691 0062 FFF7FEFF 		bl	AMP3_EN_Write
 588:main.c        ****             break;
 1692              		.loc 1 588 0
 1693 0066 C046     		nop
 1694              	.L61:
 589:main.c        ****     }
 590:main.c        ****     
 591:main.c        ****     CyDelay(50);  // 等待通道切换稳定
 1695              		.loc 1 591 0
 1696 0068 3220     		movs	r0, #50
 1697 006a FFF7FEFF 		bl	CyDelay
 592:main.c        ****     
 593:main.c        ****     // 2. 启动测量
 594:main.c        ****     error = AppAMPCtrl(AMPCTRL_START, NULL);
 1698              		.loc 1 594 0
 1699 006e 0021     		movs	r1, #0
 1700 0070 0020     		movs	r0, #0
 1701 0072 FFF7FEFF 		bl	AppAMPCtrl
 1702 0076 0300     		movs	r3, r0
 1703 0078 3B61     		str	r3, [r7, #16]
 595:main.c        ****     if(error != AD5940ERR_OK)
 1704              		.loc 1 595 0
 1705 007a 3B69     		ldr	r3, [r7, #16]
 1706 007c 002B     		cmp	r3, #0
 1707 007e 01D0     		beq	.L65
 596:main.c        ****     {
 597:main.c        ****         return 0;
 1708              		.loc 1 597 0
 1709 0080 0023     		movs	r3, #0
ARM GAS  C:\Users\13740\AppData\Local\Temp\cc6vMOIu.s 			page 46


 1710 0082 56E0     		b	.L72
 1711              	.L65:
 598:main.c        ****     }
 599:main.c        ****     
 600:main.c        ****     // 3. 等待测量稳定（安培法需要 500ms）
 601:main.c        ****     CyDelay(500);
 1712              		.loc 1 601 0
 1713 0084 FA23     		movs	r3, #250
 1714 0086 5B00     		lsls	r3, r3, #1
 1715 0088 1800     		movs	r0, r3
 1716 008a FFF7FEFF 		bl	CyDelay
 602:main.c        ****     
 603:main.c        ****     // 4. 读取 FIFO 数据
 604:main.c        ****     // 第一个参数：指向FIFO数据缓冲区，AppAMPISR会将ADC代码读到这里，然后
 605:main.c        ****     // 第二个参数：指向数据计数，返回读取的数据点数
 606:main.c        ****     error = AppAMPISR(ampFifoBuffer, &dataCount);
 1717              		.loc 1 606 0
 1718 008e 0823     		movs	r3, #8
 1719 0090 FA18     		adds	r2, r7, r3
 1720 0092 2B4B     		ldr	r3, .L73+4
 1721 0094 1100     		movs	r1, r2
 1722 0096 1800     		movs	r0, r3
 1723 0098 FFF7FEFF 		bl	AppAMPISR
 1724 009c 0300     		movs	r3, r0
 1725 009e 3B61     		str	r3, [r7, #16]
 607:main.c        ****     
 608:main.c        ****     if(error == AD5940ERR_OK && dataCount > 0)
 1726              		.loc 1 608 0
 1727 00a0 3B69     		ldr	r3, [r7, #16]
 1728 00a2 002B     		cmp	r3, #0
 1729 00a4 0DD1     		bne	.L67
 1730              		.loc 1 608 0 is_stmt 0 discriminator 1
 1731 00a6 BB68     		ldr	r3, [r7, #8]
 1732 00a8 002B     		cmp	r3, #0
 1733 00aa 0AD0     		beq	.L67
 1734              	.LBB3:
 609:main.c        ****     {
 610:main.c        ****         // 5. 从缓冲区中提取电流值
 611:main.c        ****         // AppAMPDataProcess 已经将ADC值转换为电流值（float）
 612:main.c        ****         // 结果存储在 ampFifoBuffer 中（已转换为float指针）
 613:main.c        ****         float *pCurrentData = (float *)ampFifoBuffer;
 1735              		.loc 1 613 0 is_stmt 1
 1736 00ac 244B     		ldr	r3, .L73+4
 1737 00ae FB60     		str	r3, [r7, #12]
 614:main.c        ****         
 615:main.c        ****         // 取第一个样本的电流值（单位：A）
 616:main.c        ****         current_nA = pCurrentData[0] * 1e9;  // 转换为 nA
 1738              		.loc 1 616 0
 1739 00b0 FB68     		ldr	r3, [r7, #12]
 1740 00b2 1B68     		ldr	r3, [r3]
 1741 00b4 2349     		ldr	r1, .L73+8
 1742 00b6 181C     		adds	r0, r3, #0
 1743 00b8 FFF7FEFF 		bl	__aeabi_fmul
 1744 00bc 031C     		adds	r3, r0, #0
 1745 00be 7B61     		str	r3, [r7, #20]
 1746              	.LBE3:
 609:main.c        ****     {
ARM GAS  C:\Users\13740\AppData\Local\Temp\cc6vMOIu.s 			page 47


 1747              		.loc 1 609 0
 1748 00c0 01E0     		b	.L68
 1749              	.L67:
 617:main.c        ****         
 618:main.c        ****     }
 619:main.c        ****     else
 620:main.c        ****     {
 621:main.c        ****         current_nA = 0;
 1750              		.loc 1 621 0
 1751 00c2 0023     		movs	r3, #0
 1752 00c4 7B61     		str	r3, [r7, #20]
 1753              	.L68:
 622:main.c        ****     }
 623:main.c        ****     
 624:main.c        ****     // 6. 停止测量
 625:main.c        ****     AppAMPCtrl(AMPCTRL_STOPNOW, NULL);
 1754              		.loc 1 625 0
 1755 00c6 0021     		movs	r1, #0
 1756 00c8 0120     		movs	r0, #1
 1757 00ca FFF7FEFF 		bl	AppAMPCtrl
 626:main.c        ****     
 627:main.c        **** 
 628:main.c        ****     
 629:main.c        ****     
 630:main.c        ****     
 631:main.c        **** 
 632:main.c        ****     CyDelay(50);  // 等待通道切换稳定
 1758              		.loc 1 632 0
 1759 00ce 3220     		movs	r0, #50
 1760 00d0 FFF7FEFF 		bl	CyDelay
 633:main.c        ****     
 634:main.c        ****     // 2. 启动测量
 635:main.c        ****     error = AppAMPCtrl(AMPCTRL_START, NULL);
 1761              		.loc 1 635 0
 1762 00d4 0021     		movs	r1, #0
 1763 00d6 0020     		movs	r0, #0
 1764 00d8 FFF7FEFF 		bl	AppAMPCtrl
 1765 00dc 0300     		movs	r3, r0
 1766 00de 3B61     		str	r3, [r7, #16]
 636:main.c        ****     if(error != AD5940ERR_OK)
 1767              		.loc 1 636 0
 1768 00e0 3B69     		ldr	r3, [r7, #16]
 1769 00e2 002B     		cmp	r3, #0
 1770 00e4 01D0     		beq	.L69
 637:main.c        ****     {
 638:main.c        ****         return 0;
 1771              		.loc 1 638 0
 1772 00e6 0023     		movs	r3, #0
 1773 00e8 23E0     		b	.L72
 1774              	.L69:
 639:main.c        ****     }
 640:main.c        ****     
 641:main.c        ****     // 3. 等待测量稳定（安培法需要 500ms）
 642:main.c        ****     CyDelay(500);
 1775              		.loc 1 642 0
 1776 00ea FA23     		movs	r3, #250
 1777 00ec 5B00     		lsls	r3, r3, #1
ARM GAS  C:\Users\13740\AppData\Local\Temp\cc6vMOIu.s 			page 48


 1778 00ee 1800     		movs	r0, r3
 1779 00f0 FFF7FEFF 		bl	CyDelay
 643:main.c        ****     
 644:main.c        ****     // 4. 读取 FIFO 数据
 645:main.c        ****     error = AppAMPISR(&ampResult, &dataCount);
 1780              		.loc 1 645 0
 1781 00f4 0823     		movs	r3, #8
 1782 00f6 FA18     		adds	r2, r7, r3
 1783 00f8 134B     		ldr	r3, .L73+12
 1784 00fa 1100     		movs	r1, r2
 1785 00fc 1800     		movs	r0, r3
 1786 00fe FFF7FEFF 		bl	AppAMPISR
 1787 0102 0300     		movs	r3, r0
 1788 0104 3B61     		str	r3, [r7, #16]
 646:main.c        ****     
 647:main.c        ****     if(error == AD5940ERR_OK && dataCount > 0)
 1789              		.loc 1 647 0
 1790 0106 3B69     		ldr	r3, [r7, #16]
 1791 0108 002B     		cmp	r3, #0
 1792 010a 0BD1     		bne	.L70
 1793              		.loc 1 647 0 is_stmt 0 discriminator 1
 1794 010c BB68     		ldr	r3, [r7, #8]
 1795 010e 002B     		cmp	r3, #0
 1796 0110 08D0     		beq	.L70
 648:main.c        ****     {
 649:main.c        ****         // 5. 从结果中提取电流值
 650:main.c        ****         current_nA = ampResult.Current * 1e9;  // 转换为 nA
 1797              		.loc 1 650 0 is_stmt 1
 1798 0112 0D4B     		ldr	r3, .L73+12
 1799 0114 1B68     		ldr	r3, [r3]
 1800 0116 0B49     		ldr	r1, .L73+8
 1801 0118 181C     		adds	r0, r3, #0
 1802 011a FFF7FEFF 		bl	__aeabi_fmul
 1803 011e 031C     		adds	r3, r0, #0
 1804 0120 7B61     		str	r3, [r7, #20]
 1805 0122 01E0     		b	.L71
 1806              	.L70:
 651:main.c        ****         
 652:main.c        ****     }
 653:main.c        ****     else
 654:main.c        ****     {
 655:main.c        ****         current_nA = 0;
 1807              		.loc 1 655 0
 1808 0124 0023     		movs	r3, #0
 1809 0126 7B61     		str	r3, [r7, #20]
 1810              	.L71:
 656:main.c        ****     }
 657:main.c        ****     
 658:main.c        ****     // 6. 停止测量
 659:main.c        ****     AppAMPCtrl(AMPCTRL_STOPNOW, NULL);
 1811              		.loc 1 659 0
 1812 0128 0021     		movs	r1, #0
 1813 012a 0120     		movs	r0, #1
 1814 012c FFF7FEFF 		bl	AppAMPCtrl
 660:main.c        ****     
 661:main.c        ****     return current_nA;
 1815              		.loc 1 661 0
ARM GAS  C:\Users\13740\AppData\Local\Temp\cc6vMOIu.s 			page 49


 1816 0130 7B69     		ldr	r3, [r7, #20]
 1817              	.L72:
 662:main.c        **** }
 1818              		.loc 1 662 0 discriminator 1
 1819 0132 181C     		adds	r0, r3, #0
 1820 0134 BD46     		mov	sp, r7
 1821 0136 06B0     		add	sp, sp, #24
 1822              		@ sp needed
 1823 0138 80BD     		pop	{r7, pc}
 1824              	.L74:
 1825 013a C046     		.align	2
 1826              	.L73:
 1827 013c 00000000 		.word	pAmpCfg
 1828 0140 74000000 		.word	ampFifoBuffer.9615
 1829 0144 286B6E4E 		.word	1315859240
 1830 0148 00000000 		.word	ampResult
 1831              		.cfi_endproc
 1832              	.LFE43:
 1833              		.size	ReadCurrentFromAD5940, .-ReadCurrentFromAD5940
 1834              		.global	__aeabi_idivmod
 1835              		.global	__aeabi_i2d
 1836              		.global	__aeabi_dadd
 1837              		.section	.text.ReadCurrentFromSourceMeter_Simulated,"ax",%progbits
 1838              		.align	2
 1839              		.global	ReadCurrentFromSourceMeter_Simulated
 1840              		.code	16
 1841              		.thumb_func
 1842              		.type	ReadCurrentFromSourceMeter_Simulated, %function
 1843              	ReadCurrentFromSourceMeter_Simulated:
 1844              	.LFB44:
 663:main.c        **** 
 664:main.c        **** /*******************************************************************************
 665:main.c        **** * Function Name: ReadCurrentFromSourceMeter_Simulated
 666:main.c        **** ********************************************************************************
 667:main.c        **** * Summary:
 668:main.c        **** *   模拟从源表读取电流值（用于测试）
 669:main.c        **** *   实际使用时替换为真实的源表读取代码
 670:main.c        **** *
 671:main.c        **** * Return:
 672:main.c        **** *   float: 电流值（单位：nA）
 673:main.c        **** *******************************************************************************/
 674:main.c        **** float ReadCurrentFromSourceMeter_Simulated(AmperometricSensor_t sensorType)
 675:main.c        **** {
 1845              		.loc 1 675 0
 1846              		.cfi_startproc
 1847              		@ args = 0, pretend = 0, frame = 16
 1848              		@ frame_needed = 1, uses_anonymous_args = 0
 1849 0000 90B5     		push	{r4, r7, lr}
 1850              		.cfi_def_cfa_offset 12
 1851              		.cfi_offset 4, -12
 1852              		.cfi_offset 7, -8
 1853              		.cfi_offset 14, -4
 1854 0002 85B0     		sub	sp, sp, #20
 1855              		.cfi_def_cfa_offset 32
 1856 0004 00AF     		add	r7, sp, #0
 1857              		.cfi_def_cfa_register 7
 1858 0006 0200     		movs	r2, r0
ARM GAS  C:\Users\13740\AppData\Local\Temp\cc6vMOIu.s 			page 50


 1859 0008 FB1D     		adds	r3, r7, #7
 1860 000a 1A70     		strb	r2, [r3]
 676:main.c        ****     float current_nA = 0;
 1861              		.loc 1 676 0
 1862 000c 0023     		movs	r3, #0
 1863 000e FB60     		str	r3, [r7, #12]
 677:main.c        ****     
 678:main.c        ****     // 模拟不同传感器的典型电流响应
 679:main.c        ****     switch(sensorType)
 1864              		.loc 1 679 0
 1865 0010 FB1D     		adds	r3, r7, #7
 1866 0012 1B78     		ldrb	r3, [r3]
 1867 0014 012B     		cmp	r3, #1
 1868 0016 1CD0     		beq	.L77
 1869 0018 022B     		cmp	r3, #2
 1870 001a 33D0     		beq	.L78
 1871 001c 002B     		cmp	r3, #0
 1872 001e 4AD1     		bne	.L82
 1873              	.LBB4:
 680:main.c        ****     {
 681:main.c        ****         case SENSOR_GLUCOSE:
 682:main.c        ****             // 5 mM 葡萄糖 → 约 80 nA（根据论文校准系数 16.34 nA/mM）
 683:main.c        ****             current_nA = 85.0 + (rand() % 10 - 5);  // 80-90 nA
 1874              		.loc 1 683 0
 1875 0020 FFF7FEFF 		bl	rand
 1876 0024 0300     		movs	r3, r0
 1877 0026 0A21     		movs	r1, #10
 1878 0028 1800     		movs	r0, r3
 1879 002a FFF7FEFF 		bl	__aeabi_idivmod
 1880 002e 0B00     		movs	r3, r1
 1881 0030 053B     		subs	r3, r3, #5
 1882 0032 1800     		movs	r0, r3
 1883 0034 FFF7FEFF 		bl	__aeabi_i2d
 1884 0038 0022     		movs	r2, #0
 1885 003a 234B     		ldr	r3, .L83
 1886 003c FFF7FEFF 		bl	__aeabi_dadd
 1887 0040 0300     		movs	r3, r0
 1888 0042 0C00     		movs	r4, r1
 1889 0044 1800     		movs	r0, r3
 1890 0046 2100     		movs	r1, r4
 1891 0048 FFF7FEFF 		bl	__aeabi_d2f
 1892 004c 031C     		adds	r3, r0, #0
 1893 004e FB60     		str	r3, [r7, #12]
 684:main.c        ****             break;
 1894              		.loc 1 684 0
 1895 0050 34E0     		b	.L80
 1896              	.L77:
 685:main.c        ****             
 686:main.c        ****         case SENSOR_LACTATE:
 687:main.c        ****             // 2 mM 乳酸 → 约 100 nA（根据论文校准系数 41.44 nA/mM）
 688:main.c        ****             current_nA = 100.0 + (rand() % 10 - 5);  // 95-105 nA
 1897              		.loc 1 688 0
 1898 0052 FFF7FEFF 		bl	rand
 1899 0056 0300     		movs	r3, r0
 1900 0058 0A21     		movs	r1, #10
 1901 005a 1800     		movs	r0, r3
 1902 005c FFF7FEFF 		bl	__aeabi_idivmod
ARM GAS  C:\Users\13740\AppData\Local\Temp\cc6vMOIu.s 			page 51


 1903 0060 0B00     		movs	r3, r1
 1904 0062 053B     		subs	r3, r3, #5
 1905 0064 1800     		movs	r0, r3
 1906 0066 FFF7FEFF 		bl	__aeabi_i2d
 1907 006a 0022     		movs	r2, #0
 1908 006c 174B     		ldr	r3, .L83+4
 1909 006e FFF7FEFF 		bl	__aeabi_dadd
 1910 0072 0300     		movs	r3, r0
 1911 0074 0C00     		movs	r4, r1
 1912 0076 1800     		movs	r0, r3
 1913 0078 2100     		movs	r1, r4
 1914 007a FFF7FEFF 		bl	__aeabi_d2f
 1915 007e 031C     		adds	r3, r0, #0
 1916 0080 FB60     		str	r3, [r7, #12]
 689:main.c        ****             break;
 1917              		.loc 1 689 0
 1918 0082 1BE0     		b	.L80
 1919              	.L78:
 690:main.c        ****             
 691:main.c        ****         case SENSOR_URIC_ACID:
 692:main.c        ****             // 300 μM 尿酸 → 约 57000 nA（根据论文校准系数 189.60 nA/μM）
 693:main.c        ****             //current_nA = 57000.0 + (rand() % 100 - 50);
 694:main.c        ****             current_nA = 570.0 + (rand() % 100 - 50);
 1920              		.loc 1 694 0
 1921 0084 FFF7FEFF 		bl	rand
 1922 0088 0300     		movs	r3, r0
 1923 008a 6421     		movs	r1, #100
 1924 008c 1800     		movs	r0, r3
 1925 008e FFF7FEFF 		bl	__aeabi_idivmod
 1926 0092 0B00     		movs	r3, r1
 1927 0094 323B     		subs	r3, r3, #50
 1928 0096 1800     		movs	r0, r3
 1929 0098 FFF7FEFF 		bl	__aeabi_i2d
 1930 009c 0022     		movs	r2, #0
 1931 009e 0C4B     		ldr	r3, .L83+8
 1932 00a0 FFF7FEFF 		bl	__aeabi_dadd
 1933 00a4 0300     		movs	r3, r0
 1934 00a6 0C00     		movs	r4, r1
 1935 00a8 1800     		movs	r0, r3
 1936 00aa 2100     		movs	r1, r4
 1937 00ac FFF7FEFF 		bl	__aeabi_d2f
 1938 00b0 031C     		adds	r3, r0, #0
 1939 00b2 FB60     		str	r3, [r7, #12]
 695:main.c        ****             break;
 1940              		.loc 1 695 0
 1941 00b4 02E0     		b	.L80
 1942              	.L82:
 696:main.c        ****             
 697:main.c        ****         default:
 698:main.c        ****             current_nA = 0;
 1943              		.loc 1 698 0
 1944 00b6 0023     		movs	r3, #0
 1945 00b8 FB60     		str	r3, [r7, #12]
 699:main.c        ****             break;
 1946              		.loc 1 699 0
 1947 00ba C046     		nop
 1948              	.L80:
ARM GAS  C:\Users\13740\AppData\Local\Temp\cc6vMOIu.s 			page 52


 1949              	.LBE4:
 700:main.c        ****     }
 701:main.c        ****     
 702:main.c        **** 
 703:main.c        ****     
 704:main.c        ****     return current_nA;
 1950              		.loc 1 704 0
 1951 00bc FB68     		ldr	r3, [r7, #12]
 705:main.c        **** }
 1952              		.loc 1 705 0
 1953 00be 181C     		adds	r0, r3, #0
 1954 00c0 BD46     		mov	sp, r7
 1955 00c2 05B0     		add	sp, sp, #20
 1956              		@ sp needed
 1957 00c4 90BD     		pop	{r4, r7, pc}
 1958              	.L84:
 1959 00c6 C046     		.align	2
 1960              	.L83:
 1961 00c8 00405540 		.word	1079328768
 1962 00cc 00005940 		.word	1079574528
 1963 00d0 00D08140 		.word	1082249216
 1964              		.cfi_endproc
 1965              	.LFE44:
 1966              		.size	ReadCurrentFromSourceMeter_Simulated, .-ReadCurrentFromSourceMeter_Simulated
 1967              		.global	__aeabi_dsub
 1968              		.global	__aeabi_dmul
 1969              		.section	.text.MeasureAllSensorsWithCurrent,"ax",%progbits
 1970              		.align	2
 1971              		.global	MeasureAllSensorsWithCurrent
 1972              		.code	16
 1973              		.thumb_func
 1974              		.type	MeasureAllSensorsWithCurrent, %function
 1975              	MeasureAllSensorsWithCurrent:
 1976              	.LFB45:
 706:main.c        **** 
 707:main.c        **** /*******************************************************************************
 708:main.c        **** * Function Name: MeasureAllSensorsWithCurrent
 709:main.c        **** ********************************************************************************
 710:main.c        **** * Summary:
 711:main.c        **** *   测量所有传感器 - 包含实际电流值
 712:main.c        **** *******************************************************************************/
 713:main.c        **** void MeasureAllSensorsWithCurrent(void)
 714:main.c        **** {
 1977              		.loc 1 714 0
 1978              		.cfi_startproc
 1979              		@ args = 0, pretend = 0, frame = 8
 1980              		@ frame_needed = 1, uses_anonymous_args = 0
 1981 0000 90B5     		push	{r4, r7, lr}
 1982              		.cfi_def_cfa_offset 12
 1983              		.cfi_offset 4, -12
 1984              		.cfi_offset 7, -8
 1985              		.cfi_offset 14, -4
 1986 0002 83B0     		sub	sp, sp, #12
 1987              		.cfi_def_cfa_offset 24
 1988 0004 00AF     		add	r7, sp, #0
 1989              		.cfi_def_cfa_register 7
 715:main.c        ****  
ARM GAS  C:\Users\13740\AppData\Local\Temp\cc6vMOIu.s 			page 53


 716:main.c        ****     // 1. 温度测量
 717:main.c        ****     sensorData.temperature = MeasureTemperature();
 1990              		.loc 1 717 0
 1991 0006 FFF7FEFF 		bl	MeasureTemperature
 1992 000a 021C     		adds	r2, r0, #0
 1993 000c 3A4B     		ldr	r3, .L86
 1994 000e 1A60     		str	r2, [r3]
 718:main.c        ****     
 719:main.c        ****     // 2. 葡萄糖测量
 720:main.c        **** 
 721:main.c        ****     
 722:main.c        ****     // 方法 A: 使用 AD5940 读取（推荐）
 723:main.c        ****    sensorData.current_glucose_nA = ReadCurrentFromAD5940(SENSOR_GLUCOSE);
 1995              		.loc 1 723 0
 1996 0010 0020     		movs	r0, #0
 1997 0012 FFF7FEFF 		bl	ReadCurrentFromAD5940
 1998 0016 021C     		adds	r2, r0, #0
 1999 0018 374B     		ldr	r3, .L86
 2000 001a 5A61     		str	r2, [r3, #20]
 724:main.c        ****     
 725:main.c        ****     // 方法 B: 使用模拟值测试（测试用）
 726:main.c        ****     //sensorData.current_glucose_nA = ReadCurrentFromSourceMeter_Simulated(SENSOR_GLUCOSE);
 727:main.c        ****     
 728:main.c        ****     // 转换为浓度
 729:main.c        ****     sensorData.glucose = ConvertCurrentToConcentration(sensorData.current_glucose_nA, SENSOR_GLUCOS
 2001              		.loc 1 729 0
 2002 001c 364B     		ldr	r3, .L86
 2003 001e 5B69     		ldr	r3, [r3, #20]
 2004 0020 0021     		movs	r1, #0
 2005 0022 181C     		adds	r0, r3, #0
 2006 0024 FFF7FEFF 		bl	ConvertCurrentToConcentration
 2007 0028 021C     		adds	r2, r0, #0
 2008 002a 334B     		ldr	r3, .L86
 2009 002c 5A60     		str	r2, [r3, #4]
 730:main.c        ****     
 731:main.c        ****     
 732:main.c        ****     // 3. 乳酸测量
 733:main.c        **** 
 734:main.c        ****      sensorData.current_lactate_nA = ReadCurrentFromAD5940(SENSOR_LACTATE); 
 2010              		.loc 1 734 0
 2011 002e 0120     		movs	r0, #1
 2012 0030 FFF7FEFF 		bl	ReadCurrentFromAD5940
 2013 0034 021C     		adds	r2, r0, #0
 2014 0036 304B     		ldr	r3, .L86
 2015 0038 9A61     		str	r2, [r3, #24]
 735:main.c        ****     //sensorData.current_lactate_nA = ReadCurrentFromSourceMeter_Simulated(SENSOR_LACTATE);
 736:main.c        ****     sensorData.lactate = ConvertCurrentToConcentration(sensorData.current_lactate_nA, SENSOR_LACTAT
 2016              		.loc 1 736 0
 2017 003a 2F4B     		ldr	r3, .L86
 2018 003c 9B69     		ldr	r3, [r3, #24]
 2019 003e 0121     		movs	r1, #1
 2020 0040 181C     		adds	r0, r3, #0
 2021 0042 FFF7FEFF 		bl	ConvertCurrentToConcentration
 2022 0046 021C     		adds	r2, r0, #0
 2023 0048 2B4B     		ldr	r3, .L86
 2024 004a 9A60     		str	r2, [r3, #8]
 737:main.c        ****     
ARM GAS  C:\Users\13740\AppData\Local\Temp\cc6vMOIu.s 			page 54


 738:main.c        ****     // 4. 尿酸测量
 739:main.c        **** 
 740:main.c        ****     sensorData.current_uric_nA = ReadCurrentFromAD5940(SENSOR_URIC_ACID);
 2025              		.loc 1 740 0
 2026 004c 0220     		movs	r0, #2
 2027 004e FFF7FEFF 		bl	ReadCurrentFromAD5940
 2028 0052 021C     		adds	r2, r0, #0
 2029 0054 284B     		ldr	r3, .L86
 2030 0056 DA61     		str	r2, [r3, #28]
 741:main.c        ****     //sensorData.uric_acid = ConvertCurrentToConcentration(sensorData.current_uric_nA,SENSOR_URIC_A
 742:main.c        ****     // [修改] 切换为模拟数据
 743:main.c        ****     // sensorData.current_uric_acid_nA = ReadCurrentFromAD5940(SENSOR_URIC_ACID);
 744:main.c        ****     //sensorData.current_uric_nA = ReadCurrentFromSourceMeter_Simulated(SENSOR_URIC_ACID); 
 745:main.c        ****     // [增加] 电流换算到浓度
 746:main.c        ****     sensorData.uric_acid = ConvertCurrentToConcentration(sensorData.current_uric_nA, SENSOR_URIC_AC
 2031              		.loc 1 746 0
 2032 0058 274B     		ldr	r3, .L86
 2033 005a DB69     		ldr	r3, [r3, #28]
 2034 005c 0221     		movs	r1, #2
 2035 005e 181C     		adds	r0, r3, #0
 2036 0060 FFF7FEFF 		bl	ConvertCurrentToConcentration
 2037 0064 021C     		adds	r2, r0, #0
 2038 0066 244B     		ldr	r3, .L86
 2039 0068 DA60     		str	r2, [r3, #12]
 747:main.c        **** 
 748:main.c        ****     
 749:main.c        **** 
 750:main.c        ****     
 751:main.c        ****     // 6. 温度校准
 752:main.c        ****     float temp_factor = 1.0 + 0.03 * (sensorData.temperature - 37.0);
 2040              		.loc 1 752 0
 2041 006a 234B     		ldr	r3, .L86
 2042 006c 1B68     		ldr	r3, [r3]
 2043 006e 181C     		adds	r0, r3, #0
 2044 0070 FFF7FEFF 		bl	__aeabi_f2d
 2045 0074 0022     		movs	r2, #0
 2046 0076 214B     		ldr	r3, .L86+4
 2047 0078 FFF7FEFF 		bl	__aeabi_dsub
 2048 007c 0300     		movs	r3, r0
 2049 007e 0C00     		movs	r4, r1
 2050 0080 1800     		movs	r0, r3
 2051 0082 2100     		movs	r1, r4
 2052 0084 1E4A     		ldr	r2, .L86+8
 2053 0086 1F4B     		ldr	r3, .L86+12
 2054 0088 FFF7FEFF 		bl	__aeabi_dmul
 2055 008c 0300     		movs	r3, r0
 2056 008e 0C00     		movs	r4, r1
 2057 0090 1800     		movs	r0, r3
 2058 0092 2100     		movs	r1, r4
 2059 0094 0022     		movs	r2, #0
 2060 0096 1C4B     		ldr	r3, .L86+16
 2061 0098 FFF7FEFF 		bl	__aeabi_dadd
 2062 009c 0300     		movs	r3, r0
 2063 009e 0C00     		movs	r4, r1
 2064 00a0 1800     		movs	r0, r3
 2065 00a2 2100     		movs	r1, r4
 2066 00a4 FFF7FEFF 		bl	__aeabi_d2f
ARM GAS  C:\Users\13740\AppData\Local\Temp\cc6vMOIu.s 			page 55


 2067 00a8 031C     		adds	r3, r0, #0
 2068 00aa 7B60     		str	r3, [r7, #4]
 753:main.c        ****     sensorData.glucose *= temp_factor;
 2069              		.loc 1 753 0
 2070 00ac 124B     		ldr	r3, .L86
 2071 00ae 5B68     		ldr	r3, [r3, #4]
 2072 00b0 7968     		ldr	r1, [r7, #4]
 2073 00b2 181C     		adds	r0, r3, #0
 2074 00b4 FFF7FEFF 		bl	__aeabi_fmul
 2075 00b8 031C     		adds	r3, r0, #0
 2076 00ba 1A1C     		adds	r2, r3, #0
 2077 00bc 0E4B     		ldr	r3, .L86
 2078 00be 5A60     		str	r2, [r3, #4]
 754:main.c        ****     sensorData.lactate *= temp_factor;
 2079              		.loc 1 754 0
 2080 00c0 0D4B     		ldr	r3, .L86
 2081 00c2 9B68     		ldr	r3, [r3, #8]
 2082 00c4 7968     		ldr	r1, [r7, #4]
 2083 00c6 181C     		adds	r0, r3, #0
 2084 00c8 FFF7FEFF 		bl	__aeabi_fmul
 2085 00cc 031C     		adds	r3, r0, #0
 2086 00ce 1A1C     		adds	r2, r3, #0
 2087 00d0 094B     		ldr	r3, .L86
 2088 00d2 9A60     		str	r2, [r3, #8]
 755:main.c        ****     sensorData.uric_acid *= temp_factor;
 2089              		.loc 1 755 0
 2090 00d4 084B     		ldr	r3, .L86
 2091 00d6 DB68     		ldr	r3, [r3, #12]
 2092 00d8 7968     		ldr	r1, [r7, #4]
 2093 00da 181C     		adds	r0, r3, #0
 2094 00dc FFF7FEFF 		bl	__aeabi_fmul
 2095 00e0 031C     		adds	r3, r0, #0
 2096 00e2 1A1C     		adds	r2, r3, #0
 2097 00e4 044B     		ldr	r3, .L86
 2098 00e6 DA60     		str	r2, [r3, #12]
 756:main.c        ****     
 757:main.c        ****     sensorData.timestamp = mainTimer;
 2099              		.loc 1 757 0
 2100 00e8 084B     		ldr	r3, .L86+20
 2101 00ea 1A68     		ldr	r2, [r3]
 2102 00ec 024B     		ldr	r3, .L86
 2103 00ee 1A61     		str	r2, [r3, #16]
 758:main.c        ****     
 759:main.c        **** }
 2104              		.loc 1 759 0
 2105 00f0 C046     		nop
 2106 00f2 BD46     		mov	sp, r7
 2107 00f4 03B0     		add	sp, sp, #12
 2108              		@ sp needed
 2109 00f6 90BD     		pop	{r4, r7, pc}
 2110              	.L87:
 2111              		.align	2
 2112              	.L86:
 2113 00f8 00000000 		.word	sensorData
 2114 00fc 00804240 		.word	1078099968
 2115 0100 B81E85EB 		.word	-343597384
 2116 0104 51B89E3F 		.word	1067366481
ARM GAS  C:\Users\13740\AppData\Local\Temp\cc6vMOIu.s 			page 56


 2117 0108 0000F03F 		.word	1072693248
 2118 010c 00000000 		.word	mainTimer
 2119              		.cfi_endproc
 2120              	.LFE45:
 2121              		.size	MeasureAllSensorsWithCurrent, .-MeasureAllSensorsWithCurrent
 2122              		.section	.text.ControlDrugRelease,"ax",%progbits
 2123              		.align	2
 2124              		.global	ControlDrugRelease
 2125              		.code	16
 2126              		.thumb_func
 2127              		.type	ControlDrugRelease, %function
 2128              	ControlDrugRelease:
 2129              	.LFB46:
 760:main.c        **** 
 761:main.c        **** 
 762:main.c        **** /*******************************************************************************
 763:main.c        **** * Function Name: ControlDrugRelease
 764:main.c        **** ********************************************************************************
 765:main.c        **** * Summary:
 766:main.c        **** *   控制药物释放（电控水凝胶）
 767:main.c        **** *******************************************************************************/
 768:main.c        **** void ControlDrugRelease(uint8 enable)
 769:main.c        **** {
 2130              		.loc 1 769 0
 2131              		.cfi_startproc
 2132              		@ args = 0, pretend = 0, frame = 8
 2133              		@ frame_needed = 1, uses_anonymous_args = 0
 2134 0000 80B5     		push	{r7, lr}
 2135              		.cfi_def_cfa_offset 8
 2136              		.cfi_offset 7, -8
 2137              		.cfi_offset 14, -4
 2138 0002 82B0     		sub	sp, sp, #8
 2139              		.cfi_def_cfa_offset 16
 2140 0004 00AF     		add	r7, sp, #0
 2141              		.cfi_def_cfa_register 7
 2142 0006 0200     		movs	r2, r0
 2143 0008 FB1D     		adds	r3, r7, #7
 2144 000a 1A70     		strb	r2, [r3]
 770:main.c        ****     if(enable)
 2145              		.loc 1 770 0
 2146 000c FB1D     		adds	r3, r7, #7
 2147 000e 1B78     		ldrb	r3, [r3]
 2148 0010 002B     		cmp	r3, #0
 2149 0012 03D0     		beq	.L89
 771:main.c        ****     {
 772:main.c        ****         DRUG_EN_1_Write(1);
 2150              		.loc 1 772 0
 2151 0014 0120     		movs	r0, #1
 2152 0016 FFF7FEFF 		bl	DRUG_EN_1_Write
 773:main.c        ****     }
 774:main.c        ****     else
 775:main.c        ****     {
 776:main.c        ****         DRUG_EN_1_Write(0);
 777:main.c        ****     }
 778:main.c        **** }
 2153              		.loc 1 778 0
 2154 001a 02E0     		b	.L91
ARM GAS  C:\Users\13740\AppData\Local\Temp\cc6vMOIu.s 			page 57


 2155              	.L89:
 776:main.c        ****     }
 2156              		.loc 1 776 0
 2157 001c 0020     		movs	r0, #0
 2158 001e FFF7FEFF 		bl	DRUG_EN_1_Write
 2159              	.L91:
 2160              		.loc 1 778 0
 2161 0022 C046     		nop
 2162 0024 BD46     		mov	sp, r7
 2163 0026 02B0     		add	sp, sp, #8
 2164              		@ sp needed
 2165 0028 80BD     		pop	{r7, pc}
 2166              		.cfi_endproc
 2167              	.LFE46:
 2168              		.size	ControlDrugRelease, .-ControlDrugRelease
 2169 002a C046     		.section	.text.ControlElectricalStimulation,"ax",%progbits
 2170              		.align	2
 2171              		.global	ControlElectricalStimulation
 2172              		.code	16
 2173              		.thumb_func
 2174              		.type	ControlElectricalStimulation, %function
 2175              	ControlElectricalStimulation:
 2176              	.LFB47:
 779:main.c        **** 
 780:main.c        **** /*******************************************************************************
 781:main.c        **** * Function Name: ControlElectricalStimulation
 782:main.c        **** ********************************************************************************
 783:main.c        **** * Summary:
 784:main.c        **** *   控制电刺激治疗
 785:main.c        **** *******************************************************************************/
 786:main.c        **** void ControlElectricalStimulation(uint8 enable)
 787:main.c        **** {
 2177              		.loc 1 787 0
 2178              		.cfi_startproc
 2179              		@ args = 0, pretend = 0, frame = 8
 2180              		@ frame_needed = 1, uses_anonymous_args = 0
 2181 0000 80B5     		push	{r7, lr}
 2182              		.cfi_def_cfa_offset 8
 2183              		.cfi_offset 7, -8
 2184              		.cfi_offset 14, -4
 2185 0002 82B0     		sub	sp, sp, #8
 2186              		.cfi_def_cfa_offset 16
 2187 0004 00AF     		add	r7, sp, #0
 2188              		.cfi_def_cfa_register 7
 2189 0006 0200     		movs	r2, r0
 2190 0008 FB1D     		adds	r3, r7, #7
 2191 000a 1A70     		strb	r2, [r3]
 788:main.c        ****     if(enable)
 2192              		.loc 1 788 0
 2193 000c FB1D     		adds	r3, r7, #7
 2194 000e 1B78     		ldrb	r3, [r3]
 2195 0010 002B     		cmp	r3, #0
 2196 0012 03D0     		beq	.L93
 789:main.c        ****     {
 790:main.c        ****         STIM_EN_A_Write(1);
 2197              		.loc 1 790 0
 2198 0014 0120     		movs	r0, #1
ARM GAS  C:\Users\13740\AppData\Local\Temp\cc6vMOIu.s 			page 58


 2199 0016 FFF7FEFF 		bl	STIM_EN_A_Write
 791:main.c        ****     }
 792:main.c        ****     else
 793:main.c        ****     {
 794:main.c        ****         STIM_EN_A_Write(0);
 795:main.c        ****     }
 796:main.c        **** }
 2200              		.loc 1 796 0
 2201 001a 02E0     		b	.L95
 2202              	.L93:
 794:main.c        ****     }
 2203              		.loc 1 794 0
 2204 001c 0020     		movs	r0, #0
 2205 001e FFF7FEFF 		bl	STIM_EN_A_Write
 2206              	.L95:
 2207              		.loc 1 796 0
 2208 0022 C046     		nop
 2209 0024 BD46     		mov	sp, r7
 2210 0026 02B0     		add	sp, sp, #8
 2211              		@ sp needed
 2212 0028 80BD     		pop	{r7, pc}
 2213              		.cfi_endproc
 2214              	.LFE47:
 2215              		.size	ControlElectricalStimulation, .-ControlElectricalStimulation
 2216 002a C046     		.section	.text.SendGlucoseDataViaBLE,"ax",%progbits
 2217              		.align	2
 2218              		.global	SendGlucoseDataViaBLE
 2219              		.code	16
 2220              		.thumb_func
 2221              		.type	SendGlucoseDataViaBLE, %function
 2222              	SendGlucoseDataViaBLE:
 2223              	.LFB48:
 797:main.c        **** 
 798:main.c        **** /*******************************************************************************
 799:main.c        **** * Function Name: SendCurrentDataViaBLE
 800:main.c        **** ********************************************************************************
 801:main.c        **** * Summary:
 802:main.c        **** *   发送电流值到 BLE（显示在手机 App 上）
 803:main.c        **** *******************************************************************************/
 804:main.c        **** 
 805:main.c        **** /*
 806:main.c        **** 
 807:main.c        **** // 发送葡萄糖数据（浓度 + 电流）
 808:main.c        **** void SendGlucoseDataViaBLE(void)
 809:main.c        **** {
 810:main.c        ****     CYBLE_GATTS_HANDLE_VALUE_NTF_T notificationHandle;
 811:main.c        ****     static char dataString[30];
 812:main.c        ****     
 813:main.c        ****     if(CyBle_GetState() == CYBLE_STATE_CONNECTED)
 814:main.c        ****     {
 815:main.c        ****         sprintf(dataString, "%.2f mM (%.1f nA)", 
 816:main.c        ****                 sensorData.glucose, 
 817:main.c        ****                 sensorData.current_glucose_nA);
 818:main.c        ****         
 819:main.c        ****         notificationHandle.attrHandle = CYBLE_CUSTOM_SERVICE_GLUCOSE_MEASUREMENT_CHAR_HANDLE;
 820:main.c        ****         notificationHandle.value.val = (uint8*)dataString;
 821:main.c        ****         notificationHandle.value.len = strlen(dataString);
ARM GAS  C:\Users\13740\AppData\Local\Temp\cc6vMOIu.s 			page 59


 822:main.c        ****         
 823:main.c        ****         if(CyBle_GattsNotification(cyBle_connHandle, &notificationHandle) == CYBLE_ERROR_OK)
 824:main.c        ****         {
 825:main.c        ****         }
 826:main.c        ****     }
 827:main.c        **** }
 828:main.c        **** 
 829:main.c        **** */
 830:main.c        **** 
 831:main.c        **** void SendGlucoseDataViaBLE(void)
 832:main.c        **** {
 2224              		.loc 1 832 0
 2225              		.cfi_startproc
 2226              		@ args = 0, pretend = 0, frame = 0
 2227              		@ frame_needed = 1, uses_anonymous_args = 0
 2228 0000 80B5     		push	{r7, lr}
 2229              		.cfi_def_cfa_offset 8
 2230              		.cfi_offset 7, -8
 2231              		.cfi_offset 14, -4
 2232 0002 00AF     		add	r7, sp, #0
 2233              		.cfi_def_cfa_register 7
 833:main.c        **** 
 834:main.c        **** }
 2234              		.loc 1 834 0
 2235 0004 C046     		nop
 2236 0006 BD46     		mov	sp, r7
 2237              		@ sp needed
 2238 0008 80BD     		pop	{r7, pc}
 2239              		.cfi_endproc
 2240              	.LFE48:
 2241              		.size	SendGlucoseDataViaBLE, .-SendGlucoseDataViaBLE
 2242              		.global	__aeabi_uidivmod
 2243 000a C046     		.section	.rodata
 2244 0875 000000   		.align	2
 2245              	.LC140:
 2246 0878 41444949 		.ascii	"ADIID:%04X\000"
 2246      443A2530 
 2246      345800
 2247 0883 00       		.align	2
 2248              	.LC143:
 2249 0884 43484950 		.ascii	"CHIP:%04X\000"
 2249      3A253034 
 2249      5800
 2250 088e 0000     		.align	2
 2251              	.LC145:
 2252 0890 49443A25 		.ascii	"ID:%04X-%04X\000"
 2252      3034582D 
 2252      25303458 
 2252      00
 2253              		.section	.text.SendLactateDataViaBLE,"ax",%progbits
 2254              		.align	2
 2255              		.global	SendLactateDataViaBLE
 2256              		.code	16
 2257              		.thumb_func
 2258              		.type	SendLactateDataViaBLE, %function
 2259              	SendLactateDataViaBLE:
 2260              	.LFB49:
ARM GAS  C:\Users\13740\AppData\Local\Temp\cc6vMOIu.s 			page 60


 835:main.c        **** 
 836:main.c        **** 
 837:main.c        **** // 发送乳酸数据（改为诊断日志输出）
 838:main.c        **** void SendLactateDataViaBLE(void)
 839:main.c        **** {
 2261              		.loc 1 839 0
 2262              		.cfi_startproc
 2263              		@ args = 0, pretend = 0, frame = 32
 2264              		@ frame_needed = 1, uses_anonymous_args = 0
 2265 0000 80B5     		push	{r7, lr}
 2266              		.cfi_def_cfa_offset 8
 2267              		.cfi_offset 7, -8
 2268              		.cfi_offset 14, -4
 2269 0002 88B0     		sub	sp, sp, #32
 2270              		.cfi_def_cfa_offset 40
 2271 0004 00AF     		add	r7, sp, #0
 2272              		.cfi_def_cfa_register 7
 840:main.c        ****     CYBLE_GATTS_HANDLE_VALUE_NTF_T notificationHandle;
 841:main.c        ****     static char dataString[40];
 842:main.c        ****     static uint8 diagStep = 0;
 843:main.c        ****     
 844:main.c        ****     if(CyBle_GetState() == CYBLE_STATE_CONNECTED)
 2273              		.loc 1 844 0
 2274 0006 344B     		ldr	r3, .L104
 2275 0008 1B78     		ldrb	r3, [r3]
 2276 000a 022B     		cmp	r3, #2
 2277 000c 5FD1     		bne	.L103
 845:main.c        ****     {
 846:main.c        ****         switch(diagStep % 3)
 2278              		.loc 1 846 0
 2279 000e 334B     		ldr	r3, .L104+4
 2280 0010 1B78     		ldrb	r3, [r3]
 2281 0012 0321     		movs	r1, #3
 2282 0014 1800     		movs	r0, r3
 2283 0016 FFF7FEFF 		bl	__aeabi_uidivmod
 2284 001a 0B00     		movs	r3, r1
 2285 001c DBB2     		uxtb	r3, r3
 2286 001e 012B     		cmp	r3, #1
 2287 0020 11D0     		beq	.L100
 2288 0022 022B     		cmp	r3, #2
 2289 0024 1CD0     		beq	.L101
 2290 0026 002B     		cmp	r3, #0
 2291 0028 2ED1     		bne	.L99
 2292              	.LBB5:
 847:main.c        ****         {
 848:main.c        ****             case 0:
 849:main.c        ****                 // 测试: 读取ADIID (应为0x4144)
 850:main.c        ****                 {
 851:main.c        ****                     uint32_t adiid = AD5940_ReadReg(REG_AFECON_ADIID);
 2293              		.loc 1 851 0
 2294 002a 8023     		movs	r3, #128
 2295 002c DB00     		lsls	r3, r3, #3
 2296 002e 1800     		movs	r0, r3
 2297 0030 FFF7FEFF 		bl	AD5940_ReadReg
 2298 0034 0300     		movs	r3, r0
 2299 0036 FB61     		str	r3, [r7, #28]
 852:main.c        ****                     sprintf(dataString, "ADIID:%04X", (unsigned int)adiid);
ARM GAS  C:\Users\13740\AppData\Local\Temp\cc6vMOIu.s 			page 61


 2300              		.loc 1 852 0
 2301 0038 FA69     		ldr	r2, [r7, #28]
 2302 003a 2949     		ldr	r1, .L104+8
 2303 003c 294B     		ldr	r3, .L104+12
 2304 003e 1800     		movs	r0, r3
 2305 0040 FFF7FEFF 		bl	sprintf
 2306              	.LBE5:
 853:main.c        ****                     // 预期: ADIID:4144
 854:main.c        ****                 }
 855:main.c        ****                 break;
 2307              		.loc 1 855 0
 2308 0044 20E0     		b	.L99
 2309              	.L100:
 2310              	.LBB6:
 856:main.c        ****                 
 857:main.c        ****             case 1:
 858:main.c        ****                 // 测试: 读取CHIPID (应为0x5502)
 859:main.c        ****                 {
 860:main.c        ****                     uint32_t chipid = AD5940_ReadReg(REG_AFECON_CHIPID);
 2311              		.loc 1 860 0
 2312 0046 284B     		ldr	r3, .L104+16
 2313 0048 1800     		movs	r0, r3
 2314 004a FFF7FEFF 		bl	AD5940_ReadReg
 2315 004e 0300     		movs	r3, r0
 2316 0050 BB61     		str	r3, [r7, #24]
 861:main.c        ****                     sprintf(dataString, "CHIP:%04X", (unsigned int)chipid);
 2317              		.loc 1 861 0
 2318 0052 BA69     		ldr	r2, [r7, #24]
 2319 0054 2549     		ldr	r1, .L104+20
 2320 0056 234B     		ldr	r3, .L104+12
 2321 0058 1800     		movs	r0, r3
 2322 005a FFF7FEFF 		bl	sprintf
 2323              	.LBE6:
 862:main.c        ****                     // 预期: CHIP:5502
 863:main.c        ****                 }
 864:main.c        ****                 break;
 2324              		.loc 1 864 0
 2325 005e 13E0     		b	.L99
 2326              	.L101:
 2327              	.LBB7:
 865:main.c        ****                 
 866:main.c        ****             case 2:
 867:main.c        ****                 // 测试: 同时读两个
 868:main.c        ****                 {
 869:main.c        ****                     uint32_t adiid = AD5940_ReadReg(REG_AFECON_ADIID);
 2328              		.loc 1 869 0
 2329 0060 8023     		movs	r3, #128
 2330 0062 DB00     		lsls	r3, r3, #3
 2331 0064 1800     		movs	r0, r3
 2332 0066 FFF7FEFF 		bl	AD5940_ReadReg
 2333 006a 0300     		movs	r3, r0
 2334 006c 7B61     		str	r3, [r7, #20]
 870:main.c        ****                     uint32_t chipid = AD5940_ReadReg(REG_AFECON_CHIPID);
 2335              		.loc 1 870 0
 2336 006e 1E4B     		ldr	r3, .L104+16
 2337 0070 1800     		movs	r0, r3
 2338 0072 FFF7FEFF 		bl	AD5940_ReadReg
ARM GAS  C:\Users\13740\AppData\Local\Temp\cc6vMOIu.s 			page 62


 2339 0076 0300     		movs	r3, r0
 2340 0078 3B61     		str	r3, [r7, #16]
 871:main.c        ****                     sprintf(dataString, "ID:%04X-%04X", 
 2341              		.loc 1 871 0
 2342 007a 3B69     		ldr	r3, [r7, #16]
 2343 007c 7A69     		ldr	r2, [r7, #20]
 2344 007e 1C49     		ldr	r1, .L104+24
 2345 0080 1848     		ldr	r0, .L104+12
 2346 0082 FFF7FEFF 		bl	sprintf
 2347              	.LBE7:
 872:main.c        ****                             (unsigned int)adiid, (unsigned int)chipid);
 873:main.c        ****                     // 预期: ID:4144-5502
 874:main.c        ****                 }
 875:main.c        ****                 break;
 2348              		.loc 1 875 0
 2349 0086 C046     		nop
 2350              	.L99:
 876:main.c        ****         }
 877:main.c        ****         
 878:main.c        ****         diagStep++;
 2351              		.loc 1 878 0
 2352 0088 144B     		ldr	r3, .L104+4
 2353 008a 1B78     		ldrb	r3, [r3]
 2354 008c 0133     		adds	r3, r3, #1
 2355 008e DAB2     		uxtb	r2, r3
 2356 0090 124B     		ldr	r3, .L104+4
 2357 0092 1A70     		strb	r2, [r3]
 879:main.c        ****         
 880:main.c        ****         notificationHandle.attrHandle = CYBLE_CUSTOM_SERVICE_LACTATE_CHAR_HANDLE;
 2358              		.loc 1 880 0
 2359 0094 3B1D     		adds	r3, r7, #4
 2360 0096 1222     		movs	r2, #18
 2361 0098 1A81     		strh	r2, [r3, #8]
 881:main.c        ****         notificationHandle.value.val = (uint8*)dataString;
 2362              		.loc 1 881 0
 2363 009a 3B1D     		adds	r3, r7, #4
 2364 009c 114A     		ldr	r2, .L104+12
 2365 009e 1A60     		str	r2, [r3]
 882:main.c        ****         notificationHandle.value.len = strlen(dataString);
 2366              		.loc 1 882 0
 2367 00a0 104B     		ldr	r3, .L104+12
 2368 00a2 1800     		movs	r0, r3
 2369 00a4 FFF7FEFF 		bl	strlen
 2370 00a8 0300     		movs	r3, r0
 2371 00aa 9AB2     		uxth	r2, r3
 2372 00ac 3B1D     		adds	r3, r7, #4
 2373 00ae 9A80     		strh	r2, [r3, #4]
 883:main.c        ****         CyBle_GattsNotification(cyBle_connHandle, &notificationHandle);
 2374              		.loc 1 883 0
 2375 00b0 391D     		adds	r1, r7, #4
 2376 00b2 104B     		ldr	r3, .L104+28
 2377 00b4 1A78     		ldrb	r2, [r3]
 2378 00b6 5B78     		ldrb	r3, [r3, #1]
 2379 00b8 1B02     		lsls	r3, r3, #8
 2380 00ba 1A43     		orrs	r2, r3
 2381 00bc 0023     		movs	r3, #0
 2382 00be 1204     		lsls	r2, r2, #16
ARM GAS  C:\Users\13740\AppData\Local\Temp\cc6vMOIu.s 			page 63


 2383 00c0 120C     		lsrs	r2, r2, #16
 2384 00c2 1B0C     		lsrs	r3, r3, #16
 2385 00c4 1B04     		lsls	r3, r3, #16
 2386 00c6 1343     		orrs	r3, r2
 2387 00c8 1800     		movs	r0, r3
 2388 00ca FFF7FEFF 		bl	CyBle_GattsNotification
 2389              	.L103:
 884:main.c        ****     }
 885:main.c        **** }
 2390              		.loc 1 885 0
 2391 00ce C046     		nop
 2392 00d0 BD46     		mov	sp, r7
 2393 00d2 08B0     		add	sp, sp, #32
 2394              		@ sp needed
 2395 00d4 80BD     		pop	{r7, pc}
 2396              	.L105:
 2397 00d6 C046     		.align	2
 2398              	.L104:
 2399 00d8 00000000 		.word	cyBle_state
 2400 00dc 74040000 		.word	diagStep.9650
 2401 00e0 78080000 		.word	.LC140
 2402 00e4 78040000 		.word	dataString.9649
 2403 00e8 04040000 		.word	1028
 2404 00ec 84080000 		.word	.LC143
 2405 00f0 90080000 		.word	.LC145
 2406 00f4 00000000 		.word	cyBle_connHandle
 2407              		.cfi_endproc
 2408              	.LFE49:
 2409              		.size	SendLactateDataViaBLE, .-SendLactateDataViaBLE
 2410              		.section	.rodata
 2411 089d 000000   		.align	2
 2412              	.LC151:
 2413 08a0 53434C4B 		.ascii	"SCLK=0, Read:%d\000"
 2413      3D302C20 
 2413      52656164 
 2413      3A256400 
 2414              		.align	2
 2415              	.LC154:
 2416 08b0 53434C4B 		.ascii	"SCLK=1, Read:%d\000"
 2416      3D312C20 
 2416      52656164 
 2416      3A256400 
 2417              		.align	2
 2418              	.LC156:
 2419 08c0 43533A25 		.ascii	"CS:%d MOSI:%d MISO:%d\000"
 2419      64204D4F 
 2419      53493A25 
 2419      64204D49 
 2419      534F3A25 
 2420 08d6 0000     		.align	2
 2421              	.LC158:
 2422 08d8 53434C4B 		.ascii	"SCLK toggled 10x\000"
 2422      20746F67 
 2422      676C6564 
 2422      20313078 
 2422      00
 2423 08e9 000000   		.align	2
ARM GAS  C:\Users\13740\AppData\Local\Temp\cc6vMOIu.s 			page 64


 2424              	.LC160:
 2425 08ec 43686563 		.ascii	"Check TopDesign pin cfg\000"
 2425      6B20546F 
 2425      70446573 
 2425      69676E20 
 2425      70696E20 
 2426              		.section	.text.SendTemperatureViaBLE,"ax",%progbits
 2427              		.align	2
 2428              		.global	SendTemperatureViaBLE
 2429              		.code	16
 2430              		.thumb_func
 2431              		.type	SendTemperatureViaBLE, %function
 2432              	SendTemperatureViaBLE:
 2433              	.LFB50:
 886:main.c        **** 
 887:main.c        **** // 发送温度数据（改为芯片状态诊断）
 888:main.c        **** // void SendTemperatureViaBLE(void)
 889:main.c        **** // {
 890:main.c        **** //     CYBLE_GATTS_HANDLE_VALUE_NTF_T notificationHandle;
 891:main.c        **** //     static char tempString[40];
 892:main.c        ****     
 893:main.c        **** //     if(CyBle_GetState() == CYBLE_STATE_CONNECTED)
 894:main.c        **** //     {
 895:main.c        **** //         // 读取 SPI 寄存器检查芯片状态
 896:main.c        **** //         uint32 regValue = AD5940_ReadReg(REG_AFE_AFECON);
 897:main.c        **** //         uint8 initStatus = 0;
 898:main.c        ****         
 899:main.c        **** //         // 检查 pAmpCfg 指针是否有效
 900:main.c        **** //         if(pAmpCfg != NULL)
 901:main.c        **** //         {
 902:main.c        **** //             initStatus = (uint8)pAmpCfg->AMPInited;
 903:main.c        **** //         }
 904:main.c        ****         
 905:main.c        **** //         // 显示 SPI 寄存器值 + 初始化状态
 906:main.c        **** //         sprintf(tempString, "SPI:0x%lX Init:%d", 
 907:main.c        **** //                 (unsigned long)regValue,
 908:main.c        **** //                 (int)initStatus);
 909:main.c        ****         
 910:main.c        **** //         notificationHandle.attrHandle = CYBLE_CUSTOM_SERVICE_LACTATE_CHAR_HANDLE;
 911:main.c        **** //         notificationHandle.value.val = (uint8*)tempString;
 912:main.c        **** //         notificationHandle.value.len = strlen(tempString);
 913:main.c        ****         
 914:main.c        **** //         CyBle_GattsNotification(cyBle_connHandle, &notificationHandle);
 915:main.c        **** //     }
 916:main.c        **** // }
 917:main.c        **** 
 918:main.c        **** void SendTemperatureViaBLE(void)
 919:main.c        **** {
 2434              		.loc 1 919 0
 2435              		.cfi_startproc
 2436              		@ args = 0, pretend = 0, frame = 16
 2437              		@ frame_needed = 1, uses_anonymous_args = 0
 2438 0000 B0B5     		push	{r4, r5, r7, lr}
 2439              		.cfi_def_cfa_offset 16
 2440              		.cfi_offset 4, -16
 2441              		.cfi_offset 5, -12
 2442              		.cfi_offset 7, -8
ARM GAS  C:\Users\13740\AppData\Local\Temp\cc6vMOIu.s 			page 65


 2443              		.cfi_offset 14, -4
 2444 0002 86B0     		sub	sp, sp, #24
 2445              		.cfi_def_cfa_offset 40
 2446 0004 02AF     		add	r7, sp, #8
 2447              		.cfi_def_cfa 7, 32
 920:main.c        ****     CYBLE_GATTS_HANDLE_VALUE_NTF_T notificationHandle;
 921:main.c        ****     static char tempString[60];
 922:main.c        ****     static uint8 testStep = 0;
 923:main.c        ****     
 924:main.c        ****     if(CyBle_GetState() == CYBLE_STATE_CONNECTED)
 2448              		.loc 1 924 0
 2449 0006 494B     		ldr	r3, .L118
 2450 0008 1B78     		ldrb	r3, [r3]
 2451 000a 022B     		cmp	r3, #2
 2452 000c 00D0     		beq	.LCB1801
 2453 000e 89E0     		b	.L117	@long jump
 2454              	.LCB1801:
 925:main.c        ****     {
 926:main.c        ****         switch(testStep % 5)
 2455              		.loc 1 926 0
 2456 0010 474B     		ldr	r3, .L118+4
 2457 0012 1B78     		ldrb	r3, [r3]
 2458 0014 0521     		movs	r1, #5
 2459 0016 1800     		movs	r0, r3
 2460 0018 FFF7FEFF 		bl	__aeabi_uidivmod
 2461 001c 0B00     		movs	r3, r1
 2462 001e DBB2     		uxtb	r3, r3
 2463 0020 042B     		cmp	r3, #4
 2464 0022 5CD8     		bhi	.L108
 2465 0024 9A00     		lsls	r2, r3, #2
 2466 0026 434B     		ldr	r3, .L118+8
 2467 0028 D318     		adds	r3, r2, r3
 2468 002a 1B68     		ldr	r3, [r3]
 2469 002c 9F46     		mov	pc, r3
 2470              		.section	.rodata
 2471              		.align	2
 2472              	.L110:
 2473 0904 2E000000 		.word	.L109
 2474 0908 4E000000 		.word	.L111
 2475 090c 6E000000 		.word	.L112
 2476 0910 94000000 		.word	.L113
 2477 0914 D0000000 		.word	.L114
 2478              		.section	.text.SendTemperatureViaBLE
 2479              	.L109:
 927:main.c        ****         {
 928:main.c        ****             case 0:
 929:main.c        ****                 // 🔧 测试1：尝试设置SCLK为0
 930:main.c        ****                 AD5940_SCLK_Write(0);
 2480              		.loc 1 930 0
 2481 002e 0020     		movs	r0, #0
 2482 0030 FFF7FEFF 		bl	AD5940_SCLK_Write
 931:main.c        ****                 CyDelay(10);
 2483              		.loc 1 931 0
 2484 0034 0A20     		movs	r0, #10
 2485 0036 FFF7FEFF 		bl	CyDelay
 932:main.c        ****                 sprintf(tempString, "SCLK=0, Read:%d", AD5940_SCLK_Read());
 2486              		.loc 1 932 0
ARM GAS  C:\Users\13740\AppData\Local\Temp\cc6vMOIu.s 			page 66


 2487 003a FFF7FEFF 		bl	AD5940_SCLK_Read
 2488 003e 0300     		movs	r3, r0
 2489 0040 1A00     		movs	r2, r3
 2490 0042 3D49     		ldr	r1, .L118+12
 2491 0044 3D4B     		ldr	r3, .L118+16
 2492 0046 1800     		movs	r0, r3
 2493 0048 FFF7FEFF 		bl	sprintf
 933:main.c        ****                 break;
 2494              		.loc 1 933 0
 2495 004c 47E0     		b	.L108
 2496              	.L111:
 934:main.c        ****                 
 935:main.c        ****             case 1:
 936:main.c        ****                 // 🔧 测试2：尝试设置SCLK为1
 937:main.c        ****                 AD5940_SCLK_Write(1);
 2497              		.loc 1 937 0
 2498 004e 0120     		movs	r0, #1
 2499 0050 FFF7FEFF 		bl	AD5940_SCLK_Write
 938:main.c        ****                 CyDelay(10);
 2500              		.loc 1 938 0
 2501 0054 0A20     		movs	r0, #10
 2502 0056 FFF7FEFF 		bl	CyDelay
 939:main.c        ****                 sprintf(tempString, "SCLK=1, Read:%d", AD5940_SCLK_Read());
 2503              		.loc 1 939 0
 2504 005a FFF7FEFF 		bl	AD5940_SCLK_Read
 2505 005e 0300     		movs	r3, r0
 2506 0060 1A00     		movs	r2, r3
 2507 0062 3749     		ldr	r1, .L118+20
 2508 0064 354B     		ldr	r3, .L118+16
 2509 0066 1800     		movs	r0, r3
 2510 0068 FFF7FEFF 		bl	sprintf
 940:main.c        ****                 break;
 2511              		.loc 1 940 0
 2512 006c 37E0     		b	.L108
 2513              	.L112:
 941:main.c        ****                 
 942:main.c        ****             case 2:
 943:main.c        ****                 // 🔧 测试3：检查CS和MOSI
 944:main.c        ****                 sprintf(tempString, "CS:%d MOSI:%d MISO:%d", 
 945:main.c        ****                         AD5940_CS_Read(),
 2514              		.loc 1 945 0
 2515 006e FFF7FEFF 		bl	AD5940_CS_Read
 2516 0072 0300     		movs	r3, r0
 944:main.c        ****                         AD5940_CS_Read(),
 2517              		.loc 1 944 0
 2518 0074 1C00     		movs	r4, r3
 946:main.c        ****                         AD5940_MOSI_Read(),
 2519              		.loc 1 946 0
 2520 0076 FFF7FEFF 		bl	AD5940_MOSI_Read
 2521 007a 0300     		movs	r3, r0
 944:main.c        ****                         AD5940_CS_Read(),
 2522              		.loc 1 944 0
 2523 007c 1D00     		movs	r5, r3
 947:main.c        ****                         AD5940_MISO_Read());
 2524              		.loc 1 947 0
 2525 007e FFF7FEFF 		bl	AD5940_MISO_Read
 2526 0082 0300     		movs	r3, r0
ARM GAS  C:\Users\13740\AppData\Local\Temp\cc6vMOIu.s 			page 67


 944:main.c        ****                         AD5940_CS_Read(),
 2527              		.loc 1 944 0
 2528 0084 2F49     		ldr	r1, .L118+24
 2529 0086 2D48     		ldr	r0, .L118+16
 2530 0088 0093     		str	r3, [sp]
 2531 008a 2B00     		movs	r3, r5
 2532 008c 2200     		movs	r2, r4
 2533 008e FFF7FEFF 		bl	sprintf
 948:main.c        ****                 break;
 2534              		.loc 1 948 0
 2535 0092 24E0     		b	.L108
 2536              	.L113:
 2537              	.LBB8:
 949:main.c        ****                 
 950:main.c        ****             case 3:
 951:main.c        ****                 // 🔧 测试4：快速翻转SCLK 10次
 952:main.c        ****                 for(int i=0; i<10; i++) {
 2538              		.loc 1 952 0
 2539 0094 0023     		movs	r3, #0
 2540 0096 FB60     		str	r3, [r7, #12]
 2541 0098 0EE0     		b	.L115
 2542              	.L116:
 953:main.c        ****                     AD5940_SCLK_Write(1);
 2543              		.loc 1 953 0 discriminator 3
 2544 009a 0120     		movs	r0, #1
 2545 009c FFF7FEFF 		bl	AD5940_SCLK_Write
 954:main.c        ****                     CyDelayUs(10);
 2546              		.loc 1 954 0 discriminator 3
 2547 00a0 0A20     		movs	r0, #10
 2548 00a2 FFF7FEFF 		bl	CyDelayUs
 955:main.c        ****                     AD5940_SCLK_Write(0);
 2549              		.loc 1 955 0 discriminator 3
 2550 00a6 0020     		movs	r0, #0
 2551 00a8 FFF7FEFF 		bl	AD5940_SCLK_Write
 956:main.c        ****                     CyDelayUs(10);
 2552              		.loc 1 956 0 discriminator 3
 2553 00ac 0A20     		movs	r0, #10
 2554 00ae FFF7FEFF 		bl	CyDelayUs
 952:main.c        ****                     AD5940_SCLK_Write(1);
 2555              		.loc 1 952 0 discriminator 3
 2556 00b2 FB68     		ldr	r3, [r7, #12]
 2557 00b4 0133     		adds	r3, r3, #1
 2558 00b6 FB60     		str	r3, [r7, #12]
 2559              	.L115:
 952:main.c        ****                     AD5940_SCLK_Write(1);
 2560              		.loc 1 952 0 is_stmt 0 discriminator 1
 2561 00b8 FB68     		ldr	r3, [r7, #12]
 2562 00ba 092B     		cmp	r3, #9
 2563 00bc EDDD     		ble	.L116
 2564              	.LBE8:
 957:main.c        ****                 }
 958:main.c        ****                 sprintf(tempString, "SCLK toggled 10x");
 2565              		.loc 1 958 0 is_stmt 1
 2566 00be 1F4B     		ldr	r3, .L118+16
 2567 00c0 214A     		ldr	r2, .L118+28
 2568 00c2 13CA     		ldmia	r2!, {r0, r1, r4}
 2569 00c4 13C3     		stmia	r3!, {r0, r1, r4}
ARM GAS  C:\Users\13740\AppData\Local\Temp\cc6vMOIu.s 			page 68


 2570 00c6 1168     		ldr	r1, [r2]
 2571 00c8 1960     		str	r1, [r3]
 2572 00ca 1279     		ldrb	r2, [r2, #4]
 2573 00cc 1A71     		strb	r2, [r3, #4]
 959:main.c        ****                 break;
 2574              		.loc 1 959 0
 2575 00ce 06E0     		b	.L108
 2576              	.L114:
 960:main.c        ****                 
 961:main.c        ****             case 4:
 962:main.c        ****                 // 🔧 测试5：读取引脚配置寄存器（如果可能）
 963:main.c        ****                 // 这需要查PSoC寄存器，暂时显示基本状态
 964:main.c        ****                 sprintf(tempString, "Check TopDesign pin cfg");
 2577              		.loc 1 964 0
 2578 00d0 1A4B     		ldr	r3, .L118+16
 2579 00d2 1E4A     		ldr	r2, .L118+32
 2580 00d4 13CA     		ldmia	r2!, {r0, r1, r4}
 2581 00d6 13C3     		stmia	r3!, {r0, r1, r4}
 2582 00d8 13CA     		ldmia	r2!, {r0, r1, r4}
 2583 00da 13C3     		stmia	r3!, {r0, r1, r4}
 965:main.c        ****                 break;
 2584              		.loc 1 965 0
 2585 00dc C046     		nop
 2586              	.L108:
 966:main.c        ****         }
 967:main.c        ****         
 968:main.c        ****         testStep++;
 2587              		.loc 1 968 0
 2588 00de 144B     		ldr	r3, .L118+4
 2589 00e0 1B78     		ldrb	r3, [r3]
 2590 00e2 0133     		adds	r3, r3, #1
 2591 00e4 DAB2     		uxtb	r2, r3
 2592 00e6 124B     		ldr	r3, .L118+4
 2593 00e8 1A70     		strb	r2, [r3]
 969:main.c        ****         
 970:main.c        ****         notificationHandle.attrHandle = CYBLE_CUSTOM_SERVICE_LACTATE_CHAR_HANDLE;
 2594              		.loc 1 970 0
 2595 00ea 3B00     		movs	r3, r7
 2596 00ec 1222     		movs	r2, #18
 2597 00ee 1A81     		strh	r2, [r3, #8]
 971:main.c        ****         notificationHandle.value.val = (uint8*)tempString;
 2598              		.loc 1 971 0
 2599 00f0 3B00     		movs	r3, r7
 2600 00f2 124A     		ldr	r2, .L118+16
 2601 00f4 1A60     		str	r2, [r3]
 972:main.c        ****         notificationHandle.value.len = strlen(tempString);
 2602              		.loc 1 972 0
 2603 00f6 114B     		ldr	r3, .L118+16
 2604 00f8 1800     		movs	r0, r3
 2605 00fa FFF7FEFF 		bl	strlen
 2606 00fe 0300     		movs	r3, r0
 2607 0100 9AB2     		uxth	r2, r3
 2608 0102 3B00     		movs	r3, r7
 2609 0104 9A80     		strh	r2, [r3, #4]
 973:main.c        ****         CyBle_GattsNotification(cyBle_connHandle, &notificationHandle);
 2610              		.loc 1 973 0
 2611 0106 3900     		movs	r1, r7
ARM GAS  C:\Users\13740\AppData\Local\Temp\cc6vMOIu.s 			page 69


 2612 0108 114B     		ldr	r3, .L118+36
 2613 010a 1A78     		ldrb	r2, [r3]
 2614 010c 5B78     		ldrb	r3, [r3, #1]
 2615 010e 1B02     		lsls	r3, r3, #8
 2616 0110 1A43     		orrs	r2, r3
 2617 0112 0023     		movs	r3, #0
 2618 0114 1204     		lsls	r2, r2, #16
 2619 0116 120C     		lsrs	r2, r2, #16
 2620 0118 1B0C     		lsrs	r3, r3, #16
 2621 011a 1B04     		lsls	r3, r3, #16
 2622 011c 1343     		orrs	r3, r2
 2623 011e 1800     		movs	r0, r3
 2624 0120 FFF7FEFF 		bl	CyBle_GattsNotification
 2625              	.L117:
 974:main.c        ****     }
 975:main.c        **** }
 2626              		.loc 1 975 0
 2627 0124 C046     		nop
 2628 0126 BD46     		mov	sp, r7
 2629 0128 04B0     		add	sp, sp, #16
 2630              		@ sp needed
 2631 012a B0BD     		pop	{r4, r5, r7, pc}
 2632              	.L119:
 2633              		.align	2
 2634              	.L118:
 2635 012c 00000000 		.word	cyBle_state
 2636 0130 A0040000 		.word	testStep.9664
 2637 0134 04090000 		.word	.L110
 2638 0138 A0080000 		.word	.LC151
 2639 013c A4040000 		.word	tempString.9663
 2640 0140 B0080000 		.word	.LC154
 2641 0144 C0080000 		.word	.LC156
 2642 0148 D8080000 		.word	.LC158
 2643 014c EC080000 		.word	.LC160
 2644 0150 00000000 		.word	cyBle_connHandle
 2645              		.cfi_endproc
 2646              	.LFE50:
 2647              		.size	SendTemperatureViaBLE, .-SendTemperatureViaBLE
 2648              		.section	.text.SendAllSensorDataViaBLE,"ax",%progbits
 2649              		.align	2
 2650              		.global	SendAllSensorDataViaBLE
 2651              		.code	16
 2652              		.thumb_func
 2653              		.type	SendAllSensorDataViaBLE, %function
 2654              	SendAllSensorDataViaBLE:
 2655              	.LFB51:
 976:main.c        **** 
 977:main.c        **** 
 978:main.c        **** 
 979:main.c        **** 
 980:main.c        **** 
 981:main.c        **** 
 982:main.c        **** 
 983:main.c        **** 
 984:main.c        **** /*******************************************************************************
 985:main.c        **** * Function Name: SendAllSensorDataViaBLE
 986:main.c        **** ********************************************************************************
ARM GAS  C:\Users\13740\AppData\Local\Temp\cc6vMOIu.s 			page 70


 987:main.c        **** * Summary:
 988:main.c        **** *   发送所有传感器数据（包含电流值）
 989:main.c        **** *******************************************************************************/
 990:main.c        **** void SendAllSensorDataViaBLE(void)
 991:main.c        **** {
 2656              		.loc 1 991 0
 2657              		.cfi_startproc
 2658              		@ args = 0, pretend = 0, frame = 0
 2659              		@ frame_needed = 1, uses_anonymous_args = 0
 2660 0000 80B5     		push	{r7, lr}
 2661              		.cfi_def_cfa_offset 8
 2662              		.cfi_offset 7, -8
 2663              		.cfi_offset 14, -4
 2664 0002 00AF     		add	r7, sp, #0
 2665              		.cfi_def_cfa_register 7
 992:main.c        ****     if(CyBle_GetState() == CYBLE_STATE_CONNECTED)
 2666              		.loc 1 992 0
 2667 0004 0A4B     		ldr	r3, .L123
 2668 0006 1B78     		ldrb	r3, [r3]
 2669 0008 022B     		cmp	r3, #2
 2670 000a 0ED1     		bne	.L122
 993:main.c        ****     {
 994:main.c        ****         
 995:main.c        ****         SendTemperatureViaBLE();
 2671              		.loc 1 995 0
 2672 000c FFF7FEFF 		bl	SendTemperatureViaBLE
 996:main.c        ****         CyDelay(50);
 2673              		.loc 1 996 0
 2674 0010 3220     		movs	r0, #50
 2675 0012 FFF7FEFF 		bl	CyDelay
 997:main.c        ****         
 998:main.c        ****         SendGlucoseDataViaBLE();  // 包含电流值
 2676              		.loc 1 998 0
 2677 0016 FFF7FEFF 		bl	SendGlucoseDataViaBLE
 999:main.c        ****         CyDelay(50);
 2678              		.loc 1 999 0
 2679 001a 3220     		movs	r0, #50
 2680 001c FFF7FEFF 		bl	CyDelay
1000:main.c        ****         
1001:main.c        ****         SendLactateDataViaBLE();  // 包含电流值
 2681              		.loc 1 1001 0
 2682 0020 FFF7FEFF 		bl	SendLactateDataViaBLE
1002:main.c        ****         CyDelay(50);
 2683              		.loc 1 1002 0
 2684 0024 3220     		movs	r0, #50
 2685 0026 FFF7FEFF 		bl	CyDelay
 2686              	.L122:
1003:main.c        ****         
1004:main.c        ****        
1005:main.c        ****     }
1006:main.c        **** }
 2687              		.loc 1 1006 0
 2688 002a C046     		nop
 2689 002c BD46     		mov	sp, r7
 2690              		@ sp needed
 2691 002e 80BD     		pop	{r7, pc}
 2692              	.L124:
ARM GAS  C:\Users\13740\AppData\Local\Temp\cc6vMOIu.s 			page 71


 2693              		.align	2
 2694              	.L123:
 2695 0030 00000000 		.word	cyBle_state
 2696              		.cfi_endproc
 2697              	.LFE51:
 2698              		.size	SendAllSensorDataViaBLE, .-SendAllSensorDataViaBLE
 2699              		.section	.text.Timer_Interrupt,"ax",%progbits
 2700              		.align	2
 2701              		.global	Timer_Interrupt
 2702              		.code	16
 2703              		.thumb_func
 2704              		.type	Timer_Interrupt, %function
 2705              	Timer_Interrupt:
 2706              	.LFB52:
1007:main.c        **** 
1008:main.c        **** /*******************************************************************************
1009:main.c        **** * Function Name: Timer_Interrupt
1010:main.c        **** ********************************************************************************
1011:main.c        **** * Summary:
1012:main.c        **** *   定时器中断 - 每秒触发一次
1013:main.c        **** *******************************************************************************/
1014:main.c        **** CY_ISR(Timer_Interrupt)
1015:main.c        **** {
 2707              		.loc 1 1015 0
 2708              		.cfi_startproc
 2709              		@ args = 0, pretend = 0, frame = 0
 2710              		@ frame_needed = 1, uses_anonymous_args = 0
 2711 0000 80B5     		push	{r7, lr}
 2712              		.cfi_def_cfa_offset 8
 2713              		.cfi_offset 7, -8
 2714              		.cfi_offset 14, -4
 2715 0002 00AF     		add	r7, sp, #0
 2716              		.cfi_def_cfa_register 7
1016:main.c        ****     static uint8 led = LED_OFF;
1017:main.c        ****     
1018:main.c        ****     if(CYBLE_STATE_ADVERTISING == CyBle_GetState())
 2717              		.loc 1 1018 0
 2718 0004 0D4B     		ldr	r3, .L127
 2719 0006 1B78     		ldrb	r3, [r3]
 2720 0008 032B     		cmp	r3, #3
 2721 000a 0BD1     		bne	.L126
1019:main.c        ****     {
1020:main.c        ****         led ^= LED_OFF;
 2722              		.loc 1 1020 0
 2723 000c 0C4B     		ldr	r3, .L127+4
 2724 000e 1B78     		ldrb	r3, [r3]
 2725 0010 0122     		movs	r2, #1
 2726 0012 5340     		eors	r3, r2
 2727 0014 DAB2     		uxtb	r2, r3
 2728 0016 0A4B     		ldr	r3, .L127+4
 2729 0018 1A70     		strb	r2, [r3]
1021:main.c        ****         Advertising_LED_Write(led);
 2730              		.loc 1 1021 0
 2731 001a 094B     		ldr	r3, .L127+4
 2732 001c 1B78     		ldrb	r3, [r3]
 2733 001e 1800     		movs	r0, r3
 2734 0020 FFF7FEFF 		bl	Advertising_LED_Write
ARM GAS  C:\Users\13740\AppData\Local\Temp\cc6vMOIu.s 			page 72


 2735              	.L126:
1022:main.c        ****     }
1023:main.c        ****     
1024:main.c        ****     mainTimer++;
 2736              		.loc 1 1024 0
 2737 0024 074B     		ldr	r3, .L127+8
 2738 0026 1B68     		ldr	r3, [r3]
 2739 0028 5A1C     		adds	r2, r3, #1
 2740 002a 064B     		ldr	r3, .L127+8
 2741 002c 1A60     		str	r2, [r3]
1025:main.c        ****     measurementFlag = 1;  // 每秒设置测量标志
 2742              		.loc 1 1025 0
 2743 002e 064B     		ldr	r3, .L127+12
 2744 0030 0122     		movs	r2, #1
 2745 0032 1A70     		strb	r2, [r3]
1026:main.c        **** }
 2746              		.loc 1 1026 0
 2747 0034 C046     		nop
 2748 0036 BD46     		mov	sp, r7
 2749              		@ sp needed
 2750 0038 80BD     		pop	{r7, pc}
 2751              	.L128:
 2752 003a C046     		.align	2
 2753              	.L127:
 2754 003c 00000000 		.word	cyBle_state
 2755 0040 00000000 		.word	led.9681
 2756 0044 00000000 		.word	mainTimer
 2757 0048 00000000 		.word	measurementFlag
 2758              		.cfi_endproc
 2759              	.LFE52:
 2760              		.size	Timer_Interrupt, .-Timer_Interrupt
 2761              		.section	.text.AppCallBack,"ax",%progbits
 2762              		.align	2
 2763              		.global	AppCallBack
 2764              		.code	16
 2765              		.thumb_func
 2766              		.type	AppCallBack, %function
 2767              	AppCallBack:
 2768              	.LFB53:
1027:main.c        **** 
1028:main.c        **** /*******************************************************************************
1029:main.c        **** * Function Name: AppCallBack
1030:main.c        **** ********************************************************************************
1031:main.c        **** * Summary:
1032:main.c        **** *   BLE事件回调函数
1033:main.c        **** *******************************************************************************/
1034:main.c        **** void AppCallBack(uint32 event, void* eventParam)
1035:main.c        **** {
 2769              		.loc 1 1035 0
 2770              		.cfi_startproc
 2771              		@ args = 0, pretend = 0, frame = 8
 2772              		@ frame_needed = 1, uses_anonymous_args = 0
 2773 0000 80B5     		push	{r7, lr}
 2774              		.cfi_def_cfa_offset 8
 2775              		.cfi_offset 7, -8
 2776              		.cfi_offset 14, -4
 2777 0002 82B0     		sub	sp, sp, #8
ARM GAS  C:\Users\13740\AppData\Local\Temp\cc6vMOIu.s 			page 73


 2778              		.cfi_def_cfa_offset 16
 2779 0004 00AF     		add	r7, sp, #0
 2780              		.cfi_def_cfa_register 7
 2781 0006 7860     		str	r0, [r7, #4]
 2782 0008 3960     		str	r1, [r7]
1036:main.c        ****     uint16 i;
1037:main.c        ****     
1038:main.c        ****     switch(event)
 2783              		.loc 1 1038 0
 2784 000a 7B68     		ldr	r3, [r7, #4]
 2785 000c 272B     		cmp	r3, #39
 2786 000e 0DD0     		beq	.L131
 2787 0010 04D8     		bhi	.L132
 2788 0012 012B     		cmp	r3, #1
 2789 0014 07D0     		beq	.L133
 2790 0016 262B     		cmp	r3, #38
 2791 0018 0FD0     		beq	.L134
1039:main.c        ****     {
1040:main.c        ****         case CYBLE_EVT_STACK_ON:
1041:main.c        ****             StartAdvertisement();
1042:main.c        ****             break;
1043:main.c        **** 
1044:main.c        ****         case CYBLE_EVT_GAP_DEVICE_CONNECTED:
1045:main.c        ****             Advertising_LED_Write(LED_OFF);
1046:main.c        ****             break;
1047:main.c        **** 
1048:main.c        ****         case CYBLE_EVT_GAP_DEVICE_DISCONNECTED:
1049:main.c        ****             StartAdvertisement();
1050:main.c        ****             break;
1051:main.c        ****             
1052:main.c        ****         case CYBLE_EVT_GAPP_ADVERTISEMENT_START_STOP:
1053:main.c        ****             if(CYBLE_STATE_DISCONNECTED == CyBle_GetState())
1054:main.c        ****             {
1055:main.c        ****                 Advertising_LED_Write(LED_OFF);
1056:main.c        ****                 Disconnect_LED_Write(LED_ON);
1057:main.c        ****                 
1058:main.c        ****                 // 清除中断并进入休眠
1059:main.c        ****                 AD5940_EXTI_ClearInterrupt();
1060:main.c        ****                 AD5940_Interrupt_ClearPending();
1061:main.c        ****                 AD5940_Interrupt_Start();
1062:main.c        ****                 CySysPmHibernate();
1063:main.c        ****             }
1064:main.c        ****             break;
1065:main.c        **** 
1066:main.c        ****         case CYBLE_EVT_PENDING_FLASH_WRITE:
1067:main.c        ****             break;
1068:main.c        **** 
1069:main.c        ****         default:
1070:main.c        ****             break;
 2792              		.loc 1 1070 0
 2793 001a 24E0     		b	.L137
 2794              	.L132:
1038:main.c        ****     {
 2795              		.loc 1 1038 0
 2796 001c 282B     		cmp	r3, #40
 2797 001e 09D0     		beq	.L135
 2798 0020 FA2B     		cmp	r3, #250
ARM GAS  C:\Users\13740\AppData\Local\Temp\cc6vMOIu.s 			page 74


 2799 0022 1DD0     		beq	.L139
 2800              		.loc 1 1070 0
 2801 0024 1FE0     		b	.L137
 2802              	.L133:
1041:main.c        ****             break;
 2803              		.loc 1 1041 0
 2804 0026 FFF7FEFF 		bl	StartAdvertisement
1042:main.c        **** 
 2805              		.loc 1 1042 0
 2806 002a 1CE0     		b	.L137
 2807              	.L131:
1045:main.c        ****             break;
 2808              		.loc 1 1045 0
 2809 002c 0120     		movs	r0, #1
 2810 002e FFF7FEFF 		bl	Advertising_LED_Write
1046:main.c        **** 
 2811              		.loc 1 1046 0
 2812 0032 18E0     		b	.L137
 2813              	.L135:
1049:main.c        ****             break;
 2814              		.loc 1 1049 0
 2815 0034 FFF7FEFF 		bl	StartAdvertisement
1050:main.c        ****             
 2816              		.loc 1 1050 0
 2817 0038 15E0     		b	.L137
 2818              	.L134:
1053:main.c        ****             {
 2819              		.loc 1 1053 0
 2820 003a 0D4B     		ldr	r3, .L141
 2821 003c 1B78     		ldrb	r3, [r3]
 2822 003e 042B     		cmp	r3, #4
 2823 0040 10D1     		bne	.L140
1055:main.c        ****                 Disconnect_LED_Write(LED_ON);
 2824              		.loc 1 1055 0
 2825 0042 0120     		movs	r0, #1
 2826 0044 FFF7FEFF 		bl	Advertising_LED_Write
1056:main.c        ****                 
 2827              		.loc 1 1056 0
 2828 0048 0020     		movs	r0, #0
 2829 004a FFF7FEFF 		bl	Disconnect_LED_Write
1059:main.c        ****                 AD5940_Interrupt_ClearPending();
 2830              		.loc 1 1059 0
 2831 004e FFF7FEFF 		bl	AD5940_EXTI_ClearInterrupt
1060:main.c        ****                 AD5940_Interrupt_Start();
 2832              		.loc 1 1060 0
 2833 0052 FFF7FEFF 		bl	AD5940_Interrupt_ClearPending
1061:main.c        ****                 CySysPmHibernate();
 2834              		.loc 1 1061 0
 2835 0056 FFF7FEFF 		bl	AD5940_Interrupt_Start
1062:main.c        ****             }
 2836              		.loc 1 1062 0
 2837 005a FFF7FEFF 		bl	CySysPmHibernate
1064:main.c        **** 
 2838              		.loc 1 1064 0
 2839 005e 01E0     		b	.L140
 2840              	.L139:
1067:main.c        **** 
ARM GAS  C:\Users\13740\AppData\Local\Temp\cc6vMOIu.s 			page 75


 2841              		.loc 1 1067 0
 2842 0060 C046     		nop
 2843 0062 00E0     		b	.L137
 2844              	.L140:
1064:main.c        **** 
 2845              		.loc 1 1064 0
 2846 0064 C046     		nop
 2847              	.L137:
1071:main.c        ****     }
1072:main.c        **** }
 2848              		.loc 1 1072 0
 2849 0066 C046     		nop
 2850 0068 BD46     		mov	sp, r7
 2851 006a 02B0     		add	sp, sp, #8
 2852              		@ sp needed
 2853 006c 80BD     		pop	{r7, pc}
 2854              	.L142:
 2855 006e C046     		.align	2
 2856              	.L141:
 2857 0070 00000000 		.word	cyBle_state
 2858              		.cfi_endproc
 2859              	.LFE53:
 2860              		.size	AppCallBack, .-AppCallBack
 2861              		.section	.text.LowPowerImplementation,"ax",%progbits
 2862              		.align	2
 2863              		.code	16
 2864              		.thumb_func
 2865              		.type	LowPowerImplementation, %function
 2866              	LowPowerImplementation:
 2867              	.LFB54:
1073:main.c        **** 
1074:main.c        **** /*******************************************************************************
1075:main.c        **** * Function Name: LowPowerImplementation
1076:main.c        **** ********************************************************************************
1077:main.c        **** * Summary:
1078:main.c        **** *   低功耗实现
1079:main.c        **** *******************************************************************************/
1080:main.c        **** static void LowPowerImplementation(void)
1081:main.c        **** {
 2868              		.loc 1 1081 0
 2869              		.cfi_startproc
 2870              		@ args = 0, pretend = 0, frame = 8
 2871              		@ frame_needed = 1, uses_anonymous_args = 0
 2872 0000 90B5     		push	{r4, r7, lr}
 2873              		.cfi_def_cfa_offset 12
 2874              		.cfi_offset 4, -12
 2875              		.cfi_offset 7, -8
 2876              		.cfi_offset 14, -4
 2877 0002 83B0     		sub	sp, sp, #12
 2878              		.cfi_def_cfa_offset 24
 2879 0004 00AF     		add	r7, sp, #0
 2880              		.cfi_def_cfa_register 7
1082:main.c        ****     CYBLE_LP_MODE_T bleMode;
1083:main.c        ****     uint8 interruptStatus;
1084:main.c        ****     
1085:main.c        ****     if((CyBle_GetState() == CYBLE_STATE_ADVERTISING) || 
 2881              		.loc 1 1085 0
ARM GAS  C:\Users\13740\AppData\Local\Temp\cc6vMOIu.s 			page 76


 2882 0006 1A4B     		ldr	r3, .L151
 2883 0008 1B78     		ldrb	r3, [r3]
 2884 000a 032B     		cmp	r3, #3
 2885 000c 03D0     		beq	.L144
1086:main.c        ****        (CyBle_GetState() == CYBLE_STATE_CONNECTED))
 2886              		.loc 1 1086 0 discriminator 1
 2887 000e 184B     		ldr	r3, .L151
 2888 0010 1B78     		ldrb	r3, [r3]
1085:main.c        ****        (CyBle_GetState() == CYBLE_STATE_CONNECTED))
 2889              		.loc 1 1085 0 discriminator 1
 2890 0012 022B     		cmp	r3, #2
 2891 0014 27D1     		bne	.L150
 2892              	.L144:
1087:main.c        ****     {
1088:main.c        ****         bleMode = CyBle_EnterLPM(CYBLE_BLESS_DEEPSLEEP);
 2893              		.loc 1 1088 0
 2894 0016 FC1D     		adds	r4, r7, #7
 2895 0018 0320     		movs	r0, #3
 2896 001a FFF7FEFF 		bl	CyBle_EnterLPM
 2897 001e 0300     		movs	r3, r0
 2898 0020 2370     		strb	r3, [r4]
1089:main.c        ****         interruptStatus = CyEnterCriticalSection();
 2899              		.loc 1 1089 0
 2900 0022 BC1D     		adds	r4, r7, #6
 2901 0024 FFF7FEFF 		bl	CyEnterCriticalSection
 2902 0028 0300     		movs	r3, r0
 2903 002a 2370     		strb	r3, [r4]
1090:main.c        ****         
1091:main.c        ****         if(bleMode == CYBLE_BLESS_DEEPSLEEP)
 2904              		.loc 1 1091 0
 2905 002c FB1D     		adds	r3, r7, #7
 2906 002e 1B78     		ldrb	r3, [r3]
 2907 0030 032B     		cmp	r3, #3
 2908 0032 0CD1     		bne	.L146
1092:main.c        ****         {
1093:main.c        ****             if((CyBle_GetBleSsState() == CYBLE_BLESS_STATE_ECO_ON) || 
 2909              		.loc 1 1093 0
 2910 0034 FFF7FEFF 		bl	CyBle_GetBleSsState
 2911 0038 0300     		movs	r3, r0
 2912 003a 042B     		cmp	r3, #4
 2913 003c 04D0     		beq	.L147
1094:main.c        ****                (CyBle_GetBleSsState() == CYBLE_BLESS_STATE_DEEPSLEEP))
 2914              		.loc 1 1094 0 discriminator 1
 2915 003e FFF7FEFF 		bl	CyBle_GetBleSsState
 2916 0042 0300     		movs	r3, r0
1093:main.c        ****                (CyBle_GetBleSsState() == CYBLE_BLESS_STATE_DEEPSLEEP))
 2917              		.loc 1 1093 0 discriminator 1
 2918 0044 062B     		cmp	r3, #6
 2919 0046 09D1     		bne	.L149
 2920              	.L147:
1095:main.c        ****             {
1096:main.c        ****                 CySysPmDeepSleep();
 2921              		.loc 1 1096 0
 2922 0048 FFF7FEFF 		bl	CySysPmDeepSleep
 2923 004c 06E0     		b	.L149
 2924              	.L146:
1097:main.c        ****             }
ARM GAS  C:\Users\13740\AppData\Local\Temp\cc6vMOIu.s 			page 77


1098:main.c        ****         }
1099:main.c        ****         else
1100:main.c        ****         {
1101:main.c        ****             if(CyBle_GetBleSsState() != CYBLE_BLESS_STATE_EVENT_CLOSE)
 2925              		.loc 1 1101 0
 2926 004e FFF7FEFF 		bl	CyBle_GetBleSsState
 2927 0052 0300     		movs	r3, r0
 2928 0054 022B     		cmp	r3, #2
 2929 0056 01D0     		beq	.L149
1102:main.c        ****             {
1103:main.c        ****                 CySysPmSleep();
 2930              		.loc 1 1103 0
 2931 0058 FFF7FEFF 		bl	CySysPmSleep
 2932              	.L149:
1104:main.c        ****             }
1105:main.c        ****         }
1106:main.c        ****         
1107:main.c        ****         CyExitCriticalSection(interruptStatus);
 2933              		.loc 1 1107 0
 2934 005c BB1D     		adds	r3, r7, #6
 2935 005e 1B78     		ldrb	r3, [r3]
 2936 0060 1800     		movs	r0, r3
 2937 0062 FFF7FEFF 		bl	CyExitCriticalSection
 2938              	.L150:
1108:main.c        ****     }
1109:main.c        **** }
 2939              		.loc 1 1109 0
 2940 0066 C046     		nop
 2941 0068 BD46     		mov	sp, r7
 2942 006a 03B0     		add	sp, sp, #12
 2943              		@ sp needed
 2944 006c 90BD     		pop	{r4, r7, pc}
 2945              	.L152:
 2946 006e C046     		.align	2
 2947              	.L151:
 2948 0070 00000000 		.word	cyBle_state
 2949              		.cfi_endproc
 2950              	.LFE54:
 2951              		.size	LowPowerImplementation, .-LowPowerImplementation
 2952              		.section	.text.AD5941_HardReset,"ax",%progbits
 2953              		.align	2
 2954              		.global	AD5941_HardReset
 2955              		.code	16
 2956              		.thumb_func
 2957              		.type	AD5941_HardReset, %function
 2958              	AD5941_HardReset:
 2959              	.LFB55:
1110:main.c        **** 
1111:main.c        **** void AD5941_HardReset(void)
1112:main.c        **** {
 2960              		.loc 1 1112 0
 2961              		.cfi_startproc
 2962              		@ args = 0, pretend = 0, frame = 0
 2963              		@ frame_needed = 1, uses_anonymous_args = 0
 2964 0000 80B5     		push	{r7, lr}
 2965              		.cfi_def_cfa_offset 8
 2966              		.cfi_offset 7, -8
ARM GAS  C:\Users\13740\AppData\Local\Temp\cc6vMOIu.s 			page 78


 2967              		.cfi_offset 14, -4
 2968 0002 00AF     		add	r7, sp, #0
 2969              		.cfi_def_cfa_register 7
1113:main.c        ****     AD5940_RST_Write(0);
 2970              		.loc 1 1113 0
 2971 0004 0020     		movs	r0, #0
 2972 0006 FFF7FEFF 		bl	AD5940_RST_Write
1114:main.c        ****     CyDelay(20);          // ≥10ms
 2973              		.loc 1 1114 0
 2974 000a 1420     		movs	r0, #20
 2975 000c FFF7FEFF 		bl	CyDelay
1115:main.c        ****     AD5940_RST_Write(1);
 2976              		.loc 1 1115 0
 2977 0010 0120     		movs	r0, #1
 2978 0012 FFF7FEFF 		bl	AD5940_RST_Write
1116:main.c        ****     CyDelay(100);         // ≥50ms，给足
 2979              		.loc 1 1116 0
 2980 0016 6420     		movs	r0, #100
 2981 0018 FFF7FEFF 		bl	CyDelay
1117:main.c        **** }
 2982              		.loc 1 1117 0
 2983 001c C046     		nop
 2984 001e BD46     		mov	sp, r7
 2985              		@ sp needed
 2986 0020 80BD     		pop	{r7, pc}
 2987              		.cfi_endproc
 2988              	.LFE55:
 2989              		.size	AD5941_HardReset, .-AD5941_HardReset
 2990 0022 C046     		.section	.rodata
 2991              		.align	2
 2992              	.LC170:
 2993 0918 0A2A2A2A 		.ascii	"\012*** SYSTEM STARTUP ***\000"
 2993      20535953 
 2993      54454D20 
 2993      53544152 
 2993      54555020 
 2994              		.align	2
 2995              	.LC175:
 2996 0930 5B494E46 		.ascii	"[INFO] Entering main loop...\000"
 2996      4F5D2045 
 2996      6E746572 
 2996      696E6720 
 2996      6D61696E 
 2997 094d 000000   		.align	2
 2998              	.LC180:
 2999 0950 5B494E49 		.ascii	"[INIT] Resetting AD5940...\000"
 2999      545D2052 
 2999      65736574 
 2999      74696E67 
 2999      20414435 
 3000 096b 00       		.align	2
 3001              	.LC182:
 3002 096c 5B494E49 		.ascii	"[INIT] Checking ID...\000"
 3002      545D2043 
 3002      6865636B 
 3002      696E6720 
 3002      49442E2E 
ARM GAS  C:\Users\13740\AppData\Local\Temp\cc6vMOIu.s 			page 79


 3003 0982 0000     		.align	2
 3004              	.LC186:
 3005 0984 5B4F4B5D 		.ascii	"[OK] ID verified\000"
 3005      20494420 
 3005      76657269 
 3005      66696564 
 3005      00
 3006 0995 000000   		.align	2
 3007              	.LC189:
 3008 0998 5B455252 		.ascii	"[ERROR] ID check failed\000"
 3008      4F525D20 
 3008      49442063 
 3008      6865636B 
 3008      20666169 
 3009              		.align	2
 3010              	.LC193:
 3011 09b0 5B494E49 		.ascii	"[INIT] Wrote reg %d/%d\012\000"
 3011      545D2057 
 3011      726F7465 
 3011      20726567 
 3011      2025642F 
 3012              		.align	2
 3013              	.LC195:
 3014 09c8 5B494E49 		.ascii	"[INIT] All registers written\000"
 3014      545D2041 
 3014      6C6C2072 
 3014      65676973 
 3014      74657273 
 3015 09e5 000000   		.align	2
 3016              	.LC197:
 3017 09e8 5B494E49 		.ascii	"[INIT] Verifying register write...\000"
 3017      545D2056 
 3017      65726966 
 3017      79696E67 
 3017      20726567 
 3018 0a0b 00       		.align	2
 3019              	.LC200:
 3020 0a0c 52656720 		.ascii	"Reg 0x0908: 0x%08lX (expect 0x02C9)\012\000"
 3020      30783039 
 3020      30383A20 
 3020      30782530 
 3020      386C5820 
 3021 0a31 000000   		.align	2
 3022              	.LC202:
 3023 0a34 5B494E49 		.ascii	"[INIT] Checking AFE status...\000"
 3023      545D2043 
 3023      6865636B 
 3023      696E6720 
 3023      41464520 
 3024 0a52 0000     		.align	2
 3025              	.LC205:
 3026 0a54 41464543 		.ascii	"AFECON: 0x%08lX\012\000"
 3026      4F4E3A20 
 3026      30782530 
 3026      386C580A 
 3026      00
 3027 0a65 000000   		.align	2
ARM GAS  C:\Users\13740\AppData\Local\Temp\cc6vMOIu.s 			page 80


 3028              	.LC207:
 3029 0a68 5B494E49 		.ascii	"[INIT] Checking FIFO (using direct addresses)...\000"
 3029      545D2043 
 3029      6865636B 
 3029      696E6720 
 3029      4649464F 
 3030 0a99 000000   		.align	2
 3031              	.LC209:
 3032 0a9c 5B444542 		.ascii	"[DEBUG] Manual read:\000"
 3032      55475D20 
 3032      4D616E75 
 3032      616C2072 
 3032      6561643A 
 3033 0ab1 000000   		.align	2
 3034              	.LC211:
 3035 0ab4 20204164 		.ascii	"  Addr 0x2080 (FIFOCON): 0x%08lX\012\000"
 3035      64722030 
 3035      78323038 
 3035      30202846 
 3035      49464F43 
 3036 0ad6 0000     		.align	2
 3037              	.LC213:
 3038 0ad8 20204164 		.ascii	"  Addr 0x2084 (FIFOSTA): 0x%08lX\012\000"
 3038      64722030 
 3038      78323038 
 3038      34202846 
 3038      49464F53 
 3039 0afa 0000     		.align	2
 3040              	.LC216:
 3041 0afc 5B574152 		.ascii	"[WARNING] FIFO not enabled! Attempting fix...\000"
 3041      4E494E47 
 3041      5D204649 
 3041      464F206E 
 3041      6F742065 
 3042 0b2a 0000     		.align	2
 3043              	.LC218:
 3044 0b2c 5B564552 		.ascii	"[VERIFY] After fix - FIFOCON: 0x%08lX\012\000"
 3044      4946595D 
 3044      20416674 
 3044      65722066 
 3044      6978202D 
 3045 0b53 00       		.align	2
 3046              	.LC220:
 3047 0b54 5B455252 		.ascii	"[ERROR] FIFO still not enabled after fix!\000"
 3047      4F525D20 
 3047      4649464F 
 3047      20737469 
 3047      6C6C206E 
 3048 0b7e 0000     		.align	2
 3049              	.LC222:
 3050 0b80 5B4F4B5D 		.ascii	"[OK] FIFO enabled successfully!\000"
 3050      20464946 
 3050      4F20656E 
 3050      61626C65 
 3050      64207375 
 3051              		.align	2
 3052              	.LC224:
ARM GAS  C:\Users\13740\AppData\Local\Temp\cc6vMOIu.s 			page 81


 3053 0ba0 5B4F4B5D 		.ascii	"[OK] FIFO already enabled\000"
 3053      20464946 
 3053      4F20616C 
 3053      72656164 
 3053      7920656E 
 3054 0bba 0000     		.align	2
 3055              	.LC227:
 3056 0bbc 5B494E49 		.ascii	"[INIT] Final verification...\000"
 3056      545D2046 
 3056      696E616C 
 3056      20766572 
 3056      69666963 
 3057 0bd9 000000   		.align	2
 3058              	.LC229:
 3059 0bdc 5B4F4B5D 		.ascii	"[OK] All checks passed\000"
 3059      20416C6C 
 3059      20636865 
 3059      636B7320 
 3059      70617373 
 3060 0bf3 00       		.align	2
 3061              	.LC231:
 3062 0bf4 5B464149 		.ascii	"[FAIL] Verification failed\000"
 3062      4C5D2056 
 3062      65726966 
 3062      69636174 
 3062      696F6E20 
 3063 0c0f 00       		.align	2
 3064              	.LC233:
 3065 0c10 5B494E49 		.ascii	"[INIT] Starting measurement...\000"
 3065      545D2053 
 3065      74617274 
 3065      696E6720 
 3065      6D656173 
 3066 0c2f 00       		.align	2
 3067              	.LC235:
 3068 0c30 5B425950 		.ascii	"[BYPASS] Using direct register configuration (bypas"
 3068      4153535D 
 3068      20557369 
 3068      6E672064 
 3068      69726563 
 3069 0c63 73696E67 		.ascii	"sing AppAMP library)\000"
 3069      20417070 
 3069      414D5020 
 3069      6C696272 
 3069      61727929 
 3070              		.align	2
 3071              	.LC237:
 3072 0c78 5B425950 		.ascii	"[BYPASS] Configured LPTIA: 0x%08lX\012\000"
 3072      4153535D 
 3072      20436F6E 
 3072      66696775 
 3072      72656420 
 3073              		.align	2
 3074              	.LC239:
 3075 0c9c 5B425950 		.ascii	"[BYPASS] Configured ADC Filter: 0x%08lX\012\000"
 3075      4153535D 
 3075      20436F6E 
ARM GAS  C:\Users\13740\AppData\Local\Temp\cc6vMOIu.s 			page 82


 3075      66696775 
 3075      72656420 
 3076 0cc5 000000   		.align	2
 3077              	.LC241:
 3078 0cc8 5B425950 		.ascii	"[BYPASS] Configured FIFO: 0x%08lX\012\000"
 3078      4153535D 
 3078      20436F6E 
 3078      66696775 
 3078      72656420 
 3079 0ceb 00       		.align	2
 3080              	.LC243:
 3081 0cec 5B425950 		.ascii	"[BYPASS] Enabled ADC Power: 0x%08lX\012\000"
 3081      4153535D 
 3081      20456E61 
 3081      626C6564 
 3081      20414443 
 3082 0d11 000000   		.align	2
 3083              	.LC245:
 3084 0d14 5B425950 		.ascii	"[BYPASS] Started ADC conversion: 0x%08lX\012\000"
 3084      4153535D 
 3084      20537461 
 3084      72746564 
 3084      20414443 
 3085 0d3e 0000     		.align	2
 3086              	.LC247:
 3087 0d40 5B444542 		.ascii	"[DEBUG] After manual config:\000"
 3087      55475D20 
 3087      41667465 
 3087      72206D61 
 3087      6E75616C 
 3088 0d5d 000000   		.align	2
 3089              	.LC249:
 3090 0d60 20204649 		.ascii	"  FIFOCON: 0x%08lX (EN=%d)\012\000"
 3090      464F434F 
 3090      4E3A2030 
 3090      78253038 
 3090      6C582028 
 3091              		.align	2
 3092              	.LC251:
 3093 0d7c 20204649 		.ascii	"  FIFOSTA: 0x%08lX (CNT=%lu)\012\000"
 3093      464F5354 
 3093      413A2030 
 3093      78253038 
 3093      6C582028 
 3094 0d9a 0000     		.align	2
 3095              	.LC253:
 3096 0d9c 20204146 		.ascii	"  AFECON: 0x%08lX\012\000"
 3096      45434F4E 
 3096      3A203078 
 3096      2530386C 
 3096      580A00
 3097 0daf 00       		.align	2
 3098              	.LC255:
 3099 0db0 20204C50 		.ascii	"  LPTIACON: 0x%08lX (EN=%d)\012\000"
 3099      54494143 
 3099      4F4E3A20 
 3099      30782530 
ARM GAS  C:\Users\13740\AppData\Local\Temp\cc6vMOIu.s 			page 83


 3099      386C5820 
 3100 0dcd 000000   		.align	2
 3101              	.LC257:
 3102 0dd0 20204144 		.ascii	"  ADCMUX: 0x%08lX\012\000"
 3102      434D5558 
 3102      3A203078 
 3102      2530386C 
 3102      580A00
 3103 0de3 00       		.align	2
 3104              	.LC259:
 3105 0de4 20205345 		.ascii	"  SEQCON: 0x%08lX (Addr=0x2004)\012\000"
 3105      51434F4E 
 3105      3A203078 
 3105      2530386C 
 3105      58202841 
 3106 0e05 000000   		.align	2
 3107              	.LC261:
 3108 0e08 20205345 		.ascii	"  SEQSTA: 0x%08lX (Addr=0x2008)\012\000"
 3108      51535441 
 3108      3A203078 
 3108      2530386C 
 3108      58202841 
 3109 0e29 000000   		.align	2
 3110              	.LC263:
 3111 0e2c 20204C50 		.ascii	"  LPDACCON: 0x%08lX\012\000"
 3111      44414343 
 3111      4F4E3A20 
 3111      30782530 
 3111      386C580A 
 3112 0e41 000000   		.align	2
 3113              	.LC265:
 3114 0e44 5B435249 		.ascii	"[CRITICAL] AFE Power not enabled! Force enabling..."
 3114      54494341 
 3114      4C5D2041 
 3114      46452050 
 3114      6F776572 
 3115 0e77 00       		.ascii	"\000"
 3116              		.align	2
 3117              	.LC267:
 3118 0e78 5B464958 		.ascii	"[FIX] New AFECON: 0x%08lX\012\000"
 3118      5D204E65 
 3118      77204146 
 3118      45434F4E 
 3118      3A203078 
 3119 0e93 00       		.align	2
 3120              	.LC269:
 3121 0e94 5B435249 		.ascii	"[CRITICAL] ADC module not enabled! Force enabling.."
 3121      54494341 
 3121      4C5D2041 
 3121      4443206D 
 3121      6F64756C 
 3122 0ec7 2E00     		.ascii	".\000"
 3123 0ec9 000000   		.align	2
 3124              	.LC271:
 3125 0ecc 5B464958 		.ascii	"[FIX] New ADCCON: 0x%08lX\012\000"
 3125      5D204E65 
 3125      77204144 
ARM GAS  C:\Users\13740\AppData\Local\Temp\cc6vMOIu.s 			page 84


 3125      43434F4E 
 3125      3A203078 
 3126 0ee7 00       		.align	2
 3127              	.LC273:
 3128 0ee8 5B524543 		.ascii	"[RECHECK] FIFO Count after fix: %d\012\000"
 3128      4845434B 
 3128      5D204649 
 3128      464F2043 
 3128      6F756E74 
 3129              		.align	2
 3130              	.LC283:
 3131 0f0c 20204669 		.ascii	"  Final FIFO Count: %d\012\000"
 3131      6E616C20 
 3131      4649464F 
 3131      20436F75 
 3131      6E743A20 
 3132              		.align	2
 3133              	.LC286:
 3134 0f24 5B4F4B5D 		.ascii	"[OK] Data!\000"
 3134      20446174 
 3134      612100
 3135 0f2f 00       		.align	2
 3136              	.LC289:
 3137 0f30 20204669 		.ascii	"  First sample: 0x%08lX\012\000"
 3137      72737420 
 3137      73616D70 
 3137      6C653A20 
 3137      30782530 
 3138 0f49 000000   		.align	2
 3139              	.LC291:
 3140 0f4c 5B455252 		.ascii	"[ERROR] FIFO not enabled!\000"
 3140      4F525D20 
 3140      4649464F 
 3140      206E6F74 
 3140      20656E61 
 3141 0f66 0000     		.align	2
 3142              	.LC293:
 3143 0f68 5B455252 		.ascii	"[ERROR] AFE not running!\000"
 3143      4F525D20 
 3143      41464520 
 3143      6E6F7420 
 3143      72756E6E 
 3144 0f81 000000   		.align	2
 3145              	.LC295:
 3146 0f84 5B574152 		.ascii	"[WARN] FIFO empty, wait longer\000"
 3146      4E5D2046 
 3146      49464F20 
 3146      656D7074 
 3146      792C2077 
 3147 0fa3 00       		.align	2
 3148              	.LC297:
 3149 0fa4 2020436F 		.ascii	"  Count after 3s: %d\012\000"
 3149      756E7420 
 3149      61667465 
 3149      72203373 
 3149      3A202564 
 3150              		.global	__aeabi_i2f
ARM GAS  C:\Users\13740\AppData\Local\Temp\cc6vMOIu.s 			page 85


 3151              		.global	__aeabi_fdiv
 3152 0fba 0000     		.align	2
 3153              	.LC301:
 3154 0fbc 5B464946 		.ascii	"[FIFO] CNT=%d ADC=0x%04lX I=%.1fnA\012\000"
 3154      4F5D2043 
 3154      4E543D25 
 3154      64204144 
 3154      433D3078 
 3155              		.align	2
 3156              	.LC305:
 3157 0fe0 49646C65 		.ascii	"Idle...\000"
 3157      2E2E2E00 
 3158              		.align	2
 3159              	.LC307:
 3160 0fe8 52657365 		.ascii	"Resetting...\000"
 3160      7474696E 
 3160      672E2E2E 
 3160      00
 3161 0ff5 000000   		.align	2
 3162              	.LC309:
 3163 0ff8 43686563 		.ascii	"Checking ID...\000"
 3163      6B696E67 
 3163      2049442E 
 3163      2E2E00
 3164 1007 00       		.align	2
 3165              	.LC311:
 3166 1008 57726974 		.ascii	"Writing %d/%d\000"
 3166      696E6720 
 3166      25642F25 
 3166      6400
 3167 1016 0000     		.align	2
 3168              	.LC313:
 3169 1018 56657269 		.ascii	"Verifying...\000"
 3169      6679696E 
 3169      672E2E2E 
 3169      00
 3170 1025 000000   		.align	2
 3171              	.LC315:
 3172 1028 43686563 		.ascii	"Checking AFE...\000"
 3172      6B696E67 
 3172      20414645 
 3172      2E2E2E00 
 3173              		.align	2
 3174              	.LC317:
 3175 1038 43686563 		.ascii	"Checking FIFO...\000"
 3175      6B696E67 
 3175      20464946 
 3175      4F2E2E2E 
 3175      00
 3176 1049 000000   		.align	2
 3177              	.LC319:
 3178 104c 46696E61 		.ascii	"Final check...\000"
 3178      6C206368 
 3178      65636B2E 
 3178      2E2E00
 3179 105b 00       		.align	2
 3180              	.LC321:
ARM GAS  C:\Users\13740\AppData\Local\Temp\cc6vMOIu.s 			page 86


 3181 105c 53746172 		.ascii	"Starting measurement...\000"
 3181      74696E67 
 3181      206D6561 
 3181      73757265 
 3181      6D656E74 
 3182              		.align	2
 3183              	.LC325:
 3184 1074 434E543A 		.ascii	"CNT:%d\000"
 3184      256400
 3185 107b 00       		.align	2
 3186              	.LC327:
 3187 107c 41444949 		.ascii	"ADIID:%04lX\000"
 3187      443A2530 
 3187      346C5800 
 3188              		.align	2
 3189              	.LC329:
 3190 1088 43484950 		.ascii	"CHIP:%04lX\000"
 3190      3A253034 
 3190      6C5800
 3191 1093 00       		.align	2
 3192              	.LC331:
 3193 1094 52303930 		.ascii	"R0908:%04lX\000"
 3193      383A2530 
 3193      346C5800 
 3194              		.align	2
 3195              	.LC333:
 3196 10a0 4146455F 		.ascii	"AFE_INIT:%08lX\000"
 3196      494E4954 
 3196      3A253038 
 3196      6C5800
 3197 10af 00       		.align	2
 3198              	.LC335:
 3199 10b0 4649464F 		.ascii	"FIFOCON:%08lX\000"
 3199      434F4E3A 
 3199      2530386C 
 3199      5800
 3200 10be 0000     		.align	2
 3201              	.LC337:
 3202 10c0 4649464F 		.ascii	"FIFO_CNT:%ld\000"
 3202      5F434E54 
 3202      3A256C64 
 3202      00
 3203 10cd 000000   		.align	2
 3204              	.LC339:
 3205 10d0 4649464F 		.ascii	"FIFOCON_M:%08lX\000"
 3205      434F4E5F 
 3205      4D3A2530 
 3205      386C5800 
 3206              		.align	2
 3207              	.LC341:
 3208 10e0 4649464F 		.ascii	"FIFOSTA:%08lX\000"
 3208      5354413A 
 3208      2530386C 
 3208      5800
 3209 10ee 0000     		.align	2
 3210              	.LC343:
 3211 10f0 41464543 		.ascii	"AFECON_M:%08lX\000"
ARM GAS  C:\Users\13740\AppData\Local\Temp\cc6vMOIu.s 			page 87


 3211      4F4E5F4D 
 3211      3A253038 
 3211      6C5800
 3212 10ff 00       		.align	2
 3213              	.LC345:
 3214 1100 4C505449 		.ascii	"LPTIA:%08lX\000"
 3214      413A2530 
 3214      386C5800 
 3215              		.align	2
 3216              	.LC347:
 3217 110c 4144433A 		.ascii	"ADC:%08lX\000"
 3217      2530386C 
 3217      5800
 3218 1116 0000     		.align	2
 3219              	.LC349:
 3220 1118 53455143 		.ascii	"SEQCON:%08lX\000"
 3220      4F4E3A25 
 3220      30386C58 
 3220      00
 3221 1125 000000   		.align	2
 3222              	.LC351:
 3223 1128 53455153 		.ascii	"SEQSTA:%08lX\000"
 3223      54413A25 
 3223      30386C58 
 3223      00
 3224 1135 000000   		.align	2
 3225              	.LC353:
 3226 1138 4649464F 		.ascii	"FIFO_D:%08lX\000"
 3226      5F443A25 
 3226      30386C58 
 3226      00
 3227 1145 000000   		.align	2
 3228              	.LC355:
 3229 1148 44415441 		.ascii	"DATA_CNT:%ld\000"
 3229      5F434E54 
 3229      3A256C64 
 3229      00
 3230 1155 000000   		.align	2
 3231              	.LC357:
 3232 1158 496E6974 		.ascii	"Init FAIL\000"
 3232      20464149 
 3232      4C00
 3233 1162 0000     		.align	2
 3234              	.LC359:
 3235 1164 57616974 		.ascii	"Waiting...\000"
 3235      696E672E 
 3235      2E2E00
 3236              		.section	.text.main,"ax",%progbits
 3237              		.align	2
 3238              		.global	main
 3239              		.code	16
 3240              		.thumb_func
 3241              		.type	main, %function
 3242              	main:
 3243              	.LFB56:
1118:main.c        **** 
1119:main.c        **** /*******************************************************************************
ARM GAS  C:\Users\13740\AppData\Local\Temp\cc6vMOIu.s 			page 88


1120:main.c        **** * Function Name: main
1121:main.c        **** ********************************************************************************
1122:main.c        **** * Summary:
1123:main.c        **** *   主函数
1124:main.c        **** *******************************************************************************/
1125:main.c        **** 
1126:main.c        **** int main()
1127:main.c        **** {
 3244              		.loc 1 1127 0
 3245              		.cfi_startproc
 3246              		@ args = 0, pretend = 0, frame = 112
 3247              		@ frame_needed = 1, uses_anonymous_args = 0
 3248 0000 B0B5     		push	{r4, r5, r7, lr}
 3249              		.cfi_def_cfa_offset 16
 3250              		.cfi_offset 4, -16
 3251              		.cfi_offset 5, -12
 3252              		.cfi_offset 7, -8
 3253              		.cfi_offset 14, -4
 3254 0002 9EB0     		sub	sp, sp, #120
 3255              		.cfi_def_cfa_offset 136
 3256 0004 02AF     		add	r7, sp, #8
 3257              		.cfi_def_cfa 7, 128
1128:main.c        ****     CyGlobalIntEnable;
 3258              		.loc 1 1128 0
 3259              		.syntax divided
 3260              	@ 1128 "main.c" 1
 3261 0006 62B6     		CPSIE   i
 3262              	@ 0 "" 2
1129:main.c        ****     
1130:main.c        ****     Disconnect_LED_Write(LED_OFF);
 3263              		.loc 1 1130 0
 3264              		.thumb
 3265              		.syntax unified
 3266 0008 0120     		movs	r0, #1
 3267 000a FFF7FEFF 		bl	Disconnect_LED_Write
1131:main.c        ****     Advertising_LED_Write(LED_OFF);
 3268              		.loc 1 1131 0
 3269 000e 0120     		movs	r0, #1
 3270 0010 FFF7FEFF 		bl	Advertising_LED_Write
1132:main.c        ****     
1133:main.c        ****     printf("\n*** SYSTEM STARTUP ***\n");
 3271              		.loc 1 1133 0
 3272 0014 B84B     		ldr	r3, .L225
 3273 0016 1800     		movs	r0, r3
 3274 0018 FFF7FEFF 		bl	puts
1134:main.c        ****     
1135:main.c        ****     apiResult = CyBle_Start(AppCallBack);
 3275              		.loc 1 1135 0
 3276 001c B74B     		ldr	r3, .L225+4
 3277 001e 1800     		movs	r0, r3
 3278 0020 FFF7FEFF 		bl	CyBle_Start
 3279 0024 0300     		movs	r3, r0
 3280 0026 1A00     		movs	r2, r3
 3281 0028 B54B     		ldr	r3, .L225+8
 3282 002a 1A80     		strh	r2, [r3]
1136:main.c        ****     
1137:main.c        ****     DRUG_EN_1_Write(0);
ARM GAS  C:\Users\13740\AppData\Local\Temp\cc6vMOIu.s 			page 89


 3283              		.loc 1 1137 0
 3284 002c 0020     		movs	r0, #0
 3285 002e FFF7FEFF 		bl	DRUG_EN_1_Write
1138:main.c        ****     STIM_EN_A_Write(0);
 3286              		.loc 1 1138 0
 3287 0032 0020     		movs	r0, #0
 3288 0034 FFF7FEFF 		bl	STIM_EN_A_Write
1139:main.c        ****     AMP1_EN_Write(0);
 3289              		.loc 1 1139 0
 3290 0038 0020     		movs	r0, #0
 3291 003a FFF7FEFF 		bl	AMP1_EN_Write
1140:main.c        ****     AMP2_EN_Write(0);
 3292              		.loc 1 1140 0
 3293 003e 0020     		movs	r0, #0
 3294 0040 FFF7FEFF 		bl	AMP2_EN_Write
1141:main.c        ****     AMP3_EN_Write(0);
 3295              		.loc 1 1141 0
 3296 0044 0020     		movs	r0, #0
 3297 0046 FFF7FEFF 		bl	AMP3_EN_Write
1142:main.c        ****     
1143:main.c        ****     CySysWdtSetInterruptCallback(CY_SYS_WDT_COUNTER2, Timer_Interrupt);
 3298              		.loc 1 1143 0
 3299 004a AE4B     		ldr	r3, .L225+12
 3300 004c 1900     		movs	r1, r3
 3301 004e 0220     		movs	r0, #2
 3302 0050 FFF7FEFF 		bl	CySysWdtSetInterruptCallback
1144:main.c        ****     CySysWdtEnableCounterIsr(CY_SYS_WDT_COUNTER2);
 3303              		.loc 1 1144 0
 3304 0054 0220     		movs	r0, #2
 3305 0056 FFF7FEFF 		bl	CySysWdtEnableCounterIsr
1145:main.c        ****     
1146:main.c        ****     printf("[INFO] Entering main loop...\n");
 3306              		.loc 1 1146 0
 3307 005a AB4B     		ldr	r3, .L225+16
 3308 005c 1800     		movs	r0, r3
 3309 005e FFF7FEFF 		bl	puts
 3310              	.L222:
1147:main.c        ****     
1148:main.c        ****     while(1)
1149:main.c        ****     {
1150:main.c        ****         // ✅ 第一优先级：处理BLE事件
1151:main.c        ****         CyBle_ProcessEvents();
 3311              		.loc 1 1151 0
 3312 0062 FFF7FEFF 		bl	CyBle_ProcessEvents
1152:main.c        ****         
1153:main.c        ****         // ✅ 状态机方式初始化AD5940
1154:main.c        ****         if(CyBle_GetState() == CYBLE_STATE_CONNECTED)
 3313              		.loc 1 1154 0
 3314 0066 A94B     		ldr	r3, .L225+20
 3315 0068 1B78     		ldrb	r3, [r3]
 3316 006a 022B     		cmp	r3, #2
 3317 006c 01D0     		beq	.LCB2315
 3318 006e 00F047FC 		bl	.L155	@far jump
 3319              	.LCB2315:
1155:main.c        ****         {
1156:main.c        ****             switch(g_init_state)
 3320              		.loc 1 1156 0
ARM GAS  C:\Users\13740\AppData\Local\Temp\cc6vMOIu.s 			page 90


 3321 0072 A74B     		ldr	r3, .L225+24
 3322 0074 1B78     		ldrb	r3, [r3]
 3323 0076 092B     		cmp	r3, #9
 3324 0078 01D9     		bls	.LCB2319
 3325 007a 00F041FC 		bl	.L155	@far jump
 3326              	.LCB2319:
 3327 007e 9A00     		lsls	r2, r3, #2
 3328 0080 A44B     		ldr	r3, .L225+28
 3329 0082 D318     		adds	r3, r2, r3
 3330 0084 1B68     		ldr	r3, [r3]
 3331 0086 9F46     		mov	pc, r3
 3332              		.section	.rodata
 3333 116f 00       		.align	2
 3334              	.L157:
 3335 1170 88000000 		.word	.L156
 3336 1174 92000000 		.word	.L158
 3337 1178 CE000000 		.word	.L159
 3338 117c 44010000 		.word	.L160
 3339 1180 9A010000 		.word	.L161
 3340 1184 C6010000 		.word	.L162
 3341 1188 F4010000 		.word	.L163
 3342 118c B4020000 		.word	.L164
 3343 1190 B0030000 		.word	.L165
 3344 1194 FE080000 		.word	.L223
 3345              		.section	.text.main
 3346              	.L156:
1157:main.c        ****             {
1158:main.c        ****                 case INIT_IDLE:
1159:main.c        ****                     g_init_state = INIT_RESET;
 3347              		.loc 1 1159 0
 3348 0088 A14B     		ldr	r3, .L225+24
 3349 008a 0122     		movs	r2, #1
 3350 008c 1A70     		strb	r2, [r3]
1160:main.c        ****                     break;
 3351              		.loc 1 1160 0
 3352 008e 00F037FC 		bl	.L155	@ far jump
 3353              	.L158:
1161:main.c        ****                     
1162:main.c        ****                 case INIT_RESET:
1163:main.c        ****                     printf("[INIT] Resetting AD5940...\n");
 3354              		.loc 1 1163 0
 3355 0092 A14B     		ldr	r3, .L225+32
 3356 0094 1800     		movs	r0, r3
 3357 0096 FFF7FEFF 		bl	puts
1164:main.c        ****                     AD5940_RST_Write(0);
 3358              		.loc 1 1164 0
 3359 009a 0020     		movs	r0, #0
 3360 009c FFF7FEFF 		bl	AD5940_RST_Write
1165:main.c        ****                     CyDelay(10);
 3361              		.loc 1 1165 0
 3362 00a0 0A20     		movs	r0, #10
 3363 00a2 FFF7FEFF 		bl	CyDelay
1166:main.c        ****                     AD5940_RST_Write(1);
 3364              		.loc 1 1166 0
 3365 00a6 0120     		movs	r0, #1
 3366 00a8 FFF7FEFF 		bl	AD5940_RST_Write
1167:main.c        ****                     CyDelay(100);
ARM GAS  C:\Users\13740\AppData\Local\Temp\cc6vMOIu.s 			page 91


 3367              		.loc 1 1167 0
 3368 00ac 6420     		movs	r0, #100
 3369 00ae FFF7FEFF 		bl	CyDelay
1168:main.c        ****                     
1169:main.c        ****                     AD5940_CS_Write(1);
 3370              		.loc 1 1169 0
 3371 00b2 0120     		movs	r0, #1
 3372 00b4 FFF7FEFF 		bl	AD5940_CS_Write
1170:main.c        ****                     AD5940_SCLK_Write(0);
 3373              		.loc 1 1170 0
 3374 00b8 0020     		movs	r0, #0
 3375 00ba FFF7FEFF 		bl	AD5940_SCLK_Write
1171:main.c        ****                     CyDelay(20);
 3376              		.loc 1 1171 0
 3377 00be 1420     		movs	r0, #20
 3378 00c0 FFF7FEFF 		bl	CyDelay
1172:main.c        ****                     
1173:main.c        ****                     g_init_state = INIT_CHECK_ID;
 3379              		.loc 1 1173 0
 3380 00c4 924B     		ldr	r3, .L225+24
 3381 00c6 0222     		movs	r2, #2
 3382 00c8 1A70     		strb	r2, [r3]
1174:main.c        ****                     break;
 3383              		.loc 1 1174 0
 3384 00ca 00F019FC 		bl	.L155	@ far jump
 3385              	.L159:
1175:main.c        ****                     
1176:main.c        ****                 case INIT_CHECK_ID:
1177:main.c        ****                     printf("[INIT] Checking ID...\n");
 3386              		.loc 1 1177 0
 3387 00ce 934B     		ldr	r3, .L225+36
 3388 00d0 1800     		movs	r0, r3
 3389 00d2 FFF7FEFF 		bl	puts
 3390              	.LBB9:
1178:main.c        ****                     {
1179:main.c        ****                         uint32_t adiid = AD5940_ReadReg(REG_AFECON_ADIID);
 3391              		.loc 1 1179 0
 3392 00d6 8023     		movs	r3, #128
 3393 00d8 DB00     		lsls	r3, r3, #3
 3394 00da 1800     		movs	r0, r3
 3395 00dc FFF7FEFF 		bl	AD5940_ReadReg
 3396 00e0 0300     		movs	r3, r0
 3397 00e2 7B66     		str	r3, [r7, #100]
1180:main.c        ****                         uint32_t chipid = AD5940_ReadReg(REG_AFECON_CHIPID);
 3398              		.loc 1 1180 0
 3399 00e4 8E4B     		ldr	r3, .L225+40
 3400 00e6 1800     		movs	r0, r3
 3401 00e8 FFF7FEFF 		bl	AD5940_ReadReg
 3402 00ec 0300     		movs	r3, r0
 3403 00ee 3B66     		str	r3, [r7, #96]
1181:main.c        ****                         
1182:main.c        ****                         // ✅ 保存ID用于显示
1183:main.c        ****                         g_test_adiid = adiid;
 3404              		.loc 1 1183 0
 3405 00f0 8C4B     		ldr	r3, .L225+44
 3406 00f2 7A6E     		ldr	r2, [r7, #100]
 3407 00f4 1A60     		str	r2, [r3]
ARM GAS  C:\Users\13740\AppData\Local\Temp\cc6vMOIu.s 			page 92


1184:main.c        ****                         g_test_chipid = chipid;
 3408              		.loc 1 1184 0
 3409 00f6 8C4B     		ldr	r3, .L225+48
 3410 00f8 3A6E     		ldr	r2, [r7, #96]
 3411 00fa 1A60     		str	r2, [r3]
1185:main.c        ****                         
1186:main.c        ****                         if(adiid == 0x4144 && (chipid == 0x5501 || chipid == 0x5502))
 3412              		.loc 1 1186 0
 3413 00fc 7B6E     		ldr	r3, [r7, #100]
 3414 00fe 8B4A     		ldr	r2, .L225+52
 3415 0100 9342     		cmp	r3, r2
 3416 0102 13D1     		bne	.L167
 3417              		.loc 1 1186 0 is_stmt 0 discriminator 1
 3418 0104 3B6E     		ldr	r3, [r7, #96]
 3419 0106 8A4A     		ldr	r2, .L225+56
 3420 0108 9342     		cmp	r3, r2
 3421 010a 03D0     		beq	.L168
 3422              		.loc 1 1186 0 discriminator 2
 3423 010c 3B6E     		ldr	r3, [r7, #96]
 3424 010e 894A     		ldr	r2, .L225+60
 3425 0110 9342     		cmp	r3, r2
 3426 0112 0BD1     		bne	.L167
 3427              	.L168:
1187:main.c        ****                         {
1188:main.c        ****                             printf("[OK] ID verified\n");
 3428              		.loc 1 1188 0 is_stmt 1
 3429 0114 884B     		ldr	r3, .L225+64
 3430 0116 1800     		movs	r0, r3
 3431 0118 FFF7FEFF 		bl	puts
1189:main.c        ****                             g_reg_index = 0;
 3432              		.loc 1 1189 0
 3433 011c 874B     		ldr	r3, .L225+68
 3434 011e 0022     		movs	r2, #0
 3435 0120 1A70     		strb	r2, [r3]
1190:main.c        ****                             g_init_state = INIT_WRITE_REGS;
 3436              		.loc 1 1190 0
 3437 0122 7B4B     		ldr	r3, .L225+24
 3438 0124 0322     		movs	r2, #3
 3439 0126 1A70     		strb	r2, [r3]
 3440              	.LBE9:
1191:main.c        ****                         }
1192:main.c        ****                         else
1193:main.c        ****                         {
1194:main.c        ****                             printf("[ERROR] ID check failed\n");
1195:main.c        ****                             g_test_done = 2;
1196:main.c        ****                             g_init_state = INIT_COMPLETE;
1197:main.c        ****                         }
1198:main.c        ****                     }
1199:main.c        ****                     break;
 3441              		.loc 1 1199 0
 3442 0128 00F0EAFB 		bl	.L155	@ far jump
 3443              	.L167:
 3444              	.LBB10:
1194:main.c        ****                             g_test_done = 2;
 3445              		.loc 1 1194 0
 3446 012c 844B     		ldr	r3, .L225+72
 3447 012e 1800     		movs	r0, r3
ARM GAS  C:\Users\13740\AppData\Local\Temp\cc6vMOIu.s 			page 93


 3448 0130 FFF7FEFF 		bl	puts
1195:main.c        ****                             g_init_state = INIT_COMPLETE;
 3449              		.loc 1 1195 0
 3450 0134 834B     		ldr	r3, .L225+76
 3451 0136 0222     		movs	r2, #2
 3452 0138 1A70     		strb	r2, [r3]
1196:main.c        ****                         }
 3453              		.loc 1 1196 0
 3454 013a 754B     		ldr	r3, .L225+24
 3455 013c 0922     		movs	r2, #9
 3456 013e 1A70     		strb	r2, [r3]
 3457              	.LBE10:
 3458              		.loc 1 1199 0
 3459 0140 00F0DEFB 		bl	.L155	@ far jump
 3460              	.L160:
1200:main.c        ****                     
1201:main.c        ****                 case INIT_WRITE_REGS:
1202:main.c        ****                     // ✅ 每次循环只写1个寄存器
1203:main.c        ****                     if(g_reg_index < REG_TABLE_SIZE)
 3461              		.loc 1 1203 0
 3462 0144 7D4B     		ldr	r3, .L225+68
 3463 0146 1B78     		ldrb	r3, [r3]
 3464 0148 0D2B     		cmp	r3, #13
 3465 014a 1ED8     		bhi	.L170
1204:main.c        ****                     {
1205:main.c        ****                         AD5940_WriteReg(g_RegTable[g_reg_index].reg_addr, 
 3466              		.loc 1 1205 0
 3467 014c 7B4B     		ldr	r3, .L225+68
 3468 014e 1B78     		ldrb	r3, [r3]
 3469 0150 1A00     		movs	r2, r3
 3470 0152 7D4B     		ldr	r3, .L225+80
 3471 0154 D200     		lsls	r2, r2, #3
 3472 0156 D05A     		ldrh	r0, [r2, r3]
 3473 0158 784B     		ldr	r3, .L225+68
 3474 015a 1B78     		ldrb	r3, [r3]
 3475 015c 7A4A     		ldr	r2, .L225+80
 3476 015e DB00     		lsls	r3, r3, #3
 3477 0160 D318     		adds	r3, r2, r3
 3478 0162 0433     		adds	r3, r3, #4
 3479 0164 1B68     		ldr	r3, [r3]
 3480 0166 1900     		movs	r1, r3
 3481 0168 FFF7FEFF 		bl	AD5940_WriteReg
1206:main.c        ****                                        g_RegTable[g_reg_index].reg_data);
1207:main.c        ****                         
1208:main.c        ****                         printf("[INIT] Wrote reg %d/%d\n", g_reg_index+1, REG_TABLE_SIZE);
 3482              		.loc 1 1208 0
 3483 016c 734B     		ldr	r3, .L225+68
 3484 016e 1B78     		ldrb	r3, [r3]
 3485 0170 591C     		adds	r1, r3, #1
 3486 0172 764B     		ldr	r3, .L225+84
 3487 0174 0E22     		movs	r2, #14
 3488 0176 1800     		movs	r0, r3
 3489 0178 FFF7FEFF 		bl	printf
1209:main.c        ****                         
1210:main.c        ****                         g_reg_index++;
 3490              		.loc 1 1210 0
 3491 017c 6F4B     		ldr	r3, .L225+68
ARM GAS  C:\Users\13740\AppData\Local\Temp\cc6vMOIu.s 			page 94


 3492 017e 1B78     		ldrb	r3, [r3]
 3493 0180 0133     		adds	r3, r3, #1
 3494 0182 DAB2     		uxtb	r2, r3
 3495 0184 6D4B     		ldr	r3, .L225+68
 3496 0186 1A70     		strb	r2, [r3]
1211:main.c        ****                     }
1212:main.c        ****                     else
1213:main.c        ****                     {
1214:main.c        ****                         printf("[INIT] All registers written\n");
1215:main.c        ****                         g_init_state = INIT_VERIFY_REG;  // ← 改为验证寄存器
1216:main.c        ****                     }
1217:main.c        ****                     break;
 3497              		.loc 1 1217 0
 3498 0188 BAE3     		b	.L155
 3499              	.L170:
1214:main.c        ****                         g_init_state = INIT_VERIFY_REG;  // ← 改为验证寄存器
 3500              		.loc 1 1214 0
 3501 018a 714B     		ldr	r3, .L225+88
 3502 018c 1800     		movs	r0, r3
 3503 018e FFF7FEFF 		bl	puts
1215:main.c        ****                     }
 3504              		.loc 1 1215 0
 3505 0192 5F4B     		ldr	r3, .L225+24
 3506 0194 0422     		movs	r2, #4
 3507 0196 1A70     		strb	r2, [r3]
 3508              		.loc 1 1217 0
 3509 0198 B2E3     		b	.L155
 3510              	.L161:
1218:main.c        ****                 
1219:main.c        ****                 // ✅ 新增：验证寄存器写入
1220:main.c        ****                 case INIT_VERIFY_REG:
1221:main.c        ****                     printf("[INIT] Verifying register write...\n");
 3511              		.loc 1 1221 0
 3512 019a 6E4B     		ldr	r3, .L225+92
 3513 019c 1800     		movs	r0, r3
 3514 019e FFF7FEFF 		bl	puts
1222:main.c        ****                     {
1223:main.c        ****                         // 读回第一个寄存器验证
1224:main.c        ****                         g_test_reg_0908 = AD5940_ReadReg(0x0908);
 3515              		.loc 1 1224 0
 3516 01a2 6D4B     		ldr	r3, .L225+96
 3517 01a4 1800     		movs	r0, r3
 3518 01a6 FFF7FEFF 		bl	AD5940_ReadReg
 3519 01aa 0200     		movs	r2, r0
 3520 01ac 6B4B     		ldr	r3, .L225+100
 3521 01ae 1A60     		str	r2, [r3]
1225:main.c        ****                         printf("Reg 0x0908: 0x%08lX (expect 0x02C9)\n", g_test_reg_0908);
 3522              		.loc 1 1225 0
 3523 01b0 6A4B     		ldr	r3, .L225+100
 3524 01b2 1A68     		ldr	r2, [r3]
 3525 01b4 6A4B     		ldr	r3, .L225+104
 3526 01b6 1100     		movs	r1, r2
 3527 01b8 1800     		movs	r0, r3
 3528 01ba FFF7FEFF 		bl	printf
1226:main.c        ****                         
1227:main.c        ****                         g_init_state = INIT_CHECK_AFE;
 3529              		.loc 1 1227 0
ARM GAS  C:\Users\13740\AppData\Local\Temp\cc6vMOIu.s 			page 95


 3530 01be 544B     		ldr	r3, .L225+24
 3531 01c0 0522     		movs	r2, #5
 3532 01c2 1A70     		strb	r2, [r3]
1228:main.c        ****                     }
1229:main.c        ****                     break;
 3533              		.loc 1 1229 0
 3534 01c4 9CE3     		b	.L155
 3535              	.L162:
1230:main.c        ****                 
1231:main.c        ****                 // ✅ 新增：检查AFE状态
1232:main.c        ****                 case INIT_CHECK_AFE:
1233:main.c        ****                     printf("[INIT] Checking AFE status...\n");
 3536              		.loc 1 1233 0
 3537 01c6 674B     		ldr	r3, .L225+108
 3538 01c8 1800     		movs	r0, r3
 3539 01ca FFF7FEFF 		bl	puts
1234:main.c        ****                     {
1235:main.c        ****                         // 读取AFE配置寄存器
1236:main.c        ****                         g_test_afecon = AD5940_ReadReg(REG_AFE_AFECON);
 3540              		.loc 1 1236 0
 3541 01ce 8023     		movs	r3, #128
 3542 01d0 9B01     		lsls	r3, r3, #6
 3543 01d2 1800     		movs	r0, r3
 3544 01d4 FFF7FEFF 		bl	AD5940_ReadReg
 3545 01d8 0200     		movs	r2, r0
 3546 01da 634B     		ldr	r3, .L225+112
 3547 01dc 1A60     		str	r2, [r3]
1237:main.c        ****                         printf("AFECON: 0x%08lX\n", g_test_afecon);
 3548              		.loc 1 1237 0
 3549 01de 624B     		ldr	r3, .L225+112
 3550 01e0 1A68     		ldr	r2, [r3]
 3551 01e2 624B     		ldr	r3, .L225+116
 3552 01e4 1100     		movs	r1, r2
 3553 01e6 1800     		movs	r0, r3
 3554 01e8 FFF7FEFF 		bl	printf
1238:main.c        ****                         
1239:main.c        ****                         g_init_state = INIT_CHECK_FIFO;
 3555              		.loc 1 1239 0
 3556 01ec 484B     		ldr	r3, .L225+24
 3557 01ee 0622     		movs	r2, #6
 3558 01f0 1A70     		strb	r2, [r3]
1240:main.c        ****                     }
1241:main.c        ****                     break;
 3559              		.loc 1 1241 0
 3560 01f2 85E3     		b	.L155
 3561              	.L163:
1242:main.c        ****                 
1243:main.c        ****                 // ✅ 新增：检查FIFO状态
1244:main.c        ****                 case INIT_CHECK_FIFO:
1245:main.c        ****                     printf("[INIT] Checking FIFO (using direct addresses)...\n");
 3562              		.loc 1 1245 0
 3563 01f4 5E4B     		ldr	r3, .L225+120
 3564 01f6 1800     		movs	r0, r3
 3565 01f8 FFF7FEFF 		bl	puts
 3566              	.LBB11:
1246:main.c        ****                     {
1247:main.c        ****                         // ========================================
ARM GAS  C:\Users\13740\AppData\Local\Temp\cc6vMOIu.s 			page 96


1248:main.c        ****                         // 使用诊断函数检查FIFO状态
1249:main.c        ****                         // ========================================
1250:main.c        ****                         DiagnoseFIFO();
 3567              		.loc 1 1250 0
 3568 01fc FFF7FEFF 		bl	DiagnoseFIFO
1251:main.c        ****                         
1252:main.c        ****                         // ========================================
1253:main.c        ****                         // 测试: 手动读取FIFO寄存器
1254:main.c        ****                         // ========================================
1255:main.c        ****                         uint32_t addr_2080 = AD5940_ReadReg(0x2080);
 3569              		.loc 1 1255 0
 3570 0200 8223     		movs	r3, #130
 3571 0202 9B01     		lsls	r3, r3, #6
 3572 0204 1800     		movs	r0, r3
 3573 0206 FFF7FEFF 		bl	AD5940_ReadReg
 3574 020a 0300     		movs	r3, r0
 3575 020c FB65     		str	r3, [r7, #92]
1256:main.c        ****                         uint32_t addr_2084 = AD5940_ReadReg(0x2084);
 3576              		.loc 1 1256 0
 3577 020e 594B     		ldr	r3, .L225+124
 3578 0210 1800     		movs	r0, r3
 3579 0212 FFF7FEFF 		bl	AD5940_ReadReg
 3580 0216 0300     		movs	r3, r0
 3581 0218 BB65     		str	r3, [r7, #88]
1257:main.c        ****                         
1258:main.c        ****                         printf("[DEBUG] Manual read:\n");
 3582              		.loc 1 1258 0
 3583 021a 574B     		ldr	r3, .L225+128
 3584 021c 1800     		movs	r0, r3
 3585 021e FFF7FEFF 		bl	puts
1259:main.c        ****                         printf("  Addr 0x2080 (FIFOCON): 0x%08lX\n", addr_2080);
 3586              		.loc 1 1259 0
 3587 0222 FA6D     		ldr	r2, [r7, #92]
 3588 0224 554B     		ldr	r3, .L225+132
 3589 0226 1100     		movs	r1, r2
 3590 0228 1800     		movs	r0, r3
 3591 022a FFF7FEFF 		bl	printf
1260:main.c        ****                         printf("  Addr 0x2084 (FIFOSTA): 0x%08lX\n", addr_2084);
 3592              		.loc 1 1260 0
 3593 022e BA6D     		ldr	r2, [r7, #88]
 3594 0230 534B     		ldr	r3, .L225+136
 3595 0232 1100     		movs	r1, r2
 3596 0234 1800     		movs	r0, r3
 3597 0236 FFF7FEFF 		bl	printf
1261:main.c        ****                         
1262:main.c        ****                         // 保存用于BLE显示
1263:main.c        ****                         g_test_fifocon = addr_2080;
 3598              		.loc 1 1263 0
 3599 023a 524B     		ldr	r3, .L225+140
 3600 023c FA6D     		ldr	r2, [r7, #92]
 3601 023e 1A60     		str	r2, [r3]
1264:main.c        ****                         
1265:main.c        ****                         // ========================================
1266:main.c        ****                         // 检查FIFO是否被使能
1267:main.c        ****                         // ========================================
1268:main.c        ****                         if((addr_2080 & 0x01) == 0)  // FIFO未使能
 3602              		.loc 1 1268 0
ARM GAS  C:\Users\13740\AppData\Local\Temp\cc6vMOIu.s 			page 97


 3603 0240 FB6D     		ldr	r3, [r7, #92]
 3604 0242 0122     		movs	r2, #1
 3605 0244 1340     		ands	r3, r2
 3606 0246 26D1     		bne	.L172
 3607              	.LBB12:
1269:main.c        ****                         {
1270:main.c        ****                             printf("[WARNING] FIFO not enabled! Attempting fix...\n");
 3608              		.loc 1 1270 0
 3609 0248 4F4B     		ldr	r3, .L225+144
 3610 024a 1800     		movs	r0, r3
 3611 024c FFF7FEFF 		bl	puts
1271:main.c        ****                             ForceFIFOEnable();
 3612              		.loc 1 1271 0
 3613 0250 FFF7FEFF 		bl	ForceFIFOEnable
1272:main.c        ****                             
1273:main.c        ****                             // 再次验证
1274:main.c        ****                             CyDelay(10);
 3614              		.loc 1 1274 0
 3615 0254 0A20     		movs	r0, #10
 3616 0256 FFF7FEFF 		bl	CyDelay
1275:main.c        ****                             uint32_t verify_2080 = AD5940_ReadReg(0x2080);
 3617              		.loc 1 1275 0
 3618 025a 8223     		movs	r3, #130
 3619 025c 9B01     		lsls	r3, r3, #6
 3620 025e 1800     		movs	r0, r3
 3621 0260 FFF7FEFF 		bl	AD5940_ReadReg
 3622 0264 0300     		movs	r3, r0
 3623 0266 7B65     		str	r3, [r7, #84]
1276:main.c        ****                             printf("[VERIFY] After fix - FIFOCON: 0x%08lX\n", verify_2080);
 3624              		.loc 1 1276 0
 3625 0268 7A6D     		ldr	r2, [r7, #84]
 3626 026a 484B     		ldr	r3, .L225+148
 3627 026c 1100     		movs	r1, r2
 3628 026e 1800     		movs	r0, r3
 3629 0270 FFF7FEFF 		bl	printf
1277:main.c        ****                             
1278:main.c        ****                             if((verify_2080 & 0x01) == 0)
 3630              		.loc 1 1278 0
 3631 0274 7B6D     		ldr	r3, [r7, #84]
 3632 0276 0122     		movs	r2, #1
 3633 0278 1340     		ands	r3, r2
 3634 027a 04D1     		bne	.L173
1279:main.c        ****                             {
1280:main.c        ****                                 printf("[ERROR] FIFO still not enabled after fix!\n");
 3635              		.loc 1 1280 0
 3636 027c 444B     		ldr	r3, .L225+152
 3637 027e 1800     		movs	r0, r3
 3638 0280 FFF7FEFF 		bl	puts
 3639 0284 0BE0     		b	.L175
 3640              	.L173:
1281:main.c        ****                             }
1282:main.c        ****                             else
1283:main.c        ****                             {
1284:main.c        ****                                 printf("[OK] FIFO enabled successfully!\n");
 3641              		.loc 1 1284 0
 3642 0286 434B     		ldr	r3, .L225+156
 3643 0288 1800     		movs	r0, r3
ARM GAS  C:\Users\13740\AppData\Local\Temp\cc6vMOIu.s 			page 98


 3644 028a FFF7FEFF 		bl	puts
1285:main.c        ****                                 g_test_fifocon = verify_2080;
 3645              		.loc 1 1285 0
 3646 028e 3D4B     		ldr	r3, .L225+140
 3647 0290 7A6D     		ldr	r2, [r7, #84]
 3648 0292 1A60     		str	r2, [r3]
 3649 0294 03E0     		b	.L175
 3650              	.L172:
 3651              	.LBE12:
1286:main.c        ****                             }
1287:main.c        ****                         }
1288:main.c        ****                         else
1289:main.c        ****                         {
1290:main.c        ****                             printf("[OK] FIFO already enabled\n");
 3652              		.loc 1 1290 0
 3653 0296 404B     		ldr	r3, .L225+160
 3654 0298 1800     		movs	r0, r3
 3655 029a FFF7FEFF 		bl	puts
 3656              	.L175:
1291:main.c        ****                         }
1292:main.c        ****                         
1293:main.c        ****                         // 解析 0x2084 的数据计数字段
1294:main.c        ****                         g_test_fifo_count = addr_2084 & 0x7FF;  // bit 0-10
 3657              		.loc 1 1294 0
 3658 029e BB6D     		ldr	r3, [r7, #88]
 3659 02a0 9BB2     		uxth	r3, r3
 3660 02a2 5B05     		lsls	r3, r3, #21
 3661 02a4 5B0D     		lsrs	r3, r3, #21
 3662 02a6 9AB2     		uxth	r2, r3
 3663 02a8 3C4B     		ldr	r3, .L225+164
 3664 02aa 1A80     		strh	r2, [r3]
1295:main.c        ****                         
1296:main.c        ****                         g_init_state = INIT_CONFIG_APP;
 3665              		.loc 1 1296 0
 3666 02ac 184B     		ldr	r3, .L225+24
 3667 02ae 0722     		movs	r2, #7
 3668 02b0 1A70     		strb	r2, [r3]
 3669              	.LBE11:
1297:main.c        ****                     }
1298:main.c        ****                     break;
 3670              		.loc 1 1298 0
 3671 02b2 25E3     		b	.L155
 3672              	.L164:
1299:main.c        ****                                     
1300:main.c        ****                 case INIT_CONFIG_APP:
1301:main.c        ****                     printf("[INIT] Final verification...\n");
 3673              		.loc 1 1301 0
 3674 02b4 3A4B     		ldr	r3, .L225+168
 3675 02b6 1800     		movs	r0, r3
 3676 02b8 FFF7FEFF 		bl	puts
1302:main.c        ****                     {
1303:main.c        ****                         if((g_test_reg_0908 & 0xFFFF) == 0x02C9)
 3677              		.loc 1 1303 0
 3678 02bc 274B     		ldr	r3, .L225+100
 3679 02be 1B68     		ldr	r3, [r3]
 3680 02c0 1B04     		lsls	r3, r3, #16
 3681 02c2 1B0C     		lsrs	r3, r3, #16
ARM GAS  C:\Users\13740\AppData\Local\Temp\cc6vMOIu.s 			page 99


 3682 02c4 374A     		ldr	r2, .L225+172
 3683 02c6 9342     		cmp	r3, r2
 3684 02c8 0AD1     		bne	.L176
1304:main.c        ****                         {
1305:main.c        ****                             printf("[OK] All checks passed\n");
 3685              		.loc 1 1305 0
 3686 02ca 374B     		ldr	r3, .L225+176
 3687 02cc 1800     		movs	r0, r3
 3688 02ce FFF7FEFF 		bl	puts
1306:main.c        ****                             g_test_done = 1;
 3689              		.loc 1 1306 0
 3690 02d2 1C4B     		ldr	r3, .L225+76
 3691 02d4 0122     		movs	r2, #1
 3692 02d6 1A70     		strb	r2, [r3]
1307:main.c        ****                             g_init_state = INIT_START_MEASUREMENT;  // ← 改这里
 3693              		.loc 1 1307 0
 3694 02d8 0D4B     		ldr	r3, .L225+24
 3695 02da 0822     		movs	r2, #8
 3696 02dc 1A70     		strb	r2, [r3]
1308:main.c        ****                         }
1309:main.c        ****                         else
1310:main.c        ****                         {
1311:main.c        ****                             printf("[FAIL] Verification failed\n");
1312:main.c        ****                             g_test_done = 2;
1313:main.c        ****                             g_init_state = INIT_COMPLETE;
1314:main.c        ****                         }
1315:main.c        ****                     }
1316:main.c        ****                     break;
 3697              		.loc 1 1316 0
 3698 02de 0FE3     		b	.L155
 3699              	.L176:
1311:main.c        ****                             g_test_done = 2;
 3700              		.loc 1 1311 0
 3701 02e0 324B     		ldr	r3, .L225+180
 3702 02e2 1800     		movs	r0, r3
 3703 02e4 FFF7FEFF 		bl	puts
1312:main.c        ****                             g_init_state = INIT_COMPLETE;
 3704              		.loc 1 1312 0
 3705 02e8 164B     		ldr	r3, .L225+76
 3706 02ea 0222     		movs	r2, #2
 3707 02ec 1A70     		strb	r2, [r3]
1313:main.c        ****                         }
 3708              		.loc 1 1313 0
 3709 02ee 084B     		ldr	r3, .L225+24
 3710 02f0 0922     		movs	r2, #9
 3711 02f2 1A70     		strb	r2, [r3]
 3712              		.loc 1 1316 0
 3713 02f4 04E3     		b	.L155
 3714              	.L226:
 3715 02f6 C046     		.align	2
 3716              	.L225:
 3717 02f8 18090000 		.word	.LC170
 3718 02fc 00000000 		.word	AppCallBack
 3719 0300 00000000 		.word	apiResult
 3720 0304 00000000 		.word	Timer_Interrupt
 3721 0308 30090000 		.word	.LC175
 3722 030c 00000000 		.word	cyBle_state
ARM GAS  C:\Users\13740\AppData\Local\Temp\cc6vMOIu.s 			page 100


 3723 0310 70000000 		.word	g_init_state
 3724 0314 70110000 		.word	.L157
 3725 0318 50090000 		.word	.LC180
 3726 031c 6C090000 		.word	.LC182
 3727 0320 04040000 		.word	1028
 3728 0324 34000000 		.word	g_test_adiid
 3729 0328 38000000 		.word	g_test_chipid
 3730 032c 44410000 		.word	16708
 3731 0330 01550000 		.word	21761
 3732 0334 02550000 		.word	21762
 3733 0338 84090000 		.word	.LC186
 3734 033c 71000000 		.word	g_reg_index
 3735 0340 98090000 		.word	.LC189
 3736 0344 4A000000 		.word	g_test_done
 3737 0348 00000000 		.word	g_RegTable
 3738 034c B0090000 		.word	.LC193
 3739 0350 C8090000 		.word	.LC195
 3740 0354 E8090000 		.word	.LC197
 3741 0358 08090000 		.word	2312
 3742 035c 3C000000 		.word	g_test_reg_0908
 3743 0360 0C0A0000 		.word	.LC200
 3744 0364 340A0000 		.word	.LC202
 3745 0368 40000000 		.word	g_test_afecon
 3746 036c 540A0000 		.word	.LC205
 3747 0370 680A0000 		.word	.LC207
 3748 0374 84200000 		.word	8324
 3749 0378 9C0A0000 		.word	.LC209
 3750 037c B40A0000 		.word	.LC211
 3751 0380 D80A0000 		.word	.LC213
 3752 0384 44000000 		.word	g_test_fifocon
 3753 0388 FC0A0000 		.word	.LC216
 3754 038c 2C0B0000 		.word	.LC218
 3755 0390 540B0000 		.word	.LC220
 3756 0394 800B0000 		.word	.LC222
 3757 0398 A00B0000 		.word	.LC224
 3758 039c 48000000 		.word	g_test_fifo_count
 3759 03a0 BC0B0000 		.word	.LC227
 3760 03a4 C9020000 		.word	713
 3761 03a8 DC0B0000 		.word	.LC229
 3762 03ac F40B0000 		.word	.LC231
 3763              	.L165:
1317:main.c        ****                 case INIT_START_MEASUREMENT:
1318:main.c        ****                     printf("[INIT] Starting measurement...\n");
 3764              		.loc 1 1318 0
 3765 03b0 FA4B     		ldr	r3, .L227
 3766 03b2 1800     		movs	r0, r3
 3767 03b4 FFF7FEFF 		bl	puts
 3768              	.LBB13:
1319:main.c        ****                     {
1320:main.c        ****                         // ⭐⭐⭐ 方案：完全绕过AppAMPCtrl,直接配置寄存器 ⭐⭐
1321:main.c        ****                         
1322:main.c        ****                         printf("[BYPASS] Using direct register configuration (bypassing AppAMP libr
 3769              		.loc 1 1322 0
 3770 03b8 F94B     		ldr	r3, .L227+4
 3771 03ba 1800     		movs	r0, r3
 3772 03bc FFF7FEFF 		bl	puts
1323:main.c        ****                         
ARM GAS  C:\Users\13740\AppData\Local\Temp\cc6vMOIu.s 			page 101


1324:main.c        ****                         // ========================================
1325:main.c        ****                         // 步骤1: 配置参考电压和偏置
1326:main.c        ****                         // ========================================
1327:main.c        ****                         
1328:main.c        ****                         // 使能HP和LP参考电压 (关键!)
1329:main.c        ****                         AD5940_WriteReg(0x21A8, 0x0033);  // AFEREFCON - HP/LP参考使能
 3773              		.loc 1 1329 0
 3774 03c0 F84B     		ldr	r3, .L227+8
 3775 03c2 3321     		movs	r1, #51
 3776 03c4 1800     		movs	r0, r3
 3777 03c6 FFF7FEFF 		bl	AD5940_WriteReg
1330:main.c        ****                         CyDelay(50);
 3778              		.loc 1 1330 0
 3779 03ca 3220     		movs	r0, #50
 3780 03cc FFF7FEFF 		bl	CyDelay
1331:main.c        ****                         
1332:main.c        ****                         // LPDACCON (0x2230) - LPDAC控制
1333:main.c        ****                         AD5940_WriteReg(0x2230, 0xDE87A5AF);
 3781              		.loc 1 1333 0
 3782 03d0 F54A     		ldr	r2, .L227+12
 3783 03d2 F64B     		ldr	r3, .L227+16
 3784 03d4 1100     		movs	r1, r2
 3785 03d6 1800     		movs	r0, r3
 3786 03d8 FFF7FEFF 		bl	AD5940_WriteReg
1334:main.c        ****                         
1335:main.c        ****                         // LPDACDAT0 (0x22F0) - Vzero = 1.1V (6-bit DAC)
1336:main.c        ****                         AD5940_WriteReg(0x22F0, 0x0000);  
 3787              		.loc 1 1336 0
 3788 03dc F44B     		ldr	r3, .L227+20
 3789 03de 0021     		movs	r1, #0
 3790 03e0 1800     		movs	r0, r3
 3791 03e2 FFF7FEFF 		bl	AD5940_WriteReg
1337:main.c        ****                         
1338:main.c        ****                         // LPDACDAT1 (0x2250) - Vbias
1339:main.c        ****                         AD5940_WriteReg(0x2250, 0x103F);
 3792              		.loc 1 1339 0
 3793 03e6 F34A     		ldr	r2, .L227+24
 3794 03e8 F34B     		ldr	r3, .L227+28
 3795 03ea 1100     		movs	r1, r2
 3796 03ec 1800     		movs	r0, r3
 3797 03ee FFF7FEFF 		bl	AD5940_WriteReg
1340:main.c        ****                         
1341:main.c        ****                         CyDelay(50);
 3798              		.loc 1 1341 0
 3799 03f2 3220     		movs	r0, #50
 3800 03f4 FFF7FEFF 		bl	CyDelay
1342:main.c        ****                         
1343:main.c        ****                         // ========================================
1344:main.c        ****                         // 步骤2: 配置LPTIA (核心!)
1345:main.c        ****                         // ========================================
1346:main.c        ****                         
1347:main.c        ****                         uint32_t lptiacon = 0;
 3801              		.loc 1 1347 0
 3802 03f8 0023     		movs	r3, #0
 3803 03fa 3B65     		str	r3, [r7, #80]
1348:main.c        ****                         // Bit 0: LPTIA Power enable
1349:main.c        ****                         lptiacon |= (1 << 0);
ARM GAS  C:\Users\13740\AppData\Local\Temp\cc6vMOIu.s 			page 102


 3804              		.loc 1 1349 0
 3805 03fc 3B6D     		ldr	r3, [r7, #80]
 3806 03fe 0122     		movs	r2, #1
 3807 0400 1343     		orrs	r3, r2
 3808 0402 3B65     		str	r3, [r7, #80]
1350:main.c        ****                         // Bit 2-4: LPTIA Rload (000 = 100R)
1351:main.c        ****                         lptiacon |= (0 << 2);
1352:main.c        ****                         // Bit 5-8: LPTIA Rtia (0101 = 10kΩ)
1353:main.c        ****                         lptiacon |= (5 << 5);
 3809              		.loc 1 1353 0
 3810 0404 3B6D     		ldr	r3, [r7, #80]
 3811 0406 A022     		movs	r2, #160
 3812 0408 1343     		orrs	r3, r2
 3813 040a 3B65     		str	r3, [r7, #80]
1354:main.c        ****                         // Bit 9-11: LPTIA Rf (111 = 1MΩ)
1355:main.c        ****                         lptiacon |= (7 << 9);
 3814              		.loc 1 1355 0
 3815 040c 3B6D     		ldr	r3, [r7, #80]
 3816 040e E022     		movs	r2, #224
 3817 0410 1201     		lsls	r2, r2, #4
 3818 0412 1343     		orrs	r3, r2
 3819 0414 3B65     		str	r3, [r7, #80]
1356:main.c        ****                         // Bit 12-16: LPTIA Switch配置
1357:main.c        ****                         lptiacon |= (1 << (12+5));   // SW5
 3820              		.loc 1 1357 0
 3821 0416 3B6D     		ldr	r3, [r7, #80]
 3822 0418 8022     		movs	r2, #128
 3823 041a 9202     		lsls	r2, r2, #10
 3824 041c 1343     		orrs	r3, r2
 3825 041e 3B65     		str	r3, [r7, #80]
1358:main.c        ****                         lptiacon |= (1 << (12+2));   // SW2
 3826              		.loc 1 1358 0
 3827 0420 3B6D     		ldr	r3, [r7, #80]
 3828 0422 8022     		movs	r2, #128
 3829 0424 D201     		lsls	r2, r2, #7
 3830 0426 1343     		orrs	r3, r2
 3831 0428 3B65     		str	r3, [r7, #80]
1359:main.c        ****                         lptiacon |= (1 << (12+4));   // SW4
 3832              		.loc 1 1359 0
 3833 042a 3B6D     		ldr	r3, [r7, #80]
 3834 042c 8022     		movs	r2, #128
 3835 042e 5202     		lsls	r2, r2, #9
 3836 0430 1343     		orrs	r3, r2
 3837 0432 3B65     		str	r3, [r7, #80]
1360:main.c        ****                         lptiacon |= (1 << (12+12));  // SW12
 3838              		.loc 1 1360 0
 3839 0434 3B6D     		ldr	r3, [r7, #80]
 3840 0436 8022     		movs	r2, #128
 3841 0438 5204     		lsls	r2, r2, #17
 3842 043a 1343     		orrs	r3, r2
 3843 043c 3B65     		str	r3, [r7, #80]
1361:main.c        ****                         lptiacon |= (1 << (12+13));  // SW13
 3844              		.loc 1 1361 0
 3845 043e 3B6D     		ldr	r3, [r7, #80]
 3846 0440 8022     		movs	r2, #128
 3847 0442 9204     		lsls	r2, r2, #18
 3848 0444 1343     		orrs	r3, r2
ARM GAS  C:\Users\13740\AppData\Local\Temp\cc6vMOIu.s 			page 103


 3849 0446 3B65     		str	r3, [r7, #80]
1362:main.c        ****                         
1363:main.c        ****                         AD5940_WriteReg(0x2200, lptiacon);
 3850              		.loc 1 1363 0
 3851 0448 3A6D     		ldr	r2, [r7, #80]
 3852 044a 8823     		movs	r3, #136
 3853 044c 9B01     		lsls	r3, r3, #6
 3854 044e 1100     		movs	r1, r2
 3855 0450 1800     		movs	r0, r3
 3856 0452 FFF7FEFF 		bl	AD5940_WriteReg
1364:main.c        ****                         printf("[BYPASS] Configured LPTIA: 0x%08lX\n", lptiacon);
 3857              		.loc 1 1364 0
 3858 0456 3A6D     		ldr	r2, [r7, #80]
 3859 0458 D84B     		ldr	r3, .L227+32
 3860 045a 1100     		movs	r1, r2
 3861 045c 1800     		movs	r0, r3
 3862 045e FFF7FEFF 		bl	printf
1365:main.c        ****                         
1366:main.c        ****                         CyDelay(100);
 3863              		.loc 1 1366 0
 3864 0462 6420     		movs	r0, #100
 3865 0464 FFF7FEFF 		bl	CyDelay
1367:main.c        ****                         
1368:main.c        ****                         // ========================================
1369:main.c        ****                         // 步骤3: 配置ADC MUX和控制
1370:main.c        ****                         // ========================================
1371:main.c        ****                         
1372:main.c        ****                         // ADCCON (0x21F0) - ADC输入MUX选择
1373:main.c        ****                         // MuxP = AIN4 (LPTIA输出), MuxN = VZERO0
1374:main.c        ****                         uint32_t adcmux = (0x04 << 0) | (0x08 << 8);  // P=AIN4, N=VZERO
 3866              		.loc 1 1374 0
 3867 0468 D54B     		ldr	r3, .L227+36
 3868 046a FB64     		str	r3, [r7, #76]
1375:main.c        ****                         AD5940_WriteReg(0x21F0, adcmux);
 3869              		.loc 1 1375 0
 3870 046c FB6C     		ldr	r3, [r7, #76]
 3871 046e D54A     		ldr	r2, .L227+40
 3872 0470 1900     		movs	r1, r3
 3873 0472 1000     		movs	r0, r2
 3874 0474 FFF7FEFF 		bl	AD5940_WriteReg
1376:main.c        ****                         
1377:main.c        ****                         // ADCFILTERCON (0x21D4) - 配置SINC滤波器 (关键!)
1378:main.c        ****                         // Bit 0-3: SINC3 OSR (4 = OSR of 4)
1379:main.c        ****                         // Bit 4-9: SINC2 OSR
1380:main.c        ****                         // Bit 14: SINC2NOTCH bypass OFF (使能)
1381:main.c        ****                         uint32_t adcfilter = 0;
 3875              		.loc 1 1381 0
 3876 0478 0023     		movs	r3, #0
 3877 047a BB64     		str	r3, [r7, #72]
1382:main.c        ****                         adcfilter |= (4 << 0);     // SINC3 OSR = 4
 3878              		.loc 1 1382 0
 3879 047c BB6C     		ldr	r3, [r7, #72]
 3880 047e 0422     		movs	r2, #4
 3881 0480 1343     		orrs	r3, r2
 3882 0482 BB64     		str	r3, [r7, #72]
1383:main.c        ****                         adcfilter |= (178 << 4);   // SINC2 OSR = 178
 3883              		.loc 1 1383 0
ARM GAS  C:\Users\13740\AppData\Local\Temp\cc6vMOIu.s 			page 104


 3884 0484 BB6C     		ldr	r3, [r7, #72]
 3885 0486 B222     		movs	r2, #178
 3886 0488 1201     		lsls	r2, r2, #4
 3887 048a 1343     		orrs	r3, r2
 3888 048c BB64     		str	r3, [r7, #72]
1384:main.c        ****                         adcfilter |= (0 << 14);    // 不bypass SINC2
1385:main.c        ****                         AD5940_WriteReg(0x21D4, adcfilter);
 3889              		.loc 1 1385 0
 3890 048e BB6C     		ldr	r3, [r7, #72]
 3891 0490 CD4A     		ldr	r2, .L227+44
 3892 0492 1900     		movs	r1, r3
 3893 0494 1000     		movs	r0, r2
 3894 0496 FFF7FEFF 		bl	AD5940_WriteReg
1386:main.c        ****                         
1387:main.c        ****                         printf("[BYPASS] Configured ADC Filter: 0x%08lX\n", adcfilter);
 3895              		.loc 1 1387 0
 3896 049a BA6C     		ldr	r2, [r7, #72]
 3897 049c CB4B     		ldr	r3, .L227+48
 3898 049e 1100     		movs	r1, r2
 3899 04a0 1800     		movs	r0, r3
 3900 04a2 FFF7FEFF 		bl	printf
1388:main.c        ****                         
1389:main.c        ****                         CyDelay(50);
 3901              		.loc 1 1389 0
 3902 04a6 3220     		movs	r0, #50
 3903 04a8 FFF7FEFF 		bl	CyDelay
1390:main.c        ****                         
1391:main.c        ****                         // ========================================
1392:main.c        ****                         // 步骤4: 配置数据FIFO (关键修复!)
1393:main.c        ****                         // ========================================
1394:main.c        ****                         
1395:main.c        ****                         // DATAFIFOCFG (0x2080) - FIFO配置
1396:main.c        ****                         // Bit 0: FIFO Enable
1397:main.c        ****                         // Bit 2-4: Data Source (011 = SINC3)
1398:main.c        ****                         // Bit 8-10: FIFO Size
1399:main.c        ****                         uint32_t fifocon = 0;
 3904              		.loc 1 1399 0
 3905 04ac 0023     		movs	r3, #0
 3906 04ae 7B64     		str	r3, [r7, #68]
1400:main.c        ****                         fifocon |= (1 << 0);       // FIFO Enable
 3907              		.loc 1 1400 0
 3908 04b0 7B6C     		ldr	r3, [r7, #68]
 3909 04b2 0122     		movs	r2, #1
 3910 04b4 1343     		orrs	r3, r2
 3911 04b6 7B64     		str	r3, [r7, #68]
1401:main.c        ****                         fifocon |= (3 << 2);       // Source = SINC3 (关键!)
 3912              		.loc 1 1401 0
 3913 04b8 7B6C     		ldr	r3, [r7, #68]
 3914 04ba 0C22     		movs	r2, #12
 3915 04bc 1343     		orrs	r3, r2
 3916 04be 7B64     		str	r3, [r7, #68]
1402:main.c        ****                         fifocon |= (2 << 8);       // FIFO Size = 4KB
 3917              		.loc 1 1402 0
 3918 04c0 7B6C     		ldr	r3, [r7, #68]
 3919 04c2 8022     		movs	r2, #128
 3920 04c4 9200     		lsls	r2, r2, #2
 3921 04c6 1343     		orrs	r3, r2
ARM GAS  C:\Users\13740\AppData\Local\Temp\cc6vMOIu.s 			page 105


 3922 04c8 7B64     		str	r3, [r7, #68]
1403:main.c        ****                         AD5940_WriteReg(0x2080, fifocon);
 3923              		.loc 1 1403 0
 3924 04ca 7A6C     		ldr	r2, [r7, #68]
 3925 04cc 8223     		movs	r3, #130
 3926 04ce 9B01     		lsls	r3, r3, #6
 3927 04d0 1100     		movs	r1, r2
 3928 04d2 1800     		movs	r0, r3
 3929 04d4 FFF7FEFF 		bl	AD5940_WriteReg
1404:main.c        ****                         printf("[BYPASS] Configured FIFO: 0x%08lX\n", fifocon);
 3930              		.loc 1 1404 0
 3931 04d8 7A6C     		ldr	r2, [r7, #68]
 3932 04da BD4B     		ldr	r3, .L227+52
 3933 04dc 1100     		movs	r1, r2
 3934 04de 1800     		movs	r0, r3
 3935 04e0 FFF7FEFF 		bl	printf
1405:main.c        ****                         
1406:main.c        ****                         // DATAFIFOTHRESHOLD (0x2088) - FIFO阈值
1407:main.c        ****                         AD5940_WriteReg(0x208C, 4);  // 4个样本触发中断
 3936              		.loc 1 1407 0
 3937 04e4 BB4B     		ldr	r3, .L227+56
 3938 04e6 0421     		movs	r1, #4
 3939 04e8 1800     		movs	r0, r3
 3940 04ea FFF7FEFF 		bl	AD5940_WriteReg
1408:main.c        ****                         
1409:main.c        ****                         CyDelay(50);
 3941              		.loc 1 1409 0
 3942 04ee 3220     		movs	r0, #50
 3943 04f0 FFF7FEFF 		bl	CyDelay
1410:main.c        ****                         
1411:main.c        ****                         // ========================================
1412:main.c        ****                         // 步骤5: 使能AFE电源和ADC (使用正确的位定义!)
1413:main.c        ****                         // ========================================
1414:main.c        ****                         // 根据ad5940.h:
1415:main.c        ****                         // AFECTRL_HPREFPWR  = (1L<<5)  = Bit 5
1416:main.c        ****                         // AFECTRL_ADCPWR   = (1L<<7)  = Bit 7
1417:main.c        ****                         // AFECTRL_ADCCNV   = (1L<<8)  = Bit 8
1418:main.c        ****                         // AFECTRL_SINC2NOTCH = (1L<<16) = Bit 16
1419:main.c        ****                         
1420:main.c        ****                         // AFECON (0x2000) - AFE控制寄存器
1421:main.c        ****                         uint32_t afecon = 0x00000000;
 3944              		.loc 1 1421 0
 3945 04f4 0023     		movs	r3, #0
 3946 04f6 FB66     		str	r3, [r7, #108]
1422:main.c        ****                         
1423:main.c        ****                         // 步骤1: 使能HP参考电压
1424:main.c        ****                         afecon |= (1UL << 5);      // Bit 5: HPREFPWR - HP参考电源使能
 3947              		.loc 1 1424 0
 3948 04f8 FB6E     		ldr	r3, [r7, #108]
 3949 04fa 2022     		movs	r2, #32
 3950 04fc 1343     		orrs	r3, r2
 3951 04fe FB66     		str	r3, [r7, #108]
1425:main.c        ****                         AD5940_WriteReg(0x2000, afecon);
 3952              		.loc 1 1425 0
 3953 0500 FA6E     		ldr	r2, [r7, #108]
 3954 0502 8023     		movs	r3, #128
 3955 0504 9B01     		lsls	r3, r3, #6
ARM GAS  C:\Users\13740\AppData\Local\Temp\cc6vMOIu.s 			page 106


 3956 0506 1100     		movs	r1, r2
 3957 0508 1800     		movs	r0, r3
 3958 050a FFF7FEFF 		bl	AD5940_WriteReg
1426:main.c        ****                         CyDelay(100);  // 等待参考电压稳定
 3959              		.loc 1 1426 0
 3960 050e 6420     		movs	r0, #100
 3961 0510 FFF7FEFF 		bl	CyDelay
1427:main.c        ****                         
1428:main.c        ****                         // 步骤2: 使能ADC电源
1429:main.c        ****                         afecon |= (1UL << 7);      // Bit 7: ADCPWR - ADC电源使能 (关键!)
 3962              		.loc 1 1429 0
 3963 0514 FB6E     		ldr	r3, [r7, #108]
 3964 0516 8022     		movs	r2, #128
 3965 0518 1343     		orrs	r3, r2
 3966 051a FB66     		str	r3, [r7, #108]
1430:main.c        ****                         AD5940_WriteReg(0x2000, afecon);
 3967              		.loc 1 1430 0
 3968 051c FA6E     		ldr	r2, [r7, #108]
 3969 051e 8023     		movs	r3, #128
 3970 0520 9B01     		lsls	r3, r3, #6
 3971 0522 1100     		movs	r1, r2
 3972 0524 1800     		movs	r0, r3
 3973 0526 FFF7FEFF 		bl	AD5940_WriteReg
1431:main.c        ****                         CyDelay(50);
 3974              		.loc 1 1431 0
 3975 052a 3220     		movs	r0, #50
 3976 052c FFF7FEFF 		bl	CyDelay
1432:main.c        ****                         printf("[BYPASS] Enabled ADC Power: 0x%08lX\n", afecon);
 3977              		.loc 1 1432 0
 3978 0530 FA6E     		ldr	r2, [r7, #108]
 3979 0532 A94B     		ldr	r3, .L227+60
 3980 0534 1100     		movs	r1, r2
 3981 0536 1800     		movs	r0, r3
 3982 0538 FFF7FEFF 		bl	printf
1433:main.c        ****                         
1434:main.c        ****                         // 步骤3: 使能SINC2滤波器
1435:main.c        ****                         afecon |= (1UL << 16);     // Bit 16: SINC2NOTCH使能
 3983              		.loc 1 1435 0
 3984 053c FB6E     		ldr	r3, [r7, #108]
 3985 053e 8022     		movs	r2, #128
 3986 0540 5202     		lsls	r2, r2, #9
 3987 0542 1343     		orrs	r3, r2
 3988 0544 FB66     		str	r3, [r7, #108]
1436:main.c        ****                         AD5940_WriteReg(0x2000, afecon);
 3989              		.loc 1 1436 0
 3990 0546 FA6E     		ldr	r2, [r7, #108]
 3991 0548 8023     		movs	r3, #128
 3992 054a 9B01     		lsls	r3, r3, #6
 3993 054c 1100     		movs	r1, r2
 3994 054e 1800     		movs	r0, r3
 3995 0550 FFF7FEFF 		bl	AD5940_WriteReg
1437:main.c        ****                         CyDelay(50);
 3996              		.loc 1 1437 0
 3997 0554 3220     		movs	r0, #50
 3998 0556 FFF7FEFF 		bl	CyDelay
1438:main.c        ****                         
1439:main.c        ****                         AMP1_EN_Write(1);  // 使能传感器通道
ARM GAS  C:\Users\13740\AppData\Local\Temp\cc6vMOIu.s 			page 107


 3999              		.loc 1 1439 0
 4000 055a 0120     		movs	r0, #1
 4001 055c FFF7FEFF 		bl	AMP1_EN_Write
1440:main.c        ****                         CyDelay(100);
 4002              		.loc 1 1440 0
 4003 0560 6420     		movs	r0, #100
 4004 0562 FFF7FEFF 		bl	CyDelay
1441:main.c        ****                         
1442:main.c        ****                         // 步骤4: 启动ADC转换 (最后一步!)
1443:main.c        ****                         afecon |= (1UL << 8);      // Bit 8: ADCCNV - ADC转换启动 (关键!)
 4005              		.loc 1 1443 0
 4006 0566 FB6E     		ldr	r3, [r7, #108]
 4007 0568 8022     		movs	r2, #128
 4008 056a 5200     		lsls	r2, r2, #1
 4009 056c 1343     		orrs	r3, r2
 4010 056e FB66     		str	r3, [r7, #108]
1444:main.c        ****                         AD5940_WriteReg(0x2000, afecon);
 4011              		.loc 1 1444 0
 4012 0570 FA6E     		ldr	r2, [r7, #108]
 4013 0572 8023     		movs	r3, #128
 4014 0574 9B01     		lsls	r3, r3, #6
 4015 0576 1100     		movs	r1, r2
 4016 0578 1800     		movs	r0, r3
 4017 057a FFF7FEFF 		bl	AD5940_WriteReg
1445:main.c        ****                         printf("[BYPASS] Started ADC conversion: 0x%08lX\n", afecon);
 4018              		.loc 1 1445 0
 4019 057e FA6E     		ldr	r2, [r7, #108]
 4020 0580 964B     		ldr	r3, .L227+64
 4021 0582 1100     		movs	r1, r2
 4022 0584 1800     		movs	r0, r3
 4023 0586 FFF7FEFF 		bl	printf
1446:main.c        ****                         
1447:main.c        ****                         CyDelay(1000);  // 等待数据进入FIFO
 4024              		.loc 1 1447 0
 4025 058a FA23     		movs	r3, #250
 4026 058c 9B00     		lsls	r3, r3, #2
 4027 058e 1800     		movs	r0, r3
 4028 0590 FFF7FEFF 		bl	CyDelay
1448:main.c        ****                         
1449:main.c        ****                         // ⚠️ 详细诊断 - 读取所有关键寄存器
1450:main.c        ****                         uint32_t fifosta = AD5940_ReadReg(0x2084);
 4029              		.loc 1 1450 0
 4030 0594 924B     		ldr	r3, .L227+68
 4031 0596 1800     		movs	r0, r3
 4032 0598 FFF7FEFF 		bl	AD5940_ReadReg
 4033 059c 0300     		movs	r3, r0
 4034 059e 3B64     		str	r3, [r7, #64]
1451:main.c        ****                         afecon = AD5940_ReadReg(0x2000);
 4035              		.loc 1 1451 0
 4036 05a0 8023     		movs	r3, #128
 4037 05a2 9B01     		lsls	r3, r3, #6
 4038 05a4 1800     		movs	r0, r3
 4039 05a6 FFF7FEFF 		bl	AD5940_ReadReg
 4040 05aa 0300     		movs	r3, r0
 4041 05ac FB66     		str	r3, [r7, #108]
1452:main.c        ****                         uint32_t adccon = AD5940_ReadReg(0x21F0);
 4042              		.loc 1 1452 0
ARM GAS  C:\Users\13740\AppData\Local\Temp\cc6vMOIu.s 			page 108


 4043 05ae 854B     		ldr	r3, .L227+40
 4044 05b0 1800     		movs	r0, r3
 4045 05b2 FFF7FEFF 		bl	AD5940_ReadReg
 4046 05b6 0300     		movs	r3, r0
 4047 05b8 BB66     		str	r3, [r7, #104]
1453:main.c        ****                         uint32_t seqcon = AD5940_ReadReg(0x2004);  // ⭐ 修正: 正确的SEQCON
 4048              		.loc 1 1453 0
 4049 05ba 8A4B     		ldr	r3, .L227+72
 4050 05bc 1800     		movs	r0, r3
 4051 05be FFF7FEFF 		bl	AD5940_ReadReg
 4052 05c2 0300     		movs	r3, r0
 4053 05c4 FB63     		str	r3, [r7, #60]
1454:main.c        ****                         uint32_t seqsta = AD5940_ReadReg(0x2008);  // ⭐ 修正: 正确的SEQSTA
 4054              		.loc 1 1454 0
 4055 05c6 884B     		ldr	r3, .L227+76
 4056 05c8 1800     		movs	r0, r3
 4057 05ca FFF7FEFF 		bl	AD5940_ReadReg
 4058 05ce 0300     		movs	r3, r0
 4059 05d0 BB63     		str	r3, [r7, #56]
1455:main.c        ****                         uint32_t lpdaccon = AD5940_ReadReg(0x2230);
 4060              		.loc 1 1455 0
 4061 05d2 764B     		ldr	r3, .L227+16
 4062 05d4 1800     		movs	r0, r3
 4063 05d6 FFF7FEFF 		bl	AD5940_ReadReg
 4064 05da 0300     		movs	r3, r0
 4065 05dc 7B63     		str	r3, [r7, #52]
1456:main.c        ****                         
1457:main.c        ****                         printf("[DEBUG] After manual config:\n");
 4066              		.loc 1 1457 0
 4067 05de 834B     		ldr	r3, .L227+80
 4068 05e0 1800     		movs	r0, r3
 4069 05e2 FFF7FEFF 		bl	puts
1458:main.c        ****                         printf("  FIFOCON: 0x%08lX (EN=%d)\n", fifocon, fifocon & 0x01);
 4070              		.loc 1 1458 0
 4071 05e6 7B6C     		ldr	r3, [r7, #68]
 4072 05e8 0122     		movs	r2, #1
 4073 05ea 1A40     		ands	r2, r3
 4074 05ec 796C     		ldr	r1, [r7, #68]
 4075 05ee 804B     		ldr	r3, .L227+84
 4076 05f0 1800     		movs	r0, r3
 4077 05f2 FFF7FEFF 		bl	printf
1459:main.c        ****                         printf("  FIFOSTA: 0x%08lX (CNT=%lu)\n", fifosta, fifosta & 0x7FF);
 4078              		.loc 1 1459 0
 4079 05f6 3B6C     		ldr	r3, [r7, #64]
 4080 05f8 5B05     		lsls	r3, r3, #21
 4081 05fa 5A0D     		lsrs	r2, r3, #21
 4082 05fc 396C     		ldr	r1, [r7, #64]
 4083 05fe 7D4B     		ldr	r3, .L227+88
 4084 0600 1800     		movs	r0, r3
 4085 0602 FFF7FEFF 		bl	printf
1460:main.c        ****                         printf("  AFECON: 0x%08lX\n", afecon);
 4086              		.loc 1 1460 0
 4087 0606 FA6E     		ldr	r2, [r7, #108]
 4088 0608 7B4B     		ldr	r3, .L227+92
 4089 060a 1100     		movs	r1, r2
 4090 060c 1800     		movs	r0, r3
 4091 060e FFF7FEFF 		bl	printf
ARM GAS  C:\Users\13740\AppData\Local\Temp\cc6vMOIu.s 			page 109


1461:main.c        ****                         printf("  LPTIACON: 0x%08lX (EN=%d)\n", lptiacon, lptiacon & 0x01);
 4092              		.loc 1 1461 0
 4093 0612 3B6D     		ldr	r3, [r7, #80]
 4094 0614 0122     		movs	r2, #1
 4095 0616 1A40     		ands	r2, r3
 4096 0618 396D     		ldr	r1, [r7, #80]
 4097 061a 784B     		ldr	r3, .L227+96
 4098 061c 1800     		movs	r0, r3
 4099 061e FFF7FEFF 		bl	printf
1462:main.c        ****                         printf("  ADCMUX: 0x%08lX\n", adccon);
 4100              		.loc 1 1462 0
 4101 0622 BA6E     		ldr	r2, [r7, #104]
 4102 0624 764B     		ldr	r3, .L227+100
 4103 0626 1100     		movs	r1, r2
 4104 0628 1800     		movs	r0, r3
 4105 062a FFF7FEFF 		bl	printf
1463:main.c        ****                         printf("  SEQCON: 0x%08lX (Addr=0x2004)\n", seqcon);
 4106              		.loc 1 1463 0
 4107 062e FA6B     		ldr	r2, [r7, #60]
 4108 0630 744B     		ldr	r3, .L227+104
 4109 0632 1100     		movs	r1, r2
 4110 0634 1800     		movs	r0, r3
 4111 0636 FFF7FEFF 		bl	printf
1464:main.c        ****                         printf("  SEQSTA: 0x%08lX (Addr=0x2008)\n", seqsta);
 4112              		.loc 1 1464 0
 4113 063a BA6B     		ldr	r2, [r7, #56]
 4114 063c 724B     		ldr	r3, .L227+108
 4115 063e 1100     		movs	r1, r2
 4116 0640 1800     		movs	r0, r3
 4117 0642 FFF7FEFF 		bl	printf
1465:main.c        ****                         printf("  LPDACCON: 0x%08lX\n", lpdaccon);
 4118              		.loc 1 1465 0
 4119 0646 7A6B     		ldr	r2, [r7, #52]
 4120 0648 704B     		ldr	r3, .L227+112
 4121 064a 1100     		movs	r1, r2
 4122 064c 1800     		movs	r0, r3
 4123 064e FFF7FEFF 		bl	printf
1466:main.c        ****                         
1467:main.c        ****                         // ⭐⭐⭐ 二次验证和强制修正 ⭐⭐⭐
1468:main.c        ****                         if(!(afecon & 0x01))  // 如果AFE Power未使能
 4124              		.loc 1 1468 0
 4125 0652 FB6E     		ldr	r3, [r7, #108]
 4126 0654 0122     		movs	r2, #1
 4127 0656 1340     		ands	r3, r2
 4128 0658 1CD1     		bne	.L178
1469:main.c        ****                         {
1470:main.c        ****                             printf("[CRITICAL] AFE Power not enabled! Force enabling...\n");
 4129              		.loc 1 1470 0
 4130 065a 6D4B     		ldr	r3, .L227+116
 4131 065c 1800     		movs	r0, r3
 4132 065e FFF7FEFF 		bl	puts
1471:main.c        ****                             afecon = 0x00080193;  // AFE+ADC+SINC2+REF+ADCCNV
 4133              		.loc 1 1471 0
 4134 0662 6C4B     		ldr	r3, .L227+120
 4135 0664 FB66     		str	r3, [r7, #108]
1472:main.c        ****                             AD5940_WriteReg(0x2000, afecon);
 4136              		.loc 1 1472 0
ARM GAS  C:\Users\13740\AppData\Local\Temp\cc6vMOIu.s 			page 110


 4137 0666 FA6E     		ldr	r2, [r7, #108]
 4138 0668 8023     		movs	r3, #128
 4139 066a 9B01     		lsls	r3, r3, #6
 4140 066c 1100     		movs	r1, r2
 4141 066e 1800     		movs	r0, r3
 4142 0670 FFF7FEFF 		bl	AD5940_WriteReg
1473:main.c        ****                             CyDelay(200);
 4143              		.loc 1 1473 0
 4144 0674 C820     		movs	r0, #200
 4145 0676 FFF7FEFF 		bl	CyDelay
1474:main.c        ****                             afecon = AD5940_ReadReg(0x2000);
 4146              		.loc 1 1474 0
 4147 067a 8023     		movs	r3, #128
 4148 067c 9B01     		lsls	r3, r3, #6
 4149 067e 1800     		movs	r0, r3
 4150 0680 FFF7FEFF 		bl	AD5940_ReadReg
 4151 0684 0300     		movs	r3, r0
 4152 0686 FB66     		str	r3, [r7, #108]
1475:main.c        ****                             printf("[FIX] New AFECON: 0x%08lX\n", afecon);
 4153              		.loc 1 1475 0
 4154 0688 FA6E     		ldr	r2, [r7, #108]
 4155 068a 634B     		ldr	r3, .L227+124
 4156 068c 1100     		movs	r1, r2
 4157 068e 1800     		movs	r0, r3
 4158 0690 FFF7FEFF 		bl	printf
 4159              	.L178:
1476:main.c        ****                         }
1477:main.c        ****                         
1478:main.c        ****                         if(!(adccon & 0x01))  // 如果ADC模块未使能
 4160              		.loc 1 1478 0
 4161 0694 BB6E     		ldr	r3, [r7, #104]
 4162 0696 0122     		movs	r2, #1
 4163 0698 1340     		ands	r3, r2
 4164 069a 1CD1     		bne	.L179
1479:main.c        ****                         {
1480:main.c        ****                             printf("[CRITICAL] ADC module not enabled! Force enabling...\n");
 4165              		.loc 1 1480 0
 4166 069c 5F4B     		ldr	r3, .L227+128
 4167 069e 1800     		movs	r0, r3
 4168 06a0 FFF7FEFF 		bl	puts
1481:main.c        ****                             adccon = 0x00040199;  // 使能ADC + PGA配置
 4169              		.loc 1 1481 0
 4170 06a4 5E4B     		ldr	r3, .L227+132
 4171 06a6 BB66     		str	r3, [r7, #104]
1482:main.c        ****                             AD5940_WriteReg(0x2300, adccon);
 4172              		.loc 1 1482 0
 4173 06a8 BA6E     		ldr	r2, [r7, #104]
 4174 06aa 8C23     		movs	r3, #140
 4175 06ac 9B01     		lsls	r3, r3, #6
 4176 06ae 1100     		movs	r1, r2
 4177 06b0 1800     		movs	r0, r3
 4178 06b2 FFF7FEFF 		bl	AD5940_WriteReg
1483:main.c        ****                             CyDelay(100);
 4179              		.loc 1 1483 0
 4180 06b6 6420     		movs	r0, #100
 4181 06b8 FFF7FEFF 		bl	CyDelay
1484:main.c        ****                             adccon = AD5940_ReadReg(0x2300);
ARM GAS  C:\Users\13740\AppData\Local\Temp\cc6vMOIu.s 			page 111


 4182              		.loc 1 1484 0
 4183 06bc 8C23     		movs	r3, #140
 4184 06be 9B01     		lsls	r3, r3, #6
 4185 06c0 1800     		movs	r0, r3
 4186 06c2 FFF7FEFF 		bl	AD5940_ReadReg
 4187 06c6 0300     		movs	r3, r0
 4188 06c8 BB66     		str	r3, [r7, #104]
1485:main.c        ****                             printf("[FIX] New ADCCON: 0x%08lX\n", adccon);
 4189              		.loc 1 1485 0
 4190 06ca BA6E     		ldr	r2, [r7, #104]
 4191 06cc 554B     		ldr	r3, .L227+136
 4192 06ce 1100     		movs	r1, r2
 4193 06d0 1800     		movs	r0, r3
 4194 06d2 FFF7FEFF 		bl	printf
 4195              	.L179:
1486:main.c        ****                         }
1487:main.c        ****                         
1488:main.c        ****                         // 再次读取FIFO状态
1489:main.c        ****                         CyDelay(500);  // 多等一会儿
 4196              		.loc 1 1489 0
 4197 06d6 FA23     		movs	r3, #250
 4198 06d8 5B00     		lsls	r3, r3, #1
 4199 06da 1800     		movs	r0, r3
 4200 06dc FFF7FEFF 		bl	CyDelay
1490:main.c        ****                         fifosta = AD5940_ReadReg(0x2084);
 4201              		.loc 1 1490 0
 4202 06e0 3F4B     		ldr	r3, .L227+68
 4203 06e2 1800     		movs	r0, r3
 4204 06e4 FFF7FEFF 		bl	AD5940_ReadReg
 4205 06e8 0300     		movs	r3, r0
 4206 06ea 3B64     		str	r3, [r7, #64]
1491:main.c        ****                         uint32_t fifo_count = fifosta & 0x7FF;
 4207              		.loc 1 1491 0
 4208 06ec 3B6C     		ldr	r3, [r7, #64]
 4209 06ee 5B05     		lsls	r3, r3, #21
 4210 06f0 5B0D     		lsrs	r3, r3, #21
 4211 06f2 3B63     		str	r3, [r7, #48]
1492:main.c        ****                         printf("[RECHECK] FIFO Count after fix: %d\n", fifo_count);
 4212              		.loc 1 1492 0
 4213 06f4 3A6B     		ldr	r2, [r7, #48]
 4214 06f6 4C4B     		ldr	r3, .L227+140
 4215 06f8 1100     		movs	r1, r2
 4216 06fa 1800     		movs	r0, r3
 4217 06fc FFF7FEFF 		bl	printf
1493:main.c        ****                         
1494:main.c        ****                         // ⭐ 保存到全局变量以供BLE显示
1495:main.c        ****                         g_fifocon_measure = fifocon;
 4218              		.loc 1 1495 0
 4219 0700 4A4B     		ldr	r3, .L227+144
 4220 0702 7A6C     		ldr	r2, [r7, #68]
 4221 0704 1A60     		str	r2, [r3]
1496:main.c        ****                         g_fifosta_measure = fifosta;
 4222              		.loc 1 1496 0
 4223 0706 4A4B     		ldr	r3, .L227+148
 4224 0708 3A6C     		ldr	r2, [r7, #64]
 4225 070a 1A60     		str	r2, [r3]
1497:main.c        ****                         g_afecon_measure = afecon;
ARM GAS  C:\Users\13740\AppData\Local\Temp\cc6vMOIu.s 			page 112


 4226              		.loc 1 1497 0
 4227 070c 494B     		ldr	r3, .L227+152
 4228 070e FA6E     		ldr	r2, [r7, #108]
 4229 0710 1A60     		str	r2, [r3]
1498:main.c        ****                         g_lptiacon_measure = lptiacon;
 4230              		.loc 1 1498 0
 4231 0712 494B     		ldr	r3, .L227+156
 4232 0714 3A6D     		ldr	r2, [r7, #80]
 4233 0716 1A60     		str	r2, [r3]
1499:main.c        ****                         g_adccon_measure = adccon;
 4234              		.loc 1 1499 0
 4235 0718 484B     		ldr	r3, .L227+160
 4236 071a BA6E     		ldr	r2, [r7, #104]
 4237 071c 1A60     		str	r2, [r3]
1500:main.c        ****                         g_seqcon_measure = seqcon;
 4238              		.loc 1 1500 0
 4239 071e 484B     		ldr	r3, .L227+164
 4240 0720 FA6B     		ldr	r2, [r7, #60]
 4241 0722 1A60     		str	r2, [r3]
1501:main.c        ****                         g_seqsta_measure = seqsta;
 4242              		.loc 1 1501 0
 4243 0724 474B     		ldr	r3, .L227+168
 4244 0726 BA6B     		ldr	r2, [r7, #56]
 4245 0728 1A60     		str	r2, [r3]
1502:main.c        ****                         g_fifo_count_measure = fifo_count;
 4246              		.loc 1 1502 0
 4247 072a 474B     		ldr	r3, .L227+172
 4248 072c 3A6B     		ldr	r2, [r7, #48]
 4249 072e 1A60     		str	r2, [r3]
1503:main.c        ****                         printf("  Final FIFO Count: %d\n", g_fifo_count_measure);
 4250              		.loc 1 1503 0
 4251 0730 454B     		ldr	r3, .L227+172
 4252 0732 1A68     		ldr	r2, [r3]
 4253 0734 454B     		ldr	r3, .L227+176
 4254 0736 1100     		movs	r1, r2
 4255 0738 1800     		movs	r0, r3
 4256 073a FFF7FEFF 		bl	printf
1504:main.c        ****                         
1505:main.c        ****                         // ⭐ 保存到全局变量以供BLE显示
1506:main.c        ****                         g_fifocon_measure = fifocon;
 4257              		.loc 1 1506 0
 4258 073e 3B4B     		ldr	r3, .L227+144
 4259 0740 7A6C     		ldr	r2, [r7, #68]
 4260 0742 1A60     		str	r2, [r3]
1507:main.c        ****                         g_fifosta_measure = fifosta;
 4261              		.loc 1 1507 0
 4262 0744 3A4B     		ldr	r3, .L227+148
 4263 0746 3A6C     		ldr	r2, [r7, #64]
 4264 0748 1A60     		str	r2, [r3]
1508:main.c        ****                         g_afecon_measure = afecon;
 4265              		.loc 1 1508 0
 4266 074a 3A4B     		ldr	r3, .L227+152
 4267 074c FA6E     		ldr	r2, [r7, #108]
 4268 074e 1A60     		str	r2, [r3]
1509:main.c        ****                         g_lptiacon_measure = lptiacon;
 4269              		.loc 1 1509 0
 4270 0750 394B     		ldr	r3, .L227+156
ARM GAS  C:\Users\13740\AppData\Local\Temp\cc6vMOIu.s 			page 113


 4271 0752 3A6D     		ldr	r2, [r7, #80]
 4272 0754 1A60     		str	r2, [r3]
1510:main.c        ****                         g_adccon_measure = adccon;
 4273              		.loc 1 1510 0
 4274 0756 394B     		ldr	r3, .L227+160
 4275 0758 BA6E     		ldr	r2, [r7, #104]
 4276 075a 1A60     		str	r2, [r3]
1511:main.c        ****                         g_seqcon_measure = seqcon;
 4277              		.loc 1 1511 0
 4278 075c 384B     		ldr	r3, .L227+164
 4279 075e FA6B     		ldr	r2, [r7, #60]
 4280 0760 1A60     		str	r2, [r3]
1512:main.c        ****                         g_seqsta_measure = seqsta;
 4281              		.loc 1 1512 0
 4282 0762 384B     		ldr	r3, .L227+168
 4283 0764 BA6B     		ldr	r2, [r7, #56]
 4284 0766 1A60     		str	r2, [r3]
1513:main.c        ****                         g_fifo_count_measure = fifosta & 0x7FF;
 4285              		.loc 1 1513 0
 4286 0768 3B6C     		ldr	r3, [r7, #64]
 4287 076a 5B05     		lsls	r3, r3, #21
 4288 076c 5A0D     		lsrs	r2, r3, #21
 4289 076e 364B     		ldr	r3, .L227+172
 4290 0770 1A60     		str	r2, [r3]
1514:main.c        ****                         printf("  FIFO Count: %d\n", g_fifo_count_measure);
 4291              		.loc 1 1514 0
 4292 0772 354B     		ldr	r3, .L227+172
 4293 0774 1A68     		ldr	r2, [r3]
 4294 0776 364B     		ldr	r3, .L227+180
 4295 0778 1100     		movs	r1, r2
 4296 077a 1800     		movs	r0, r3
 4297 077c FFF7FEFF 		bl	printf
1515:main.c        ****                         
1516:main.c        ****                         if(g_fifo_count_measure > 0)
 4298              		.loc 1 1516 0
 4299 0780 314B     		ldr	r3, .L227+172
 4300 0782 1B68     		ldr	r3, [r3]
 4301 0784 002B     		cmp	r3, #0
 4302 0786 74D0     		beq	.L180
1517:main.c        ****                         {
1518:main.c        ****                             printf("[OK] Data!\n");
 4303              		.loc 1 1518 0
 4304 0788 324B     		ldr	r3, .L227+184
 4305 078a 1800     		movs	r0, r3
 4306 078c FFF7FEFF 		bl	puts
1519:main.c        ****                             g_fifo_first_data = AD5940_ReadReg(0x2088);
 4307              		.loc 1 1519 0
 4308 0790 314B     		ldr	r3, .L227+188
 4309 0792 1800     		movs	r0, r3
 4310 0794 FFF7FEFF 		bl	AD5940_ReadReg
 4311 0798 60E0     		b	.L228
 4312              	.L229:
 4313 079a C046     		.align	2
 4314              	.L227:
 4315 079c 100C0000 		.word	.LC233
 4316 07a0 300C0000 		.word	.LC235
 4317 07a4 A8210000 		.word	8616
ARM GAS  C:\Users\13740\AppData\Local\Temp\cc6vMOIu.s 			page 114


 4318 07a8 AFA587DE 		.word	-561535569
 4319 07ac 30220000 		.word	8752
 4320 07b0 F0220000 		.word	8944
 4321 07b4 3F100000 		.word	4159
 4322 07b8 50220000 		.word	8784
 4323 07bc 780C0000 		.word	.LC237
 4324 07c0 04080000 		.word	2052
 4325 07c4 F0210000 		.word	8688
 4326 07c8 D4210000 		.word	8660
 4327 07cc 9C0C0000 		.word	.LC239
 4328 07d0 C80C0000 		.word	.LC241
 4329 07d4 8C200000 		.word	8332
 4330 07d8 EC0C0000 		.word	.LC243
 4331 07dc 140D0000 		.word	.LC245
 4332 07e0 84200000 		.word	8324
 4333 07e4 04200000 		.word	8196
 4334 07e8 08200000 		.word	8200
 4335 07ec 400D0000 		.word	.LC247
 4336 07f0 600D0000 		.word	.LC249
 4337 07f4 7C0D0000 		.word	.LC251
 4338 07f8 9C0D0000 		.word	.LC253
 4339 07fc B00D0000 		.word	.LC255
 4340 0800 D00D0000 		.word	.LC257
 4341 0804 E40D0000 		.word	.LC259
 4342 0808 080E0000 		.word	.LC261
 4343 080c 2C0E0000 		.word	.LC263
 4344 0810 440E0000 		.word	.LC265
 4345 0814 93010800 		.word	524691
 4346 0818 780E0000 		.word	.LC267
 4347 081c 940E0000 		.word	.LC269
 4348 0820 99010400 		.word	262553
 4349 0824 CC0E0000 		.word	.LC271
 4350 0828 E80E0000 		.word	.LC273
 4351 082c 4C000000 		.word	g_fifocon_measure
 4352 0830 50000000 		.word	g_fifosta_measure
 4353 0834 54000000 		.word	g_afecon_measure
 4354 0838 60000000 		.word	g_lptiacon_measure
 4355 083c 64000000 		.word	g_adccon_measure
 4356 0840 68000000 		.word	g_seqcon_measure
 4357 0844 6C000000 		.word	g_seqsta_measure
 4358 0848 58000000 		.word	g_fifo_count_measure
 4359 084c 0C0F0000 		.word	.LC283
 4360 0850 00060000 		.word	.LC75
 4361 0854 240F0000 		.word	.LC286
 4362 0858 88200000 		.word	8328
 4363              	.L228:
 4364 085c 0200     		movs	r2, r0
 4365 085e DE4B     		ldr	r3, .L230
 4366 0860 1A60     		str	r2, [r3]
1520:main.c        ****                             printf("  First sample: 0x%08lX\n", g_fifo_first_data);
 4367              		.loc 1 1520 0
 4368 0862 DD4B     		ldr	r3, .L230
 4369 0864 1A68     		ldr	r2, [r3]
 4370 0866 DD4B     		ldr	r3, .L230+4
 4371 0868 1100     		movs	r1, r2
 4372 086a 1800     		movs	r0, r3
 4373 086c FFF7FEFF 		bl	printf
ARM GAS  C:\Users\13740\AppData\Local\Temp\cc6vMOIu.s 			page 115


 4374 0870 41E0     		b	.L181
 4375              	.L180:
1521:main.c        ****                         }
1522:main.c        ****                         else if(!(fifocon & 0x01))
 4376              		.loc 1 1522 0
 4377 0872 7B6C     		ldr	r3, [r7, #68]
 4378 0874 0122     		movs	r2, #1
 4379 0876 1340     		ands	r3, r2
 4380 0878 04D1     		bne	.L182
1523:main.c        ****                         {
1524:main.c        ****                             printf("[ERROR] FIFO not enabled!\n");
 4381              		.loc 1 1524 0
 4382 087a D94B     		ldr	r3, .L230+8
 4383 087c 1800     		movs	r0, r3
 4384 087e FFF7FEFF 		bl	puts
 4385 0882 38E0     		b	.L181
 4386              	.L182:
1525:main.c        ****                         }
1526:main.c        ****                         else if(!(afecon & 0x01))
 4387              		.loc 1 1526 0
 4388 0884 FB6E     		ldr	r3, [r7, #108]
 4389 0886 0122     		movs	r2, #1
 4390 0888 1340     		ands	r3, r2
 4391 088a 04D1     		bne	.L183
1527:main.c        ****                         {
1528:main.c        ****                             printf("[ERROR] AFE not running!\n");
 4392              		.loc 1 1528 0
 4393 088c D54B     		ldr	r3, .L230+12
 4394 088e 1800     		movs	r0, r3
 4395 0890 FFF7FEFF 		bl	puts
 4396 0894 2FE0     		b	.L181
 4397              	.L183:
1529:main.c        ****                         }
1530:main.c        ****                         else
1531:main.c        ****                         {
1532:main.c        ****                             printf("[WARN] FIFO empty, wait longer\n");
 4398              		.loc 1 1532 0
 4399 0896 D44B     		ldr	r3, .L230+16
 4400 0898 1800     		movs	r0, r3
 4401 089a FFF7FEFF 		bl	puts
1533:main.c        ****                             CyDelay(2000);  // 再等2秒
 4402              		.loc 1 1533 0
 4403 089e FA23     		movs	r3, #250
 4404 08a0 DB00     		lsls	r3, r3, #3
 4405 08a2 1800     		movs	r0, r3
 4406 08a4 FFF7FEFF 		bl	CyDelay
1534:main.c        ****                             fifosta = AD5940_ReadReg(0x2084);
 4407              		.loc 1 1534 0
 4408 08a8 D04B     		ldr	r3, .L230+20
 4409 08aa 1800     		movs	r0, r3
 4410 08ac FFF7FEFF 		bl	AD5940_ReadReg
 4411 08b0 0300     		movs	r3, r0
 4412 08b2 3B64     		str	r3, [r7, #64]
1535:main.c        ****                             g_fifosta_measure = fifosta;
 4413              		.loc 1 1535 0
 4414 08b4 CE4B     		ldr	r3, .L230+24
 4415 08b6 3A6C     		ldr	r2, [r7, #64]
ARM GAS  C:\Users\13740\AppData\Local\Temp\cc6vMOIu.s 			page 116


 4416 08b8 1A60     		str	r2, [r3]
1536:main.c        ****                             g_fifo_count_measure = fifosta & 0x7FF;
 4417              		.loc 1 1536 0
 4418 08ba 3B6C     		ldr	r3, [r7, #64]
 4419 08bc 5B05     		lsls	r3, r3, #21
 4420 08be 5A0D     		lsrs	r2, r3, #21
 4421 08c0 CC4B     		ldr	r3, .L230+28
 4422 08c2 1A60     		str	r2, [r3]
1537:main.c        ****                             printf("  Count after 3s: %d\n", g_fifo_count_measure);
 4423              		.loc 1 1537 0
 4424 08c4 CB4B     		ldr	r3, .L230+28
 4425 08c6 1A68     		ldr	r2, [r3]
 4426 08c8 CB4B     		ldr	r3, .L230+32
 4427 08ca 1100     		movs	r1, r2
 4428 08cc 1800     		movs	r0, r3
 4429 08ce FFF7FEFF 		bl	printf
1538:main.c        ****                             
1539:main.c        ****                             if(g_fifo_count_measure > 0)
 4430              		.loc 1 1539 0
 4431 08d2 C84B     		ldr	r3, .L230+28
 4432 08d4 1B68     		ldr	r3, [r3]
 4433 08d6 002B     		cmp	r3, #0
 4434 08d8 0DD0     		beq	.L181
1540:main.c        ****                             {
1541:main.c        ****                                 g_fifo_first_data = AD5940_ReadReg(0x2088);
 4435              		.loc 1 1541 0
 4436 08da C84B     		ldr	r3, .L230+36
 4437 08dc 1800     		movs	r0, r3
 4438 08de FFF7FEFF 		bl	AD5940_ReadReg
 4439 08e2 0200     		movs	r2, r0
 4440 08e4 BC4B     		ldr	r3, .L230
 4441 08e6 1A60     		str	r2, [r3]
1542:main.c        ****                                 printf("  First sample: 0x%08lX\n", g_fifo_first_data);
 4442              		.loc 1 1542 0
 4443 08e8 BB4B     		ldr	r3, .L230
 4444 08ea 1A68     		ldr	r2, [r3]
 4445 08ec BB4B     		ldr	r3, .L230+4
 4446 08ee 1100     		movs	r1, r2
 4447 08f0 1800     		movs	r0, r3
 4448 08f2 FFF7FEFF 		bl	printf
 4449              	.L181:
1543:main.c        ****                             }
1544:main.c        ****                         }
1545:main.c        ****                         
1546:main.c        ****                         g_init_state = INIT_COMPLETE;
 4450              		.loc 1 1546 0
 4451 08f6 C24B     		ldr	r3, .L230+40
 4452 08f8 0922     		movs	r2, #9
 4453 08fa 1A70     		strb	r2, [r3]
 4454              	.LBE13:
1547:main.c        ****                     }
1548:main.c        ****                     break;
 4455              		.loc 1 1548 0
 4456 08fc 00E0     		b	.L155
 4457              	.L223:
1549:main.c        ****                     
1550:main.c        ****                 case INIT_COMPLETE:
ARM GAS  C:\Users\13740\AppData\Local\Temp\cc6vMOIu.s 			page 117


1551:main.c        ****                     // 初始化完成，什么都不做
1552:main.c        ****                     break;
 4458              		.loc 1 1552 0
 4459 08fe C046     		nop
 4460              	.L155:
1553:main.c        ****             }
1554:main.c        ****         }
1555:main.c        ****         
1556:main.c        ****         // ✅ 发送状态到手机（详细版本）
1557:main.c        ****         if(measurementFlag)
 4461              		.loc 1 1557 0
 4462 0900 C04B     		ldr	r3, .L230+44
 4463 0902 1B78     		ldrb	r3, [r3]
 4464 0904 DBB2     		uxtb	r3, r3
 4465 0906 002B     		cmp	r3, #0
 4466 0908 00D1     		bne	.LCB3297
 4467 090a 16E2     		b	.L184	@long jump
 4468              	.LCB3297:
1558:main.c        ****         {
1559:main.c        ****             measurementFlag = 0;
 4469              		.loc 1 1559 0
 4470 090c BD4B     		ldr	r3, .L230+44
 4471 090e 0022     		movs	r2, #0
 4472 0910 1A70     		strb	r2, [r3]
1560:main.c        ****             
1561:main.c        ****             // ⚠️ 新增：实时读取FIFO计数
1562:main.c        ****             if(g_init_state == INIT_COMPLETE)
 4473              		.loc 1 1562 0
 4474 0912 BB4B     		ldr	r3, .L230+40
 4475 0914 1B78     		ldrb	r3, [r3]
 4476 0916 092B     		cmp	r3, #9
 4477 0918 6ED1     		bne	.L185
 4478              	.LBB14:
1563:main.c        ****             {
1564:main.c        ****                 uint32_t fifosta_now = AD5940_ReadReg(0x2084);
 4479              		.loc 1 1564 0
 4480 091a B44B     		ldr	r3, .L230+20
 4481 091c 1800     		movs	r0, r3
 4482 091e FFF7FEFF 		bl	AD5940_ReadReg
 4483 0922 0300     		movs	r3, r0
 4484 0924 FB62     		str	r3, [r7, #44]
1565:main.c        ****                 g_test_fifo_count = fifosta_now & 0x7FF;
 4485              		.loc 1 1565 0
 4486 0926 FB6A     		ldr	r3, [r7, #44]
 4487 0928 9BB2     		uxth	r3, r3
 4488 092a 5B05     		lsls	r3, r3, #21
 4489 092c 5B0D     		lsrs	r3, r3, #21
 4490 092e 9AB2     		uxth	r2, r3
 4491 0930 B54B     		ldr	r3, .L230+48
 4492 0932 1A80     		strh	r2, [r3]
1566:main.c        ****                 
1567:main.c        ****                 // 如果有数据，读取并转换
1568:main.c        ****                 if(g_test_fifo_count > 0)
 4493              		.loc 1 1568 0
 4494 0934 B44B     		ldr	r3, .L230+48
 4495 0936 1B88     		ldrh	r3, [r3]
 4496 0938 002B     		cmp	r3, #0
ARM GAS  C:\Users\13740\AppData\Local\Temp\cc6vMOIu.s 			page 118


 4497 093a 5DD0     		beq	.L185
 4498              	.LBB15:
1569:main.c        ****                 {
1570:main.c        ****                     uint32_t fifo_data = AD5940_ReadReg(0x2088);
 4499              		.loc 1 1570 0
 4500 093c AF4B     		ldr	r3, .L230+36
 4501 093e 1800     		movs	r0, r3
 4502 0940 FFF7FEFF 		bl	AD5940_ReadReg
 4503 0944 0300     		movs	r3, r0
 4504 0946 BB62     		str	r3, [r7, #40]
1571:main.c        ****                     uint32_t adc_code = fifo_data & 0xFFFF;
 4505              		.loc 1 1571 0
 4506 0948 BB6A     		ldr	r3, [r7, #40]
 4507 094a 1B04     		lsls	r3, r3, #16
 4508 094c 1B0C     		lsrs	r3, r3, #16
 4509 094e 7B62     		str	r3, [r7, #36]
1572:main.c        ****                     
1573:main.c        ****                     // 转换为电流
1574:main.c        ****                     float rtia = 10000.0;
 4510              		.loc 1 1574 0
 4511 0950 AE4B     		ldr	r3, .L230+52
 4512 0952 3B62     		str	r3, [r7, #32]
1575:main.c        ****                     float vref = 1.82;
 4513              		.loc 1 1575 0
 4514 0954 AE4B     		ldr	r3, .L230+56
 4515 0956 FB61     		str	r3, [r7, #28]
1576:main.c        ****                     float pga_gain = 1.5;
 4516              		.loc 1 1576 0
 4517 0958 FF23     		movs	r3, #255
 4518 095a 9B05     		lsls	r3, r3, #22
 4519 095c BB61     		str	r3, [r7, #24]
1577:main.c        ****                     
1578:main.c        ****                     int32_t adc_signed = (adc_code > 32767) ? 
1579:main.c        ****                                          (int32_t)adc_code - 65536 : 
 4520              		.loc 1 1579 0
 4521 095e 7B6A     		ldr	r3, [r7, #36]
 4522 0960 AC4A     		ldr	r2, .L230+60
 4523 0962 9342     		cmp	r3, r2
 4524 0964 04D9     		bls	.L186
 4525              		.loc 1 1579 0 is_stmt 0 discriminator 1
 4526 0966 7B6A     		ldr	r3, [r7, #36]
 4527 0968 AB4A     		ldr	r2, .L230+64
 4528 096a 9446     		mov	ip, r2
 4529 096c 6344     		add	r3, r3, ip
 4530 096e 00E0     		b	.L187
 4531              	.L186:
 4532              		.loc 1 1579 0 discriminator 2
 4533 0970 7B6A     		ldr	r3, [r7, #36]
 4534              	.L187:
1578:main.c        ****                                          (int32_t)adc_code - 65536 : 
 4535              		.loc 1 1578 0 is_stmt 1
 4536 0972 7B61     		str	r3, [r7, #20]
1580:main.c        ****                                          (int32_t)adc_code;
1581:main.c        ****                     
1582:main.c        ****                     float v_adc = (float)adc_signed * vref / 32768.0 / pga_gain;
 4537              		.loc 1 1582 0
 4538 0974 7869     		ldr	r0, [r7, #20]
ARM GAS  C:\Users\13740\AppData\Local\Temp\cc6vMOIu.s 			page 119


 4539 0976 FFF7FEFF 		bl	__aeabi_i2f
 4540 097a 031C     		adds	r3, r0, #0
 4541 097c F969     		ldr	r1, [r7, #28]
 4542 097e 181C     		adds	r0, r3, #0
 4543 0980 FFF7FEFF 		bl	__aeabi_fmul
 4544 0984 031C     		adds	r3, r0, #0
 4545 0986 181C     		adds	r0, r3, #0
 4546 0988 FFF7FEFF 		bl	__aeabi_f2d
 4547 098c 0022     		movs	r2, #0
 4548 098e A34B     		ldr	r3, .L230+68
 4549 0990 FFF7FEFF 		bl	__aeabi_ddiv
 4550 0994 0300     		movs	r3, r0
 4551 0996 0C00     		movs	r4, r1
 4552 0998 2500     		movs	r5, r4
 4553 099a 1C00     		movs	r4, r3
 4554 099c B869     		ldr	r0, [r7, #24]
 4555 099e FFF7FEFF 		bl	__aeabi_f2d
 4556 09a2 0200     		movs	r2, r0
 4557 09a4 0B00     		movs	r3, r1
 4558 09a6 2000     		movs	r0, r4
 4559 09a8 2900     		movs	r1, r5
 4560 09aa FFF7FEFF 		bl	__aeabi_ddiv
 4561 09ae 0300     		movs	r3, r0
 4562 09b0 0C00     		movs	r4, r1
 4563 09b2 1800     		movs	r0, r3
 4564 09b4 2100     		movs	r1, r4
 4565 09b6 FFF7FEFF 		bl	__aeabi_d2f
 4566 09ba 031C     		adds	r3, r0, #0
 4567 09bc 3B61     		str	r3, [r7, #16]
1583:main.c        ****                     float current_nA = (v_adc / rtia) * 1e9;
 4568              		.loc 1 1583 0
 4569 09be 396A     		ldr	r1, [r7, #32]
 4570 09c0 3869     		ldr	r0, [r7, #16]
 4571 09c2 FFF7FEFF 		bl	__aeabi_fdiv
 4572 09c6 031C     		adds	r3, r0, #0
 4573 09c8 9549     		ldr	r1, .L230+72
 4574 09ca 181C     		adds	r0, r3, #0
 4575 09cc FFF7FEFF 		bl	__aeabi_fmul
 4576 09d0 031C     		adds	r3, r0, #0
 4577 09d2 FB60     		str	r3, [r7, #12]
1584:main.c        ****                     
1585:main.c        ****                     // 保存电流值
1586:main.c        ****                     sensorData.current_glucose_nA = current_nA;
 4578              		.loc 1 1586 0
 4579 09d4 934B     		ldr	r3, .L230+76
 4580 09d6 FA68     		ldr	r2, [r7, #12]
 4581 09d8 5A61     		str	r2, [r3, #20]
1587:main.c        ****                     
1588:main.c        ****                     // UART输出
1589:main.c        ****                     printf("[FIFO] CNT=%d ADC=0x%04lX I=%.1fnA\n", 
 4582              		.loc 1 1589 0
 4583 09da 8B4B     		ldr	r3, .L230+48
 4584 09dc 1B88     		ldrh	r3, [r3]
 4585 09de 1D00     		movs	r5, r3
 4586 09e0 F868     		ldr	r0, [r7, #12]
 4587 09e2 FFF7FEFF 		bl	__aeabi_f2d
 4588 09e6 0300     		movs	r3, r0
ARM GAS  C:\Users\13740\AppData\Local\Temp\cc6vMOIu.s 			page 120


 4589 09e8 0C00     		movs	r4, r1
 4590 09ea 7A6A     		ldr	r2, [r7, #36]
 4591 09ec 8E48     		ldr	r0, .L230+80
 4592 09ee 0093     		str	r3, [sp]
 4593 09f0 0194     		str	r4, [sp, #4]
 4594 09f2 2900     		movs	r1, r5
 4595 09f4 FFF7FEFF 		bl	printf
 4596              	.L185:
 4597              	.LBE15:
 4598              	.LBE14:
1590:main.c        ****                            g_test_fifo_count, adc_code, current_nA);
1591:main.c        ****                 }
1592:main.c        ****             }
1593:main.c        ****             
1594:main.c        ****             
1595:main.c        ****             if(CyBle_GetState() == CYBLE_STATE_CONNECTED)
 4599              		.loc 1 1595 0
 4600 09f8 8C4B     		ldr	r3, .L230+84
 4601 09fa 1B78     		ldrb	r3, [r3]
 4602 09fc 022B     		cmp	r3, #2
 4603 09fe 00D0     		beq	.LCB3416
 4604 0a00 9BE1     		b	.L184	@long jump
 4605              	.LCB3416:
 4606              	.LBB16:
1596:main.c        ****             {
1597:main.c        ****                 CYBLE_GATTS_HANDLE_VALUE_NTF_T notificationHandle;
1598:main.c        ****                 static char testString[40];
1599:main.c        ****                 static uint8_t display_step = 0;  // 用于轮流显示不同信息
1600:main.c        ****                 
1601:main.c        ****                 switch(g_init_state)
 4607              		.loc 1 1601 0
 4608 0a02 7F4B     		ldr	r3, .L230+40
 4609 0a04 1B78     		ldrb	r3, [r3]
 4610 0a06 092B     		cmp	r3, #9
 4611 0a08 00D9     		bls	.LCB3421
 4612 0a0a 79E1     		b	.L188	@long jump
 4613              	.LCB3421:
 4614 0a0c 9A00     		lsls	r2, r3, #2
 4615 0a0e 884B     		ldr	r3, .L230+88
 4616 0a10 D318     		adds	r3, r2, r3
 4617 0a12 1B68     		ldr	r3, [r3]
 4618 0a14 9F46     		mov	pc, r3
 4619              		.section	.rodata
 4620              		.align	2
 4621              	.L190:
 4622 1198 160A0000 		.word	.L189
 4623 119c 200A0000 		.word	.L191
 4624 11a0 2E0A0000 		.word	.L192
 4625 11a4 400A0000 		.word	.L193
 4626 11a8 520A0000 		.word	.L194
 4627 11ac 600A0000 		.word	.L195
 4628 11b0 6E0A0000 		.word	.L196
 4629 11b4 800A0000 		.word	.L197
 4630 11b8 920A0000 		.word	.L198
 4631 11bc A00A0000 		.word	.L199
 4632              		.section	.text.main
 4633              	.L189:
ARM GAS  C:\Users\13740\AppData\Local\Temp\cc6vMOIu.s 			page 121


1602:main.c        ****                 {
1603:main.c        ****                     case INIT_IDLE:
1604:main.c        ****                         sprintf(testString, "Idle...");
 4634              		.loc 1 1604 0
 4635 0a16 874B     		ldr	r3, .L230+92
 4636 0a18 874A     		ldr	r2, .L230+96
 4637 0a1a 03CA     		ldmia	r2!, {r0, r1}
 4638 0a1c 03C3     		stmia	r3!, {r0, r1}
1605:main.c        ****                         break;
 4639              		.loc 1 1605 0
 4640 0a1e 6FE1     		b	.L188
 4641              	.L191:
1606:main.c        ****                         
1607:main.c        ****                     case INIT_RESET:
1608:main.c        ****                         sprintf(testString, "Resetting...");
 4642              		.loc 1 1608 0
 4643 0a20 844B     		ldr	r3, .L230+92
 4644 0a22 864A     		ldr	r2, .L230+100
 4645 0a24 13CA     		ldmia	r2!, {r0, r1, r4}
 4646 0a26 13C3     		stmia	r3!, {r0, r1, r4}
 4647 0a28 1278     		ldrb	r2, [r2]
 4648 0a2a 1A70     		strb	r2, [r3]
1609:main.c        ****                         break;
 4649              		.loc 1 1609 0
 4650 0a2c 68E1     		b	.L188
 4651              	.L192:
1610:main.c        ****                         
1611:main.c        ****                     case INIT_CHECK_ID:
1612:main.c        ****                         sprintf(testString, "Checking ID...");
 4652              		.loc 1 1612 0
 4653 0a2e 814B     		ldr	r3, .L230+92
 4654 0a30 834A     		ldr	r2, .L230+104
 4655 0a32 13CA     		ldmia	r2!, {r0, r1, r4}
 4656 0a34 13C3     		stmia	r3!, {r0, r1, r4}
 4657 0a36 1188     		ldrh	r1, [r2]
 4658 0a38 1980     		strh	r1, [r3]
 4659 0a3a 9278     		ldrb	r2, [r2, #2]
 4660 0a3c 9A70     		strb	r2, [r3, #2]
1613:main.c        ****                         break;
 4661              		.loc 1 1613 0
 4662 0a3e 5FE1     		b	.L188
 4663              	.L193:
1614:main.c        ****                         
1615:main.c        ****                     case INIT_WRITE_REGS:
1616:main.c        ****                         sprintf(testString, "Writing %d/%d", g_reg_index, REG_TABLE_SIZE);
 4664              		.loc 1 1616 0
 4665 0a40 804B     		ldr	r3, .L230+108
 4666 0a42 1B78     		ldrb	r3, [r3]
 4667 0a44 1A00     		movs	r2, r3
 4668 0a46 8049     		ldr	r1, .L230+112
 4669 0a48 7A48     		ldr	r0, .L230+92
 4670 0a4a 0E23     		movs	r3, #14
 4671 0a4c FFF7FEFF 		bl	sprintf
1617:main.c        ****                         break;
 4672              		.loc 1 1617 0
 4673 0a50 56E1     		b	.L188
 4674              	.L194:
ARM GAS  C:\Users\13740\AppData\Local\Temp\cc6vMOIu.s 			page 122


1618:main.c        ****                         
1619:main.c        ****                     case INIT_VERIFY_REG:
1620:main.c        ****                         sprintf(testString, "Verifying...");
 4675              		.loc 1 1620 0
 4676 0a52 784B     		ldr	r3, .L230+92
 4677 0a54 7D4A     		ldr	r2, .L230+116
 4678 0a56 13CA     		ldmia	r2!, {r0, r1, r4}
 4679 0a58 13C3     		stmia	r3!, {r0, r1, r4}
 4680 0a5a 1278     		ldrb	r2, [r2]
 4681 0a5c 1A70     		strb	r2, [r3]
1621:main.c        ****                         break;
 4682              		.loc 1 1621 0
 4683 0a5e 4FE1     		b	.L188
 4684              	.L195:
1622:main.c        ****                         
1623:main.c        ****                     case INIT_CHECK_AFE:
1624:main.c        ****                         sprintf(testString, "Checking AFE...");
 4685              		.loc 1 1624 0
 4686 0a60 744B     		ldr	r3, .L230+92
 4687 0a62 7B4A     		ldr	r2, .L230+120
 4688 0a64 13CA     		ldmia	r2!, {r0, r1, r4}
 4689 0a66 13C3     		stmia	r3!, {r0, r1, r4}
 4690 0a68 1268     		ldr	r2, [r2]
 4691 0a6a 1A60     		str	r2, [r3]
1625:main.c        ****                         break;
 4692              		.loc 1 1625 0
 4693 0a6c 48E1     		b	.L188
 4694              	.L196:
1626:main.c        ****                         
1627:main.c        ****                     case INIT_CHECK_FIFO:
1628:main.c        ****                         sprintf(testString, "Checking FIFO...");
 4695              		.loc 1 1628 0
 4696 0a6e 714B     		ldr	r3, .L230+92
 4697 0a70 784A     		ldr	r2, .L230+124
 4698 0a72 13CA     		ldmia	r2!, {r0, r1, r4}
 4699 0a74 13C3     		stmia	r3!, {r0, r1, r4}
 4700 0a76 1168     		ldr	r1, [r2]
 4701 0a78 1960     		str	r1, [r3]
 4702 0a7a 1279     		ldrb	r2, [r2, #4]
 4703 0a7c 1A71     		strb	r2, [r3, #4]
1629:main.c        ****                         break;
 4704              		.loc 1 1629 0
 4705 0a7e 3FE1     		b	.L188
 4706              	.L197:
1630:main.c        ****                         
1631:main.c        ****                     case INIT_CONFIG_APP:
1632:main.c        ****                         sprintf(testString, "Final check...");
 4707              		.loc 1 1632 0
 4708 0a80 6C4B     		ldr	r3, .L230+92
 4709 0a82 754A     		ldr	r2, .L230+128
 4710 0a84 13CA     		ldmia	r2!, {r0, r1, r4}
 4711 0a86 13C3     		stmia	r3!, {r0, r1, r4}
 4712 0a88 1188     		ldrh	r1, [r2]
 4713 0a8a 1980     		strh	r1, [r3]
 4714 0a8c 9278     		ldrb	r2, [r2, #2]
 4715 0a8e 9A70     		strb	r2, [r3, #2]
1633:main.c        ****                         break;
ARM GAS  C:\Users\13740\AppData\Local\Temp\cc6vMOIu.s 			page 123


 4716              		.loc 1 1633 0
 4717 0a90 36E1     		b	.L188
 4718              	.L198:
1634:main.c        ****                     
1635:main.c        ****                     case INIT_START_MEASUREMENT:
1636:main.c        ****                         sprintf(testString, "Starting measurement...");
 4719              		.loc 1 1636 0
 4720 0a92 684B     		ldr	r3, .L230+92
 4721 0a94 714A     		ldr	r2, .L230+132
 4722 0a96 13CA     		ldmia	r2!, {r0, r1, r4}
 4723 0a98 13C3     		stmia	r3!, {r0, r1, r4}
 4724 0a9a 13CA     		ldmia	r2!, {r0, r1, r4}
 4725 0a9c 13C3     		stmia	r3!, {r0, r1, r4}
1637:main.c        ****                         break;
 4726              		.loc 1 1637 0
 4727 0a9e 2FE1     		b	.L188
 4728              	.L199:
1638:main.c        ****                     
1639:main.c        ****                     case INIT_COMPLETE:
1640:main.c        ****                         // ✅ 轮流显示不同的验证结果和FIFO读数
1641:main.c        ****                         if(g_test_done == 1)
 4729              		.loc 1 1641 0
 4730 0aa0 6F4B     		ldr	r3, .L230+136
 4731 0aa2 1B78     		ldrb	r3, [r3]
 4732 0aa4 012B     		cmp	r3, #1
 4733 0aa6 00D0     		beq	.LCB3522
 4734 0aa8 16E1     		b	.L200	@long jump
 4735              	.LCB3522:
1642:main.c        ****                         {
1643:main.c        ****                             // 每次显示不同的信息（扩展到16项,包括新的诊断寄
1644:main.c        ****                             switch(display_step % 16)
 4736              		.loc 1 1644 0
 4737 0aaa 6E4B     		ldr	r3, .L230+140
 4738 0aac 1B78     		ldrb	r3, [r3]
 4739 0aae 1A00     		movs	r2, r3
 4740 0ab0 0F23     		movs	r3, #15
 4741 0ab2 1340     		ands	r3, r2
 4742 0ab4 0F2B     		cmp	r3, #15
 4743 0ab6 00D9     		bls	.LCB3529
 4744 0ab8 87E0     		b	.L201	@long jump
 4745              	.LCB3529:
 4746 0aba 9A00     		lsls	r2, r3, #2
 4747 0abc 6A4B     		ldr	r3, .L230+144
 4748 0abe D318     		adds	r3, r2, r3
 4749 0ac0 1B68     		ldr	r3, [r3]
 4750 0ac2 9F46     		mov	pc, r3
 4751              		.section	.rodata
 4752              		.align	2
 4753              	.L203:
 4754 11c0 C40A0000 		.word	.L202
 4755 11c4 D60A0000 		.word	.L204
 4756 11c8 E60A0000 		.word	.L205
 4757 11cc F60A0000 		.word	.L206
 4758 11d0 0A0B0000 		.word	.L207
 4759 11d4 1A0B0000 		.word	.L208
 4760 11d8 2A0B0000 		.word	.L209
 4761 11dc 3A0B0000 		.word	.L210
ARM GAS  C:\Users\13740\AppData\Local\Temp\cc6vMOIu.s 			page 124


 4762 11e0 4A0B0000 		.word	.L211
 4763 11e4 5A0B0000 		.word	.L212
 4764 11e8 6A0B0000 		.word	.L213
 4765 11ec 7A0B0000 		.word	.L214
 4766 11f0 8A0B0000 		.word	.L215
 4767 11f4 9A0B0000 		.word	.L216
 4768 11f8 AA0B0000 		.word	.L217
 4769 11fc BA0B0000 		.word	.L218
 4770              		.section	.text.main
 4771              	.L202:
1645:main.c        ****                             {
1646:main.c        ****                                 // ===== 初始化诊断信息 =====
1647:main.c        ****                                 case 0:
1648:main.c        ****                                     sprintf(testString, "CNT:%d", g_test_fifo_count);
 4772              		.loc 1 1648 0
 4773 0ac4 504B     		ldr	r3, .L230+48
 4774 0ac6 1B88     		ldrh	r3, [r3]
 4775 0ac8 1A00     		movs	r2, r3
 4776 0aca 6849     		ldr	r1, .L230+148
 4777 0acc 594B     		ldr	r3, .L230+92
 4778 0ace 1800     		movs	r0, r3
 4779 0ad0 FFF7FEFF 		bl	sprintf
1649:main.c        ****                                     break;
 4780              		.loc 1 1649 0
 4781 0ad4 79E0     		b	.L201
 4782              	.L204:
1650:main.c        ****                                 case 1:
1651:main.c        ****                                     sprintf(testString, "ADIID:%04lX", g_test_adiid);
 4783              		.loc 1 1651 0
 4784 0ad6 664B     		ldr	r3, .L230+152
 4785 0ad8 1A68     		ldr	r2, [r3]
 4786 0ada 6649     		ldr	r1, .L230+156
 4787 0adc 554B     		ldr	r3, .L230+92
 4788 0ade 1800     		movs	r0, r3
 4789 0ae0 FFF7FEFF 		bl	sprintf
1652:main.c        ****                                     break;
 4790              		.loc 1 1652 0
 4791 0ae4 71E0     		b	.L201
 4792              	.L205:
1653:main.c        ****                                 case 2:
1654:main.c        ****                                     sprintf(testString, "CHIP:%04lX", g_test_chipid);
 4793              		.loc 1 1654 0
 4794 0ae6 644B     		ldr	r3, .L230+160
 4795 0ae8 1A68     		ldr	r2, [r3]
 4796 0aea 6449     		ldr	r1, .L230+164
 4797 0aec 514B     		ldr	r3, .L230+92
 4798 0aee 1800     		movs	r0, r3
 4799 0af0 FFF7FEFF 		bl	sprintf
1655:main.c        ****                                     break;
 4800              		.loc 1 1655 0
 4801 0af4 69E0     		b	.L201
 4802              	.L206:
1656:main.c        ****                                 case 3:
1657:main.c        ****                                     sprintf(testString, "R0908:%04lX", g_test_reg_0908 & 0xFFFF);
 4803              		.loc 1 1657 0
 4804 0af6 624B     		ldr	r3, .L230+168
 4805 0af8 1B68     		ldr	r3, [r3]
ARM GAS  C:\Users\13740\AppData\Local\Temp\cc6vMOIu.s 			page 125


 4806 0afa 1B04     		lsls	r3, r3, #16
 4807 0afc 1A0C     		lsrs	r2, r3, #16
 4808 0afe 6149     		ldr	r1, .L230+172
 4809 0b00 4C4B     		ldr	r3, .L230+92
 4810 0b02 1800     		movs	r0, r3
 4811 0b04 FFF7FEFF 		bl	sprintf
1658:main.c        ****                                     break;
 4812              		.loc 1 1658 0
 4813 0b08 5FE0     		b	.L201
 4814              	.L207:
1659:main.c        ****                                 case 4:
1660:main.c        ****                                     sprintf(testString, "AFE_INIT:%08lX", g_test_afecon);
 4815              		.loc 1 1660 0
 4816 0b0a 5F4B     		ldr	r3, .L230+176
 4817 0b0c 1A68     		ldr	r2, [r3]
 4818 0b0e 5F49     		ldr	r1, .L230+180
 4819 0b10 484B     		ldr	r3, .L230+92
 4820 0b12 1800     		movs	r0, r3
 4821 0b14 FFF7FEFF 		bl	sprintf
1661:main.c        ****                                     break;
 4822              		.loc 1 1661 0
 4823 0b18 57E0     		b	.L201
 4824              	.L208:
1662:main.c        ****                                 case 5:
1663:main.c        ****                                     sprintf(testString, "FIFOCON:%08lX", g_test_fifocon);
 4825              		.loc 1 1663 0
 4826 0b1a 5D4B     		ldr	r3, .L230+184
 4827 0b1c 1A68     		ldr	r2, [r3]
 4828 0b1e 5D49     		ldr	r1, .L230+188
 4829 0b20 444B     		ldr	r3, .L230+92
 4830 0b22 1800     		movs	r0, r3
 4831 0b24 FFF7FEFF 		bl	sprintf
1664:main.c        ****                                     break;
 4832              		.loc 1 1664 0
 4833 0b28 4FE0     		b	.L201
 4834              	.L209:
1665:main.c        ****                                 
1666:main.c        ****                                 // ===== 测量中的FIFO读数 =====
1667:main.c        ****                                 case 6:
1668:main.c        ****                                     sprintf(testString, "FIFO_CNT:%ld", g_fifo_count_measure);
 4835              		.loc 1 1668 0
 4836 0b2a 324B     		ldr	r3, .L230+28
 4837 0b2c 1A68     		ldr	r2, [r3]
 4838 0b2e 5A49     		ldr	r1, .L230+192
 4839 0b30 404B     		ldr	r3, .L230+92
 4840 0b32 1800     		movs	r0, r3
 4841 0b34 FFF7FEFF 		bl	sprintf
1669:main.c        ****                                     break;
 4842              		.loc 1 1669 0
 4843 0b38 47E0     		b	.L201
 4844              	.L210:
1670:main.c        ****                                 case 7:
1671:main.c        ****                                     sprintf(testString, "FIFOCON_M:%08lX", g_fifocon_measure);
 4845              		.loc 1 1671 0
 4846 0b3a 584B     		ldr	r3, .L230+196
 4847 0b3c 1A68     		ldr	r2, [r3]
 4848 0b3e 5849     		ldr	r1, .L230+200
ARM GAS  C:\Users\13740\AppData\Local\Temp\cc6vMOIu.s 			page 126


 4849 0b40 3C4B     		ldr	r3, .L230+92
 4850 0b42 1800     		movs	r0, r3
 4851 0b44 FFF7FEFF 		bl	sprintf
1672:main.c        ****                                     break;
 4852              		.loc 1 1672 0
 4853 0b48 3FE0     		b	.L201
 4854              	.L211:
1673:main.c        ****                                 case 8:
1674:main.c        ****                                     sprintf(testString, "FIFOSTA:%08lX", g_fifosta_measure);
 4855              		.loc 1 1674 0
 4856 0b4a 294B     		ldr	r3, .L230+24
 4857 0b4c 1A68     		ldr	r2, [r3]
 4858 0b4e 5549     		ldr	r1, .L230+204
 4859 0b50 384B     		ldr	r3, .L230+92
 4860 0b52 1800     		movs	r0, r3
 4861 0b54 FFF7FEFF 		bl	sprintf
1675:main.c        ****                                     break;
 4862              		.loc 1 1675 0
 4863 0b58 37E0     		b	.L201
 4864              	.L212:
1676:main.c        ****                                 case 9:
1677:main.c        ****                                     sprintf(testString, "AFECON_M:%08lX", g_afecon_measure);
 4865              		.loc 1 1677 0
 4866 0b5a 534B     		ldr	r3, .L230+208
 4867 0b5c 1A68     		ldr	r2, [r3]
 4868 0b5e 5349     		ldr	r1, .L230+212
 4869 0b60 344B     		ldr	r3, .L230+92
 4870 0b62 1800     		movs	r0, r3
 4871 0b64 FFF7FEFF 		bl	sprintf
1678:main.c        ****                                     break;
 4872              		.loc 1 1678 0
 4873 0b68 2FE0     		b	.L201
 4874              	.L213:
1679:main.c        ****                                 
1680:main.c        ****                                 // ===== 新增：关键寄存器状态 =====
1681:main.c        ****                                 case 10:
1682:main.c        ****                                     sprintf(testString, "LPTIA:%08lX", g_lptiacon_measure);
 4875              		.loc 1 1682 0
 4876 0b6a 514B     		ldr	r3, .L230+216
 4877 0b6c 1A68     		ldr	r2, [r3]
 4878 0b6e 5149     		ldr	r1, .L230+220
 4879 0b70 304B     		ldr	r3, .L230+92
 4880 0b72 1800     		movs	r0, r3
 4881 0b74 FFF7FEFF 		bl	sprintf
1683:main.c        ****                                     break;
 4882              		.loc 1 1683 0
 4883 0b78 27E0     		b	.L201
 4884              	.L214:
1684:main.c        ****                                 case 11:
1685:main.c        ****                                     sprintf(testString, "ADC:%08lX", g_adccon_measure);
 4885              		.loc 1 1685 0
 4886 0b7a 4F4B     		ldr	r3, .L230+224
 4887 0b7c 1A68     		ldr	r2, [r3]
 4888 0b7e 4F49     		ldr	r1, .L230+228
 4889 0b80 2C4B     		ldr	r3, .L230+92
 4890 0b82 1800     		movs	r0, r3
 4891 0b84 FFF7FEFF 		bl	sprintf
ARM GAS  C:\Users\13740\AppData\Local\Temp\cc6vMOIu.s 			page 127


1686:main.c        ****                                     break;
 4892              		.loc 1 1686 0
 4893 0b88 1FE0     		b	.L201
 4894              	.L215:
1687:main.c        ****                                 case 12:
1688:main.c        ****                                     sprintf(testString, "SEQCON:%08lX", g_seqcon_measure);
 4895              		.loc 1 1688 0
 4896 0b8a 4D4B     		ldr	r3, .L230+232
 4897 0b8c 1A68     		ldr	r2, [r3]
 4898 0b8e 4D49     		ldr	r1, .L230+236
 4899 0b90 284B     		ldr	r3, .L230+92
 4900 0b92 1800     		movs	r0, r3
 4901 0b94 FFF7FEFF 		bl	sprintf
1689:main.c        ****                                     break;
 4902              		.loc 1 1689 0
 4903 0b98 17E0     		b	.L201
 4904              	.L216:
1690:main.c        ****                                 case 13:
1691:main.c        ****                                     sprintf(testString, "SEQSTA:%08lX", g_seqsta_measure);
 4905              		.loc 1 1691 0
 4906 0b9a 4B4B     		ldr	r3, .L230+240
 4907 0b9c 1A68     		ldr	r2, [r3]
 4908 0b9e 4B49     		ldr	r1, .L230+244
 4909 0ba0 244B     		ldr	r3, .L230+92
 4910 0ba2 1800     		movs	r0, r3
 4911 0ba4 FFF7FEFF 		bl	sprintf
1692:main.c        ****                                     break;
 4912              		.loc 1 1692 0
 4913 0ba8 0FE0     		b	.L201
 4914              	.L217:
1693:main.c        ****                                 
1694:main.c        ****                                 // ===== FIFO数据 =====
1695:main.c        ****                                 case 14:
1696:main.c        ****                                     sprintf(testString, "FIFO_D:%08lX", g_fifo_first_data);
 4915              		.loc 1 1696 0
 4916 0baa 0B4B     		ldr	r3, .L230
 4917 0bac 1A68     		ldr	r2, [r3]
 4918 0bae 4849     		ldr	r1, .L230+248
 4919 0bb0 204B     		ldr	r3, .L230+92
 4920 0bb2 1800     		movs	r0, r3
 4921 0bb4 FFF7FEFF 		bl	sprintf
1697:main.c        ****                                     break;
 4922              		.loc 1 1697 0
 4923 0bb8 07E0     		b	.L201
 4924              	.L218:
1698:main.c        ****                                 case 15:
1699:main.c        ****                                     sprintf(testString, "DATA_CNT:%ld", g_fifo_count_measure);
 4925              		.loc 1 1699 0
 4926 0bba 0E4B     		ldr	r3, .L230+28
 4927 0bbc 1A68     		ldr	r2, [r3]
 4928 0bbe 4549     		ldr	r1, .L230+252
 4929 0bc0 1C4B     		ldr	r3, .L230+92
 4930 0bc2 1800     		movs	r0, r3
 4931 0bc4 FFF7FEFF 		bl	sprintf
1700:main.c        ****                                     break;
 4932              		.loc 1 1700 0
 4933 0bc8 C046     		nop
ARM GAS  C:\Users\13740\AppData\Local\Temp\cc6vMOIu.s 			page 128


 4934              	.L201:
1701:main.c        ****                             }
1702:main.c        ****                             display_step++;
 4935              		.loc 1 1702 0
 4936 0bca 264B     		ldr	r3, .L230+140
 4937 0bcc 1B78     		ldrb	r3, [r3]
 4938 0bce 0133     		adds	r3, r3, #1
 4939 0bd0 DAB2     		uxtb	r2, r3
 4940 0bd2 244B     		ldr	r3, .L230+140
 4941 0bd4 1A70     		strb	r2, [r3]
1703:main.c        ****                         }
1704:main.c        ****                         else if(g_test_done == 2)
1705:main.c        ****                         {
1706:main.c        ****                             sprintf(testString, "Init FAIL");
1707:main.c        ****                         }
1708:main.c        ****                         else
1709:main.c        ****                         {
1710:main.c        ****                             sprintf(testString, "Waiting...");
1711:main.c        ****                         }
1712:main.c        ****                         break;
 4942              		.loc 1 1712 0
 4943 0bd6 92E0     		b	.L224
 4944              	.L231:
 4945              		.align	2
 4946              	.L230:
 4947 0bd8 5C000000 		.word	g_fifo_first_data
 4948 0bdc 300F0000 		.word	.LC289
 4949 0be0 4C0F0000 		.word	.LC291
 4950 0be4 680F0000 		.word	.LC293
 4951 0be8 840F0000 		.word	.LC295
 4952 0bec 84200000 		.word	8324
 4953 0bf0 50000000 		.word	g_fifosta_measure
 4954 0bf4 58000000 		.word	g_fifo_count_measure
 4955 0bf8 A40F0000 		.word	.LC297
 4956 0bfc 88200000 		.word	8328
 4957 0c00 70000000 		.word	g_init_state
 4958 0c04 00000000 		.word	measurementFlag
 4959 0c08 48000000 		.word	g_test_fifo_count
 4960 0c0c 00401C46 		.word	1176256512
 4961 0c10 C3F5E83F 		.word	1072231875
 4962 0c14 FF7F0000 		.word	32767
 4963 0c18 0000FFFF 		.word	-65536
 4964 0c1c 0000E040 		.word	1088421888
 4965 0c20 286B6E4E 		.word	1315859240
 4966 0c24 00000000 		.word	sensorData
 4967 0c28 BC0F0000 		.word	.LC301
 4968 0c2c 00000000 		.word	cyBle_state
 4969 0c30 98110000 		.word	.L190
 4970 0c34 E0040000 		.word	testString.9741
 4971 0c38 E00F0000 		.word	.LC305
 4972 0c3c E80F0000 		.word	.LC307
 4973 0c40 F80F0000 		.word	.LC309
 4974 0c44 71000000 		.word	g_reg_index
 4975 0c48 08100000 		.word	.LC311
 4976 0c4c 18100000 		.word	.LC313
 4977 0c50 28100000 		.word	.LC315
 4978 0c54 38100000 		.word	.LC317
ARM GAS  C:\Users\13740\AppData\Local\Temp\cc6vMOIu.s 			page 129


 4979 0c58 4C100000 		.word	.LC319
 4980 0c5c 5C100000 		.word	.LC321
 4981 0c60 4A000000 		.word	g_test_done
 4982 0c64 08050000 		.word	display_step.9742
 4983 0c68 C0110000 		.word	.L203
 4984 0c6c 74100000 		.word	.LC325
 4985 0c70 34000000 		.word	g_test_adiid
 4986 0c74 7C100000 		.word	.LC327
 4987 0c78 38000000 		.word	g_test_chipid
 4988 0c7c 88100000 		.word	.LC329
 4989 0c80 3C000000 		.word	g_test_reg_0908
 4990 0c84 94100000 		.word	.LC331
 4991 0c88 40000000 		.word	g_test_afecon
 4992 0c8c A0100000 		.word	.LC333
 4993 0c90 44000000 		.word	g_test_fifocon
 4994 0c94 B0100000 		.word	.LC335
 4995 0c98 C0100000 		.word	.LC337
 4996 0c9c 4C000000 		.word	g_fifocon_measure
 4997 0ca0 D0100000 		.word	.LC339
 4998 0ca4 E0100000 		.word	.LC341
 4999 0ca8 54000000 		.word	g_afecon_measure
 5000 0cac F0100000 		.word	.LC343
 5001 0cb0 60000000 		.word	g_lptiacon_measure
 5002 0cb4 00110000 		.word	.LC345
 5003 0cb8 64000000 		.word	g_adccon_measure
 5004 0cbc 0C110000 		.word	.LC347
 5005 0cc0 68000000 		.word	g_seqcon_measure
 5006 0cc4 18110000 		.word	.LC349
 5007 0cc8 6C000000 		.word	g_seqsta_measure
 5008 0ccc 28110000 		.word	.LC351
 5009 0cd0 38110000 		.word	.LC353
 5010 0cd4 48110000 		.word	.LC355
 5011              	.L200:
1704:main.c        ****                         {
 5012              		.loc 1 1704 0
 5013 0cd8 1F4B     		ldr	r3, .L232
 5014 0cda 1B78     		ldrb	r3, [r3]
 5015 0cdc 022B     		cmp	r3, #2
 5016 0cde 06D1     		bne	.L220
1706:main.c        ****                         }
 5017              		.loc 1 1706 0
 5018 0ce0 1E4B     		ldr	r3, .L232+4
 5019 0ce2 1F4A     		ldr	r2, .L232+8
 5020 0ce4 03CA     		ldmia	r2!, {r0, r1}
 5021 0ce6 03C3     		stmia	r3!, {r0, r1}
 5022 0ce8 1288     		ldrh	r2, [r2]
 5023 0cea 1A80     		strh	r2, [r3]
 5024              		.loc 1 1712 0
 5025 0cec 07E0     		b	.L224
 5026              	.L220:
1710:main.c        ****                         }
 5027              		.loc 1 1710 0
 5028 0cee 1B4B     		ldr	r3, .L232+4
 5029 0cf0 1C4A     		ldr	r2, .L232+12
 5030 0cf2 03CA     		ldmia	r2!, {r0, r1}
 5031 0cf4 03C3     		stmia	r3!, {r0, r1}
 5032 0cf6 1188     		ldrh	r1, [r2]
ARM GAS  C:\Users\13740\AppData\Local\Temp\cc6vMOIu.s 			page 130


 5033 0cf8 1980     		strh	r1, [r3]
 5034 0cfa 9278     		ldrb	r2, [r2, #2]
 5035 0cfc 9A70     		strb	r2, [r3, #2]
 5036              	.L224:
 5037              		.loc 1 1712 0
 5038 0cfe C046     		nop
 5039              	.L188:
1713:main.c        ****                 }
1714:main.c        ****                 
1715:main.c        ****                 notificationHandle.attrHandle = CYBLE_CUSTOM_SERVICE_LACTATE_CHAR_HANDLE;
 5040              		.loc 1 1715 0 discriminator 1
 5041 0d00 3B00     		movs	r3, r7
 5042 0d02 1222     		movs	r2, #18
 5043 0d04 1A81     		strh	r2, [r3, #8]
1716:main.c        ****                 notificationHandle.value.val = (uint8*)testString;
 5044              		.loc 1 1716 0 discriminator 1
 5045 0d06 3B00     		movs	r3, r7
 5046 0d08 144A     		ldr	r2, .L232+4
 5047 0d0a 1A60     		str	r2, [r3]
1717:main.c        ****                 notificationHandle.value.len = strlen(testString);
 5048              		.loc 1 1717 0 discriminator 1
 5049 0d0c 134B     		ldr	r3, .L232+4
 5050 0d0e 1800     		movs	r0, r3
 5051 0d10 FFF7FEFF 		bl	strlen
 5052 0d14 0300     		movs	r3, r0
 5053 0d16 9AB2     		uxth	r2, r3
 5054 0d18 3B00     		movs	r3, r7
 5055 0d1a 9A80     		strh	r2, [r3, #4]
1718:main.c        ****                 CyBle_GattsNotification(cyBle_connHandle, &notificationHandle);
 5056              		.loc 1 1718 0 discriminator 1
 5057 0d1c 3900     		movs	r1, r7
 5058 0d1e 124B     		ldr	r3, .L232+16
 5059 0d20 1A78     		ldrb	r2, [r3]
 5060 0d22 5B78     		ldrb	r3, [r3, #1]
 5061 0d24 1B02     		lsls	r3, r3, #8
 5062 0d26 1A43     		orrs	r2, r3
 5063 0d28 0023     		movs	r3, #0
 5064 0d2a 1204     		lsls	r2, r2, #16
 5065 0d2c 120C     		lsrs	r2, r2, #16
 5066 0d2e 1B0C     		lsrs	r3, r3, #16
 5067 0d30 1B04     		lsls	r3, r3, #16
 5068 0d32 1343     		orrs	r3, r2
 5069 0d34 1800     		movs	r0, r3
 5070 0d36 FFF7FEFF 		bl	CyBle_GattsNotification
 5071              	.L184:
 5072              	.LBE16:
1719:main.c        ****             }
1720:main.c        ****         }
1721:main.c        ****         
1722:main.c        ****         if(cyBle_pendingFlashWrite != 0u)
 5073              		.loc 1 1722 0
 5074 0d3a 0C4B     		ldr	r3, .L232+20
 5075 0d3c 1B78     		ldrb	r3, [r3]
 5076 0d3e 002B     		cmp	r3, #0
 5077 0d40 01D1     		bne	.LCB3840
 5078 0d42 FFF78EF9 		bl	.L222	@far jump
 5079              	.LCB3840:
ARM GAS  C:\Users\13740\AppData\Local\Temp\cc6vMOIu.s 			page 131


1723:main.c        ****         {
1724:main.c        ****             apiResult = CyBle_StoreBondingData(0u);
 5080              		.loc 1 1724 0
 5081 0d46 0020     		movs	r0, #0
 5082 0d48 FFF7FEFF 		bl	CyBle_StoreBondingData
 5083 0d4c 0300     		movs	r3, r0
 5084 0d4e 1A00     		movs	r2, r3
 5085 0d50 074B     		ldr	r3, .L232+24
 5086 0d52 1A80     		strh	r2, [r3]
1725:main.c        ****         }
1726:main.c        ****     }
 5087              		.loc 1 1726 0
 5088 0d54 FFF785F9 		bl	.L222	@ far jump
 5089              	.L233:
 5090              		.align	2
 5091              	.L232:
 5092 0d58 4A000000 		.word	g_test_done
 5093 0d5c E0040000 		.word	testString.9741
 5094 0d60 58110000 		.word	.LC357
 5095 0d64 64110000 		.word	.LC359
 5096 0d68 00000000 		.word	cyBle_connHandle
 5097 0d6c 00000000 		.word	cyBle_pendingFlashWrite
 5098 0d70 00000000 		.word	apiResult
 5099              		.cfi_endproc
 5100              	.LFE56:
 5101              		.size	main, .-main
 5102              		.section	.rodata
 5103              		.align	2
 5104              	.LC364:
 5105 1200 E5B9BFE6 		.ascii	"\345\271\277\346\222\255\345\220\257\345\212\250\345"
 5105      92ADE590 
 5105      AFE58AA8 
 5105      E5
 5106 120d A4B1E8B4 		.ascii	"\244\261\350\264\245: %d\015\012\000"
 5106      A53A2025 
 5106      640D0A00 
 5107 1219 000000   		.align	2
 5108              	.LC366:
 5109 121c E5BC80E5 		.ascii	"\345\274\200\345\247\213\345\271\277\346\222\255, \345"
 5109      A78BE5B9 
 5109      BFE692AD 
 5109      2C20E5
 5110 122b 9CB0E59D 		.ascii	"\234\260\345\235\200: \000"
 5110      803A2000 
 5111 1233 00       		.align	2
 5112              	.LC368:
 5113 1234 25322E32 		.ascii	"%2.2x\000"
 5113      7800
 5114 123a 0000     		.align	2
 5115              	.LC370:
 5116 123c 0D00     		.ascii	"\015\000"
 5117              		.section	.text.StartAdvertisement,"ax",%progbits
 5118              		.align	2
 5119              		.global	StartAdvertisement
 5120              		.code	16
 5121              		.thumb_func
 5122              		.type	StartAdvertisement, %function
ARM GAS  C:\Users\13740\AppData\Local\Temp\cc6vMOIu.s 			page 132


 5123              	StartAdvertisement:
 5124              	.LFB57:
1727:main.c        **** }
1728:main.c        **** 
1729:main.c        **** /*******************************************************************************
1730:main.c        **** * Function Name: StartAdvertisement
1731:main.c        **** ********************************************************************************
1732:main.c        **** * Summary:
1733:main.c        **** *   启动BLE广播
1734:main.c        **** *******************************************************************************/
1735:main.c        **** void StartAdvertisement(void)
1736:main.c        **** {
 5125              		.loc 1 1736 0
 5126              		.cfi_startproc
 5127              		@ args = 0, pretend = 0, frame = 16
 5128              		@ frame_needed = 1, uses_anonymous_args = 0
 5129 0000 80B5     		push	{r7, lr}
 5130              		.cfi_def_cfa_offset 8
 5131              		.cfi_offset 7, -8
 5132              		.cfi_offset 14, -4
 5133 0002 84B0     		sub	sp, sp, #16
 5134              		.cfi_def_cfa_offset 24
 5135 0004 00AF     		add	r7, sp, #0
 5136              		.cfi_def_cfa_register 7
1737:main.c        ****     uint16 i;
1738:main.c        ****     CYBLE_GAP_BD_ADDR_T localAddr;
1739:main.c        ****     
1740:main.c        ****     apiResult = CyBle_GappStartAdvertisement(CYBLE_ADVERTISING_FAST);
 5137              		.loc 1 1740 0
 5138 0006 0020     		movs	r0, #0
 5139 0008 FFF7FEFF 		bl	CyBle_GappStartAdvertisement
 5140 000c 0300     		movs	r3, r0
 5141 000e 1A00     		movs	r2, r3
 5142 0010 1F4B     		ldr	r3, .L240
 5143 0012 1A80     		strh	r2, [r3]
1741:main.c        ****     if(apiResult != CYBLE_ERROR_OK)
 5144              		.loc 1 1741 0
 5145 0014 1E4B     		ldr	r3, .L240
 5146 0016 1B88     		ldrh	r3, [r3]
 5147 0018 002B     		cmp	r3, #0
 5148 001a 08D0     		beq	.L235
1742:main.c        ****     {
1743:main.c        ****         DBG_PRINTF("广播启动失败: %d\r\n", apiResult);
 5149              		.loc 1 1743 0
 5150 001c 1C4B     		ldr	r3, .L240
 5151 001e 1B88     		ldrh	r3, [r3]
 5152 0020 1A00     		movs	r2, r3
 5153 0022 1C4B     		ldr	r3, .L240+4
 5154 0024 1100     		movs	r1, r2
 5155 0026 1800     		movs	r0, r3
 5156 0028 FFF7FEFF 		bl	printf
1744:main.c        ****     }
1745:main.c        ****     else
1746:main.c        ****     {
1747:main.c        ****         DBG_PRINTF("开始广播, 地址: ");
1748:main.c        ****         localAddr.type = 0u;
1749:main.c        ****         CyBle_GetDeviceAddress(&localAddr);
ARM GAS  C:\Users\13740\AppData\Local\Temp\cc6vMOIu.s 			page 133


1750:main.c        ****         for(i = CYBLE_GAP_BD_ADDR_SIZE; i > 0u; i--)
1751:main.c        ****         {
1752:main.c        ****             DBG_PRINTF("%2.2x", localAddr.bdAddr[i-1]);
1753:main.c        ****         }
1754:main.c        ****         DBG_PRINTF("\r\n");
1755:main.c        ****     }
1756:main.c        **** }
 5157              		.loc 1 1756 0
 5158 002c 2BE0     		b	.L239
 5159              	.L235:
1747:main.c        ****         localAddr.type = 0u;
 5160              		.loc 1 1747 0
 5161 002e 1A4B     		ldr	r3, .L240+8
 5162 0030 1800     		movs	r0, r3
 5163 0032 FFF7FEFF 		bl	printf
1748:main.c        ****         CyBle_GetDeviceAddress(&localAddr);
 5164              		.loc 1 1748 0
 5165 0036 3B1D     		adds	r3, r7, #4
 5166 0038 0022     		movs	r2, #0
 5167 003a 9A71     		strb	r2, [r3, #6]
1749:main.c        ****         for(i = CYBLE_GAP_BD_ADDR_SIZE; i > 0u; i--)
 5168              		.loc 1 1749 0
 5169 003c 3B1D     		adds	r3, r7, #4
 5170 003e 1800     		movs	r0, r3
 5171 0040 FFF7FEFF 		bl	CyBle_GetDeviceAddress
1750:main.c        ****         {
 5172              		.loc 1 1750 0
 5173 0044 0E23     		movs	r3, #14
 5174 0046 FB18     		adds	r3, r7, r3
 5175 0048 0622     		movs	r2, #6
 5176 004a 1A80     		strh	r2, [r3]
 5177 004c 12E0     		b	.L237
 5178              	.L238:
1752:main.c        ****         }
 5179              		.loc 1 1752 0 discriminator 3
 5180 004e 0E23     		movs	r3, #14
 5181 0050 FB18     		adds	r3, r7, r3
 5182 0052 1B88     		ldrh	r3, [r3]
 5183 0054 013B     		subs	r3, r3, #1
 5184 0056 3A1D     		adds	r2, r7, #4
 5185 0058 D35C     		ldrb	r3, [r2, r3]
 5186 005a 1A00     		movs	r2, r3
 5187 005c 0F4B     		ldr	r3, .L240+12
 5188 005e 1100     		movs	r1, r2
 5189 0060 1800     		movs	r0, r3
 5190 0062 FFF7FEFF 		bl	printf
1750:main.c        ****         {
 5191              		.loc 1 1750 0 discriminator 3
 5192 0066 0E23     		movs	r3, #14
 5193 0068 FB18     		adds	r3, r7, r3
 5194 006a 1A88     		ldrh	r2, [r3]
 5195 006c 0E23     		movs	r3, #14
 5196 006e FB18     		adds	r3, r7, r3
 5197 0070 013A     		subs	r2, r2, #1
 5198 0072 1A80     		strh	r2, [r3]
 5199              	.L237:
1750:main.c        ****         {
ARM GAS  C:\Users\13740\AppData\Local\Temp\cc6vMOIu.s 			page 134


 5200              		.loc 1 1750 0 is_stmt 0 discriminator 1
 5201 0074 0E23     		movs	r3, #14
 5202 0076 FB18     		adds	r3, r7, r3
 5203 0078 1B88     		ldrh	r3, [r3]
 5204 007a 002B     		cmp	r3, #0
 5205 007c E7D1     		bne	.L238
1754:main.c        ****     }
 5206              		.loc 1 1754 0 is_stmt 1
 5207 007e 084B     		ldr	r3, .L240+16
 5208 0080 1800     		movs	r0, r3
 5209 0082 FFF7FEFF 		bl	puts
 5210              	.L239:
 5211              		.loc 1 1756 0
 5212 0086 C046     		nop
 5213 0088 BD46     		mov	sp, r7
 5214 008a 04B0     		add	sp, sp, #16
 5215              		@ sp needed
 5216 008c 80BD     		pop	{r7, pc}
 5217              	.L241:
 5218 008e C046     		.align	2
 5219              	.L240:
 5220 0090 00000000 		.word	apiResult
 5221 0094 00120000 		.word	.LC364
 5222 0098 1C120000 		.word	.LC366
 5223 009c 34120000 		.word	.LC368
 5224 00a0 3C120000 		.word	.LC370
 5225              		.cfi_endproc
 5226              	.LFE57:
 5227              		.size	StartAdvertisement, .-StartAdvertisement
 5228              		.bss
 5229 0072 0000     		.align	2
 5230              	ampFifoBuffer.9615:
 5231 0074 00000000 		.space	1024
 5231      00000000 
 5231      00000000 
 5231      00000000 
 5231      00000000 
 5232              	diagStep.9650:
 5233 0474 00       		.space	1
 5234 0475 000000   		.align	2
 5235              	dataString.9649:
 5236 0478 00000000 		.space	40
 5236      00000000 
 5236      00000000 
 5236      00000000 
 5236      00000000 
 5237              	testStep.9664:
 5238 04a0 00       		.space	1
 5239 04a1 000000   		.align	2
 5240              	tempString.9663:
 5241 04a4 00000000 		.space	60
 5241      00000000 
 5241      00000000 
 5241      00000000 
 5241      00000000 
 5242              		.data
 5243              		.type	led.9681, %object
ARM GAS  C:\Users\13740\AppData\Local\Temp\cc6vMOIu.s 			page 135


 5244              		.size	led.9681, 1
 5245              	led.9681:
 5246 0000 01       		.byte	1
 5247              		.bss
 5248              		.align	2
 5249              	testString.9741:
 5250 04e0 00000000 		.space	40
 5250      00000000 
 5250      00000000 
 5250      00000000 
 5250      00000000 
 5251              	display_step.9742:
 5252 0508 00       		.space	1
 5253              		.text
 5254              	.Letext0:
 5255              		.file 2 "f:\\infineon\\psoc creator\\4.4\\psoc creator\\import\\gnu\\arm\\5.4.1\\arm-none-eabi\\in
 5256              		.file 3 "f:\\infineon\\psoc creator\\4.4\\psoc creator\\import\\gnu\\arm\\5.4.1\\arm-none-eabi\\in
 5257              		.file 4 "Generated_Source\\PSoC4/cytypes.h"
 5258              		.file 5 "Generated_Source\\PSoC4/CYBLE_Stack.h"
 5259              		.file 6 "Generated_Source\\PSoC4/CYBLE_StackGatt.h"
 5260              		.file 7 "Generated_Source\\PSoC4/CYBLE_StackGattServer.h"
 5261              		.file 8 "Generated_Source\\PSoC4/CYBLE_eventHandler.h"
 5262              		.file 9 "ad5940.h"
 5263              		.file 10 "Amperometric.h"
 5264              		.file 11 "Generated_Source\\PSoC4/CYBLE.h"
 5265              		.section	.debug_info,"",%progbits
 5266              	.Ldebug_info0:
 5267 0000 EB120000 		.4byte	0x12eb
 5268 0004 0400     		.2byte	0x4
 5269 0006 00000000 		.4byte	.Ldebug_abbrev0
 5270 000a 04       		.byte	0x4
 5271 000b 01       		.uleb128 0x1
 5272 000c C0020000 		.4byte	.LASF344
 5273 0010 0C       		.byte	0xc
 5274 0011 230D0000 		.4byte	.LASF345
 5275 0015 0A190000 		.4byte	.LASF346
 5276 0019 18000000 		.4byte	.Ldebug_ranges0+0x18
 5277 001d 00000000 		.4byte	0
 5278 0021 00000000 		.4byte	.Ldebug_line0
 5279 0025 02       		.uleb128 0x2
 5280 0026 01       		.byte	0x1
 5281 0027 06       		.byte	0x6
 5282 0028 58180000 		.4byte	.LASF0
 5283 002c 03       		.uleb128 0x3
 5284 002d 5B140000 		.4byte	.LASF3
 5285 0031 02       		.byte	0x2
 5286 0032 1D       		.byte	0x1d
 5287 0033 37000000 		.4byte	0x37
 5288 0037 02       		.uleb128 0x2
 5289 0038 01       		.byte	0x1
 5290 0039 08       		.byte	0x8
 5291 003a C2160000 		.4byte	.LASF1
 5292 003e 02       		.uleb128 0x2
 5293 003f 02       		.byte	0x2
 5294 0040 05       		.byte	0x5
 5295 0041 07120000 		.4byte	.LASF2
 5296 0045 03       		.uleb128 0x3
ARM GAS  C:\Users\13740\AppData\Local\Temp\cc6vMOIu.s 			page 136


 5297 0046 FD090000 		.4byte	.LASF4
 5298 004a 02       		.byte	0x2
 5299 004b 2B       		.byte	0x2b
 5300 004c 50000000 		.4byte	0x50
 5301 0050 02       		.uleb128 0x2
 5302 0051 02       		.byte	0x2
 5303 0052 07       		.byte	0x7
 5304 0053 7C180000 		.4byte	.LASF5
 5305 0057 03       		.uleb128 0x3
 5306 0058 6E020000 		.4byte	.LASF6
 5307 005c 02       		.byte	0x2
 5308 005d 3F       		.byte	0x3f
 5309 005e 62000000 		.4byte	0x62
 5310 0062 02       		.uleb128 0x2
 5311 0063 04       		.byte	0x4
 5312 0064 05       		.byte	0x5
 5313 0065 3B120000 		.4byte	.LASF7
 5314 0069 03       		.uleb128 0x3
 5315 006a D0160000 		.4byte	.LASF8
 5316 006e 02       		.byte	0x2
 5317 006f 41       		.byte	0x41
 5318 0070 74000000 		.4byte	0x74
 5319 0074 02       		.uleb128 0x2
 5320 0075 04       		.byte	0x4
 5321 0076 07       		.byte	0x7
 5322 0077 1F150000 		.4byte	.LASF9
 5323 007b 02       		.uleb128 0x2
 5324 007c 08       		.byte	0x8
 5325 007d 05       		.byte	0x5
 5326 007e F90C0000 		.4byte	.LASF10
 5327 0082 02       		.uleb128 0x2
 5328 0083 08       		.byte	0x8
 5329 0084 07       		.byte	0x7
 5330 0085 0D050000 		.4byte	.LASF11
 5331 0089 04       		.uleb128 0x4
 5332 008a 04       		.byte	0x4
 5333 008b 05       		.byte	0x5
 5334 008c 696E7400 		.ascii	"int\000"
 5335 0090 02       		.uleb128 0x2
 5336 0091 04       		.byte	0x4
 5337 0092 07       		.byte	0x7
 5338 0093 F9010000 		.4byte	.LASF12
 5339 0097 03       		.uleb128 0x3
 5340 0098 090C0000 		.4byte	.LASF13
 5341 009c 03       		.byte	0x3
 5342 009d 18       		.byte	0x18
 5343 009e 2C000000 		.4byte	0x2c
 5344 00a2 03       		.uleb128 0x3
 5345 00a3 97100000 		.4byte	.LASF14
 5346 00a7 03       		.byte	0x3
 5347 00a8 24       		.byte	0x24
 5348 00a9 45000000 		.4byte	0x45
 5349 00ad 03       		.uleb128 0x3
 5350 00ae E1150000 		.4byte	.LASF15
 5351 00b2 03       		.byte	0x3
 5352 00b3 2C       		.byte	0x2c
 5353 00b4 57000000 		.4byte	0x57
ARM GAS  C:\Users\13740\AppData\Local\Temp\cc6vMOIu.s 			page 137


 5354 00b8 03       		.uleb128 0x3
 5355 00b9 BB040000 		.4byte	.LASF16
 5356 00bd 03       		.byte	0x3
 5357 00be 30       		.byte	0x30
 5358 00bf 69000000 		.4byte	0x69
 5359 00c3 05       		.uleb128 0x5
 5360 00c4 9D040000 		.4byte	.LASF17
 5361 00c8 04       		.byte	0x4
 5362 00c9 D201     		.2byte	0x1d2
 5363 00cb 37000000 		.4byte	0x37
 5364 00cf 05       		.uleb128 0x5
 5365 00d0 A40B0000 		.4byte	.LASF18
 5366 00d4 04       		.byte	0x4
 5367 00d5 D301     		.2byte	0x1d3
 5368 00d7 50000000 		.4byte	0x50
 5369 00db 05       		.uleb128 0x5
 5370 00dc E20E0000 		.4byte	.LASF19
 5371 00e0 04       		.byte	0x4
 5372 00e1 D401     		.2byte	0x1d4
 5373 00e3 74000000 		.4byte	0x74
 5374 00e7 02       		.uleb128 0x2
 5375 00e8 04       		.byte	0x4
 5376 00e9 04       		.byte	0x4
 5377 00ea 24050000 		.4byte	.LASF20
 5378 00ee 02       		.uleb128 0x2
 5379 00ef 08       		.byte	0x8
 5380 00f0 04       		.byte	0x4
 5381 00f1 61080000 		.4byte	.LASF21
 5382 00f5 02       		.uleb128 0x2
 5383 00f6 01       		.byte	0x1
 5384 00f7 08       		.byte	0x8
 5385 00f8 D00A0000 		.4byte	.LASF22
 5386 00fc 06       		.uleb128 0x6
 5387 00fd C3000000 		.4byte	0xc3
 5388 0101 06       		.uleb128 0x6
 5389 0102 DB000000 		.4byte	0xdb
 5390 0106 02       		.uleb128 0x2
 5391 0107 08       		.byte	0x8
 5392 0108 04       		.byte	0x4
 5393 0109 8B100000 		.4byte	.LASF23
 5394 010d 02       		.uleb128 0x2
 5395 010e 04       		.byte	0x4
 5396 010f 07       		.byte	0x7
 5397 0110 98110000 		.4byte	.LASF24
 5398 0114 07       		.uleb128 0x7
 5399 0115 04       		.byte	0x4
 5400 0116 08       		.uleb128 0x8
 5401 0117 01       		.byte	0x1
 5402 0118 37000000 		.4byte	0x37
 5403 011c 05       		.byte	0x5
 5404 011d 4D01     		.2byte	0x14d
 5405 011f D4020000 		.4byte	0x2d4
 5406 0123 09       		.uleb128 0x9
 5407 0124 22170000 		.4byte	.LASF25
 5408 0128 00       		.byte	0
 5409 0129 09       		.uleb128 0x9
 5410 012a 910B0000 		.4byte	.LASF26
ARM GAS  C:\Users\13740\AppData\Local\Temp\cc6vMOIu.s 			page 138


 5411 012e 01       		.byte	0x1
 5412 012f 09       		.uleb128 0x9
 5413 0130 54110000 		.4byte	.LASF27
 5414 0134 02       		.byte	0x2
 5415 0135 09       		.uleb128 0x9
 5416 0136 E0010000 		.4byte	.LASF28
 5417 013a 03       		.byte	0x3
 5418 013b 09       		.uleb128 0x9
 5419 013c A40A0000 		.4byte	.LASF29
 5420 0140 04       		.byte	0x4
 5421 0141 09       		.uleb128 0x9
 5422 0142 52050000 		.4byte	.LASF30
 5423 0146 05       		.byte	0x5
 5424 0147 09       		.uleb128 0x9
 5425 0148 62160000 		.4byte	.LASF31
 5426 014c 06       		.byte	0x6
 5427 014d 09       		.uleb128 0x9
 5428 014e 34130000 		.4byte	.LASF32
 5429 0152 20       		.byte	0x20
 5430 0153 09       		.uleb128 0x9
 5431 0154 8F000000 		.4byte	.LASF33
 5432 0158 21       		.byte	0x21
 5433 0159 09       		.uleb128 0x9
 5434 015a 94030000 		.4byte	.LASF34
 5435 015e 22       		.byte	0x22
 5436 015f 09       		.uleb128 0x9
 5437 0160 7E150000 		.4byte	.LASF35
 5438 0164 23       		.byte	0x23
 5439 0165 09       		.uleb128 0x9
 5440 0166 FA070000 		.4byte	.LASF36
 5441 016a 24       		.byte	0x24
 5442 016b 09       		.uleb128 0x9
 5443 016c 48160000 		.4byte	.LASF37
 5444 0170 25       		.byte	0x25
 5445 0171 09       		.uleb128 0x9
 5446 0172 AA0E0000 		.4byte	.LASF38
 5447 0176 26       		.byte	0x26
 5448 0177 09       		.uleb128 0x9
 5449 0178 B2170000 		.4byte	.LASF39
 5450 017c 27       		.byte	0x27
 5451 017d 09       		.uleb128 0x9
 5452 017e 65140000 		.4byte	.LASF40
 5453 0182 28       		.byte	0x28
 5454 0183 09       		.uleb128 0x9
 5455 0184 66110000 		.4byte	.LASF41
 5456 0188 29       		.byte	0x29
 5457 0189 09       		.uleb128 0x9
 5458 018a 23040000 		.4byte	.LASF42
 5459 018e 2A       		.byte	0x2a
 5460 018f 09       		.uleb128 0x9
 5461 0190 001A0000 		.4byte	.LASF43
 5462 0194 2B       		.byte	0x2b
 5463 0195 09       		.uleb128 0x9
 5464 0196 5A150000 		.4byte	.LASF44
 5465 019a 2C       		.byte	0x2c
 5466 019b 09       		.uleb128 0x9
 5467 019c 69040000 		.4byte	.LASF45
ARM GAS  C:\Users\13740\AppData\Local\Temp\cc6vMOIu.s 			page 139


 5468 01a0 2D       		.byte	0x2d
 5469 01a1 09       		.uleb128 0x9
 5470 01a2 8D160000 		.4byte	.LASF46
 5471 01a6 2E       		.byte	0x2e
 5472 01a7 09       		.uleb128 0x9
 5473 01a8 470F0000 		.4byte	.LASF47
 5474 01ac 2F       		.byte	0x2f
 5475 01ad 09       		.uleb128 0x9
 5476 01ae 610C0000 		.4byte	.LASF48
 5477 01b2 30       		.byte	0x30
 5478 01b3 09       		.uleb128 0x9
 5479 01b4 7D120000 		.4byte	.LASF49
 5480 01b8 31       		.byte	0x31
 5481 01b9 09       		.uleb128 0x9
 5482 01ba 8B130000 		.4byte	.LASF50
 5483 01be 32       		.byte	0x32
 5484 01bf 09       		.uleb128 0x9
 5485 01c0 31100000 		.4byte	.LASF51
 5486 01c4 33       		.byte	0x33
 5487 01c5 09       		.uleb128 0x9
 5488 01c6 0A180000 		.4byte	.LASF52
 5489 01ca 34       		.byte	0x34
 5490 01cb 09       		.uleb128 0x9
 5491 01cc 4B010000 		.4byte	.LASF53
 5492 01d0 35       		.byte	0x35
 5493 01d1 09       		.uleb128 0x9
 5494 01d2 22180000 		.4byte	.LASF54
 5495 01d6 36       		.byte	0x36
 5496 01d7 09       		.uleb128 0x9
 5497 01d8 5C170000 		.4byte	.LASF55
 5498 01dc 37       		.byte	0x37
 5499 01dd 09       		.uleb128 0x9
 5500 01de 4E0D0000 		.4byte	.LASF56
 5501 01e2 40       		.byte	0x40
 5502 01e3 09       		.uleb128 0x9
 5503 01e4 54120000 		.4byte	.LASF57
 5504 01e8 41       		.byte	0x41
 5505 01e9 09       		.uleb128 0x9
 5506 01ea F7000000 		.4byte	.LASF58
 5507 01ee 42       		.byte	0x42
 5508 01ef 09       		.uleb128 0x9
 5509 01f0 75010000 		.4byte	.LASF59
 5510 01f4 43       		.byte	0x43
 5511 01f5 09       		.uleb128 0x9
 5512 01f6 99080000 		.4byte	.LASF60
 5513 01fa 44       		.byte	0x44
 5514 01fb 09       		.uleb128 0x9
 5515 01fc AC130000 		.4byte	.LASF61
 5516 0200 45       		.byte	0x45
 5517 0201 09       		.uleb128 0x9
 5518 0202 C4110000 		.4byte	.LASF62
 5519 0206 46       		.byte	0x46
 5520 0207 09       		.uleb128 0x9
 5521 0208 6E060000 		.4byte	.LASF63
 5522 020c 47       		.byte	0x47
 5523 020d 09       		.uleb128 0x9
 5524 020e DB060000 		.4byte	.LASF64
ARM GAS  C:\Users\13740\AppData\Local\Temp\cc6vMOIu.s 			page 140


 5525 0212 48       		.byte	0x48
 5526 0213 09       		.uleb128 0x9
 5527 0214 6E080000 		.4byte	.LASF65
 5528 0218 49       		.byte	0x49
 5529 0219 09       		.uleb128 0x9
 5530 021a 26090000 		.4byte	.LASF66
 5531 021e 4A       		.byte	0x4a
 5532 021f 09       		.uleb128 0x9
 5533 0220 A1120000 		.4byte	.LASF67
 5534 0224 4B       		.byte	0x4b
 5535 0225 09       		.uleb128 0x9
 5536 0226 FD050000 		.4byte	.LASF68
 5537 022a 4C       		.byte	0x4c
 5538 022b 09       		.uleb128 0x9
 5539 022c F3040000 		.4byte	.LASF69
 5540 0230 4D       		.byte	0x4d
 5541 0231 09       		.uleb128 0x9
 5542 0232 50020000 		.4byte	.LASF70
 5543 0236 4E       		.byte	0x4e
 5544 0237 09       		.uleb128 0x9
 5545 0238 DE130000 		.4byte	.LASF71
 5546 023c 4F       		.byte	0x4f
 5547 023d 09       		.uleb128 0x9
 5548 023e 2F070000 		.4byte	.LASF72
 5549 0242 50       		.byte	0x50
 5550 0243 09       		.uleb128 0x9
 5551 0244 4E070000 		.4byte	.LASF73
 5552 0248 51       		.byte	0x51
 5553 0249 09       		.uleb128 0x9
 5554 024a 42000000 		.4byte	.LASF74
 5555 024e 52       		.byte	0x52
 5556 024f 09       		.uleb128 0x9
 5557 0250 B3100000 		.4byte	.LASF75
 5558 0254 53       		.byte	0x53
 5559 0255 09       		.uleb128 0x9
 5560 0256 60190000 		.4byte	.LASF76
 5561 025a 54       		.byte	0x54
 5562 025b 09       		.uleb128 0x9
 5563 025c 9E010000 		.4byte	.LASF77
 5564 0260 55       		.byte	0x55
 5565 0261 09       		.uleb128 0x9
 5566 0262 20000000 		.4byte	.LASF78
 5567 0266 56       		.byte	0x56
 5568 0267 09       		.uleb128 0x9
 5569 0268 D1070000 		.4byte	.LASF79
 5570 026c 57       		.byte	0x57
 5571 026d 09       		.uleb128 0x9
 5572 026e A4150000 		.4byte	.LASF80
 5573 0272 58       		.byte	0x58
 5574 0273 09       		.uleb128 0x9
 5575 0274 E30B0000 		.4byte	.LASF81
 5576 0278 70       		.byte	0x70
 5577 0279 09       		.uleb128 0x9
 5578 027a 62090000 		.4byte	.LASF82
 5579 027e 71       		.byte	0x71
 5580 027f 09       		.uleb128 0x9
 5581 0280 73050000 		.4byte	.LASF83
ARM GAS  C:\Users\13740\AppData\Local\Temp\cc6vMOIu.s 			page 141


 5582 0284 72       		.byte	0x72
 5583 0285 09       		.uleb128 0x9
 5584 0286 9B140000 		.4byte	.LASF84
 5585 028a 73       		.byte	0x73
 5586 028b 09       		.uleb128 0x9
 5587 028c D1090000 		.4byte	.LASF85
 5588 0290 74       		.byte	0x74
 5589 0291 09       		.uleb128 0x9
 5590 0292 C0120000 		.4byte	.LASF86
 5591 0296 75       		.byte	0x75
 5592 0297 09       		.uleb128 0x9
 5593 0298 91170000 		.4byte	.LASF87
 5594 029c 76       		.byte	0x76
 5595 029d 09       		.uleb128 0x9
 5596 029e 000F0000 		.4byte	.LASF88
 5597 02a2 77       		.byte	0x77
 5598 02a3 09       		.uleb128 0x9
 5599 02a4 88090000 		.4byte	.LASF89
 5600 02a8 78       		.byte	0x78
 5601 02a9 09       		.uleb128 0x9
 5602 02aa 25020000 		.4byte	.LASF90
 5603 02ae 79       		.byte	0x79
 5604 02af 09       		.uleb128 0x9
 5605 02b0 08160000 		.4byte	.LASF91
 5606 02b4 7A       		.byte	0x7a
 5607 02b5 09       		.uleb128 0x9
 5608 02b6 C4040000 		.4byte	.LASF92
 5609 02ba FA       		.byte	0xfa
 5610 02bb 09       		.uleb128 0x9
 5611 02bc 06020000 		.4byte	.LASF93
 5612 02c0 FB       		.byte	0xfb
 5613 02c1 09       		.uleb128 0x9
 5614 02c2 AA0F0000 		.4byte	.LASF94
 5615 02c6 FC       		.byte	0xfc
 5616 02c7 09       		.uleb128 0x9
 5617 02c8 C6080000 		.4byte	.LASF95
 5618 02cc FD       		.byte	0xfd
 5619 02cd 09       		.uleb128 0x9
 5620 02ce 6F120000 		.4byte	.LASF96
 5621 02d2 FF       		.byte	0xff
 5622 02d3 00       		.byte	0
 5623 02d4 08       		.uleb128 0x8
 5624 02d5 02       		.byte	0x2
 5625 02d6 50000000 		.4byte	0x50
 5626 02da 05       		.byte	0x5
 5627 02db 0204     		.2byte	0x402
 5628 02dd AD030000 		.4byte	0x3ad
 5629 02e1 09       		.uleb128 0x9
 5630 02e2 FB180000 		.4byte	.LASF97
 5631 02e6 00       		.byte	0
 5632 02e7 09       		.uleb128 0x9
 5633 02e8 16130000 		.4byte	.LASF98
 5634 02ec 01       		.byte	0x1
 5635 02ed 09       		.uleb128 0x9
 5636 02ee C2010000 		.4byte	.LASF99
 5637 02f2 02       		.byte	0x2
 5638 02f3 09       		.uleb128 0x9
ARM GAS  C:\Users\13740\AppData\Local\Temp\cc6vMOIu.s 			page 142


 5639 02f4 410A0000 		.4byte	.LASF100
 5640 02f8 03       		.byte	0x3
 5641 02f9 09       		.uleb128 0x9
 5642 02fa 320B0000 		.4byte	.LASF101
 5643 02fe 04       		.byte	0x4
 5644 02ff 09       		.uleb128 0x9
 5645 0300 44090000 		.4byte	.LASF102
 5646 0304 05       		.byte	0x5
 5647 0305 09       		.uleb128 0x9
 5648 0306 C7150000 		.4byte	.LASF103
 5649 030a 06       		.byte	0x6
 5650 030b 09       		.uleb128 0x9
 5651 030c 78020000 		.4byte	.LASF104
 5652 0310 07       		.byte	0x7
 5653 0311 09       		.uleb128 0x9
 5654 0312 76030000 		.4byte	.LASF105
 5655 0316 08       		.byte	0x8
 5656 0317 09       		.uleb128 0x9
 5657 0318 C5000000 		.4byte	.LASF106
 5658 031c 09       		.byte	0x9
 5659 031d 09       		.uleb128 0x9
 5660 031e D4100000 		.4byte	.LASF107
 5661 0322 0A       		.byte	0xa
 5662 0323 09       		.uleb128 0x9
 5663 0324 16080000 		.4byte	.LASF108
 5664 0328 0B       		.byte	0xb
 5665 0329 09       		.uleb128 0x9
 5666 032a B90A0000 		.4byte	.LASF109
 5667 032e 0C       		.byte	0xc
 5668 032f 09       		.uleb128 0x9
 5669 0330 680E0000 		.4byte	.LASF110
 5670 0334 0D       		.byte	0xd
 5671 0335 09       		.uleb128 0x9
 5672 0336 31150000 		.4byte	.LASF111
 5673 033a 0E       		.byte	0xe
 5674 033b 09       		.uleb128 0x9
 5675 033c CF0F0000 		.4byte	.LASF112
 5676 0340 0F       		.byte	0xf
 5677 0341 09       		.uleb128 0x9
 5678 0342 050E0000 		.4byte	.LASF113
 5679 0346 10       		.byte	0x10
 5680 0347 09       		.uleb128 0x9
 5681 0348 37140000 		.4byte	.LASF114
 5682 034c 11       		.byte	0x11
 5683 034d 09       		.uleb128 0x9
 5684 034e C8180000 		.4byte	.LASF115
 5685 0352 12       		.byte	0x12
 5686 0353 09       		.uleb128 0x9
 5687 0354 740D0000 		.4byte	.LASF116
 5688 0358 13       		.byte	0x13
 5689 0359 09       		.uleb128 0x9
 5690 035a 110C0000 		.4byte	.LASF117
 5691 035e 27       		.byte	0x27
 5692 035f 09       		.uleb128 0x9
 5693 0360 F70A0000 		.4byte	.LASF118
 5694 0364 28       		.byte	0x28
 5695 0365 09       		.uleb128 0x9
ARM GAS  C:\Users\13740\AppData\Local\Temp\cc6vMOIu.s 			page 143


 5696 0366 5B0B0000 		.4byte	.LASF119
 5697 036a 29       		.byte	0x29
 5698 036b 09       		.uleb128 0x9
 5699 036c DA000000 		.4byte	.LASF120
 5700 0370 2A       		.byte	0x2a
 5701 0371 09       		.uleb128 0x9
 5702 0372 660A0000 		.4byte	.LASF121
 5703 0376 2B       		.byte	0x2b
 5704 0377 09       		.uleb128 0x9
 5705 0378 3C110000 		.4byte	.LASF122
 5706 037c 2C       		.byte	0x2c
 5707 037d 09       		.uleb128 0x9
 5708 037e AC180000 		.4byte	.LASF123
 5709 0382 FE       		.byte	0xfe
 5710 0383 09       		.uleb128 0x9
 5711 0384 D80D0000 		.4byte	.LASF124
 5712 0388 FF       		.byte	0xff
 5713 0389 0A       		.uleb128 0xa
 5714 038a A80C0000 		.4byte	.LASF125
 5715 038e 0001     		.2byte	0x100
 5716 0390 0A       		.uleb128 0xa
 5717 0391 36080000 		.4byte	.LASF126
 5718 0395 0101     		.2byte	0x101
 5719 0397 0A       		.uleb128 0xa
 5720 0398 A1110000 		.4byte	.LASF127
 5721 039c 0201     		.2byte	0x102
 5722 039e 0A       		.uleb128 0xa
 5723 039f D3030000 		.4byte	.LASF128
 5724 03a3 0301     		.2byte	0x103
 5725 03a5 0A       		.uleb128 0xa
 5726 03a6 C10C0000 		.4byte	.LASF129
 5727 03aa 0401     		.2byte	0x104
 5728 03ac 00       		.byte	0
 5729 03ad 05       		.uleb128 0x5
 5730 03ae BC0F0000 		.4byte	.LASF130
 5731 03b2 05       		.byte	0x5
 5732 03b3 7104     		.2byte	0x471
 5733 03b5 D4020000 		.4byte	0x2d4
 5734 03b9 08       		.uleb128 0x8
 5735 03ba 01       		.byte	0x1
 5736 03bb 37000000 		.4byte	0x37
 5737 03bf 05       		.byte	0x5
 5738 03c0 7504     		.2byte	0x475
 5739 03c2 E5030000 		.4byte	0x3e5
 5740 03c6 09       		.uleb128 0x9
 5741 03c7 C2050000 		.4byte	.LASF131
 5742 03cb 01       		.byte	0x1
 5743 03cc 09       		.uleb128 0x9
 5744 03cd 94190000 		.4byte	.LASF132
 5745 03d1 02       		.byte	0x2
 5746 03d2 09       		.uleb128 0x9
 5747 03d3 69130000 		.4byte	.LASF133
 5748 03d7 03       		.byte	0x3
 5749 03d8 09       		.uleb128 0x9
 5750 03d9 46170000 		.4byte	.LASF134
 5751 03dd 04       		.byte	0x4
 5752 03de 09       		.uleb128 0x9
ARM GAS  C:\Users\13740\AppData\Local\Temp\cc6vMOIu.s 			page 144


 5753 03df 960F0000 		.4byte	.LASF135
 5754 03e3 FF       		.byte	0xff
 5755 03e4 00       		.byte	0
 5756 03e5 05       		.uleb128 0x5
 5757 03e6 9D020000 		.4byte	.LASF136
 5758 03ea 05       		.byte	0x5
 5759 03eb 9104     		.2byte	0x491
 5760 03ed B9030000 		.4byte	0x3b9
 5761 03f1 08       		.uleb128 0x8
 5762 03f2 01       		.byte	0x1
 5763 03f3 37000000 		.4byte	0x37
 5764 03f7 05       		.byte	0x5
 5765 03f8 9504     		.2byte	0x495
 5766 03fa 2F040000 		.4byte	0x42f
 5767 03fe 09       		.uleb128 0x9
 5768 03ff C9190000 		.4byte	.LASF137
 5769 0403 01       		.byte	0x1
 5770 0404 09       		.uleb128 0x9
 5771 0405 E2190000 		.4byte	.LASF138
 5772 0409 02       		.byte	0x2
 5773 040a 09       		.uleb128 0x9
 5774 040b 8C060000 		.4byte	.LASF139
 5775 040f 03       		.byte	0x3
 5776 0410 09       		.uleb128 0x9
 5777 0411 E1120000 		.4byte	.LASF140
 5778 0415 04       		.byte	0x4
 5779 0416 09       		.uleb128 0x9
 5780 0417 F2160000 		.4byte	.LASF141
 5781 041b 05       		.byte	0x5
 5782 041c 09       		.uleb128 0x9
 5783 041d 070D0000 		.4byte	.LASF142
 5784 0421 06       		.byte	0x6
 5785 0422 09       		.uleb128 0x9
 5786 0423 07140000 		.4byte	.LASF143
 5787 0427 07       		.byte	0x7
 5788 0428 09       		.uleb128 0x9
 5789 0429 05110000 		.4byte	.LASF144
 5790 042d FF       		.byte	0xff
 5791 042e 00       		.byte	0
 5792 042f 0B       		.uleb128 0xb
 5793 0430 07       		.byte	0x7
 5794 0431 05       		.byte	0x5
 5795 0432 3F05     		.2byte	0x53f
 5796 0434 53040000 		.4byte	0x453
 5797 0438 0C       		.uleb128 0xc
 5798 0439 0C150000 		.4byte	.LASF145
 5799 043d 05       		.byte	0x5
 5800 043e 4205     		.2byte	0x542
 5801 0440 53040000 		.4byte	0x453
 5802 0444 00       		.byte	0
 5803 0445 0C       		.uleb128 0xc
 5804 0446 88160000 		.4byte	.LASF146
 5805 044a 05       		.byte	0x5
 5806 044b 4405     		.2byte	0x544
 5807 044d C3000000 		.4byte	0xc3
 5808 0451 06       		.byte	0x6
 5809 0452 00       		.byte	0
ARM GAS  C:\Users\13740\AppData\Local\Temp\cc6vMOIu.s 			page 145


 5810 0453 0D       		.uleb128 0xd
 5811 0454 C3000000 		.4byte	0xc3
 5812 0458 63040000 		.4byte	0x463
 5813 045c 0E       		.uleb128 0xe
 5814 045d 0D010000 		.4byte	0x10d
 5815 0461 05       		.byte	0x5
 5816 0462 00       		.byte	0
 5817 0463 05       		.uleb128 0x5
 5818 0464 23140000 		.4byte	.LASF147
 5819 0468 05       		.byte	0x5
 5820 0469 4505     		.2byte	0x545
 5821 046b 2F040000 		.4byte	0x42f
 5822 046f 0F       		.uleb128 0xf
 5823 0470 04       		.byte	0x4
 5824 0471 C3000000 		.4byte	0xc3
 5825 0475 05       		.uleb128 0x5
 5826 0476 AB0B0000 		.4byte	.LASF148
 5827 047a 06       		.byte	0x6
 5828 047b 8901     		.2byte	0x189
 5829 047d CF000000 		.4byte	0xcf
 5830 0481 0B       		.uleb128 0xb
 5831 0482 02       		.byte	0x2
 5832 0483 06       		.byte	0x6
 5833 0484 9301     		.2byte	0x193
 5834 0486 A5040000 		.4byte	0x4a5
 5835 048a 0C       		.uleb128 0xc
 5836 048b D90E0000 		.4byte	.LASF149
 5837 048f 06       		.byte	0x6
 5838 0490 9A01     		.2byte	0x19a
 5839 0492 C3000000 		.4byte	0xc3
 5840 0496 00       		.byte	0
 5841 0497 0C       		.uleb128 0xc
 5842 0498 B1190000 		.4byte	.LASF150
 5843 049c 06       		.byte	0x6
 5844 049d A001     		.2byte	0x1a0
 5845 049f C3000000 		.4byte	0xc3
 5846 04a3 01       		.byte	0x1
 5847 04a4 00       		.byte	0
 5848 04a5 05       		.uleb128 0x5
 5849 04a6 79070000 		.4byte	.LASF151
 5850 04aa 06       		.byte	0x6
 5851 04ab A201     		.2byte	0x1a2
 5852 04ad 81040000 		.4byte	0x481
 5853 04b1 0B       		.uleb128 0xb
 5854 04b2 08       		.byte	0x8
 5855 04b3 06       		.byte	0x6
 5856 04b4 BE01     		.2byte	0x1be
 5857 04b6 E2040000 		.4byte	0x4e2
 5858 04ba 10       		.uleb128 0x10
 5859 04bb 76616C00 		.ascii	"val\000"
 5860 04bf 06       		.byte	0x6
 5861 04c0 C101     		.2byte	0x1c1
 5862 04c2 6F040000 		.4byte	0x46f
 5863 04c6 00       		.byte	0
 5864 04c7 10       		.uleb128 0x10
 5865 04c8 6C656E00 		.ascii	"len\000"
 5866 04cc 06       		.byte	0x6
ARM GAS  C:\Users\13740\AppData\Local\Temp\cc6vMOIu.s 			page 146


 5867 04cd C401     		.2byte	0x1c4
 5868 04cf CF000000 		.4byte	0xcf
 5869 04d3 04       		.byte	0x4
 5870 04d4 0C       		.uleb128 0xc
 5871 04d5 FD130000 		.4byte	.LASF152
 5872 04d9 06       		.byte	0x6
 5873 04da CB01     		.2byte	0x1cb
 5874 04dc CF000000 		.4byte	0xcf
 5875 04e0 06       		.byte	0x6
 5876 04e1 00       		.byte	0
 5877 04e2 05       		.uleb128 0x5
 5878 04e3 770B0000 		.4byte	.LASF153
 5879 04e7 06       		.byte	0x6
 5880 04e8 CD01     		.2byte	0x1cd
 5881 04ea B1040000 		.4byte	0x4b1
 5882 04ee 0B       		.uleb128 0xb
 5883 04ef 0C       		.byte	0xc
 5884 04f0 06       		.byte	0x6
 5885 04f1 D001     		.2byte	0x1d0
 5886 04f3 12050000 		.4byte	0x512
 5887 04f7 0C       		.uleb128 0xc
 5888 04f8 02070000 		.4byte	.LASF154
 5889 04fc 06       		.byte	0x6
 5890 04fd D301     		.2byte	0x1d3
 5891 04ff E2040000 		.4byte	0x4e2
 5892 0503 00       		.byte	0
 5893 0504 0C       		.uleb128 0xc
 5894 0505 F7080000 		.4byte	.LASF155
 5895 0509 06       		.byte	0x6
 5896 050a D601     		.2byte	0x1d6
 5897 050c 75040000 		.4byte	0x475
 5898 0510 08       		.byte	0x8
 5899 0511 00       		.byte	0
 5900 0512 05       		.uleb128 0x5
 5901 0513 E9150000 		.4byte	.LASF156
 5902 0517 06       		.byte	0x6
 5903 0518 D801     		.2byte	0x1d8
 5904 051a EE040000 		.4byte	0x4ee
 5905 051e 03       		.uleb128 0x3
 5906 051f 8D070000 		.4byte	.LASF157
 5907 0523 07       		.byte	0x7
 5908 0524 34       		.byte	0x34
 5909 0525 12050000 		.4byte	0x512
 5910 0529 08       		.uleb128 0x8
 5911 052a 01       		.byte	0x1
 5912 052b 37000000 		.4byte	0x37
 5913 052f 08       		.byte	0x8
 5914 0530 5008     		.2byte	0x850
 5915 0532 55050000 		.4byte	0x555
 5916 0536 09       		.uleb128 0x9
 5917 0537 34060000 		.4byte	.LASF158
 5918 053b 00       		.byte	0
 5919 053c 09       		.uleb128 0x9
 5920 053d B30D0000 		.4byte	.LASF159
 5921 0541 01       		.byte	0x1
 5922 0542 09       		.uleb128 0x9
 5923 0543 A4060000 		.4byte	.LASF160
ARM GAS  C:\Users\13740\AppData\Local\Temp\cc6vMOIu.s 			page 147


 5924 0547 02       		.byte	0x2
 5925 0548 09       		.uleb128 0x9
 5926 0549 341A0000 		.4byte	.LASF161
 5927 054d 03       		.byte	0x3
 5928 054e 09       		.uleb128 0x9
 5929 054f 1F0F0000 		.4byte	.LASF162
 5930 0553 04       		.byte	0x4
 5931 0554 00       		.byte	0
 5932 0555 05       		.uleb128 0x5
 5933 0556 EF090000 		.4byte	.LASF163
 5934 055a 08       		.byte	0x8
 5935 055b 5E08     		.2byte	0x85e
 5936 055d 29050000 		.4byte	0x529
 5937 0561 05       		.uleb128 0x5
 5938 0562 A2180000 		.4byte	.LASF164
 5939 0566 09       		.byte	0x9
 5940 0567 7210     		.2byte	0x1072
 5941 0569 AD000000 		.4byte	0xad
 5942 056d 08       		.uleb128 0x8
 5943 056e 01       		.byte	0x1
 5944 056f 37000000 		.4byte	0x37
 5945 0573 09       		.byte	0x9
 5946 0574 7810     		.2byte	0x1078
 5947 0576 87050000 		.4byte	0x587
 5948 057a 09       		.uleb128 0x9
 5949 057b D20E0000 		.4byte	.LASF165
 5950 057f 00       		.byte	0
 5951 0580 09       		.uleb128 0x9
 5952 0581 550B0000 		.4byte	.LASF166
 5953 0585 01       		.byte	0x1
 5954 0586 00       		.byte	0
 5955 0587 05       		.uleb128 0x5
 5956 0588 F40F0000 		.4byte	.LASF167
 5957 058c 09       		.byte	0x9
 5958 058d 7A10     		.2byte	0x107a
 5959 058f 6D050000 		.4byte	0x56d
 5960 0593 0B       		.uleb128 0xb
 5961 0594 14       		.byte	0x14
 5962 0595 09       		.byte	0x9
 5963 0596 9C11     		.2byte	0x119c
 5964 0598 DE050000 		.4byte	0x5de
 5965 059c 0C       		.uleb128 0xc
 5966 059d 68080000 		.4byte	.LASF168
 5967 05a1 09       		.byte	0x9
 5968 05a2 9E11     		.2byte	0x119e
 5969 05a4 B8000000 		.4byte	0xb8
 5970 05a8 00       		.byte	0
 5971 05a9 0C       		.uleb128 0xc
 5972 05aa 29060000 		.4byte	.LASF169
 5973 05ae 09       		.byte	0x9
 5974 05af 9F11     		.2byte	0x119f
 5975 05b1 B8000000 		.4byte	0xb8
 5976 05b5 04       		.byte	0x4
 5977 05b6 0C       		.uleb128 0xc
 5978 05b7 67100000 		.4byte	.LASF170
 5979 05bb 09       		.byte	0x9
 5980 05bc A011     		.2byte	0x11a0
ARM GAS  C:\Users\13740\AppData\Local\Temp\cc6vMOIu.s 			page 148


 5981 05be B8000000 		.4byte	0xb8
 5982 05c2 08       		.byte	0x8
 5983 05c3 0C       		.uleb128 0xc
 5984 05c4 0C130000 		.4byte	.LASF171
 5985 05c8 09       		.byte	0x9
 5986 05c9 A111     		.2byte	0x11a1
 5987 05cb 87050000 		.4byte	0x587
 5988 05cf 0C       		.byte	0xc
 5989 05d0 0C       		.uleb128 0xc
 5990 05d1 4C1A0000 		.4byte	.LASF172
 5991 05d5 09       		.byte	0x9
 5992 05d6 A211     		.2byte	0x11a2
 5993 05d8 DE050000 		.4byte	0x5de
 5994 05dc 10       		.byte	0x10
 5995 05dd 00       		.byte	0
 5996 05de 0F       		.uleb128 0xf
 5997 05df 04       		.byte	0x4
 5998 05e0 E4050000 		.4byte	0x5e4
 5999 05e4 11       		.uleb128 0x11
 6000 05e5 B8000000 		.4byte	0xb8
 6001 05e9 05       		.uleb128 0x5
 6002 05ea 02090000 		.4byte	.LASF173
 6003 05ee 09       		.byte	0x9
 6004 05ef A311     		.2byte	0x11a3
 6005 05f1 93050000 		.4byte	0x593
 6006 05f5 0B       		.uleb128 0xb
 6007 05f6 08       		.byte	0x8
 6008 05f7 09       		.byte	0x9
 6009 05f8 7412     		.2byte	0x1274
 6010 05fa 19060000 		.4byte	0x619
 6011 05fe 0C       		.uleb128 0xc
 6012 05ff ED140000 		.4byte	.LASF174
 6013 0603 09       		.byte	0x9
 6014 0604 7612     		.2byte	0x1276
 6015 0606 E7000000 		.4byte	0xe7
 6016 060a 00       		.byte	0
 6017 060b 0C       		.uleb128 0xc
 6018 060c B5040000 		.4byte	.LASF175
 6019 0610 09       		.byte	0x9
 6020 0611 7712     		.2byte	0x1277
 6021 0613 E7000000 		.4byte	0xe7
 6022 0617 04       		.byte	0x4
 6023 0618 00       		.byte	0
 6024 0619 05       		.uleb128 0x5
 6025 061a 410C0000 		.4byte	.LASF176
 6026 061e 09       		.byte	0x9
 6027 061f 7812     		.2byte	0x1278
 6028 0621 F5050000 		.4byte	0x5f5
 6029 0625 12       		.uleb128 0x12
 6030 0626 A0       		.byte	0xa0
 6031 0627 0A       		.byte	0xa
 6032 0628 1F       		.byte	0x1f
 6033 0629 AE070000 		.4byte	0x7ae
 6034 062d 13       		.uleb128 0x13
 6035 062e 9D050000 		.4byte	.LASF177
 6036 0632 0A       		.byte	0xa
 6037 0633 22       		.byte	0x22
ARM GAS  C:\Users\13740\AppData\Local\Temp\cc6vMOIu.s 			page 149


 6038 0634 87050000 		.4byte	0x587
 6039 0638 00       		.byte	0
 6040 0639 13       		.uleb128 0x13
 6041 063a 1F1A0000 		.4byte	.LASF178
 6042 063e 0A       		.byte	0xa
 6043 063f 23       		.byte	0x23
 6044 0640 B8000000 		.4byte	0xb8
 6045 0644 04       		.byte	0x4
 6046 0645 13       		.uleb128 0x13
 6047 0646 8F080000 		.4byte	.LASF179
 6048 064a 0A       		.byte	0xa
 6049 064b 24       		.byte	0x24
 6050 064c B8000000 		.4byte	0xb8
 6051 0650 08       		.byte	0x8
 6052 0651 13       		.uleb128 0x13
 6053 0652 44120000 		.4byte	.LASF180
 6054 0656 0A       		.byte	0xa
 6055 0657 25       		.byte	0x25
 6056 0658 B8000000 		.4byte	0xb8
 6057 065c 0C       		.byte	0xc
 6058 065d 13       		.uleb128 0x13
 6059 065e 2E120000 		.4byte	.LASF181
 6060 0662 0A       		.byte	0xa
 6061 0663 26       		.byte	0x26
 6062 0664 B8000000 		.4byte	0xb8
 6063 0668 10       		.byte	0x10
 6064 0669 13       		.uleb128 0x13
 6065 066a 7F130000 		.4byte	.LASF182
 6066 066e 0A       		.byte	0xa
 6067 066f 29       		.byte	0x29
 6068 0670 87050000 		.4byte	0x587
 6069 0674 14       		.byte	0x14
 6070 0675 13       		.uleb128 0x13
 6071 0676 AA040000 		.4byte	.LASF183
 6072 067a 0A       		.byte	0xa
 6073 067b 2A       		.byte	0x2a
 6074 067c E7000000 		.4byte	0xe7
 6075 0680 18       		.byte	0x18
 6076 0681 13       		.uleb128 0x13
 6077 0682 F90D0000 		.4byte	.LASF184
 6078 0686 0A       		.byte	0xa
 6079 0687 2B       		.byte	0x2b
 6080 0688 E7000000 		.4byte	0xe7
 6081 068c 1C       		.byte	0x1c
 6082 068d 13       		.uleb128 0x13
 6083 068e 92040000 		.4byte	.LASF185
 6084 0692 0A       		.byte	0xa
 6085 0693 2C       		.byte	0x2c
 6086 0694 E7000000 		.4byte	0xe7
 6087 0698 20       		.byte	0x20
 6088 0699 13       		.uleb128 0x13
 6089 069a 990A0000 		.4byte	.LASF186
 6090 069e 0A       		.byte	0xa
 6091 069f 2D       		.byte	0x2d
 6092 06a0 B8000000 		.4byte	0xb8
 6093 06a4 24       		.byte	0x24
 6094 06a5 13       		.uleb128 0x13
ARM GAS  C:\Users\13740\AppData\Local\Temp\cc6vMOIu.s 			page 150


 6095 06a6 330E0000 		.4byte	.LASF187
 6096 06aa 0A       		.byte	0xa
 6097 06ab 2E       		.byte	0x2e
 6098 06ac E7000000 		.4byte	0xe7
 6099 06b0 28       		.byte	0x28
 6100 06b1 13       		.uleb128 0x13
 6101 06b2 0F090000 		.4byte	.LASF188
 6102 06b6 0A       		.byte	0xa
 6103 06b7 2F       		.byte	0x2f
 6104 06b8 AD000000 		.4byte	0xad
 6105 06bc 2C       		.byte	0x2c
 6106 06bd 13       		.uleb128 0x13
 6107 06be D5050000 		.4byte	.LASF189
 6108 06c2 0A       		.byte	0xa
 6109 06c3 30       		.byte	0x30
 6110 06c4 E7000000 		.4byte	0xe7
 6111 06c8 30       		.byte	0x30
 6112 06c9 13       		.uleb128 0x13
 6113 06ca 90140000 		.4byte	.LASF190
 6114 06ce 0A       		.byte	0xa
 6115 06cf 31       		.byte	0x31
 6116 06d0 E7000000 		.4byte	0xe7
 6117 06d4 34       		.byte	0x34
 6118 06d5 13       		.uleb128 0x13
 6119 06d6 F9030000 		.4byte	.LASF191
 6120 06da 0A       		.byte	0xa
 6121 06db 32       		.byte	0x32
 6122 06dc B8000000 		.4byte	0xb8
 6123 06e0 38       		.byte	0x38
 6124 06e1 13       		.uleb128 0x13
 6125 06e2 C8030000 		.4byte	.LASF192
 6126 06e6 0A       		.byte	0xa
 6127 06e7 33       		.byte	0x33
 6128 06e8 B8000000 		.4byte	0xb8
 6129 06ec 3C       		.byte	0x3c
 6130 06ed 13       		.uleb128 0x13
 6131 06ee 40050000 		.4byte	.LASF193
 6132 06f2 0A       		.byte	0xa
 6133 06f3 34       		.byte	0x34
 6134 06f4 97000000 		.4byte	0x97
 6135 06f8 40       		.byte	0x40
 6136 06f9 13       		.uleb128 0x13
 6137 06fa F9100000 		.4byte	.LASF194
 6138 06fe 0A       		.byte	0xa
 6139 06ff 35       		.byte	0x35
 6140 0700 97000000 		.4byte	0x97
 6141 0704 41       		.byte	0x41
 6142 0705 13       		.uleb128 0x13
 6143 0706 00040000 		.4byte	.LASF195
 6144 070a 0A       		.byte	0xa
 6145 070b 36       		.byte	0x36
 6146 070c B8000000 		.4byte	0xb8
 6147 0710 44       		.byte	0x44
 6148 0711 13       		.uleb128 0x13
 6149 0712 19090000 		.4byte	.LASF196
 6150 0716 0A       		.byte	0xa
 6151 0717 37       		.byte	0x37
ARM GAS  C:\Users\13740\AppData\Local\Temp\cc6vMOIu.s 			page 151


 6152 0718 B8000000 		.4byte	0xb8
 6153 071c 48       		.byte	0x48
 6154 071d 13       		.uleb128 0x13
 6155 071e B6070000 		.4byte	.LASF197
 6156 0722 0A       		.byte	0xa
 6157 0723 38       		.byte	0x38
 6158 0724 B8000000 		.4byte	0xb8
 6159 0728 4C       		.byte	0x4c
 6160 0729 13       		.uleb128 0x13
 6161 072a 74180000 		.4byte	.LASF198
 6162 072e 0A       		.byte	0xa
 6163 072f 39       		.byte	0x39
 6164 0730 B8000000 		.4byte	0xb8
 6165 0734 50       		.byte	0x50
 6166 0735 13       		.uleb128 0x13
 6167 0736 1D010000 		.4byte	.LASF199
 6168 073a 0A       		.byte	0xa
 6169 073b 3A       		.byte	0x3a
 6170 073c 19060000 		.4byte	0x619
 6171 0740 54       		.byte	0x54
 6172 0741 13       		.uleb128 0x13
 6173 0742 63000000 		.4byte	.LASF200
 6174 0746 0A       		.byte	0xa
 6175 0747 3B       		.byte	0x3b
 6176 0748 E7000000 		.4byte	0xe7
 6177 074c 5C       		.byte	0x5c
 6178 074d 13       		.uleb128 0x13
 6179 074e 11120000 		.4byte	.LASF201
 6180 0752 0A       		.byte	0xa
 6181 0753 3C       		.byte	0x3c
 6182 0754 E7000000 		.4byte	0xe7
 6183 0758 60       		.byte	0x60
 6184 0759 13       		.uleb128 0x13
 6185 075a 820C0000 		.4byte	.LASF202
 6186 075e 0A       		.byte	0xa
 6187 075f 3D       		.byte	0x3d
 6188 0760 87050000 		.4byte	0x587
 6189 0764 64       		.byte	0x64
 6190 0765 13       		.uleb128 0x13
 6191 0766 BA000000 		.4byte	.LASF203
 6192 076a 0A       		.byte	0xa
 6193 076b 3E       		.byte	0x3e
 6194 076c E7000000 		.4byte	0xe7
 6195 0770 68       		.byte	0x68
 6196 0771 13       		.uleb128 0x13
 6197 0772 150A0000 		.4byte	.LASF204
 6198 0776 0A       		.byte	0xa
 6199 0777 3F       		.byte	0x3f
 6200 0778 87050000 		.4byte	0x587
 6201 077c 6C       		.byte	0x6c
 6202 077d 13       		.uleb128 0x13
 6203 077e 5D030000 		.4byte	.LASF205
 6204 0782 0A       		.byte	0xa
 6205 0783 40       		.byte	0x40
 6206 0784 E9050000 		.4byte	0x5e9
 6207 0788 70       		.byte	0x70
 6208 0789 13       		.uleb128 0x13
ARM GAS  C:\Users\13740\AppData\Local\Temp\cc6vMOIu.s 			page 152


 6209 078a 83110000 		.4byte	.LASF206
 6210 078e 0A       		.byte	0xa
 6211 078f 41       		.byte	0x41
 6212 0790 E9050000 		.4byte	0x5e9
 6213 0794 84       		.byte	0x84
 6214 0795 13       		.uleb128 0x13
 6215 0796 0C040000 		.4byte	.LASF207
 6216 079a 0A       		.byte	0xa
 6217 079b 42       		.byte	0x42
 6218 079c 87050000 		.4byte	0x587
 6219 07a0 98       		.byte	0x98
 6220 07a1 13       		.uleb128 0x13
 6221 07a2 9C0D0000 		.4byte	.LASF208
 6222 07a6 0A       		.byte	0xa
 6223 07a7 43       		.byte	0x43
 6224 07a8 B8000000 		.4byte	0xb8
 6225 07ac 9C       		.byte	0x9c
 6226 07ad 00       		.byte	0
 6227 07ae 03       		.uleb128 0x3
 6228 07af 4E030000 		.4byte	.LASF209
 6229 07b3 0A       		.byte	0xa
 6230 07b4 45       		.byte	0x45
 6231 07b5 25060000 		.4byte	0x625
 6232 07b9 12       		.uleb128 0x12
 6233 07ba 08       		.byte	0x8
 6234 07bb 0A       		.byte	0xa
 6235 07bc 4A       		.byte	0x4a
 6236 07bd DA070000 		.4byte	0x7da
 6237 07c1 13       		.uleb128 0x13
 6238 07c2 48020000 		.4byte	.LASF210
 6239 07c6 0A       		.byte	0xa
 6240 07c7 4C       		.byte	0x4c
 6241 07c8 E7000000 		.4byte	0xe7
 6242 07cc 00       		.byte	0
 6243 07cd 13       		.uleb128 0x13
 6244 07ce 48060000 		.4byte	.LASF211
 6245 07d2 0A       		.byte	0xa
 6246 07d3 4D       		.byte	0x4d
 6247 07d4 E7000000 		.4byte	0xe7
 6248 07d8 04       		.byte	0x4
 6249 07d9 00       		.byte	0
 6250 07da 03       		.uleb128 0x3
 6251 07db 50060000 		.4byte	.LASF212
 6252 07df 0A       		.byte	0xa
 6253 07e0 4E       		.byte	0x4e
 6254 07e1 B9070000 		.4byte	0x7b9
 6255 07e5 12       		.uleb128 0x12
 6256 07e6 20       		.byte	0x20
 6257 07e7 01       		.byte	0x1
 6258 07e8 21       		.byte	0x21
 6259 07e9 4E080000 		.4byte	0x84e
 6260 07ed 13       		.uleb128 0x13
 6261 07ee 1F0A0000 		.4byte	.LASF213
 6262 07f2 01       		.byte	0x1
 6263 07f3 22       		.byte	0x22
 6264 07f4 E7000000 		.4byte	0xe7
 6265 07f8 00       		.byte	0
ARM GAS  C:\Users\13740\AppData\Local\Temp\cc6vMOIu.s 			page 153


 6266 07f9 13       		.uleb128 0x13
 6267 07fa 87080000 		.4byte	.LASF214
 6268 07fe 01       		.byte	0x1
 6269 07ff 23       		.byte	0x23
 6270 0800 E7000000 		.4byte	0xe7
 6271 0804 04       		.byte	0x4
 6272 0805 13       		.uleb128 0x13
 6273 0806 15010000 		.4byte	.LASF215
 6274 080a 01       		.byte	0x1
 6275 080b 24       		.byte	0x24
 6276 080c E7000000 		.4byte	0xe7
 6277 0810 08       		.byte	0x8
 6278 0811 13       		.uleb128 0x13
 6279 0812 440E0000 		.4byte	.LASF216
 6280 0816 01       		.byte	0x1
 6281 0817 25       		.byte	0x25
 6282 0818 E7000000 		.4byte	0xe7
 6283 081c 0C       		.byte	0xc
 6284 081d 13       		.uleb128 0x13
 6285 081e 43180000 		.4byte	.LASF217
 6286 0822 01       		.byte	0x1
 6287 0823 26       		.byte	0x26
 6288 0824 DB000000 		.4byte	0xdb
 6289 0828 10       		.byte	0x10
 6290 0829 13       		.uleb128 0x13
 6291 082a 4E0C0000 		.4byte	.LASF218
 6292 082e 01       		.byte	0x1
 6293 082f 29       		.byte	0x29
 6294 0830 E7000000 		.4byte	0xe7
 6295 0834 14       		.byte	0x14
 6296 0835 13       		.uleb128 0x13
 6297 0836 A0100000 		.4byte	.LASF219
 6298 083a 01       		.byte	0x1
 6299 083b 2A       		.byte	0x2a
 6300 083c E7000000 		.4byte	0xe7
 6301 0840 18       		.byte	0x18
 6302 0841 13       		.uleb128 0x13
 6303 0842 340D0000 		.4byte	.LASF220
 6304 0846 01       		.byte	0x1
 6305 0847 2B       		.byte	0x2b
 6306 0848 E7000000 		.4byte	0xe7
 6307 084c 1C       		.byte	0x1c
 6308 084d 00       		.byte	0
 6309 084e 03       		.uleb128 0x3
 6310 084f E5160000 		.4byte	.LASF221
 6311 0853 01       		.byte	0x1
 6312 0854 2C       		.byte	0x2c
 6313 0855 E5070000 		.4byte	0x7e5
 6314 0859 14       		.uleb128 0x14
 6315 085a 01       		.byte	0x1
 6316 085b 37000000 		.4byte	0x37
 6317 085f 01       		.byte	0x1
 6318 0860 31       		.byte	0x31
 6319 0861 7E080000 		.4byte	0x87e
 6320 0865 09       		.uleb128 0x9
 6321 0866 380F0000 		.4byte	.LASF222
 6322 086a 00       		.byte	0
ARM GAS  C:\Users\13740\AppData\Local\Temp\cc6vMOIu.s 			page 154


 6323 086b 09       		.uleb128 0x9
 6324 086c 11000000 		.4byte	.LASF223
 6325 0870 01       		.byte	0x1
 6326 0871 09       		.uleb128 0x9
 6327 0872 E80D0000 		.4byte	.LASF224
 6328 0876 02       		.byte	0x2
 6329 0877 09       		.uleb128 0x9
 6330 0878 7B160000 		.4byte	.LASF225
 6331 087c 03       		.byte	0x3
 6332 087d 00       		.byte	0
 6333 087e 03       		.uleb128 0x3
 6334 087f C70B0000 		.4byte	.LASF226
 6335 0883 01       		.byte	0x1
 6336 0884 36       		.byte	0x36
 6337 0885 59080000 		.4byte	0x859
 6338 0889 14       		.uleb128 0x14
 6339 088a 01       		.byte	0x1
 6340 088b 37000000 		.4byte	0x37
 6341 088f 01       		.byte	0x1
 6342 0890 5A       		.byte	0x5a
 6343 0891 D2080000 		.4byte	0x8d2
 6344 0895 09       		.uleb128 0x9
 6345 0896 E2170000 		.4byte	.LASF227
 6346 089a 00       		.byte	0
 6347 089b 09       		.uleb128 0x9
 6348 089c E90E0000 		.4byte	.LASF228
 6349 08a0 01       		.byte	0x1
 6350 08a1 09       		.uleb128 0x9
 6351 08a2 8F050000 		.4byte	.LASF229
 6352 08a6 02       		.byte	0x2
 6353 08a7 09       		.uleb128 0x9
 6354 08a8 EB180000 		.4byte	.LASF230
 6355 08ac 03       		.byte	0x3
 6356 08ad 09       		.uleb128 0x9
 6357 08ae CB060000 		.4byte	.LASF231
 6358 08b2 04       		.byte	0x4
 6359 08b3 09       		.uleb128 0x9
 6360 08b4 58100000 		.4byte	.LASF232
 6361 08b8 05       		.byte	0x5
 6362 08b9 09       		.uleb128 0x9
 6363 08ba 2C110000 		.4byte	.LASF233
 6364 08be 06       		.byte	0x6
 6365 08bf 09       		.uleb128 0x9
 6366 08c0 6E100000 		.4byte	.LASF234
 6367 08c4 07       		.byte	0x7
 6368 08c5 09       		.uleb128 0x9
 6369 08c6 3E190000 		.4byte	.LASF235
 6370 08ca 08       		.byte	0x8
 6371 08cb 09       		.uleb128 0x9
 6372 08cc 240B0000 		.4byte	.LASF236
 6373 08d0 09       		.byte	0x9
 6374 08d1 00       		.byte	0
 6375 08d2 03       		.uleb128 0x3
 6376 08d3 CC0D0000 		.4byte	.LASF237
 6377 08d7 01       		.byte	0x1
 6378 08d8 65       		.byte	0x65
 6379 08d9 89080000 		.4byte	0x889
ARM GAS  C:\Users\13740\AppData\Local\Temp\cc6vMOIu.s 			page 155


 6380 08dd 12       		.uleb128 0x12
 6381 08de 08       		.byte	0x8
 6382 08df 01       		.byte	0x1
 6383 08e0 6B       		.byte	0x6b
 6384 08e1 FE080000 		.4byte	0x8fe
 6385 08e5 13       		.uleb128 0x13
 6386 08e6 1C120000 		.4byte	.LASF238
 6387 08ea 01       		.byte	0x1
 6388 08eb 6C       		.byte	0x6c
 6389 08ec A2000000 		.4byte	0xa2
 6390 08f0 00       		.byte	0
 6391 08f1 13       		.uleb128 0x13
 6392 08f2 20060000 		.4byte	.LASF239
 6393 08f6 01       		.byte	0x1
 6394 08f7 6D       		.byte	0x6d
 6395 08f8 B8000000 		.4byte	0xb8
 6396 08fc 04       		.byte	0x4
 6397 08fd 00       		.byte	0
 6398 08fe 15       		.uleb128 0x15
 6399 08ff FA120000 		.4byte	.LASF245
 6400 0903 01       		.byte	0x1
 6401 0904 88       		.byte	0x88
 6402 0905 00000000 		.4byte	.LFB36
 6403 0909 24030000 		.4byte	.LFE36-.LFB36
 6404 090d 01       		.uleb128 0x1
 6405 090e 9C       		.byte	0x9c
 6406 090f 64090000 		.4byte	0x964
 6407 0913 16       		.uleb128 0x16
 6408 0914 C2030000 		.4byte	.LASF240
 6409 0918 01       		.byte	0x1
 6410 0919 8A       		.byte	0x8a
 6411 091a 61050000 		.4byte	0x561
 6412 091e 02       		.uleb128 0x2
 6413 091f 91       		.byte	0x91
 6414 0920 64       		.sleb128 -28
 6415 0921 16       		.uleb128 0x16
 6416 0922 8A0C0000 		.4byte	.LASF241
 6417 0926 01       		.byte	0x1
 6418 0927 B3       		.byte	0xb3
 6419 0928 B8000000 		.4byte	0xb8
 6420 092c 02       		.uleb128 0x2
 6421 092d 91       		.byte	0x91
 6422 092e 6C       		.sleb128 -20
 6423 092f 16       		.uleb128 0x16
 6424 0930 62040000 		.4byte	.LASF242
 6425 0934 01       		.byte	0x1
 6426 0935 B4       		.byte	0xb4
 6427 0936 B8000000 		.4byte	0xb8
 6428 093a 02       		.uleb128 0x2
 6429 093b 91       		.byte	0x91
 6430 093c 68       		.sleb128 -24
 6431 093d 16       		.uleb128 0x16
 6432 093e AA0D0000 		.4byte	.LASF243
 6433 0942 01       		.byte	0x1
 6434 0943 B5       		.byte	0xb5
 6435 0944 97000000 		.4byte	0x97
 6436 0948 02       		.uleb128 0x2
ARM GAS  C:\Users\13740\AppData\Local\Temp\cc6vMOIu.s 			page 156


 6437 0949 91       		.byte	0x91
 6438 094a 77       		.sleb128 -9
 6439 094b 17       		.uleb128 0x17
 6440 094c 84000000 		.4byte	.LBB2
 6441 0950 98000000 		.4byte	.LBE2-.LBB2
 6442 0954 16       		.uleb128 0x16
 6443 0955 F10C0000 		.4byte	.LASF244
 6444 0959 01       		.byte	0x1
 6445 095a B8       		.byte	0xb8
 6446 095b 89000000 		.4byte	0x89
 6447 095f 02       		.uleb128 0x2
 6448 0960 91       		.byte	0x91
 6449 0961 70       		.sleb128 -16
 6450 0962 00       		.byte	0
 6451 0963 00       		.byte	0
 6452 0964 18       		.uleb128 0x18
 6453 0965 35010000 		.4byte	.LASF274
 6454 0969 01       		.byte	0x1
 6455 096a 3701     		.2byte	0x137
 6456 096c 00000000 		.4byte	.LFB37
 6457 0970 E4000000 		.4byte	.LFE37-.LFB37
 6458 0974 01       		.uleb128 0x1
 6459 0975 9C       		.byte	0x9c
 6460 0976 19       		.uleb128 0x19
 6461 0977 1F110000 		.4byte	.LASF246
 6462 097b 01       		.byte	0x1
 6463 097c 4F01     		.2byte	0x14f
 6464 097e 00000000 		.4byte	.LFB38
 6465 0982 6C020000 		.4byte	.LFE38-.LFB38
 6466 0986 01       		.uleb128 0x1
 6467 0987 9C       		.byte	0x9c
 6468 0988 D8090000 		.4byte	0x9d8
 6469 098c 1A       		.uleb128 0x1a
 6470 098d 95020000 		.4byte	.LASF247
 6471 0991 01       		.byte	0x1
 6472 0992 5401     		.2byte	0x154
 6473 0994 B8000000 		.4byte	0xb8
 6474 0998 02       		.uleb128 0x2
 6475 0999 91       		.byte	0x91
 6476 099a 6C       		.sleb128 -20
 6477 099b 1A       		.uleb128 0x1a
 6478 099c DE140000 		.4byte	.LASF248
 6479 09a0 01       		.byte	0x1
 6480 09a1 5A01     		.2byte	0x15a
 6481 09a3 B8000000 		.4byte	0xb8
 6482 09a7 02       		.uleb128 0x2
 6483 09a8 91       		.byte	0x91
 6484 09a9 68       		.sleb128 -24
 6485 09aa 1A       		.uleb128 0x1a
 6486 09ab DC0B0000 		.4byte	.LASF249
 6487 09af 01       		.byte	0x1
 6488 09b0 6001     		.2byte	0x160
 6489 09b2 B8000000 		.4byte	0xb8
 6490 09b6 02       		.uleb128 0x2
 6491 09b7 91       		.byte	0x91
 6492 09b8 64       		.sleb128 -28
 6493 09b9 1A       		.uleb128 0x1a
ARM GAS  C:\Users\13740\AppData\Local\Temp\cc6vMOIu.s 			page 157


 6494 09ba A3040000 		.4byte	.LASF250
 6495 09be 01       		.byte	0x1
 6496 09bf 6601     		.2byte	0x166
 6497 09c1 B8000000 		.4byte	0xb8
 6498 09c5 02       		.uleb128 0x2
 6499 09c6 91       		.byte	0x91
 6500 09c7 60       		.sleb128 -32
 6501 09c8 1A       		.uleb128 0x1a
 6502 09c9 DE080000 		.4byte	.LASF251
 6503 09cd 01       		.byte	0x1
 6504 09ce 6A01     		.2byte	0x16a
 6505 09d0 B8000000 		.4byte	0xb8
 6506 09d4 02       		.uleb128 0x2
 6507 09d5 91       		.byte	0x91
 6508 09d6 5C       		.sleb128 -36
 6509 09d7 00       		.byte	0
 6510 09d8 19       		.uleb128 0x19
 6511 09d9 64180000 		.4byte	.LASF252
 6512 09dd 01       		.byte	0x1
 6513 09de 8901     		.2byte	0x189
 6514 09e0 00000000 		.4byte	.LFB39
 6515 09e4 9C000000 		.4byte	.LFE39-.LFB39
 6516 09e8 01       		.uleb128 0x1
 6517 09e9 9C       		.byte	0x9c
 6518 09ea 0D0A0000 		.4byte	0xa0d
 6519 09ee 1A       		.uleb128 0x1a
 6520 09ef 95020000 		.4byte	.LASF247
 6521 09f3 01       		.byte	0x1
 6522 09f4 8E01     		.2byte	0x18e
 6523 09f6 B8000000 		.4byte	0xb8
 6524 09fa 02       		.uleb128 0x2
 6525 09fb 91       		.byte	0x91
 6526 09fc 74       		.sleb128 -12
 6527 09fd 1A       		.uleb128 0x1a
 6528 09fe 81190000 		.4byte	.LASF253
 6529 0a02 01       		.byte	0x1
 6530 0a03 9801     		.2byte	0x198
 6531 0a05 B8000000 		.4byte	0xb8
 6532 0a09 02       		.uleb128 0x2
 6533 0a0a 91       		.byte	0x91
 6534 0a0b 70       		.sleb128 -16
 6535 0a0c 00       		.byte	0
 6536 0a0d 1B       		.uleb128 0x1b
 6537 0a0e 4E0E0000 		.4byte	.LASF256
 6538 0a12 01       		.byte	0x1
 6539 0a13 AE01     		.2byte	0x1ae
 6540 0a15 E7000000 		.4byte	0xe7
 6541 0a19 00000000 		.4byte	.LFB40
 6542 0a1d 7C000000 		.4byte	.LFE40-.LFB40
 6543 0a21 01       		.uleb128 0x1
 6544 0a22 9C       		.byte	0x9c
 6545 0a23 640A0000 		.4byte	0xa64
 6546 0a27 1C       		.uleb128 0x1c
 6547 0a28 A6190000 		.4byte	.LASF258
 6548 0a2c 01       		.byte	0x1
 6549 0a2d AE01     		.2byte	0x1ae
 6550 0a2f 7E080000 		.4byte	0x87e
ARM GAS  C:\Users\13740\AppData\Local\Temp\cc6vMOIu.s 			page 158


 6551 0a33 02       		.uleb128 0x2
 6552 0a34 91       		.byte	0x91
 6553 0a35 67       		.sleb128 -25
 6554 0a36 1A       		.uleb128 0x1a
 6555 0a37 D50A0000 		.4byte	.LASF254
 6556 0a3b 01       		.byte	0x1
 6557 0a3c B001     		.2byte	0x1b0
 6558 0a3e E7000000 		.4byte	0xe7
 6559 0a42 02       		.uleb128 0x2
 6560 0a43 91       		.byte	0x91
 6561 0a44 74       		.sleb128 -12
 6562 0a45 1A       		.uleb128 0x1a
 6563 0a46 DB160000 		.4byte	.LASF255
 6564 0a4a 01       		.byte	0x1
 6565 0a4b B101     		.2byte	0x1b1
 6566 0a4d B8000000 		.4byte	0xb8
 6567 0a51 02       		.uleb128 0x2
 6568 0a52 91       		.byte	0x91
 6569 0a53 6C       		.sleb128 -20
 6570 0a54 1A       		.uleb128 0x1a
 6571 0a55 C2030000 		.4byte	.LASF240
 6572 0a59 01       		.byte	0x1
 6573 0a5a B201     		.2byte	0x1b2
 6574 0a5c 61050000 		.4byte	0x561
 6575 0a60 02       		.uleb128 0x2
 6576 0a61 91       		.byte	0x91
 6577 0a62 70       		.sleb128 -16
 6578 0a63 00       		.byte	0
 6579 0a64 1B       		.uleb128 0x1b
 6580 0a65 EC170000 		.4byte	.LASF257
 6581 0a69 01       		.byte	0x1
 6582 0a6a DA01     		.2byte	0x1da
 6583 0a6c E7000000 		.4byte	0xe7
 6584 0a70 00000000 		.4byte	.LFB41
 6585 0a74 AC000000 		.4byte	.LFE41-.LFB41
 6586 0a78 01       		.uleb128 0x1
 6587 0a79 9C       		.byte	0x9c
 6588 0a7a AC0A0000 		.4byte	0xaac
 6589 0a7e 1C       		.uleb128 0x1c
 6590 0a7f 55190000 		.4byte	.LASF259
 6591 0a83 01       		.byte	0x1
 6592 0a84 DA01     		.2byte	0x1da
 6593 0a86 E7000000 		.4byte	0xe7
 6594 0a8a 02       		.uleb128 0x2
 6595 0a8b 91       		.byte	0x91
 6596 0a8c 64       		.sleb128 -28
 6597 0a8d 1C       		.uleb128 0x1c
 6598 0a8e A6190000 		.4byte	.LASF258
 6599 0a92 01       		.byte	0x1
 6600 0a93 DA01     		.2byte	0x1da
 6601 0a95 C3000000 		.4byte	0xc3
 6602 0a99 02       		.uleb128 0x2
 6603 0a9a 91       		.byte	0x91
 6604 0a9b 63       		.sleb128 -29
 6605 0a9c 1A       		.uleb128 0x1a
 6606 0a9d 330C0000 		.4byte	.LASF260
 6607 0aa1 01       		.byte	0x1
ARM GAS  C:\Users\13740\AppData\Local\Temp\cc6vMOIu.s 			page 159


 6608 0aa2 DC01     		.2byte	0x1dc
 6609 0aa4 E7000000 		.4byte	0xe7
 6610 0aa8 02       		.uleb128 0x2
 6611 0aa9 91       		.byte	0x91
 6612 0aaa 6C       		.sleb128 -20
 6613 0aab 00       		.byte	0
 6614 0aac 1D       		.uleb128 0x1d
 6615 0aad 8F180000 		.4byte	.LASF261
 6616 0ab1 01       		.byte	0x1
 6617 0ab2 FB01     		.2byte	0x1fb
 6618 0ab4 E7000000 		.4byte	0xe7
 6619 0ab8 00000000 		.4byte	.LFB42
 6620 0abc 20000000 		.4byte	.LFE42-.LFB42
 6621 0ac0 01       		.uleb128 0x1
 6622 0ac1 9C       		.byte	0x9c
 6623 0ac2 FA0A0000 		.4byte	0xafa
 6624 0ac6 1A       		.uleb128 0x1a
 6625 0ac7 1F0A0000 		.4byte	.LASF213
 6626 0acb 01       		.byte	0x1
 6627 0acc FD01     		.2byte	0x1fd
 6628 0ace E7000000 		.4byte	0xe7
 6629 0ad2 02       		.uleb128 0x2
 6630 0ad3 91       		.byte	0x91
 6631 0ad4 74       		.sleb128 -12
 6632 0ad5 1E       		.uleb128 0x1e
 6633 0ad6 2C1A0000 		.4byte	.LASF262
 6634 0ada 01       		.byte	0x1
 6635 0adb FE01     		.2byte	0x1fe
 6636 0add B8000000 		.4byte	0xb8
 6637 0ae1 1E       		.uleb128 0x1e
 6638 0ae2 AD020000 		.4byte	.LASF263
 6639 0ae6 01       		.byte	0x1
 6640 0ae7 FF01     		.2byte	0x1ff
 6641 0ae9 E7000000 		.4byte	0xe7
 6642 0aed 1E       		.uleb128 0x1e
 6643 0aee 4D180000 		.4byte	.LASF264
 6644 0af2 01       		.byte	0x1
 6645 0af3 FF01     		.2byte	0x1ff
 6646 0af5 E7000000 		.4byte	0xe7
 6647 0af9 00       		.byte	0
 6648 0afa 1B       		.uleb128 0x1b
 6649 0afb 2B0A0000 		.4byte	.LASF265
 6650 0aff 01       		.byte	0x1
 6651 0b00 2F02     		.2byte	0x22f
 6652 0b02 E7000000 		.4byte	0xe7
 6653 0b06 00000000 		.4byte	.LFB43
 6654 0b0a 4C010000 		.4byte	.LFE43-.LFB43
 6655 0b0e 01       		.uleb128 0x1
 6656 0b0f 9C       		.byte	0x9c
 6657 0b10 7C0B0000 		.4byte	0xb7c
 6658 0b14 1C       		.uleb128 0x1c
 6659 0b15 A6190000 		.4byte	.LASF258
 6660 0b19 01       		.byte	0x1
 6661 0b1a 2F02     		.2byte	0x22f
 6662 0b1c 7E080000 		.4byte	0x87e
 6663 0b20 02       		.uleb128 0x2
 6664 0b21 91       		.byte	0x91
ARM GAS  C:\Users\13740\AppData\Local\Temp\cc6vMOIu.s 			page 160


 6665 0b22 67       		.sleb128 -25
 6666 0b23 1A       		.uleb128 0x1a
 6667 0b24 55190000 		.4byte	.LASF259
 6668 0b28 01       		.byte	0x1
 6669 0b29 3102     		.2byte	0x231
 6670 0b2b E7000000 		.4byte	0xe7
 6671 0b2f 02       		.uleb128 0x2
 6672 0b30 91       		.byte	0x91
 6673 0b31 74       		.sleb128 -12
 6674 0b32 1A       		.uleb128 0x1a
 6675 0b33 DB160000 		.4byte	.LASF255
 6676 0b37 01       		.byte	0x1
 6677 0b38 3202     		.2byte	0x232
 6678 0b3a B8000000 		.4byte	0xb8
 6679 0b3e 02       		.uleb128 0x2
 6680 0b3f 91       		.byte	0x91
 6681 0b40 68       		.sleb128 -24
 6682 0b41 1A       		.uleb128 0x1a
 6683 0b42 C2030000 		.4byte	.LASF240
 6684 0b46 01       		.byte	0x1
 6685 0b47 3302     		.2byte	0x233
 6686 0b49 61050000 		.4byte	0x561
 6687 0b4d 02       		.uleb128 0x2
 6688 0b4e 91       		.byte	0x91
 6689 0b4f 70       		.sleb128 -16
 6690 0b50 1A       		.uleb128 0x1a
 6691 0b51 81000000 		.4byte	.LASF266
 6692 0b55 01       		.byte	0x1
 6693 0b56 3402     		.2byte	0x234
 6694 0b58 7C0B0000 		.4byte	0xb7c
 6695 0b5c 05       		.uleb128 0x5
 6696 0b5d 03       		.byte	0x3
 6697 0b5e 74000000 		.4byte	ampFifoBuffer.9615
 6698 0b62 17       		.uleb128 0x17
 6699 0b63 AC000000 		.4byte	.LBB3
 6700 0b67 14000000 		.4byte	.LBE3-.LBB3
 6701 0b6b 1A       		.uleb128 0x1a
 6702 0b6c 69030000 		.4byte	.LASF267
 6703 0b70 01       		.byte	0x1
 6704 0b71 6502     		.2byte	0x265
 6705 0b73 8C0B0000 		.4byte	0xb8c
 6706 0b77 02       		.uleb128 0x2
 6707 0b78 91       		.byte	0x91
 6708 0b79 6C       		.sleb128 -20
 6709 0b7a 00       		.byte	0
 6710 0b7b 00       		.byte	0
 6711 0b7c 0D       		.uleb128 0xd
 6712 0b7d B8000000 		.4byte	0xb8
 6713 0b81 8C0B0000 		.4byte	0xb8c
 6714 0b85 0E       		.uleb128 0xe
 6715 0b86 0D010000 		.4byte	0x10d
 6716 0b8a FF       		.byte	0xff
 6717 0b8b 00       		.byte	0
 6718 0b8c 0F       		.uleb128 0xf
 6719 0b8d 04       		.byte	0x4
 6720 0b8e E7000000 		.4byte	0xe7
 6721 0b92 1B       		.uleb128 0x1b
ARM GAS  C:\Users\13740\AppData\Local\Temp\cc6vMOIu.s 			page 161


 6722 0b93 B9140000 		.4byte	.LASF268
 6723 0b97 01       		.byte	0x1
 6724 0b98 A202     		.2byte	0x2a2
 6725 0b9a E7000000 		.4byte	0xe7
 6726 0b9e 00000000 		.4byte	.LFB44
 6727 0ba2 D4000000 		.4byte	.LFE44-.LFB44
 6728 0ba6 01       		.uleb128 0x1
 6729 0ba7 9C       		.byte	0x9c
 6730 0ba8 E30B0000 		.4byte	0xbe3
 6731 0bac 1C       		.uleb128 0x1c
 6732 0bad A6190000 		.4byte	.LASF258
 6733 0bb1 01       		.byte	0x1
 6734 0bb2 A202     		.2byte	0x2a2
 6735 0bb4 7E080000 		.4byte	0x87e
 6736 0bb8 02       		.uleb128 0x2
 6737 0bb9 91       		.byte	0x91
 6738 0bba 67       		.sleb128 -25
 6739 0bbb 1A       		.uleb128 0x1a
 6740 0bbc 55190000 		.4byte	.LASF259
 6741 0bc0 01       		.byte	0x1
 6742 0bc1 A402     		.2byte	0x2a4
 6743 0bc3 E7000000 		.4byte	0xe7
 6744 0bc7 02       		.uleb128 0x2
 6745 0bc8 91       		.byte	0x91
 6746 0bc9 6C       		.sleb128 -20
 6747 0bca 17       		.uleb128 0x17
 6748 0bcb 20000000 		.4byte	.LBB4
 6749 0bcf 9C000000 		.4byte	.LBE4-.LBB4
 6750 0bd3 1F       		.uleb128 0x1f
 6751 0bd4 69000000 		.4byte	.LASF347
 6752 0bd8 01       		.byte	0x1
 6753 0bd9 AB02     		.2byte	0x2ab
 6754 0bdb 89000000 		.4byte	0x89
 6755 0bdf 20       		.uleb128 0x20
 6756 0be0 00       		.byte	0
 6757 0be1 00       		.byte	0
 6758 0be2 00       		.byte	0
 6759 0be3 19       		.uleb128 0x19
 6760 0be4 FD0F0000 		.4byte	.LASF269
 6761 0be8 01       		.byte	0x1
 6762 0be9 C902     		.2byte	0x2c9
 6763 0beb 00000000 		.4byte	.LFB45
 6764 0bef 10010000 		.4byte	.LFE45-.LFB45
 6765 0bf3 01       		.uleb128 0x1
 6766 0bf4 9C       		.byte	0x9c
 6767 0bf5 090C0000 		.4byte	0xc09
 6768 0bf9 1A       		.uleb128 0x1a
 6769 0bfa 680D0000 		.4byte	.LASF270
 6770 0bfe 01       		.byte	0x1
 6771 0bff F002     		.2byte	0x2f0
 6772 0c01 E7000000 		.4byte	0xe7
 6773 0c05 02       		.uleb128 0x2
 6774 0c06 91       		.byte	0x91
 6775 0c07 6C       		.sleb128 -20
 6776 0c08 00       		.byte	0
 6777 0c09 19       		.uleb128 0x19
 6778 0c0a 830F0000 		.4byte	.LASF271
ARM GAS  C:\Users\13740\AppData\Local\Temp\cc6vMOIu.s 			page 162


 6779 0c0e 01       		.byte	0x1
 6780 0c0f 0003     		.2byte	0x300
 6781 0c11 00000000 		.4byte	.LFB46
 6782 0c15 2A000000 		.4byte	.LFE46-.LFB46
 6783 0c19 01       		.uleb128 0x1
 6784 0c1a 9C       		.byte	0x9c
 6785 0c1b 2F0C0000 		.4byte	0xc2f
 6786 0c1f 1C       		.uleb128 0x1c
 6787 0c20 BA060000 		.4byte	.LASF272
 6788 0c24 01       		.byte	0x1
 6789 0c25 0003     		.2byte	0x300
 6790 0c27 C3000000 		.4byte	0xc3
 6791 0c2b 02       		.uleb128 0x2
 6792 0c2c 91       		.byte	0x91
 6793 0c2d 77       		.sleb128 -9
 6794 0c2e 00       		.byte	0
 6795 0c2f 19       		.uleb128 0x19
 6796 0c30 8D0E0000 		.4byte	.LASF273
 6797 0c34 01       		.byte	0x1
 6798 0c35 1203     		.2byte	0x312
 6799 0c37 00000000 		.4byte	.LFB47
 6800 0c3b 2A000000 		.4byte	.LFE47-.LFB47
 6801 0c3f 01       		.uleb128 0x1
 6802 0c40 9C       		.byte	0x9c
 6803 0c41 550C0000 		.4byte	0xc55
 6804 0c45 1C       		.uleb128 0x1c
 6805 0c46 BA060000 		.4byte	.LASF272
 6806 0c4a 01       		.byte	0x1
 6807 0c4b 1203     		.2byte	0x312
 6808 0c4d C3000000 		.4byte	0xc3
 6809 0c51 02       		.uleb128 0x2
 6810 0c52 91       		.byte	0x91
 6811 0c53 77       		.sleb128 -9
 6812 0c54 00       		.byte	0
 6813 0c55 21       		.uleb128 0x21
 6814 0c56 AB090000 		.4byte	.LASF275
 6815 0c5a 01       		.byte	0x1
 6816 0c5b 3F03     		.2byte	0x33f
 6817 0c5d 00000000 		.4byte	.LFB48
 6818 0c61 0A000000 		.4byte	.LFE48-.LFB48
 6819 0c65 01       		.uleb128 0x1
 6820 0c66 9C       		.byte	0x9c
 6821 0c67 19       		.uleb128 0x19
 6822 0c68 4C040000 		.4byte	.LASF276
 6823 0c6c 01       		.byte	0x1
 6824 0c6d 4603     		.2byte	0x346
 6825 0c6f 00000000 		.4byte	.LFB49
 6826 0c73 F8000000 		.4byte	.LFE49-.LFB49
 6827 0c77 01       		.uleb128 0x1
 6828 0c78 9C       		.byte	0x9c
 6829 0c79 130D0000 		.4byte	0xd13
 6830 0c7d 1A       		.uleb128 0x1a
 6831 0c7e 6E000000 		.4byte	.LASF277
 6832 0c82 01       		.byte	0x1
 6833 0c83 4803     		.2byte	0x348
 6834 0c85 1E050000 		.4byte	0x51e
 6835 0c89 02       		.uleb128 0x2
ARM GAS  C:\Users\13740\AppData\Local\Temp\cc6vMOIu.s 			page 163


 6836 0c8a 91       		.byte	0x91
 6837 0c8b 5C       		.sleb128 -36
 6838 0c8c 1A       		.uleb128 0x1a
 6839 0c8d 93010000 		.4byte	.LASF278
 6840 0c91 01       		.byte	0x1
 6841 0c92 4903     		.2byte	0x349
 6842 0c94 130D0000 		.4byte	0xd13
 6843 0c98 05       		.uleb128 0x5
 6844 0c99 03       		.byte	0x3
 6845 0c9a 78040000 		.4byte	dataString.9649
 6846 0c9e 1A       		.uleb128 0x1a
 6847 0c9f 87140000 		.4byte	.LASF279
 6848 0ca3 01       		.byte	0x1
 6849 0ca4 4A03     		.2byte	0x34a
 6850 0ca6 C3000000 		.4byte	0xc3
 6851 0caa 05       		.uleb128 0x5
 6852 0cab 03       		.byte	0x3
 6853 0cac 74040000 		.4byte	diagStep.9650
 6854 0cb0 22       		.uleb128 0x22
 6855 0cb1 2A000000 		.4byte	.LBB5
 6856 0cb5 1A000000 		.4byte	.LBE5-.LBB5
 6857 0cb9 CD0C0000 		.4byte	0xccd
 6858 0cbd 1A       		.uleb128 0x1a
 6859 0cbe 8A0C0000 		.4byte	.LASF241
 6860 0cc2 01       		.byte	0x1
 6861 0cc3 5303     		.2byte	0x353
 6862 0cc5 B8000000 		.4byte	0xb8
 6863 0cc9 02       		.uleb128 0x2
 6864 0cca 91       		.byte	0x91
 6865 0ccb 74       		.sleb128 -12
 6866 0ccc 00       		.byte	0
 6867 0ccd 22       		.uleb128 0x22
 6868 0cce 46000000 		.4byte	.LBB6
 6869 0cd2 18000000 		.4byte	.LBE6-.LBB6
 6870 0cd6 EA0C0000 		.4byte	0xcea
 6871 0cda 1A       		.uleb128 0x1a
 6872 0cdb 62040000 		.4byte	.LASF242
 6873 0cdf 01       		.byte	0x1
 6874 0ce0 5C03     		.2byte	0x35c
 6875 0ce2 B8000000 		.4byte	0xb8
 6876 0ce6 02       		.uleb128 0x2
 6877 0ce7 91       		.byte	0x91
 6878 0ce8 70       		.sleb128 -16
 6879 0ce9 00       		.byte	0
 6880 0cea 17       		.uleb128 0x17
 6881 0ceb 60000000 		.4byte	.LBB7
 6882 0cef 26000000 		.4byte	.LBE7-.LBB7
 6883 0cf3 1A       		.uleb128 0x1a
 6884 0cf4 8A0C0000 		.4byte	.LASF241
 6885 0cf8 01       		.byte	0x1
 6886 0cf9 6503     		.2byte	0x365
 6887 0cfb B8000000 		.4byte	0xb8
 6888 0cff 02       		.uleb128 0x2
 6889 0d00 91       		.byte	0x91
 6890 0d01 6C       		.sleb128 -20
 6891 0d02 1A       		.uleb128 0x1a
 6892 0d03 62040000 		.4byte	.LASF242
ARM GAS  C:\Users\13740\AppData\Local\Temp\cc6vMOIu.s 			page 164


 6893 0d07 01       		.byte	0x1
 6894 0d08 6603     		.2byte	0x366
 6895 0d0a B8000000 		.4byte	0xb8
 6896 0d0e 02       		.uleb128 0x2
 6897 0d0f 91       		.byte	0x91
 6898 0d10 68       		.sleb128 -24
 6899 0d11 00       		.byte	0
 6900 0d12 00       		.byte	0
 6901 0d13 0D       		.uleb128 0xd
 6902 0d14 F5000000 		.4byte	0xf5
 6903 0d18 230D0000 		.4byte	0xd23
 6904 0d1c 0E       		.uleb128 0xe
 6905 0d1d 0D010000 		.4byte	0x10d
 6906 0d21 27       		.byte	0x27
 6907 0d22 00       		.byte	0
 6908 0d23 19       		.uleb128 0x19
 6909 0d24 2A050000 		.4byte	.LASF280
 6910 0d28 01       		.byte	0x1
 6911 0d29 9603     		.2byte	0x396
 6912 0d2b 00000000 		.4byte	.LFB50
 6913 0d2f 54010000 		.4byte	.LFE50-.LFB50
 6914 0d33 01       		.uleb128 0x1
 6915 0d34 9C       		.byte	0x9c
 6916 0d35 840D0000 		.4byte	0xd84
 6917 0d39 1A       		.uleb128 0x1a
 6918 0d3a 6E000000 		.4byte	.LASF277
 6919 0d3e 01       		.byte	0x1
 6920 0d3f 9803     		.2byte	0x398
 6921 0d41 1E050000 		.4byte	0x51e
 6922 0d45 02       		.uleb128 0x2
 6923 0d46 91       		.byte	0x91
 6924 0d47 60       		.sleb128 -32
 6925 0d48 1A       		.uleb128 0x1a
 6926 0d49 56080000 		.4byte	.LASF281
 6927 0d4d 01       		.byte	0x1
 6928 0d4e 9903     		.2byte	0x399
 6929 0d50 840D0000 		.4byte	0xd84
 6930 0d54 05       		.uleb128 0x5
 6931 0d55 03       		.byte	0x3
 6932 0d56 A4040000 		.4byte	tempString.9663
 6933 0d5a 1A       		.uleb128 0x1a
 6934 0d5b 25120000 		.4byte	.LASF282
 6935 0d5f 01       		.byte	0x1
 6936 0d60 9A03     		.2byte	0x39a
 6937 0d62 C3000000 		.4byte	0xc3
 6938 0d66 05       		.uleb128 0x5
 6939 0d67 03       		.byte	0x3
 6940 0d68 A0040000 		.4byte	testStep.9664
 6941 0d6c 17       		.uleb128 0x17
 6942 0d6d 94000000 		.4byte	.LBB8
 6943 0d71 2A000000 		.4byte	.LBE8-.LBB8
 6944 0d75 23       		.uleb128 0x23
 6945 0d76 6900     		.ascii	"i\000"
 6946 0d78 01       		.byte	0x1
 6947 0d79 B803     		.2byte	0x3b8
 6948 0d7b 89000000 		.4byte	0x89
 6949 0d7f 02       		.uleb128 0x2
ARM GAS  C:\Users\13740\AppData\Local\Temp\cc6vMOIu.s 			page 165


 6950 0d80 91       		.byte	0x91
 6951 0d81 6C       		.sleb128 -20
 6952 0d82 00       		.byte	0
 6953 0d83 00       		.byte	0
 6954 0d84 0D       		.uleb128 0xd
 6955 0d85 F5000000 		.4byte	0xf5
 6956 0d89 940D0000 		.4byte	0xd94
 6957 0d8d 0E       		.uleb128 0xe
 6958 0d8e 0D010000 		.4byte	0x10d
 6959 0d92 3B       		.byte	0x3b
 6960 0d93 00       		.byte	0
 6961 0d94 18       		.uleb128 0x18
 6962 0d95 AA050000 		.4byte	.LASF283
 6963 0d99 01       		.byte	0x1
 6964 0d9a DE03     		.2byte	0x3de
 6965 0d9c 00000000 		.4byte	.LFB51
 6966 0da0 34000000 		.4byte	.LFE51-.LFB51
 6967 0da4 01       		.uleb128 0x1
 6968 0da5 9C       		.byte	0x9c
 6969 0da6 19       		.uleb128 0x19
 6970 0da7 2C160000 		.4byte	.LASF284
 6971 0dab 01       		.byte	0x1
 6972 0dac F603     		.2byte	0x3f6
 6973 0dae 00000000 		.4byte	.LFB52
 6974 0db2 4C000000 		.4byte	.LFE52-.LFB52
 6975 0db6 01       		.uleb128 0x1
 6976 0db7 9C       		.byte	0x9c
 6977 0db8 CF0D0000 		.4byte	0xdcf
 6978 0dbc 23       		.uleb128 0x23
 6979 0dbd 6C656400 		.ascii	"led\000"
 6980 0dc1 01       		.byte	0x1
 6981 0dc2 F803     		.2byte	0x3f8
 6982 0dc4 C3000000 		.4byte	0xc3
 6983 0dc8 05       		.uleb128 0x5
 6984 0dc9 03       		.byte	0x3
 6985 0dca 00000000 		.4byte	led.9681
 6986 0dce 00       		.byte	0
 6987 0dcf 19       		.uleb128 0x19
 6988 0dd0 F40E0000 		.4byte	.LASF285
 6989 0dd4 01       		.byte	0x1
 6990 0dd5 0A04     		.2byte	0x40a
 6991 0dd7 00000000 		.4byte	.LFB53
 6992 0ddb 74000000 		.4byte	.LFE53-.LFB53
 6993 0ddf 01       		.uleb128 0x1
 6994 0de0 9C       		.byte	0x9c
 6995 0de1 0E0E0000 		.4byte	0xe0e
 6996 0de5 1C       		.uleb128 0x1c
 6997 0de6 4C050000 		.4byte	.LASF286
 6998 0dea 01       		.byte	0x1
 6999 0deb 0A04     		.2byte	0x40a
 7000 0ded DB000000 		.4byte	0xdb
 7001 0df1 02       		.uleb128 0x2
 7002 0df2 91       		.byte	0x91
 7003 0df3 74       		.sleb128 -12
 7004 0df4 1C       		.uleb128 0x1c
 7005 0df5 2A010000 		.4byte	.LASF287
 7006 0df9 01       		.byte	0x1
ARM GAS  C:\Users\13740\AppData\Local\Temp\cc6vMOIu.s 			page 166


 7007 0dfa 0A04     		.2byte	0x40a
 7008 0dfc 14010000 		.4byte	0x114
 7009 0e00 02       		.uleb128 0x2
 7010 0e01 91       		.byte	0x91
 7011 0e02 70       		.sleb128 -16
 7012 0e03 24       		.uleb128 0x24
 7013 0e04 6900     		.ascii	"i\000"
 7014 0e06 01       		.byte	0x1
 7015 0e07 0C04     		.2byte	0x40c
 7016 0e09 CF000000 		.4byte	0xcf
 7017 0e0d 00       		.byte	0
 7018 0e0e 25       		.uleb128 0x25
 7019 0e0f E00A0000 		.4byte	.LASF348
 7020 0e13 01       		.byte	0x1
 7021 0e14 3804     		.2byte	0x438
 7022 0e16 00000000 		.4byte	.LFB54
 7023 0e1a 74000000 		.4byte	.LFE54-.LFB54
 7024 0e1e 01       		.uleb128 0x1
 7025 0e1f 9C       		.byte	0x9c
 7026 0e20 430E0000 		.4byte	0xe43
 7027 0e24 1A       		.uleb128 0x1a
 7028 0e25 1C0B0000 		.4byte	.LASF288
 7029 0e29 01       		.byte	0x1
 7030 0e2a 3A04     		.2byte	0x43a
 7031 0e2c E5030000 		.4byte	0x3e5
 7032 0e30 02       		.uleb128 0x2
 7033 0e31 91       		.byte	0x91
 7034 0e32 6F       		.sleb128 -17
 7035 0e33 1A       		.uleb128 0x1a
 7036 0e34 C1090000 		.4byte	.LASF289
 7037 0e38 01       		.byte	0x1
 7038 0e39 3B04     		.2byte	0x43b
 7039 0e3b C3000000 		.4byte	0xc3
 7040 0e3f 02       		.uleb128 0x2
 7041 0e40 91       		.byte	0x91
 7042 0e41 6E       		.sleb128 -18
 7043 0e42 00       		.byte	0
 7044 0e43 18       		.uleb128 0x18
 7045 0e44 D1170000 		.4byte	.LASF290
 7046 0e48 01       		.byte	0x1
 7047 0e49 5704     		.2byte	0x457
 7048 0e4b 00000000 		.4byte	.LFB55
 7049 0e4f 22000000 		.4byte	.LFE55-.LFB55
 7050 0e53 01       		.uleb128 0x1
 7051 0e54 9C       		.byte	0x9c
 7052 0e55 26       		.uleb128 0x26
 7053 0e56 07150000 		.4byte	.LASF291
 7054 0e5a 01       		.byte	0x1
 7055 0e5b 6604     		.2byte	0x466
 7056 0e5d 89000000 		.4byte	0x89
 7057 0e61 00000000 		.4byte	.LFB56
 7058 0e65 740D0000 		.4byte	.LFE56-.LFB56
 7059 0e69 01       		.uleb128 0x1
 7060 0e6a 9C       		.byte	0x9c
 7061 0e6b 7A100000 		.4byte	0x107a
 7062 0e6f 27       		.uleb128 0x27
 7063 0e70 00000000 		.4byte	.Ldebug_ranges0+0
ARM GAS  C:\Users\13740\AppData\Local\Temp\cc6vMOIu.s 			page 167


 7064 0e74 970E0000 		.4byte	0xe97
 7065 0e78 1A       		.uleb128 0x1a
 7066 0e79 8A0C0000 		.4byte	.LASF241
 7067 0e7d 01       		.byte	0x1
 7068 0e7e 9B04     		.2byte	0x49b
 7069 0e80 B8000000 		.4byte	0xb8
 7070 0e84 02       		.uleb128 0x2
 7071 0e85 91       		.byte	0x91
 7072 0e86 64       		.sleb128 -28
 7073 0e87 1A       		.uleb128 0x1a
 7074 0e88 62040000 		.4byte	.LASF242
 7075 0e8c 01       		.byte	0x1
 7076 0e8d 9C04     		.2byte	0x49c
 7077 0e8f B8000000 		.4byte	0xb8
 7078 0e93 02       		.uleb128 0x2
 7079 0e94 91       		.byte	0x91
 7080 0e95 60       		.sleb128 -32
 7081 0e96 00       		.byte	0
 7082 0e97 22       		.uleb128 0x22
 7083 0e98 FC010000 		.4byte	.LBB11
 7084 0e9c B6000000 		.4byte	.LBE11-.LBB11
 7085 0ea0 DC0E0000 		.4byte	0xedc
 7086 0ea4 1A       		.uleb128 0x1a
 7087 0ea5 2A0D0000 		.4byte	.LASF292
 7088 0ea9 01       		.byte	0x1
 7089 0eaa E704     		.2byte	0x4e7
 7090 0eac B8000000 		.4byte	0xb8
 7091 0eb0 02       		.uleb128 0x2
 7092 0eb1 91       		.byte	0x91
 7093 0eb2 5C       		.sleb128 -36
 7094 0eb3 1A       		.uleb128 0x1a
 7095 0eb4 440D0000 		.4byte	.LASF293
 7096 0eb8 01       		.byte	0x1
 7097 0eb9 E804     		.2byte	0x4e8
 7098 0ebb B8000000 		.4byte	0xb8
 7099 0ebf 02       		.uleb128 0x2
 7100 0ec0 91       		.byte	0x91
 7101 0ec1 58       		.sleb128 -40
 7102 0ec2 17       		.uleb128 0x17
 7103 0ec3 48020000 		.4byte	.LBB12
 7104 0ec7 4E000000 		.4byte	.LBE12-.LBB12
 7105 0ecb 1A       		.uleb128 0x1a
 7106 0ecc 13150000 		.4byte	.LASF294
 7107 0ed0 01       		.byte	0x1
 7108 0ed1 FB04     		.2byte	0x4fb
 7109 0ed3 B8000000 		.4byte	0xb8
 7110 0ed7 02       		.uleb128 0x2
 7111 0ed8 91       		.byte	0x91
 7112 0ed9 54       		.sleb128 -44
 7113 0eda 00       		.byte	0
 7114 0edb 00       		.byte	0
 7115 0edc 22       		.uleb128 0x22
 7116 0edd B8030000 		.4byte	.LBB13
 7117 0ee1 44050000 		.4byte	.LBE13-.LBB13
 7118 0ee5 930F0000 		.4byte	0xf93
 7119 0ee9 1A       		.uleb128 0x1a
 7120 0eea DE080000 		.4byte	.LASF251
ARM GAS  C:\Users\13740\AppData\Local\Temp\cc6vMOIu.s 			page 168


 7121 0eee 01       		.byte	0x1
 7122 0eef 4305     		.2byte	0x543
 7123 0ef1 B8000000 		.4byte	0xb8
 7124 0ef5 02       		.uleb128 0x2
 7125 0ef6 91       		.byte	0x91
 7126 0ef7 50       		.sleb128 -48
 7127 0ef8 1A       		.uleb128 0x1a
 7128 0ef9 4F080000 		.4byte	.LASF295
 7129 0efd 01       		.byte	0x1
 7130 0efe 5E05     		.2byte	0x55e
 7131 0f00 B8000000 		.4byte	0xb8
 7132 0f04 02       		.uleb128 0x2
 7133 0f05 91       		.byte	0x91
 7134 0f06 4C       		.sleb128 -52
 7135 0f07 1A       		.uleb128 0x1a
 7136 0f08 3A0E0000 		.4byte	.LASF296
 7137 0f0c 01       		.byte	0x1
 7138 0f0d 6505     		.2byte	0x565
 7139 0f0f B8000000 		.4byte	0xb8
 7140 0f13 02       		.uleb128 0x2
 7141 0f14 91       		.byte	0x91
 7142 0f15 48       		.sleb128 -56
 7143 0f16 1A       		.uleb128 0x1a
 7144 0f17 95020000 		.4byte	.LASF247
 7145 0f1b 01       		.byte	0x1
 7146 0f1c 7705     		.2byte	0x577
 7147 0f1e B8000000 		.4byte	0xb8
 7148 0f22 02       		.uleb128 0x2
 7149 0f23 91       		.byte	0x91
 7150 0f24 44       		.sleb128 -60
 7151 0f25 1A       		.uleb128 0x1a
 7152 0f26 DC0B0000 		.4byte	.LASF249
 7153 0f2a 01       		.byte	0x1
 7154 0f2b 8D05     		.2byte	0x58d
 7155 0f2d B8000000 		.4byte	0xb8
 7156 0f31 02       		.uleb128 0x2
 7157 0f32 91       		.byte	0x91
 7158 0f33 6C       		.sleb128 -20
 7159 0f34 1A       		.uleb128 0x1a
 7160 0f35 DE140000 		.4byte	.LASF248
 7161 0f39 01       		.byte	0x1
 7162 0f3a AA05     		.2byte	0x5aa
 7163 0f3c B8000000 		.4byte	0xb8
 7164 0f40 02       		.uleb128 0x2
 7165 0f41 91       		.byte	0x91
 7166 0f42 40       		.sleb128 -64
 7167 0f43 1A       		.uleb128 0x1a
 7168 0f44 A3040000 		.4byte	.LASF250
 7169 0f48 01       		.byte	0x1
 7170 0f49 AC05     		.2byte	0x5ac
 7171 0f4b B8000000 		.4byte	0xb8
 7172 0f4f 02       		.uleb128 0x2
 7173 0f50 91       		.byte	0x91
 7174 0f51 68       		.sleb128 -24
 7175 0f52 1A       		.uleb128 0x1a
 7176 0f53 E6140000 		.4byte	.LASF297
 7177 0f57 01       		.byte	0x1
ARM GAS  C:\Users\13740\AppData\Local\Temp\cc6vMOIu.s 			page 169


 7178 0f58 AD05     		.2byte	0x5ad
 7179 0f5a B8000000 		.4byte	0xb8
 7180 0f5e 03       		.uleb128 0x3
 7181 0f5f 91       		.byte	0x91
 7182 0f60 BC7F     		.sleb128 -68
 7183 0f62 1A       		.uleb128 0x1a
 7184 0f63 8A0B0000 		.4byte	.LASF298
 7185 0f67 01       		.byte	0x1
 7186 0f68 AE05     		.2byte	0x5ae
 7187 0f6a B8000000 		.4byte	0xb8
 7188 0f6e 03       		.uleb128 0x3
 7189 0f6f 91       		.byte	0x91
 7190 0f70 B87F     		.sleb128 -72
 7191 0f72 1A       		.uleb128 0x1a
 7192 0f73 1A100000 		.4byte	.LASF299
 7193 0f77 01       		.byte	0x1
 7194 0f78 AF05     		.2byte	0x5af
 7195 0f7a B8000000 		.4byte	0xb8
 7196 0f7e 03       		.uleb128 0x3
 7197 0f7f 91       		.byte	0x91
 7198 0f80 B47F     		.sleb128 -76
 7199 0f82 1A       		.uleb128 0x1a
 7200 0f83 C6070000 		.4byte	.LASF300
 7201 0f87 01       		.byte	0x1
 7202 0f88 D305     		.2byte	0x5d3
 7203 0f8a B8000000 		.4byte	0xb8
 7204 0f8e 03       		.uleb128 0x3
 7205 0f8f 91       		.byte	0x91
 7206 0f90 B07F     		.sleb128 -80
 7207 0f92 00       		.byte	0
 7208 0f93 22       		.uleb128 0x22
 7209 0f94 1A090000 		.4byte	.LBB14
 7210 0f98 DE000000 		.4byte	.LBE14-.LBB14
 7211 0f9c 3B100000 		.4byte	0x103b
 7212 0fa0 1A       		.uleb128 0x1a
 7213 0fa1 88190000 		.4byte	.LASF301
 7214 0fa5 01       		.byte	0x1
 7215 0fa6 1C06     		.2byte	0x61c
 7216 0fa8 B8000000 		.4byte	0xb8
 7217 0fac 03       		.uleb128 0x3
 7218 0fad 91       		.byte	0x91
 7219 0fae AC7F     		.sleb128 -84
 7220 0fb0 17       		.uleb128 0x17
 7221 0fb1 3C090000 		.4byte	.LBB15
 7222 0fb5 BC000000 		.4byte	.LBE15-.LBB15
 7223 0fb9 1A       		.uleb128 0x1a
 7224 0fba C1060000 		.4byte	.LASF302
 7225 0fbe 01       		.byte	0x1
 7226 0fbf 2206     		.2byte	0x622
 7227 0fc1 B8000000 		.4byte	0xb8
 7228 0fc5 03       		.uleb128 0x3
 7229 0fc6 91       		.byte	0x91
 7230 0fc7 A87F     		.sleb128 -88
 7231 0fc9 1A       		.uleb128 0x1a
 7232 0fca 17060000 		.4byte	.LASF303
 7233 0fce 01       		.byte	0x1
 7234 0fcf 2306     		.2byte	0x623
ARM GAS  C:\Users\13740\AppData\Local\Temp\cc6vMOIu.s 			page 170


 7235 0fd1 B8000000 		.4byte	0xb8
 7236 0fd5 03       		.uleb128 0x3
 7237 0fd6 91       		.byte	0x91
 7238 0fd7 A47F     		.sleb128 -92
 7239 0fd9 1A       		.uleb128 0x1a
 7240 0fda 6E050000 		.4byte	.LASF304
 7241 0fde 01       		.byte	0x1
 7242 0fdf 2606     		.2byte	0x626
 7243 0fe1 E7000000 		.4byte	0xe7
 7244 0fe5 03       		.uleb128 0x3
 7245 0fe6 91       		.byte	0x91
 7246 0fe7 A07F     		.sleb128 -96
 7247 0fe9 1A       		.uleb128 0x1a
 7248 0fea D80C0000 		.4byte	.LASF305
 7249 0fee 01       		.byte	0x1
 7250 0fef 2706     		.2byte	0x627
 7251 0ff1 E7000000 		.4byte	0xe7
 7252 0ff5 03       		.uleb128 0x3
 7253 0ff6 91       		.byte	0x91
 7254 0ff7 9C7F     		.sleb128 -100
 7255 0ff9 1A       		.uleb128 0x1a
 7256 0ffa A6000000 		.4byte	.LASF306
 7257 0ffe 01       		.byte	0x1
 7258 0fff 2806     		.2byte	0x628
 7259 1001 E7000000 		.4byte	0xe7
 7260 1005 03       		.uleb128 0x3
 7261 1006 91       		.byte	0x91
 7262 1007 987F     		.sleb128 -104
 7263 1009 1A       		.uleb128 0x1a
 7264 100a EE100000 		.4byte	.LASF307
 7265 100e 01       		.byte	0x1
 7266 100f 2A06     		.2byte	0x62a
 7267 1011 AD000000 		.4byte	0xad
 7268 1015 03       		.uleb128 0x3
 7269 1016 91       		.byte	0x91
 7270 1017 947F     		.sleb128 -108
 7271 1019 1A       		.uleb128 0x1a
 7272 101a 92110000 		.4byte	.LASF308
 7273 101e 01       		.byte	0x1
 7274 101f 2E06     		.2byte	0x62e
 7275 1021 E7000000 		.4byte	0xe7
 7276 1025 03       		.uleb128 0x3
 7277 1026 91       		.byte	0x91
 7278 1027 907F     		.sleb128 -112
 7279 1029 1A       		.uleb128 0x1a
 7280 102a 55190000 		.4byte	.LASF259
 7281 102e 01       		.byte	0x1
 7282 102f 2F06     		.2byte	0x62f
 7283 1031 E7000000 		.4byte	0xe7
 7284 1035 03       		.uleb128 0x3
 7285 1036 91       		.byte	0x91
 7286 1037 8C7F     		.sleb128 -116
 7287 1039 00       		.byte	0
 7288 103a 00       		.byte	0
 7289 103b 17       		.uleb128 0x17
 7290 103c 020A0000 		.4byte	.LBB16
 7291 1040 38030000 		.4byte	.LBE16-.LBB16
ARM GAS  C:\Users\13740\AppData\Local\Temp\cc6vMOIu.s 			page 171


 7292 1044 1A       		.uleb128 0x1a
 7293 1045 6E000000 		.4byte	.LASF277
 7294 1049 01       		.byte	0x1
 7295 104a 3D06     		.2byte	0x63d
 7296 104c 1E050000 		.4byte	0x51e
 7297 1050 03       		.uleb128 0x3
 7298 1051 91       		.byte	0x91
 7299 1052 807F     		.sleb128 -128
 7300 1054 1A       		.uleb128 0x1a
 7301 1055 D3130000 		.4byte	.LASF309
 7302 1059 01       		.byte	0x1
 7303 105a 3E06     		.2byte	0x63e
 7304 105c 130D0000 		.4byte	0xd13
 7305 1060 05       		.uleb128 0x5
 7306 1061 03       		.byte	0x3
 7307 1062 E0040000 		.4byte	testString.9741
 7308 1066 1A       		.uleb128 0x1a
 7309 1067 68010000 		.4byte	.LASF310
 7310 106b 01       		.byte	0x1
 7311 106c 3F06     		.2byte	0x63f
 7312 106e 97000000 		.4byte	0x97
 7313 1072 05       		.uleb128 0x5
 7314 1073 03       		.byte	0x3
 7315 1074 08050000 		.4byte	display_step.9742
 7316 1078 00       		.byte	0
 7317 1079 00       		.byte	0
 7318 107a 19       		.uleb128 0x19
 7319 107b 0F170000 		.4byte	.LASF311
 7320 107f 01       		.byte	0x1
 7321 1080 C706     		.2byte	0x6c7
 7322 1082 00000000 		.4byte	.LFB57
 7323 1086 A4000000 		.4byte	.LFE57-.LFB57
 7324 108a 01       		.uleb128 0x1
 7325 108b 9C       		.byte	0x9c
 7326 108c AD100000 		.4byte	0x10ad
 7327 1090 23       		.uleb128 0x23
 7328 1091 6900     		.ascii	"i\000"
 7329 1093 01       		.byte	0x1
 7330 1094 C906     		.2byte	0x6c9
 7331 1096 CF000000 		.4byte	0xcf
 7332 109a 02       		.uleb128 0x2
 7333 109b 91       		.byte	0x91
 7334 109c 76       		.sleb128 -10
 7335 109d 1A       		.uleb128 0x1a
 7336 109e DD0C0000 		.4byte	.LASF312
 7337 10a2 01       		.byte	0x1
 7338 10a3 CA06     		.2byte	0x6ca
 7339 10a5 63040000 		.4byte	0x463
 7340 10a9 02       		.uleb128 0x2
 7341 10aa 91       		.byte	0x91
 7342 10ab 6C       		.sleb128 -20
 7343 10ac 00       		.byte	0
 7344 10ad 16       		.uleb128 0x16
 7345 10ae 39170000 		.4byte	.LASF313
 7346 10b2 01       		.byte	0x1
 7347 10b3 44       		.byte	0x44
 7348 10b4 B8000000 		.4byte	0xb8
ARM GAS  C:\Users\13740\AppData\Local\Temp\cc6vMOIu.s 			page 172


 7349 10b8 05       		.uleb128 0x5
 7350 10b9 03       		.byte	0x3
 7351 10ba 34000000 		.4byte	g_test_adiid
 7352 10be 16       		.uleb128 0x16
 7353 10bf EF050000 		.4byte	.LASF314
 7354 10c3 01       		.byte	0x1
 7355 10c4 45       		.byte	0x45
 7356 10c5 B8000000 		.4byte	0xb8
 7357 10c9 05       		.uleb128 0x5
 7358 10ca 03       		.byte	0x3
 7359 10cb 38000000 		.4byte	g_test_chipid
 7360 10cf 16       		.uleb128 0x16
 7361 10d0 F7110000 		.4byte	.LASF315
 7362 10d4 01       		.byte	0x1
 7363 10d5 46       		.byte	0x46
 7364 10d6 B8000000 		.4byte	0xb8
 7365 10da 05       		.uleb128 0x5
 7366 10db 03       		.byte	0x3
 7367 10dc 3C000000 		.4byte	g_test_reg_0908
 7368 10e0 16       		.uleb128 0x16
 7369 10e1 23100000 		.4byte	.LASF316
 7370 10e5 01       		.byte	0x1
 7371 10e6 47       		.byte	0x47
 7372 10e7 B8000000 		.4byte	0xb8
 7373 10eb 05       		.uleb128 0x5
 7374 10ec 03       		.byte	0x3
 7375 10ed 40000000 		.4byte	g_test_afecon
 7376 10f1 16       		.uleb128 0x16
 7377 10f2 B7080000 		.4byte	.LASF317
 7378 10f6 01       		.byte	0x1
 7379 10f7 48       		.byte	0x48
 7380 10f8 B8000000 		.4byte	0xb8
 7381 10fc 05       		.uleb128 0x5
 7382 10fd 03       		.byte	0x3
 7383 10fe 44000000 		.4byte	g_test_fifocon
 7384 1102 16       		.uleb128 0x16
 7385 1103 DD050000 		.4byte	.LASF318
 7386 1107 01       		.byte	0x1
 7387 1108 49       		.byte	0x49
 7388 1109 A2000000 		.4byte	0xa2
 7389 110d 05       		.uleb128 0x5
 7390 110e 03       		.byte	0x3
 7391 110f 48000000 		.4byte	g_test_fifo_count
 7392 1113 16       		.uleb128 0x16
 7393 1114 3C160000 		.4byte	.LASF319
 7394 1118 01       		.byte	0x1
 7395 1119 4A       		.byte	0x4a
 7396 111a 97000000 		.4byte	0x97
 7397 111e 05       		.uleb128 0x5
 7398 111f 03       		.byte	0x3
 7399 1120 4A000000 		.4byte	g_test_done
 7400 1124 16       		.uleb128 0x16
 7401 1125 1D070000 		.4byte	.LASF320
 7402 1129 01       		.byte	0x1
 7403 112a 4D       		.byte	0x4d
 7404 112b B8000000 		.4byte	0xb8
 7405 112f 05       		.uleb128 0x5
ARM GAS  C:\Users\13740\AppData\Local\Temp\cc6vMOIu.s 			page 173


 7406 1130 03       		.byte	0x3
 7407 1131 4C000000 		.4byte	g_fifocon_measure
 7408 1135 16       		.uleb128 0x16
 7409 1136 E5110000 		.4byte	.LASF321
 7410 113a 01       		.byte	0x1
 7411 113b 4E       		.byte	0x4e
 7412 113c B8000000 		.4byte	0xb8
 7413 1140 05       		.uleb128 0x5
 7414 1141 03       		.byte	0x3
 7415 1142 50000000 		.4byte	g_fifosta_measure
 7416 1146 16       		.uleb128 0x16
 7417 1147 58130000 		.4byte	.LASF322
 7418 114b 01       		.byte	0x1
 7419 114c 4F       		.byte	0x4f
 7420 114d B8000000 		.4byte	0xb8
 7421 1151 05       		.uleb128 0x5
 7422 1152 03       		.byte	0x3
 7423 1153 54000000 		.4byte	g_afecon_measure
 7424 1157 16       		.uleb128 0x16
 7425 1158 08070000 		.4byte	.LASF323
 7426 115c 01       		.byte	0x1
 7427 115d 50       		.byte	0x50
 7428 115e B8000000 		.4byte	0xb8
 7429 1162 05       		.uleb128 0x5
 7430 1163 03       		.byte	0x3
 7431 1164 58000000 		.4byte	g_fifo_count_measure
 7432 1168 16       		.uleb128 0x16
 7433 1169 B7190000 		.4byte	.LASF324
 7434 116d 01       		.byte	0x1
 7435 116e 51       		.byte	0x51
 7436 116f B8000000 		.4byte	0xb8
 7437 1173 05       		.uleb128 0x5
 7438 1174 03       		.byte	0x3
 7439 1175 5C000000 		.4byte	g_fifo_first_data
 7440 1179 16       		.uleb128 0x16
 7441 117a 700F0000 		.4byte	.LASF325
 7442 117e 01       		.byte	0x1
 7443 117f 54       		.byte	0x54
 7444 1180 B8000000 		.4byte	0xb8
 7445 1184 05       		.uleb128 0x5
 7446 1185 03       		.byte	0x3
 7447 1186 60000000 		.4byte	g_lptiacon_measure
 7448 118a 16       		.uleb128 0x16
 7449 118b 00000000 		.4byte	.LASF326
 7450 118f 01       		.byte	0x1
 7451 1190 55       		.byte	0x55
 7452 1191 B8000000 		.4byte	0xb8
 7453 1195 05       		.uleb128 0x5
 7454 1196 03       		.byte	0x3
 7455 1197 64000000 		.4byte	g_adccon_measure
 7456 119b 16       		.uleb128 0x16
 7457 119c E2040000 		.4byte	.LASF327
 7458 11a0 01       		.byte	0x1
 7459 11a1 56       		.byte	0x56
 7460 11a2 B8000000 		.4byte	0xb8
 7461 11a6 05       		.uleb128 0x5
 7462 11a7 03       		.byte	0x3
ARM GAS  C:\Users\13740\AppData\Local\Temp\cc6vMOIu.s 			page 174


 7463 11a8 68000000 		.4byte	g_seqcon_measure
 7464 11ac 16       		.uleb128 0x16
 7465 11ad B1160000 		.4byte	.LASF328
 7466 11b1 01       		.byte	0x1
 7467 11b2 57       		.byte	0x57
 7468 11b3 B8000000 		.4byte	0xb8
 7469 11b7 05       		.uleb128 0x5
 7470 11b8 03       		.byte	0x3
 7471 11b9 6C000000 		.4byte	g_seqsta_measure
 7472 11bd 16       		.uleb128 0x16
 7473 11be 080A0000 		.4byte	.LASF329
 7474 11c2 01       		.byte	0x1
 7475 11c3 67       		.byte	0x67
 7476 11c4 D2080000 		.4byte	0x8d2
 7477 11c8 05       		.uleb128 0x5
 7478 11c9 03       		.byte	0x3
 7479 11ca 70000000 		.4byte	g_init_state
 7480 11ce 16       		.uleb128 0x16
 7481 11cf ED030000 		.4byte	.LASF330
 7482 11d3 01       		.byte	0x1
 7483 11d4 68       		.byte	0x68
 7484 11d5 97000000 		.4byte	0x97
 7485 11d9 05       		.uleb128 0x5
 7486 11da 03       		.byte	0x3
 7487 11db 71000000 		.4byte	g_reg_index
 7488 11df 28       		.uleb128 0x28
 7489 11e0 900C0000 		.4byte	.LASF331
 7490 11e4 0B       		.byte	0xb
 7491 11e5 C202     		.2byte	0x2c2
 7492 11e7 C3000000 		.4byte	0xc3
 7493 11eb 28       		.uleb128 0x28
 7494 11ec 6D070000 		.4byte	.LASF332
 7495 11f0 08       		.byte	0x8
 7496 11f1 A90A     		.2byte	0xaa9
 7497 11f3 55050000 		.4byte	0x555
 7498 11f7 28       		.uleb128 0x28
 7499 11f8 5D060000 		.4byte	.LASF333
 7500 11fc 08       		.byte	0x8
 7501 11fd AA0A     		.2byte	0xaaa
 7502 11ff A5040000 		.4byte	0x4a5
 7503 1203 29       		.uleb128 0x29
 7504 1204 E70C0000 		.4byte	.LASF334
 7505 1208 01       		.byte	0x1
 7506 1209 1E       		.byte	0x1e
 7507 120a AD030000 		.4byte	0x3ad
 7508 120e 05       		.uleb128 0x5
 7509 120f 03       		.byte	0x3
 7510 1210 00000000 		.4byte	apiResult
 7511 1214 29       		.uleb128 0x29
 7512 1215 19040000 		.4byte	.LASF335
 7513 1219 01       		.byte	0x1
 7514 121a 1C       		.byte	0x1c
 7515 121b 01010000 		.4byte	0x101
 7516 121f 05       		.uleb128 0x5
 7517 1220 03       		.byte	0x3
 7518 1221 00000000 		.4byte	mainTimer
 7519 1225 29       		.uleb128 0x29
ARM GAS  C:\Users\13740\AppData\Local\Temp\cc6vMOIu.s 			page 175


 7520 1226 E7080000 		.4byte	.LASF336
 7521 122a 01       		.byte	0x1
 7522 122b 1D       		.byte	0x1d
 7523 122c FC000000 		.4byte	0xfc
 7524 1230 05       		.uleb128 0x5
 7525 1231 03       		.byte	0x3
 7526 1232 00000000 		.4byte	measurementFlag
 7527 1236 0D       		.uleb128 0xd
 7528 1237 97000000 		.4byte	0x97
 7529 123b 46120000 		.4byte	0x1246
 7530 123f 0E       		.uleb128 0xe
 7531 1240 0D010000 		.4byte	0x10d
 7532 1244 07       		.byte	0x7
 7533 1245 00       		.byte	0
 7534 1246 29       		.uleb128 0x29
 7535 1247 F7140000 		.4byte	.LASF337
 7536 124b 01       		.byte	0x1
 7537 124c 13       		.byte	0x13
 7538 124d 36120000 		.4byte	0x1236
 7539 1251 05       		.uleb128 0x5
 7540 1252 03       		.byte	0x3
 7541 1253 00000000 		.4byte	g_SPI_Debug_Buf
 7542 1257 29       		.uleb128 0x29
 7543 1258 7E100000 		.4byte	.LASF338
 7544 125c 01       		.byte	0x1
 7545 125d 16       		.byte	0x16
 7546 125e DB000000 		.4byte	0xdb
 7547 1262 05       		.uleb128 0x5
 7548 1263 03       		.byte	0x3
 7549 1264 00000000 		.4byte	lastSendTime
 7550 1268 29       		.uleb128 0x29
 7551 1269 AF000000 		.4byte	.LASF339
 7552 126d 01       		.byte	0x1
 7553 126e 2F       		.byte	0x2f
 7554 126f 4E080000 		.4byte	0x84e
 7555 1273 05       		.uleb128 0x5
 7556 1274 03       		.byte	0x3
 7557 1275 00000000 		.4byte	sensorData
 7558 1279 29       		.uleb128 0x29
 7559 127a BE070000 		.4byte	.LASF340
 7560 127e 01       		.byte	0x1
 7561 127f 3D       		.byte	0x3d
 7562 1280 8A120000 		.4byte	0x128a
 7563 1284 05       		.uleb128 0x5
 7564 1285 03       		.byte	0x3
 7565 1286 00000000 		.4byte	pAmpCfg
 7566 128a 0F       		.uleb128 0xf
 7567 128b 04       		.byte	0x4
 7568 128c AE070000 		.4byte	0x7ae
 7569 1290 0D       		.uleb128 0xd
 7570 1291 DB000000 		.4byte	0xdb
 7571 1295 A1120000 		.4byte	0x12a1
 7572 1299 2A       		.uleb128 0x2a
 7573 129a 0D010000 		.4byte	0x10d
 7574 129e FF01     		.2byte	0x1ff
 7575 12a0 00       		.byte	0
 7576 12a1 29       		.uleb128 0x29
ARM GAS  C:\Users\13740\AppData\Local\Temp\cc6vMOIu.s 			page 176


 7577 12a2 B8030000 		.4byte	.LASF341
 7578 12a6 01       		.byte	0x1
 7579 12a7 3E       		.byte	0x3e
 7580 12a8 90120000 		.4byte	0x1290
 7581 12ac 05       		.uleb128 0x5
 7582 12ad 03       		.byte	0x3
 7583 12ae 00000000 		.4byte	ampBuffer
 7584 12b2 29       		.uleb128 0x29
 7585 12b3 AC070000 		.4byte	.LASF342
 7586 12b7 01       		.byte	0x1
 7587 12b8 3F       		.byte	0x3f
 7588 12b9 DA070000 		.4byte	0x7da
 7589 12bd 05       		.uleb128 0x5
 7590 12be 03       		.byte	0x3
 7591 12bf 00000000 		.4byte	ampResult
 7592 12c3 0D       		.uleb128 0xd
 7593 12c4 D3120000 		.4byte	0x12d3
 7594 12c8 D3120000 		.4byte	0x12d3
 7595 12cc 0E       		.uleb128 0xe
 7596 12cd 0D010000 		.4byte	0x10d
 7597 12d1 0D       		.byte	0xd
 7598 12d2 00       		.byte	0
 7599 12d3 11       		.uleb128 0x11
 7600 12d4 DD080000 		.4byte	0x8dd
 7601 12d8 29       		.uleb128 0x29
 7602 12d9 B5020000 		.4byte	.LASF343
 7603 12dd 01       		.byte	0x1
 7604 12de 6E       		.byte	0x6e
 7605 12df E9120000 		.4byte	0x12e9
 7606 12e3 05       		.uleb128 0x5
 7607 12e4 03       		.byte	0x3
 7608 12e5 00000000 		.4byte	g_RegTable
 7609 12e9 11       		.uleb128 0x11
 7610 12ea C3120000 		.4byte	0x12c3
 7611 12ee 00       		.byte	0
 7612              		.section	.debug_abbrev,"",%progbits
 7613              	.Ldebug_abbrev0:
 7614 0000 01       		.uleb128 0x1
 7615 0001 11       		.uleb128 0x11
 7616 0002 01       		.byte	0x1
 7617 0003 25       		.uleb128 0x25
 7618 0004 0E       		.uleb128 0xe
 7619 0005 13       		.uleb128 0x13
 7620 0006 0B       		.uleb128 0xb
 7621 0007 03       		.uleb128 0x3
 7622 0008 0E       		.uleb128 0xe
 7623 0009 1B       		.uleb128 0x1b
 7624 000a 0E       		.uleb128 0xe
 7625 000b 55       		.uleb128 0x55
 7626 000c 17       		.uleb128 0x17
 7627 000d 11       		.uleb128 0x11
 7628 000e 01       		.uleb128 0x1
 7629 000f 10       		.uleb128 0x10
 7630 0010 17       		.uleb128 0x17
 7631 0011 00       		.byte	0
 7632 0012 00       		.byte	0
 7633 0013 02       		.uleb128 0x2
ARM GAS  C:\Users\13740\AppData\Local\Temp\cc6vMOIu.s 			page 177


 7634 0014 24       		.uleb128 0x24
 7635 0015 00       		.byte	0
 7636 0016 0B       		.uleb128 0xb
 7637 0017 0B       		.uleb128 0xb
 7638 0018 3E       		.uleb128 0x3e
 7639 0019 0B       		.uleb128 0xb
 7640 001a 03       		.uleb128 0x3
 7641 001b 0E       		.uleb128 0xe
 7642 001c 00       		.byte	0
 7643 001d 00       		.byte	0
 7644 001e 03       		.uleb128 0x3
 7645 001f 16       		.uleb128 0x16
 7646 0020 00       		.byte	0
 7647 0021 03       		.uleb128 0x3
 7648 0022 0E       		.uleb128 0xe
 7649 0023 3A       		.uleb128 0x3a
 7650 0024 0B       		.uleb128 0xb
 7651 0025 3B       		.uleb128 0x3b
 7652 0026 0B       		.uleb128 0xb
 7653 0027 49       		.uleb128 0x49
 7654 0028 13       		.uleb128 0x13
 7655 0029 00       		.byte	0
 7656 002a 00       		.byte	0
 7657 002b 04       		.uleb128 0x4
 7658 002c 24       		.uleb128 0x24
 7659 002d 00       		.byte	0
 7660 002e 0B       		.uleb128 0xb
 7661 002f 0B       		.uleb128 0xb
 7662 0030 3E       		.uleb128 0x3e
 7663 0031 0B       		.uleb128 0xb
 7664 0032 03       		.uleb128 0x3
 7665 0033 08       		.uleb128 0x8
 7666 0034 00       		.byte	0
 7667 0035 00       		.byte	0
 7668 0036 05       		.uleb128 0x5
 7669 0037 16       		.uleb128 0x16
 7670 0038 00       		.byte	0
 7671 0039 03       		.uleb128 0x3
 7672 003a 0E       		.uleb128 0xe
 7673 003b 3A       		.uleb128 0x3a
 7674 003c 0B       		.uleb128 0xb
 7675 003d 3B       		.uleb128 0x3b
 7676 003e 05       		.uleb128 0x5
 7677 003f 49       		.uleb128 0x49
 7678 0040 13       		.uleb128 0x13
 7679 0041 00       		.byte	0
 7680 0042 00       		.byte	0
 7681 0043 06       		.uleb128 0x6
 7682 0044 35       		.uleb128 0x35
 7683 0045 00       		.byte	0
 7684 0046 49       		.uleb128 0x49
 7685 0047 13       		.uleb128 0x13
 7686 0048 00       		.byte	0
 7687 0049 00       		.byte	0
 7688 004a 07       		.uleb128 0x7
 7689 004b 0F       		.uleb128 0xf
 7690 004c 00       		.byte	0
ARM GAS  C:\Users\13740\AppData\Local\Temp\cc6vMOIu.s 			page 178


 7691 004d 0B       		.uleb128 0xb
 7692 004e 0B       		.uleb128 0xb
 7693 004f 00       		.byte	0
 7694 0050 00       		.byte	0
 7695 0051 08       		.uleb128 0x8
 7696 0052 04       		.uleb128 0x4
 7697 0053 01       		.byte	0x1
 7698 0054 0B       		.uleb128 0xb
 7699 0055 0B       		.uleb128 0xb
 7700 0056 49       		.uleb128 0x49
 7701 0057 13       		.uleb128 0x13
 7702 0058 3A       		.uleb128 0x3a
 7703 0059 0B       		.uleb128 0xb
 7704 005a 3B       		.uleb128 0x3b
 7705 005b 05       		.uleb128 0x5
 7706 005c 01       		.uleb128 0x1
 7707 005d 13       		.uleb128 0x13
 7708 005e 00       		.byte	0
 7709 005f 00       		.byte	0
 7710 0060 09       		.uleb128 0x9
 7711 0061 28       		.uleb128 0x28
 7712 0062 00       		.byte	0
 7713 0063 03       		.uleb128 0x3
 7714 0064 0E       		.uleb128 0xe
 7715 0065 1C       		.uleb128 0x1c
 7716 0066 0B       		.uleb128 0xb
 7717 0067 00       		.byte	0
 7718 0068 00       		.byte	0
 7719 0069 0A       		.uleb128 0xa
 7720 006a 28       		.uleb128 0x28
 7721 006b 00       		.byte	0
 7722 006c 03       		.uleb128 0x3
 7723 006d 0E       		.uleb128 0xe
 7724 006e 1C       		.uleb128 0x1c
 7725 006f 05       		.uleb128 0x5
 7726 0070 00       		.byte	0
 7727 0071 00       		.byte	0
 7728 0072 0B       		.uleb128 0xb
 7729 0073 13       		.uleb128 0x13
 7730 0074 01       		.byte	0x1
 7731 0075 0B       		.uleb128 0xb
 7732 0076 0B       		.uleb128 0xb
 7733 0077 3A       		.uleb128 0x3a
 7734 0078 0B       		.uleb128 0xb
 7735 0079 3B       		.uleb128 0x3b
 7736 007a 05       		.uleb128 0x5
 7737 007b 01       		.uleb128 0x1
 7738 007c 13       		.uleb128 0x13
 7739 007d 00       		.byte	0
 7740 007e 00       		.byte	0
 7741 007f 0C       		.uleb128 0xc
 7742 0080 0D       		.uleb128 0xd
 7743 0081 00       		.byte	0
 7744 0082 03       		.uleb128 0x3
 7745 0083 0E       		.uleb128 0xe
 7746 0084 3A       		.uleb128 0x3a
 7747 0085 0B       		.uleb128 0xb
ARM GAS  C:\Users\13740\AppData\Local\Temp\cc6vMOIu.s 			page 179


 7748 0086 3B       		.uleb128 0x3b
 7749 0087 05       		.uleb128 0x5
 7750 0088 49       		.uleb128 0x49
 7751 0089 13       		.uleb128 0x13
 7752 008a 38       		.uleb128 0x38
 7753 008b 0B       		.uleb128 0xb
 7754 008c 00       		.byte	0
 7755 008d 00       		.byte	0
 7756 008e 0D       		.uleb128 0xd
 7757 008f 01       		.uleb128 0x1
 7758 0090 01       		.byte	0x1
 7759 0091 49       		.uleb128 0x49
 7760 0092 13       		.uleb128 0x13
 7761 0093 01       		.uleb128 0x1
 7762 0094 13       		.uleb128 0x13
 7763 0095 00       		.byte	0
 7764 0096 00       		.byte	0
 7765 0097 0E       		.uleb128 0xe
 7766 0098 21       		.uleb128 0x21
 7767 0099 00       		.byte	0
 7768 009a 49       		.uleb128 0x49
 7769 009b 13       		.uleb128 0x13
 7770 009c 2F       		.uleb128 0x2f
 7771 009d 0B       		.uleb128 0xb
 7772 009e 00       		.byte	0
 7773 009f 00       		.byte	0
 7774 00a0 0F       		.uleb128 0xf
 7775 00a1 0F       		.uleb128 0xf
 7776 00a2 00       		.byte	0
 7777 00a3 0B       		.uleb128 0xb
 7778 00a4 0B       		.uleb128 0xb
 7779 00a5 49       		.uleb128 0x49
 7780 00a6 13       		.uleb128 0x13
 7781 00a7 00       		.byte	0
 7782 00a8 00       		.byte	0
 7783 00a9 10       		.uleb128 0x10
 7784 00aa 0D       		.uleb128 0xd
 7785 00ab 00       		.byte	0
 7786 00ac 03       		.uleb128 0x3
 7787 00ad 08       		.uleb128 0x8
 7788 00ae 3A       		.uleb128 0x3a
 7789 00af 0B       		.uleb128 0xb
 7790 00b0 3B       		.uleb128 0x3b
 7791 00b1 05       		.uleb128 0x5
 7792 00b2 49       		.uleb128 0x49
 7793 00b3 13       		.uleb128 0x13
 7794 00b4 38       		.uleb128 0x38
 7795 00b5 0B       		.uleb128 0xb
 7796 00b6 00       		.byte	0
 7797 00b7 00       		.byte	0
 7798 00b8 11       		.uleb128 0x11
 7799 00b9 26       		.uleb128 0x26
 7800 00ba 00       		.byte	0
 7801 00bb 49       		.uleb128 0x49
 7802 00bc 13       		.uleb128 0x13
 7803 00bd 00       		.byte	0
 7804 00be 00       		.byte	0
ARM GAS  C:\Users\13740\AppData\Local\Temp\cc6vMOIu.s 			page 180


 7805 00bf 12       		.uleb128 0x12
 7806 00c0 13       		.uleb128 0x13
 7807 00c1 01       		.byte	0x1
 7808 00c2 0B       		.uleb128 0xb
 7809 00c3 0B       		.uleb128 0xb
 7810 00c4 3A       		.uleb128 0x3a
 7811 00c5 0B       		.uleb128 0xb
 7812 00c6 3B       		.uleb128 0x3b
 7813 00c7 0B       		.uleb128 0xb
 7814 00c8 01       		.uleb128 0x1
 7815 00c9 13       		.uleb128 0x13
 7816 00ca 00       		.byte	0
 7817 00cb 00       		.byte	0
 7818 00cc 13       		.uleb128 0x13
 7819 00cd 0D       		.uleb128 0xd
 7820 00ce 00       		.byte	0
 7821 00cf 03       		.uleb128 0x3
 7822 00d0 0E       		.uleb128 0xe
 7823 00d1 3A       		.uleb128 0x3a
 7824 00d2 0B       		.uleb128 0xb
 7825 00d3 3B       		.uleb128 0x3b
 7826 00d4 0B       		.uleb128 0xb
 7827 00d5 49       		.uleb128 0x49
 7828 00d6 13       		.uleb128 0x13
 7829 00d7 38       		.uleb128 0x38
 7830 00d8 0B       		.uleb128 0xb
 7831 00d9 00       		.byte	0
 7832 00da 00       		.byte	0
 7833 00db 14       		.uleb128 0x14
 7834 00dc 04       		.uleb128 0x4
 7835 00dd 01       		.byte	0x1
 7836 00de 0B       		.uleb128 0xb
 7837 00df 0B       		.uleb128 0xb
 7838 00e0 49       		.uleb128 0x49
 7839 00e1 13       		.uleb128 0x13
 7840 00e2 3A       		.uleb128 0x3a
 7841 00e3 0B       		.uleb128 0xb
 7842 00e4 3B       		.uleb128 0x3b
 7843 00e5 0B       		.uleb128 0xb
 7844 00e6 01       		.uleb128 0x1
 7845 00e7 13       		.uleb128 0x13
 7846 00e8 00       		.byte	0
 7847 00e9 00       		.byte	0
 7848 00ea 15       		.uleb128 0x15
 7849 00eb 2E       		.uleb128 0x2e
 7850 00ec 01       		.byte	0x1
 7851 00ed 3F       		.uleb128 0x3f
 7852 00ee 19       		.uleb128 0x19
 7853 00ef 03       		.uleb128 0x3
 7854 00f0 0E       		.uleb128 0xe
 7855 00f1 3A       		.uleb128 0x3a
 7856 00f2 0B       		.uleb128 0xb
 7857 00f3 3B       		.uleb128 0x3b
 7858 00f4 0B       		.uleb128 0xb
 7859 00f5 27       		.uleb128 0x27
 7860 00f6 19       		.uleb128 0x19
 7861 00f7 11       		.uleb128 0x11
ARM GAS  C:\Users\13740\AppData\Local\Temp\cc6vMOIu.s 			page 181


 7862 00f8 01       		.uleb128 0x1
 7863 00f9 12       		.uleb128 0x12
 7864 00fa 06       		.uleb128 0x6
 7865 00fb 40       		.uleb128 0x40
 7866 00fc 18       		.uleb128 0x18
 7867 00fd 9642     		.uleb128 0x2116
 7868 00ff 19       		.uleb128 0x19
 7869 0100 01       		.uleb128 0x1
 7870 0101 13       		.uleb128 0x13
 7871 0102 00       		.byte	0
 7872 0103 00       		.byte	0
 7873 0104 16       		.uleb128 0x16
 7874 0105 34       		.uleb128 0x34
 7875 0106 00       		.byte	0
 7876 0107 03       		.uleb128 0x3
 7877 0108 0E       		.uleb128 0xe
 7878 0109 3A       		.uleb128 0x3a
 7879 010a 0B       		.uleb128 0xb
 7880 010b 3B       		.uleb128 0x3b
 7881 010c 0B       		.uleb128 0xb
 7882 010d 49       		.uleb128 0x49
 7883 010e 13       		.uleb128 0x13
 7884 010f 02       		.uleb128 0x2
 7885 0110 18       		.uleb128 0x18
 7886 0111 00       		.byte	0
 7887 0112 00       		.byte	0
 7888 0113 17       		.uleb128 0x17
 7889 0114 0B       		.uleb128 0xb
 7890 0115 01       		.byte	0x1
 7891 0116 11       		.uleb128 0x11
 7892 0117 01       		.uleb128 0x1
 7893 0118 12       		.uleb128 0x12
 7894 0119 06       		.uleb128 0x6
 7895 011a 00       		.byte	0
 7896 011b 00       		.byte	0
 7897 011c 18       		.uleb128 0x18
 7898 011d 2E       		.uleb128 0x2e
 7899 011e 00       		.byte	0
 7900 011f 3F       		.uleb128 0x3f
 7901 0120 19       		.uleb128 0x19
 7902 0121 03       		.uleb128 0x3
 7903 0122 0E       		.uleb128 0xe
 7904 0123 3A       		.uleb128 0x3a
 7905 0124 0B       		.uleb128 0xb
 7906 0125 3B       		.uleb128 0x3b
 7907 0126 05       		.uleb128 0x5
 7908 0127 27       		.uleb128 0x27
 7909 0128 19       		.uleb128 0x19
 7910 0129 11       		.uleb128 0x11
 7911 012a 01       		.uleb128 0x1
 7912 012b 12       		.uleb128 0x12
 7913 012c 06       		.uleb128 0x6
 7914 012d 40       		.uleb128 0x40
 7915 012e 18       		.uleb128 0x18
 7916 012f 9642     		.uleb128 0x2116
 7917 0131 19       		.uleb128 0x19
 7918 0132 00       		.byte	0
ARM GAS  C:\Users\13740\AppData\Local\Temp\cc6vMOIu.s 			page 182


 7919 0133 00       		.byte	0
 7920 0134 19       		.uleb128 0x19
 7921 0135 2E       		.uleb128 0x2e
 7922 0136 01       		.byte	0x1
 7923 0137 3F       		.uleb128 0x3f
 7924 0138 19       		.uleb128 0x19
 7925 0139 03       		.uleb128 0x3
 7926 013a 0E       		.uleb128 0xe
 7927 013b 3A       		.uleb128 0x3a
 7928 013c 0B       		.uleb128 0xb
 7929 013d 3B       		.uleb128 0x3b
 7930 013e 05       		.uleb128 0x5
 7931 013f 27       		.uleb128 0x27
 7932 0140 19       		.uleb128 0x19
 7933 0141 11       		.uleb128 0x11
 7934 0142 01       		.uleb128 0x1
 7935 0143 12       		.uleb128 0x12
 7936 0144 06       		.uleb128 0x6
 7937 0145 40       		.uleb128 0x40
 7938 0146 18       		.uleb128 0x18
 7939 0147 9642     		.uleb128 0x2116
 7940 0149 19       		.uleb128 0x19
 7941 014a 01       		.uleb128 0x1
 7942 014b 13       		.uleb128 0x13
 7943 014c 00       		.byte	0
 7944 014d 00       		.byte	0
 7945 014e 1A       		.uleb128 0x1a
 7946 014f 34       		.uleb128 0x34
 7947 0150 00       		.byte	0
 7948 0151 03       		.uleb128 0x3
 7949 0152 0E       		.uleb128 0xe
 7950 0153 3A       		.uleb128 0x3a
 7951 0154 0B       		.uleb128 0xb
 7952 0155 3B       		.uleb128 0x3b
 7953 0156 05       		.uleb128 0x5
 7954 0157 49       		.uleb128 0x49
 7955 0158 13       		.uleb128 0x13
 7956 0159 02       		.uleb128 0x2
 7957 015a 18       		.uleb128 0x18
 7958 015b 00       		.byte	0
 7959 015c 00       		.byte	0
 7960 015d 1B       		.uleb128 0x1b
 7961 015e 2E       		.uleb128 0x2e
 7962 015f 01       		.byte	0x1
 7963 0160 3F       		.uleb128 0x3f
 7964 0161 19       		.uleb128 0x19
 7965 0162 03       		.uleb128 0x3
 7966 0163 0E       		.uleb128 0xe
 7967 0164 3A       		.uleb128 0x3a
 7968 0165 0B       		.uleb128 0xb
 7969 0166 3B       		.uleb128 0x3b
 7970 0167 05       		.uleb128 0x5
 7971 0168 27       		.uleb128 0x27
 7972 0169 19       		.uleb128 0x19
 7973 016a 49       		.uleb128 0x49
 7974 016b 13       		.uleb128 0x13
 7975 016c 11       		.uleb128 0x11
ARM GAS  C:\Users\13740\AppData\Local\Temp\cc6vMOIu.s 			page 183


 7976 016d 01       		.uleb128 0x1
 7977 016e 12       		.uleb128 0x12
 7978 016f 06       		.uleb128 0x6
 7979 0170 40       		.uleb128 0x40
 7980 0171 18       		.uleb128 0x18
 7981 0172 9642     		.uleb128 0x2116
 7982 0174 19       		.uleb128 0x19
 7983 0175 01       		.uleb128 0x1
 7984 0176 13       		.uleb128 0x13
 7985 0177 00       		.byte	0
 7986 0178 00       		.byte	0
 7987 0179 1C       		.uleb128 0x1c
 7988 017a 05       		.uleb128 0x5
 7989 017b 00       		.byte	0
 7990 017c 03       		.uleb128 0x3
 7991 017d 0E       		.uleb128 0xe
 7992 017e 3A       		.uleb128 0x3a
 7993 017f 0B       		.uleb128 0xb
 7994 0180 3B       		.uleb128 0x3b
 7995 0181 05       		.uleb128 0x5
 7996 0182 49       		.uleb128 0x49
 7997 0183 13       		.uleb128 0x13
 7998 0184 02       		.uleb128 0x2
 7999 0185 18       		.uleb128 0x18
 8000 0186 00       		.byte	0
 8001 0187 00       		.byte	0
 8002 0188 1D       		.uleb128 0x1d
 8003 0189 2E       		.uleb128 0x2e
 8004 018a 01       		.byte	0x1
 8005 018b 3F       		.uleb128 0x3f
 8006 018c 19       		.uleb128 0x19
 8007 018d 03       		.uleb128 0x3
 8008 018e 0E       		.uleb128 0xe
 8009 018f 3A       		.uleb128 0x3a
 8010 0190 0B       		.uleb128 0xb
 8011 0191 3B       		.uleb128 0x3b
 8012 0192 05       		.uleb128 0x5
 8013 0193 27       		.uleb128 0x27
 8014 0194 19       		.uleb128 0x19
 8015 0195 49       		.uleb128 0x49
 8016 0196 13       		.uleb128 0x13
 8017 0197 11       		.uleb128 0x11
 8018 0198 01       		.uleb128 0x1
 8019 0199 12       		.uleb128 0x12
 8020 019a 06       		.uleb128 0x6
 8021 019b 40       		.uleb128 0x40
 8022 019c 18       		.uleb128 0x18
 8023 019d 9742     		.uleb128 0x2117
 8024 019f 19       		.uleb128 0x19
 8025 01a0 01       		.uleb128 0x1
 8026 01a1 13       		.uleb128 0x13
 8027 01a2 00       		.byte	0
 8028 01a3 00       		.byte	0
 8029 01a4 1E       		.uleb128 0x1e
 8030 01a5 34       		.uleb128 0x34
 8031 01a6 00       		.byte	0
 8032 01a7 03       		.uleb128 0x3
ARM GAS  C:\Users\13740\AppData\Local\Temp\cc6vMOIu.s 			page 184


 8033 01a8 0E       		.uleb128 0xe
 8034 01a9 3A       		.uleb128 0x3a
 8035 01aa 0B       		.uleb128 0xb
 8036 01ab 3B       		.uleb128 0x3b
 8037 01ac 05       		.uleb128 0x5
 8038 01ad 49       		.uleb128 0x49
 8039 01ae 13       		.uleb128 0x13
 8040 01af 00       		.byte	0
 8041 01b0 00       		.byte	0
 8042 01b1 1F       		.uleb128 0x1f
 8043 01b2 2E       		.uleb128 0x2e
 8044 01b3 01       		.byte	0x1
 8045 01b4 3F       		.uleb128 0x3f
 8046 01b5 19       		.uleb128 0x19
 8047 01b6 03       		.uleb128 0x3
 8048 01b7 0E       		.uleb128 0xe
 8049 01b8 3A       		.uleb128 0x3a
 8050 01b9 0B       		.uleb128 0xb
 8051 01ba 3B       		.uleb128 0x3b
 8052 01bb 05       		.uleb128 0x5
 8053 01bc 49       		.uleb128 0x49
 8054 01bd 13       		.uleb128 0x13
 8055 01be 3C       		.uleb128 0x3c
 8056 01bf 19       		.uleb128 0x19
 8057 01c0 00       		.byte	0
 8058 01c1 00       		.byte	0
 8059 01c2 20       		.uleb128 0x20
 8060 01c3 18       		.uleb128 0x18
 8061 01c4 00       		.byte	0
 8062 01c5 00       		.byte	0
 8063 01c6 00       		.byte	0
 8064 01c7 21       		.uleb128 0x21
 8065 01c8 2E       		.uleb128 0x2e
 8066 01c9 00       		.byte	0
 8067 01ca 3F       		.uleb128 0x3f
 8068 01cb 19       		.uleb128 0x19
 8069 01cc 03       		.uleb128 0x3
 8070 01cd 0E       		.uleb128 0xe
 8071 01ce 3A       		.uleb128 0x3a
 8072 01cf 0B       		.uleb128 0xb
 8073 01d0 3B       		.uleb128 0x3b
 8074 01d1 05       		.uleb128 0x5
 8075 01d2 27       		.uleb128 0x27
 8076 01d3 19       		.uleb128 0x19
 8077 01d4 11       		.uleb128 0x11
 8078 01d5 01       		.uleb128 0x1
 8079 01d6 12       		.uleb128 0x12
 8080 01d7 06       		.uleb128 0x6
 8081 01d8 40       		.uleb128 0x40
 8082 01d9 18       		.uleb128 0x18
 8083 01da 9742     		.uleb128 0x2117
 8084 01dc 19       		.uleb128 0x19
 8085 01dd 00       		.byte	0
 8086 01de 00       		.byte	0
 8087 01df 22       		.uleb128 0x22
 8088 01e0 0B       		.uleb128 0xb
 8089 01e1 01       		.byte	0x1
ARM GAS  C:\Users\13740\AppData\Local\Temp\cc6vMOIu.s 			page 185


 8090 01e2 11       		.uleb128 0x11
 8091 01e3 01       		.uleb128 0x1
 8092 01e4 12       		.uleb128 0x12
 8093 01e5 06       		.uleb128 0x6
 8094 01e6 01       		.uleb128 0x1
 8095 01e7 13       		.uleb128 0x13
 8096 01e8 00       		.byte	0
 8097 01e9 00       		.byte	0
 8098 01ea 23       		.uleb128 0x23
 8099 01eb 34       		.uleb128 0x34
 8100 01ec 00       		.byte	0
 8101 01ed 03       		.uleb128 0x3
 8102 01ee 08       		.uleb128 0x8
 8103 01ef 3A       		.uleb128 0x3a
 8104 01f0 0B       		.uleb128 0xb
 8105 01f1 3B       		.uleb128 0x3b
 8106 01f2 05       		.uleb128 0x5
 8107 01f3 49       		.uleb128 0x49
 8108 01f4 13       		.uleb128 0x13
 8109 01f5 02       		.uleb128 0x2
 8110 01f6 18       		.uleb128 0x18
 8111 01f7 00       		.byte	0
 8112 01f8 00       		.byte	0
 8113 01f9 24       		.uleb128 0x24
 8114 01fa 34       		.uleb128 0x34
 8115 01fb 00       		.byte	0
 8116 01fc 03       		.uleb128 0x3
 8117 01fd 08       		.uleb128 0x8
 8118 01fe 3A       		.uleb128 0x3a
 8119 01ff 0B       		.uleb128 0xb
 8120 0200 3B       		.uleb128 0x3b
 8121 0201 05       		.uleb128 0x5
 8122 0202 49       		.uleb128 0x49
 8123 0203 13       		.uleb128 0x13
 8124 0204 00       		.byte	0
 8125 0205 00       		.byte	0
 8126 0206 25       		.uleb128 0x25
 8127 0207 2E       		.uleb128 0x2e
 8128 0208 01       		.byte	0x1
 8129 0209 03       		.uleb128 0x3
 8130 020a 0E       		.uleb128 0xe
 8131 020b 3A       		.uleb128 0x3a
 8132 020c 0B       		.uleb128 0xb
 8133 020d 3B       		.uleb128 0x3b
 8134 020e 05       		.uleb128 0x5
 8135 020f 27       		.uleb128 0x27
 8136 0210 19       		.uleb128 0x19
 8137 0211 11       		.uleb128 0x11
 8138 0212 01       		.uleb128 0x1
 8139 0213 12       		.uleb128 0x12
 8140 0214 06       		.uleb128 0x6
 8141 0215 40       		.uleb128 0x40
 8142 0216 18       		.uleb128 0x18
 8143 0217 9642     		.uleb128 0x2116
 8144 0219 19       		.uleb128 0x19
 8145 021a 01       		.uleb128 0x1
 8146 021b 13       		.uleb128 0x13
ARM GAS  C:\Users\13740\AppData\Local\Temp\cc6vMOIu.s 			page 186


 8147 021c 00       		.byte	0
 8148 021d 00       		.byte	0
 8149 021e 26       		.uleb128 0x26
 8150 021f 2E       		.uleb128 0x2e
 8151 0220 01       		.byte	0x1
 8152 0221 3F       		.uleb128 0x3f
 8153 0222 19       		.uleb128 0x19
 8154 0223 03       		.uleb128 0x3
 8155 0224 0E       		.uleb128 0xe
 8156 0225 3A       		.uleb128 0x3a
 8157 0226 0B       		.uleb128 0xb
 8158 0227 3B       		.uleb128 0x3b
 8159 0228 05       		.uleb128 0x5
 8160 0229 49       		.uleb128 0x49
 8161 022a 13       		.uleb128 0x13
 8162 022b 11       		.uleb128 0x11
 8163 022c 01       		.uleb128 0x1
 8164 022d 12       		.uleb128 0x12
 8165 022e 06       		.uleb128 0x6
 8166 022f 40       		.uleb128 0x40
 8167 0230 18       		.uleb128 0x18
 8168 0231 9642     		.uleb128 0x2116
 8169 0233 19       		.uleb128 0x19
 8170 0234 01       		.uleb128 0x1
 8171 0235 13       		.uleb128 0x13
 8172 0236 00       		.byte	0
 8173 0237 00       		.byte	0
 8174 0238 27       		.uleb128 0x27
 8175 0239 0B       		.uleb128 0xb
 8176 023a 01       		.byte	0x1
 8177 023b 55       		.uleb128 0x55
 8178 023c 17       		.uleb128 0x17
 8179 023d 01       		.uleb128 0x1
 8180 023e 13       		.uleb128 0x13
 8181 023f 00       		.byte	0
 8182 0240 00       		.byte	0
 8183 0241 28       		.uleb128 0x28
 8184 0242 34       		.uleb128 0x34
 8185 0243 00       		.byte	0
 8186 0244 03       		.uleb128 0x3
 8187 0245 0E       		.uleb128 0xe
 8188 0246 3A       		.uleb128 0x3a
 8189 0247 0B       		.uleb128 0xb
 8190 0248 3B       		.uleb128 0x3b
 8191 0249 05       		.uleb128 0x5
 8192 024a 49       		.uleb128 0x49
 8193 024b 13       		.uleb128 0x13
 8194 024c 3F       		.uleb128 0x3f
 8195 024d 19       		.uleb128 0x19
 8196 024e 3C       		.uleb128 0x3c
 8197 024f 19       		.uleb128 0x19
 8198 0250 00       		.byte	0
 8199 0251 00       		.byte	0
 8200 0252 29       		.uleb128 0x29
 8201 0253 34       		.uleb128 0x34
 8202 0254 00       		.byte	0
 8203 0255 03       		.uleb128 0x3
ARM GAS  C:\Users\13740\AppData\Local\Temp\cc6vMOIu.s 			page 187


 8204 0256 0E       		.uleb128 0xe
 8205 0257 3A       		.uleb128 0x3a
 8206 0258 0B       		.uleb128 0xb
 8207 0259 3B       		.uleb128 0x3b
 8208 025a 0B       		.uleb128 0xb
 8209 025b 49       		.uleb128 0x49
 8210 025c 13       		.uleb128 0x13
 8211 025d 3F       		.uleb128 0x3f
 8212 025e 19       		.uleb128 0x19
 8213 025f 02       		.uleb128 0x2
 8214 0260 18       		.uleb128 0x18
 8215 0261 00       		.byte	0
 8216 0262 00       		.byte	0
 8217 0263 2A       		.uleb128 0x2a
 8218 0264 21       		.uleb128 0x21
 8219 0265 00       		.byte	0
 8220 0266 49       		.uleb128 0x49
 8221 0267 13       		.uleb128 0x13
 8222 0268 2F       		.uleb128 0x2f
 8223 0269 05       		.uleb128 0x5
 8224 026a 00       		.byte	0
 8225 026b 00       		.byte	0
 8226 026c 00       		.byte	0
 8227              		.section	.debug_aranges,"",%progbits
 8228 0000 C4000000 		.4byte	0xc4
 8229 0004 0200     		.2byte	0x2
 8230 0006 00000000 		.4byte	.Ldebug_info0
 8231 000a 04       		.byte	0x4
 8232 000b 00       		.byte	0
 8233 000c 0000     		.2byte	0
 8234 000e 0000     		.2byte	0
 8235 0010 00000000 		.4byte	.LFB36
 8236 0014 24030000 		.4byte	.LFE36-.LFB36
 8237 0018 00000000 		.4byte	.LFB37
 8238 001c E4000000 		.4byte	.LFE37-.LFB37
 8239 0020 00000000 		.4byte	.LFB38
 8240 0024 6C020000 		.4byte	.LFE38-.LFB38
 8241 0028 00000000 		.4byte	.LFB39
 8242 002c 9C000000 		.4byte	.LFE39-.LFB39
 8243 0030 00000000 		.4byte	.LFB40
 8244 0034 7C000000 		.4byte	.LFE40-.LFB40
 8245 0038 00000000 		.4byte	.LFB41
 8246 003c AC000000 		.4byte	.LFE41-.LFB41
 8247 0040 00000000 		.4byte	.LFB42
 8248 0044 20000000 		.4byte	.LFE42-.LFB42
 8249 0048 00000000 		.4byte	.LFB43
 8250 004c 4C010000 		.4byte	.LFE43-.LFB43
 8251 0050 00000000 		.4byte	.LFB44
 8252 0054 D4000000 		.4byte	.LFE44-.LFB44
 8253 0058 00000000 		.4byte	.LFB45
 8254 005c 10010000 		.4byte	.LFE45-.LFB45
 8255 0060 00000000 		.4byte	.LFB46
 8256 0064 2A000000 		.4byte	.LFE46-.LFB46
 8257 0068 00000000 		.4byte	.LFB47
 8258 006c 2A000000 		.4byte	.LFE47-.LFB47
 8259 0070 00000000 		.4byte	.LFB48
 8260 0074 0A000000 		.4byte	.LFE48-.LFB48
ARM GAS  C:\Users\13740\AppData\Local\Temp\cc6vMOIu.s 			page 188


 8261 0078 00000000 		.4byte	.LFB49
 8262 007c F8000000 		.4byte	.LFE49-.LFB49
 8263 0080 00000000 		.4byte	.LFB50
 8264 0084 54010000 		.4byte	.LFE50-.LFB50
 8265 0088 00000000 		.4byte	.LFB51
 8266 008c 34000000 		.4byte	.LFE51-.LFB51
 8267 0090 00000000 		.4byte	.LFB52
 8268 0094 4C000000 		.4byte	.LFE52-.LFB52
 8269 0098 00000000 		.4byte	.LFB53
 8270 009c 74000000 		.4byte	.LFE53-.LFB53
 8271 00a0 00000000 		.4byte	.LFB54
 8272 00a4 74000000 		.4byte	.LFE54-.LFB54
 8273 00a8 00000000 		.4byte	.LFB55
 8274 00ac 22000000 		.4byte	.LFE55-.LFB55
 8275 00b0 00000000 		.4byte	.LFB56
 8276 00b4 740D0000 		.4byte	.LFE56-.LFB56
 8277 00b8 00000000 		.4byte	.LFB57
 8278 00bc A4000000 		.4byte	.LFE57-.LFB57
 8279 00c0 00000000 		.4byte	0
 8280 00c4 00000000 		.4byte	0
 8281              		.section	.debug_ranges,"",%progbits
 8282              	.Ldebug_ranges0:
 8283 0000 D6000000 		.4byte	.LBB9
 8284 0004 28010000 		.4byte	.LBE9
 8285 0008 2C010000 		.4byte	.LBB10
 8286 000c 40010000 		.4byte	.LBE10
 8287 0010 00000000 		.4byte	0
 8288 0014 00000000 		.4byte	0
 8289 0018 00000000 		.4byte	.LFB36
 8290 001c 24030000 		.4byte	.LFE36
 8291 0020 00000000 		.4byte	.LFB37
 8292 0024 E4000000 		.4byte	.LFE37
 8293 0028 00000000 		.4byte	.LFB38
 8294 002c 6C020000 		.4byte	.LFE38
 8295 0030 00000000 		.4byte	.LFB39
 8296 0034 9C000000 		.4byte	.LFE39
 8297 0038 00000000 		.4byte	.LFB40
 8298 003c 7C000000 		.4byte	.LFE40
 8299 0040 00000000 		.4byte	.LFB41
 8300 0044 AC000000 		.4byte	.LFE41
 8301 0048 00000000 		.4byte	.LFB42
 8302 004c 20000000 		.4byte	.LFE42
 8303 0050 00000000 		.4byte	.LFB43
 8304 0054 4C010000 		.4byte	.LFE43
 8305 0058 00000000 		.4byte	.LFB44
 8306 005c D4000000 		.4byte	.LFE44
 8307 0060 00000000 		.4byte	.LFB45
 8308 0064 10010000 		.4byte	.LFE45
 8309 0068 00000000 		.4byte	.LFB46
 8310 006c 2A000000 		.4byte	.LFE46
 8311 0070 00000000 		.4byte	.LFB47
 8312 0074 2A000000 		.4byte	.LFE47
 8313 0078 00000000 		.4byte	.LFB48
 8314 007c 0A000000 		.4byte	.LFE48
 8315 0080 00000000 		.4byte	.LFB49
 8316 0084 F8000000 		.4byte	.LFE49
 8317 0088 00000000 		.4byte	.LFB50
ARM GAS  C:\Users\13740\AppData\Local\Temp\cc6vMOIu.s 			page 189


 8318 008c 54010000 		.4byte	.LFE50
 8319 0090 00000000 		.4byte	.LFB51
 8320 0094 34000000 		.4byte	.LFE51
 8321 0098 00000000 		.4byte	.LFB52
 8322 009c 4C000000 		.4byte	.LFE52
 8323 00a0 00000000 		.4byte	.LFB53
 8324 00a4 74000000 		.4byte	.LFE53
 8325 00a8 00000000 		.4byte	.LFB54
 8326 00ac 74000000 		.4byte	.LFE54
 8327 00b0 00000000 		.4byte	.LFB55
 8328 00b4 22000000 		.4byte	.LFE55
 8329 00b8 00000000 		.4byte	.LFB56
 8330 00bc 740D0000 		.4byte	.LFE56
 8331 00c0 00000000 		.4byte	.LFB57
 8332 00c4 A4000000 		.4byte	.LFE57
 8333 00c8 00000000 		.4byte	0
 8334 00cc 00000000 		.4byte	0
 8335              		.section	.debug_line,"",%progbits
 8336              	.Ldebug_line0:
 8337 0000 00070000 		.section	.debug_str,"MS",%progbits,1
 8337      02009A01 
 8337      00000201 
 8337      FB0E0D00 
 8337      01010101 
 8338              	.LASF326:
 8339 0000 675F6164 		.ascii	"g_adccon_measure\000"
 8339      63636F6E 
 8339      5F6D6561 
 8339      73757265 
 8339      00
 8340              	.LASF223:
 8341 0011 53454E53 		.ascii	"SENSOR_LACTATE\000"
 8341      4F525F4C 
 8341      41435441 
 8341      544500
 8342              	.LASF78:
 8343 0020 4359424C 		.ascii	"CYBLE_EVT_GATTC_STOP_CMD_COMPLETE\000"
 8343      455F4556 
 8343      545F4741 
 8343      5454435F 
 8343      53544F50 
 8344              	.LASF74:
 8345 0042 4359424C 		.ascii	"CYBLE_EVT_GATTC_HANDLE_VALUE_NTF\000"
 8345      455F4556 
 8345      545F4741 
 8345      5454435F 
 8345      48414E44 
 8346              	.LASF200:
 8347 0063 567A6572 		.ascii	"Vzero\000"
 8347      6F00
 8348              	.LASF347:
 8349 0069 72616E64 		.ascii	"rand\000"
 8349      00
 8350              	.LASF277:
 8351 006e 6E6F7469 		.ascii	"notificationHandle\000"
 8351      66696361 
 8351      74696F6E 
ARM GAS  C:\Users\13740\AppData\Local\Temp\cc6vMOIu.s 			page 190


 8351      48616E64 
 8351      6C6500
 8352              	.LASF266:
 8353 0081 616D7046 		.ascii	"ampFifoBuffer\000"
 8353      69666F42 
 8353      75666665 
 8353      7200
 8354              	.LASF33:
 8355 008f 4359424C 		.ascii	"CYBLE_EVT_GAP_AUTH_REQ\000"
 8355      455F4556 
 8355      545F4741 
 8355      505F4155 
 8355      54485F52 
 8356              	.LASF306:
 8357 00a6 7067615F 		.ascii	"pga_gain\000"
 8357      6761696E 
 8357      00
 8358              	.LASF339:
 8359 00af 73656E73 		.ascii	"sensorData\000"
 8359      6F724461 
 8359      746100
 8360              	.LASF203:
 8361 00ba 45787452 		.ascii	"ExtRtiaVal\000"
 8361      74696156 
 8361      616C00
 8362              	.LASF106:
 8363 00c5 4359424C 		.ascii	"CYBLE_ERROR_GAP_ROLE\000"
 8363      455F4552 
 8363      524F525F 
 8363      4741505F 
 8363      524F4C45 
 8364              	.LASF120:
 8365 00da 4359424C 		.ascii	"CYBLE_ERROR_HARDWARE_FAILURE\000"
 8365      455F4552 
 8365      524F525F 
 8365      48415244 
 8365      57415245 
 8366              	.LASF58:
 8367 00f7 4359424C 		.ascii	"CYBLE_EVT_GATT_DISCONNECT_IND\000"
 8367      455F4556 
 8367      545F4741 
 8367      54545F44 
 8367      4953434F 
 8368              	.LASF215:
 8369 0115 6C616374 		.ascii	"lactate\000"
 8369      61746500 
 8370              	.LASF199:
 8371 011d 52746961 		.ascii	"RtiaCalValue\000"
 8371      43616C56 
 8371      616C7565 
 8371      00
 8372              	.LASF287:
 8373 012a 6576656E 		.ascii	"eventParam\000"
 8373      74506172 
 8373      616D00
 8374              	.LASF274:
 8375 0135 44696167 		.ascii	"DiagnosticsElectrodes\000"
ARM GAS  C:\Users\13740\AppData\Local\Temp\cc6vMOIu.s 			page 191


 8375      6E6F7374 
 8375      69637345 
 8375      6C656374 
 8375      726F6465 
 8376              	.LASF53:
 8377 014b 4359424C 		.ascii	"CYBLE_EVT_GAP_SCAN_REQ_RECVD\000"
 8377      455F4556 
 8377      545F4741 
 8377      505F5343 
 8377      414E5F52 
 8378              	.LASF310:
 8379 0168 64697370 		.ascii	"display_step\000"
 8379      6C61795F 
 8379      73746570 
 8379      00
 8380              	.LASF59:
 8381 0175 4359424C 		.ascii	"CYBLE_EVT_GATTS_XCNHG_MTU_REQ\000"
 8381      455F4556 
 8381      545F4741 
 8381      5454535F 
 8381      58434E48 
 8382              	.LASF278:
 8383 0193 64617461 		.ascii	"dataString\000"
 8383      53747269 
 8383      6E6700
 8384              	.LASF77:
 8385 019e 4359424C 		.ascii	"CYBLE_EVT_GATTS_DATA_SIGNED_CMD_REQ\000"
 8385      455F4556 
 8385      545F4741 
 8385      5454535F 
 8385      44415441 
 8386              	.LASF99:
 8387 01c2 4359424C 		.ascii	"CYBLE_ERROR_INVALID_OPERATION\000"
 8387      455F4552 
 8387      524F525F 
 8387      494E5641 
 8387      4C49445F 
 8388              	.LASF28:
 8389 01e0 4359424C 		.ascii	"CYBLE_EVT_HARDWARE_ERROR\000"
 8389      455F4556 
 8389      545F4841 
 8389      52445741 
 8389      52455F45 
 8390              	.LASF12:
 8391 01f9 756E7369 		.ascii	"unsigned int\000"
 8391      676E6564 
 8391      20696E74 
 8391      00
 8392              	.LASF93:
 8393 0206 4359424C 		.ascii	"CYBLE_EVT_LE_PING_AUTH_TIMEOUT\000"
 8393      455F4556 
 8393      545F4C45 
 8393      5F50494E 
 8393      475F4155 
 8394              	.LASF90:
 8395 0225 4359424C 		.ascii	"CYBLE_EVT_L2CAP_CBFC_TX_CREDIT_IND\000"
 8395      455F4556 
ARM GAS  C:\Users\13740\AppData\Local\Temp\cc6vMOIu.s 			page 192


 8395      545F4C32 
 8395      4341505F 
 8395      43424643 
 8396              	.LASF210:
 8397 0248 43757272 		.ascii	"Current\000"
 8397      656E7400 
 8398              	.LASF70:
 8399 0250 4359424C 		.ascii	"CYBLE_EVT_GATTS_WRITE_CMD_REQ\000"
 8399      455F4556 
 8399      545F4741 
 8399      5454535F 
 8399      57524954 
 8400              	.LASF6:
 8401 026e 5F5F696E 		.ascii	"__int32_t\000"
 8401      7433325F 
 8401      7400
 8402              	.LASF104:
 8403 0278 4359424C 		.ascii	"CYBLE_ERROR_NO_DEVICE_ENTITY\000"
 8403      455F4552 
 8403      524F525F 
 8403      4E4F5F44 
 8403      45564943 
 8404              	.LASF247:
 8405 0295 6669666F 		.ascii	"fifocon\000"
 8405      636F6E00 
 8406              	.LASF136:
 8407 029d 4359424C 		.ascii	"CYBLE_LP_MODE_T\000"
 8407      455F4C50 
 8407      5F4D4F44 
 8407      455F5400 
 8408              	.LASF263:
 8409 02ad 766F6C74 		.ascii	"voltage\000"
 8409      61676500 
 8410              	.LASF343:
 8411 02b5 675F5265 		.ascii	"g_RegTable\000"
 8411      67546162 
 8411      6C6500
 8412              	.LASF344:
 8413 02c0 474E5520 		.ascii	"GNU C11 5.4.1 20160609 (release) [ARM/embedded-5-br"
 8413      43313120 
 8413      352E342E 
 8413      31203230 
 8413      31363036 
 8414 02f3 616E6368 		.ascii	"anch revision 237715] -mcpu=cortex-m0 -mthumb -g -O"
 8414      20726576 
 8414      6973696F 
 8414      6E203233 
 8414      37373135 
 8415 0326 30202D66 		.ascii	"0 -ffunction-sections -ffat-lto-objects\000"
 8415      66756E63 
 8415      74696F6E 
 8415      2D736563 
 8415      74696F6E 
 8416              	.LASF209:
 8417 034e 41707041 		.ascii	"AppAMPCfg_Type\000"
 8417      4D504366 
 8417      675F5479 
ARM GAS  C:\Users\13740\AppData\Local\Temp\cc6vMOIu.s 			page 193


 8417      706500
 8418              	.LASF205:
 8419 035d 496E6974 		.ascii	"InitSeqInfo\000"
 8419      53657149 
 8419      6E666F00 
 8420              	.LASF267:
 8421 0369 70437572 		.ascii	"pCurrentData\000"
 8421      72656E74 
 8421      44617461 
 8421      00
 8422              	.LASF105:
 8423 0376 4359424C 		.ascii	"CYBLE_ERROR_REPEATED_ATTEMPTS\000"
 8423      455F4552 
 8423      524F525F 
 8423      52455045 
 8423      41544544 
 8424              	.LASF34:
 8425 0394 4359424C 		.ascii	"CYBLE_EVT_GAP_PASSKEY_ENTRY_REQUEST\000"
 8425      455F4556 
 8425      545F4741 
 8425      505F5041 
 8425      53534B45 
 8426              	.LASF341:
 8427 03b8 616D7042 		.ascii	"ampBuffer\000"
 8427      75666665 
 8427      7200
 8428              	.LASF240:
 8429 03c2 6572726F 		.ascii	"error\000"
 8429      7200
 8430              	.LASF192:
 8431 03c8 41444350 		.ascii	"ADCPgaGain\000"
 8431      67614761 
 8431      696E00
 8432              	.LASF128:
 8433 03d3 4359424C 		.ascii	"CYBLE_ERROR_INVALID_STATE\000"
 8433      455F4552 
 8433      524F525F 
 8433      494E5641 
 8433      4C49445F 
 8434              	.LASF330:
 8435 03ed 675F7265 		.ascii	"g_reg_index\000"
 8435      675F696E 
 8435      64657800 
 8436              	.LASF191:
 8437 03f9 5077724D 		.ascii	"PwrMod\000"
 8437      6F6400
 8438              	.LASF195:
 8439 0400 44617461 		.ascii	"DataFifoSrc\000"
 8439      4669666F 
 8439      53726300 
 8440              	.LASF207:
 8441 040c 53746F70 		.ascii	"StopRequired\000"
 8441      52657175 
 8441      69726564 
 8441      00
 8442              	.LASF335:
 8443 0419 6D61696E 		.ascii	"mainTimer\000"
ARM GAS  C:\Users\13740\AppData\Local\Temp\cc6vMOIu.s 			page 194


 8443      54696D65 
 8443      7200
 8444              	.LASF42:
 8445 0423 4359424C 		.ascii	"CYBLE_EVT_GAP_CONNECTION_UPDATE_COMPLETE\000"
 8445      455F4556 
 8445      545F4741 
 8445      505F434F 
 8445      4E4E4543 
 8446              	.LASF276:
 8447 044c 53656E64 		.ascii	"SendLactateDataViaBLE\000"
 8447      4C616374 
 8447      61746544 
 8447      61746156 
 8447      6961424C 
 8448              	.LASF242:
 8449 0462 63686970 		.ascii	"chipid\000"
 8449      696400
 8450              	.LASF45:
 8451 0469 4359424C 		.ascii	"CYBLE_EVT_GAP_NUMERIC_COMPARISON_REQUEST\000"
 8451      455F4556 
 8451      545F4741 
 8451      505F4E55 
 8451      4D455249 
 8452              	.LASF185:
 8453 0492 41646343 		.ascii	"AdcClkFreq\000"
 8453      6C6B4672 
 8453      657100
 8454              	.LASF17:
 8455 049d 75696E74 		.ascii	"uint8\000"
 8455      3800
 8456              	.LASF250:
 8457 04a3 61646363 		.ascii	"adccon\000"
 8457      6F6E00
 8458              	.LASF183:
 8459 04aa 53797343 		.ascii	"SysClkFreq\000"
 8459      6C6B4672 
 8459      657100
 8460              	.LASF175:
 8461 04b5 50686173 		.ascii	"Phase\000"
 8461      6500
 8462              	.LASF16:
 8463 04bb 75696E74 		.ascii	"uint32_t\000"
 8463      33325F74 
 8463      00
 8464              	.LASF92:
 8465 04c4 4359424C 		.ascii	"CYBLE_EVT_PENDING_FLASH_WRITE\000"
 8465      455F4556 
 8465      545F5045 
 8465      4E44494E 
 8465      475F464C 
 8466              	.LASF327:
 8467 04e2 675F7365 		.ascii	"g_seqcon_measure\000"
 8467      71636F6E 
 8467      5F6D6561 
 8467      73757265 
 8467      00
 8468              	.LASF69:
ARM GAS  C:\Users\13740\AppData\Local\Temp\cc6vMOIu.s 			page 195


 8469 04f3 4359424C 		.ascii	"CYBLE_EVT_GATTC_WRITE_RSP\000"
 8469      455F4556 
 8469      545F4741 
 8469      5454435F 
 8469      57524954 
 8470              	.LASF11:
 8471 050d 6C6F6E67 		.ascii	"long long unsigned int\000"
 8471      206C6F6E 
 8471      6720756E 
 8471      7369676E 
 8471      65642069 
 8472              	.LASF20:
 8473 0524 666C6F61 		.ascii	"float\000"
 8473      7400
 8474              	.LASF280:
 8475 052a 53656E64 		.ascii	"SendTemperatureViaBLE\000"
 8475      54656D70 
 8475      65726174 
 8475      75726556 
 8475      6961424C 
 8476              	.LASF193:
 8477 0540 41444353 		.ascii	"ADCSinc3Osr\000"
 8477      696E6333 
 8477      4F737200 
 8478              	.LASF286:
 8479 054c 6576656E 		.ascii	"event\000"
 8479      7400
 8480              	.LASF30:
 8481 0552 4359424C 		.ascii	"CYBLE_EVT_STACK_BUSY_STATUS\000"
 8481      455F4556 
 8481      545F5354 
 8481      41434B5F 
 8481      42555359 
 8482              	.LASF304:
 8483 056e 72746961 		.ascii	"rtia\000"
 8483      00
 8484              	.LASF83:
 8485 0573 4359424C 		.ascii	"CYBLE_EVT_L2CAP_COMMAND_REJ\000"
 8485      455F4556 
 8485      545F4C32 
 8485      4341505F 
 8485      434F4D4D 
 8486              	.LASF229:
 8487 058f 494E4954 		.ascii	"INIT_CHECK_ID\000"
 8487      5F434845 
 8487      434B5F49 
 8487      4400
 8488              	.LASF177:
 8489 059d 62506172 		.ascii	"bParaChanged\000"
 8489      61436861 
 8489      6E676564 
 8489      00
 8490              	.LASF283:
 8491 05aa 53656E64 		.ascii	"SendAllSensorDataViaBLE\000"
 8491      416C6C53 
 8491      656E736F 
 8491      72446174 
ARM GAS  C:\Users\13740\AppData\Local\Temp\cc6vMOIu.s 			page 196


 8491      61566961 
 8492              	.LASF131:
 8493 05c2 4359424C 		.ascii	"CYBLE_BLESS_ACTIVE\000"
 8493      455F424C 
 8493      4553535F 
 8493      41435449 
 8493      564500
 8494              	.LASF189:
 8495 05d5 5263616C 		.ascii	"RcalVal\000"
 8495      56616C00 
 8496              	.LASF318:
 8497 05dd 675F7465 		.ascii	"g_test_fifo_count\000"
 8497      73745F66 
 8497      69666F5F 
 8497      636F756E 
 8497      7400
 8498              	.LASF314:
 8499 05ef 675F7465 		.ascii	"g_test_chipid\000"
 8499      73745F63 
 8499      68697069 
 8499      6400
 8500              	.LASF68:
 8501 05fd 4359424C 		.ascii	"CYBLE_EVT_GATTS_WRITE_REQ\000"
 8501      455F4556 
 8501      545F4741 
 8501      5454535F 
 8501      57524954 
 8502              	.LASF303:
 8503 0617 6164635F 		.ascii	"adc_code\000"
 8503      636F6465 
 8503      00
 8504              	.LASF239:
 8505 0620 7265675F 		.ascii	"reg_data\000"
 8505      64617461 
 8505      00
 8506              	.LASF169:
 8507 0629 53657152 		.ascii	"SeqRamAddr\000"
 8507      616D4164 
 8507      647200
 8508              	.LASF158:
 8509 0634 4359424C 		.ascii	"CYBLE_STATE_STOPPED\000"
 8509      455F5354 
 8509      4154455F 
 8509      53544F50 
 8509      50454400 
 8510              	.LASF211:
 8511 0648 566F6C74 		.ascii	"Voltage\000"
 8511      61676500 
 8512              	.LASF212:
 8513 0650 66416D70 		.ascii	"fAmpRes_Type\000"
 8513      5265735F 
 8513      54797065 
 8513      00
 8514              	.LASF333:
 8515 065d 6379426C 		.ascii	"cyBle_connHandle\000"
 8515      655F636F 
 8515      6E6E4861 
ARM GAS  C:\Users\13740\AppData\Local\Temp\cc6vMOIu.s 			page 197


 8515      6E646C65 
 8515      00
 8516              	.LASF63:
 8517 066e 4359424C 		.ascii	"CYBLE_EVT_GATTC_FIND_INFO_RSP\000"
 8517      455F4556 
 8517      545F4741 
 8517      5454435F 
 8517      46494E44 
 8518              	.LASF139:
 8519 068c 4359424C 		.ascii	"CYBLE_BLESS_STATE_SLEEP\000"
 8519      455F424C 
 8519      4553535F 
 8519      53544154 
 8519      455F534C 
 8520              	.LASF160:
 8521 06a4 4359424C 		.ascii	"CYBLE_STATE_CONNECTED\000"
 8521      455F5354 
 8521      4154455F 
 8521      434F4E4E 
 8521      45435445 
 8522              	.LASF272:
 8523 06ba 656E6162 		.ascii	"enable\000"
 8523      6C6500
 8524              	.LASF302:
 8525 06c1 6669666F 		.ascii	"fifo_data\000"
 8525      5F646174 
 8525      6100
 8526              	.LASF231:
 8527 06cb 494E4954 		.ascii	"INIT_VERIFY_REG\000"
 8527      5F564552 
 8527      4946595F 
 8527      52454700 
 8528              	.LASF64:
 8529 06db 4359424C 		.ascii	"CYBLE_EVT_GATTC_FIND_BY_TYPE_VALUE_RSP\000"
 8529      455F4556 
 8529      545F4741 
 8529      5454435F 
 8529      46494E44 
 8530              	.LASF154:
 8531 0702 76616C75 		.ascii	"value\000"
 8531      6500
 8532              	.LASF323:
 8533 0708 675F6669 		.ascii	"g_fifo_count_measure\000"
 8533      666F5F63 
 8533      6F756E74 
 8533      5F6D6561 
 8533      73757265 
 8534              	.LASF320:
 8535 071d 675F6669 		.ascii	"g_fifocon_measure\000"
 8535      666F636F 
 8535      6E5F6D65 
 8535      61737572 
 8535      6500
 8536              	.LASF72:
 8537 072f 4359424C 		.ascii	"CYBLE_EVT_GATTS_EXEC_WRITE_REQ\000"
 8537      455F4556 
 8537      545F4741 
ARM GAS  C:\Users\13740\AppData\Local\Temp\cc6vMOIu.s 			page 198


 8537      5454535F 
 8537      45584543 
 8538              	.LASF73:
 8539 074e 4359424C 		.ascii	"CYBLE_EVT_GATTC_EXEC_WRITE_RSP\000"
 8539      455F4556 
 8539      545F4741 
 8539      5454435F 
 8539      45584543 
 8540              	.LASF332:
 8541 076d 6379426C 		.ascii	"cyBle_state\000"
 8541      655F7374 
 8541      61746500 
 8542              	.LASF151:
 8543 0779 4359424C 		.ascii	"CYBLE_CONN_HANDLE_T\000"
 8543      455F434F 
 8543      4E4E5F48 
 8543      414E444C 
 8543      455F5400 
 8544              	.LASF157:
 8545 078d 4359424C 		.ascii	"CYBLE_GATTS_HANDLE_VALUE_NTF_T\000"
 8545      455F4741 
 8545      5454535F 
 8545      48414E44 
 8545      4C455F56 
 8546              	.LASF342:
 8547 07ac 616D7052 		.ascii	"ampResult\000"
 8547      6573756C 
 8547      7400
 8548              	.LASF197:
 8549 07b6 4C705469 		.ascii	"LpTiaRf\000"
 8549      61526600 
 8550              	.LASF340:
 8551 07be 70416D70 		.ascii	"pAmpCfg\000"
 8551      43666700 
 8552              	.LASF300:
 8553 07c6 6669666F 		.ascii	"fifo_count\000"
 8553      5F636F75 
 8553      6E7400
 8554              	.LASF79:
 8555 07d1 4359424C 		.ascii	"CYBLE_EVT_GATTS_READ_CHAR_VAL_ACCESS_REQ\000"
 8555      455F4556 
 8555      545F4741 
 8555      5454535F 
 8555      52454144 
 8556              	.LASF36:
 8557 07fa 4359424C 		.ascii	"CYBLE_EVT_GAP_AUTH_COMPLETE\000"
 8557      455F4556 
 8557      545F4741 
 8557      505F4155 
 8557      54485F43 
 8558              	.LASF108:
 8559 0816 4359424C 		.ascii	"CYBLE_ERROR_BT_ON_NOT_COMPLETED\000"
 8559      455F4552 
 8559      524F525F 
 8559      42545F4F 
 8559      4E5F4E4F 
 8560              	.LASF126:
ARM GAS  C:\Users\13740\AppData\Local\Temp\cc6vMOIu.s 			page 199


 8561 0836 4359424C 		.ascii	"CYBLE_ERROR_IND_DISABLED\000"
 8561      455F4552 
 8561      524F525F 
 8561      494E445F 
 8561      44495341 
 8562              	.LASF295:
 8563 084f 6164636D 		.ascii	"adcmux\000"
 8563      757800
 8564              	.LASF281:
 8565 0856 74656D70 		.ascii	"tempString\000"
 8565      53747269 
 8565      6E6700
 8566              	.LASF21:
 8567 0861 646F7562 		.ascii	"double\000"
 8567      6C6500
 8568              	.LASF168:
 8569 0868 53657149 		.ascii	"SeqId\000"
 8569      6400
 8570              	.LASF65:
 8571 086e 4359424C 		.ascii	"CYBLE_EVT_GATTC_READ_RSP\000"
 8571      455F4556 
 8571      545F4741 
 8571      5454435F 
 8571      52454144 
 8572              	.LASF214:
 8573 0887 676C7563 		.ascii	"glucose\000"
 8573      6F736500 
 8574              	.LASF179:
 8575 088f 4D617853 		.ascii	"MaxSeqLen\000"
 8575      65714C65 
 8575      6E00
 8576              	.LASF60:
 8577 0899 4359424C 		.ascii	"CYBLE_EVT_GATTC_XCHNG_MTU_RSP\000"
 8577      455F4556 
 8577      545F4741 
 8577      5454435F 
 8577      5843484E 
 8578              	.LASF317:
 8579 08b7 675F7465 		.ascii	"g_test_fifocon\000"
 8579      73745F66 
 8579      69666F63 
 8579      6F6E00
 8580              	.LASF95:
 8581 08c6 4359424C 		.ascii	"CYBLE_EVT_FLASH_CORRUPT\000"
 8581      455F4556 
 8581      545F464C 
 8581      4153485F 
 8581      434F5252 
 8582              	.LASF251:
 8583 08de 6C707469 		.ascii	"lptiacon\000"
 8583      61636F6E 
 8583      00
 8584              	.LASF336:
 8585 08e7 6D656173 		.ascii	"measurementFlag\000"
 8585      7572656D 
 8585      656E7446 
 8585      6C616700 
ARM GAS  C:\Users\13740\AppData\Local\Temp\cc6vMOIu.s 			page 200


 8586              	.LASF155:
 8587 08f7 61747472 		.ascii	"attrHandle\000"
 8587      48616E64 
 8587      6C6500
 8588              	.LASF173:
 8589 0902 53455149 		.ascii	"SEQInfo_Type\000"
 8589      6E666F5F 
 8589      54797065 
 8589      00
 8590              	.LASF188:
 8591 090f 4E756D4F 		.ascii	"NumOfData\000"
 8591      66446174 
 8591      6100
 8592              	.LASF196:
 8593 0919 4C707469 		.ascii	"LptiaRtiaSel\000"
 8593      61527469 
 8593      6153656C 
 8593      00
 8594              	.LASF66:
 8595 0926 4359424C 		.ascii	"CYBLE_EVT_GATTC_READ_BLOB_RSP\000"
 8595      455F4556 
 8595      545F4741 
 8595      5454435F 
 8595      52454144 
 8596              	.LASF102:
 8597 0944 4359424C 		.ascii	"CYBLE_ERROR_OOB_NOT_AVAILABLE\000"
 8597      455F4552 
 8597      524F525F 
 8597      4F4F425F 
 8597      4E4F545F 
 8598              	.LASF82:
 8599 0962 4359424C 		.ascii	"CYBLE_EVT_L2CAP_CONN_PARAM_UPDATE_RSP\000"
 8599      455F4556 
 8599      545F4C32 
 8599      4341505F 
 8599      434F4E4E 
 8600              	.LASF89:
 8601 0988 4359424C 		.ascii	"CYBLE_EVT_L2CAP_CBFC_RX_CREDIT_IND\000"
 8601      455F4556 
 8601      545F4C32 
 8601      4341505F 
 8601      43424643 
 8602              	.LASF275:
 8603 09ab 53656E64 		.ascii	"SendGlucoseDataViaBLE\000"
 8603      476C7563 
 8603      6F736544 
 8603      61746156 
 8603      6961424C 
 8604              	.LASF289:
 8605 09c1 696E7465 		.ascii	"interruptStatus\000"
 8605      72727570 
 8605      74537461 
 8605      74757300 
 8606              	.LASF85:
 8607 09d1 4359424C 		.ascii	"CYBLE_EVT_L2CAP_CBFC_CONN_CNF\000"
 8607      455F4556 
 8607      545F4C32 
ARM GAS  C:\Users\13740\AppData\Local\Temp\cc6vMOIu.s 			page 201


 8607      4341505F 
 8607      43424643 
 8608              	.LASF163:
 8609 09ef 4359424C 		.ascii	"CYBLE_STATE_T\000"
 8609      455F5354 
 8609      4154455F 
 8609      5400
 8610              	.LASF4:
 8611 09fd 5F5F7569 		.ascii	"__uint16_t\000"
 8611      6E743136 
 8611      5F7400
 8612              	.LASF329:
 8613 0a08 675F696E 		.ascii	"g_init_state\000"
 8613      69745F73 
 8613      74617465 
 8613      00
 8614              	.LASF204:
 8615 0a15 414D5049 		.ascii	"AMPInited\000"
 8615      6E697465 
 8615      6400
 8616              	.LASF213:
 8617 0a1f 74656D70 		.ascii	"temperature\000"
 8617      65726174 
 8617      75726500 
 8618              	.LASF265:
 8619 0a2b 52656164 		.ascii	"ReadCurrentFromAD5940\000"
 8619      43757272 
 8619      656E7446 
 8619      726F6D41 
 8619      44353934 
 8620              	.LASF100:
 8621 0a41 4359424C 		.ascii	"CYBLE_ERROR_MEMORY_ALLOCATION_FAILED\000"
 8621      455F4552 
 8621      524F525F 
 8621      4D454D4F 
 8621      52595F41 
 8622              	.LASF121:
 8623 0a66 4359424C 		.ascii	"CYBLE_ERROR_UNSUPPORTED_FEATURE_OR_PARAMETER_VALUE\000"
 8623      455F4552 
 8623      524F525F 
 8623      554E5355 
 8623      50504F52 
 8624              	.LASF186:
 8625 0a99 4669666F 		.ascii	"FifoThresh\000"
 8625      54687265 
 8625      736800
 8626              	.LASF29:
 8627 0aa4 4359424C 		.ascii	"CYBLE_EVT_HCI_STATUS\000"
 8627      455F4556 
 8627      545F4843 
 8627      495F5354 
 8627      41545553 
 8628              	.LASF109:
 8629 0ab9 4359424C 		.ascii	"CYBLE_ERROR_SEC_FAILED\000"
 8629      455F4552 
 8629      524F525F 
 8629      5345435F 
ARM GAS  C:\Users\13740\AppData\Local\Temp\cc6vMOIu.s 			page 202


 8629      4641494C 
 8630              	.LASF22:
 8631 0ad0 63686172 		.ascii	"char\000"
 8631      00
 8632              	.LASF254:
 8633 0ad5 63757272 		.ascii	"current_uA\000"
 8633      656E745F 
 8633      754100
 8634              	.LASF348:
 8635 0ae0 4C6F7750 		.ascii	"LowPowerImplementation\000"
 8635      6F776572 
 8635      496D706C 
 8635      656D656E 
 8635      74617469 
 8636              	.LASF118:
 8637 0af7 4359424C 		.ascii	"CYBLE_ERROR_FLASH_WRITE_NOT_PERMITED\000"
 8637      455F4552 
 8637      524F525F 
 8637      464C4153 
 8637      485F5752 
 8638              	.LASF288:
 8639 0b1c 626C654D 		.ascii	"bleMode\000"
 8639      6F646500 
 8640              	.LASF236:
 8641 0b24 494E4954 		.ascii	"INIT_COMPLETE\000"
 8641      5F434F4D 
 8641      504C4554 
 8641      4500
 8642              	.LASF101:
 8643 0b32 4359424C 		.ascii	"CYBLE_ERROR_INSUFFICIENT_RESOURCES\000"
 8643      455F4552 
 8643      524F525F 
 8643      494E5355 
 8643      46464943 
 8644              	.LASF166:
 8645 0b55 62545255 		.ascii	"bTRUE\000"
 8645      4500
 8646              	.LASF119:
 8647 0b5b 4359424C 		.ascii	"CYBLE_ERROR_MIC_AUTH_FAILED\000"
 8647      455F4552 
 8647      524F525F 
 8647      4D49435F 
 8647      41555448 
 8648              	.LASF153:
 8649 0b77 4359424C 		.ascii	"CYBLE_GATT_VALUE_T\000"
 8649      455F4741 
 8649      54545F56 
 8649      414C5545 
 8649      5F5400
 8650              	.LASF298:
 8651 0b8a 73657173 		.ascii	"seqsta\000"
 8651      746100
 8652              	.LASF26:
 8653 0b91 4359424C 		.ascii	"CYBLE_EVT_STACK_ON\000"
 8653      455F4556 
 8653      545F5354 
 8653      41434B5F 
ARM GAS  C:\Users\13740\AppData\Local\Temp\cc6vMOIu.s 			page 203


 8653      4F4E00
 8654              	.LASF18:
 8655 0ba4 75696E74 		.ascii	"uint16\000"
 8655      313600
 8656              	.LASF148:
 8657 0bab 4359424C 		.ascii	"CYBLE_GATT_DB_ATTR_HANDLE_T\000"
 8657      455F4741 
 8657      54545F44 
 8657      425F4154 
 8657      54525F48 
 8658              	.LASF226:
 8659 0bc7 416D7065 		.ascii	"AmperometricSensor_t\000"
 8659      726F6D65 
 8659      74726963 
 8659      53656E73 
 8659      6F725F74 
 8660              	.LASF249:
 8661 0bdc 61666563 		.ascii	"afecon\000"
 8661      6F6E00
 8662              	.LASF81:
 8663 0be3 4359424C 		.ascii	"CYBLE_EVT_L2CAP_CONN_PARAM_UPDATE_REQ\000"
 8663      455F4556 
 8663      545F4C32 
 8663      4341505F 
 8663      434F4E4E 
 8664              	.LASF13:
 8665 0c09 75696E74 		.ascii	"uint8_t\000"
 8665      385F7400 
 8666              	.LASF117:
 8667 0c11 4359424C 		.ascii	"CYBLE_ERROR_DEVICE_ALREADY_EXISTS\000"
 8667      455F4552 
 8667      524F525F 
 8667      44455649 
 8667      43455F41 
 8668              	.LASF260:
 8669 0c33 636F6E63 		.ascii	"concentration\000"
 8669      656E7472 
 8669      6174696F 
 8669      6E00
 8670              	.LASF176:
 8671 0c41 66496D70 		.ascii	"fImpPol_Type\000"
 8671      506F6C5F 
 8671      54797065 
 8671      00
 8672              	.LASF218:
 8673 0c4e 63757272 		.ascii	"current_glucose_nA\000"
 8673      656E745F 
 8673      676C7563 
 8673      6F73655F 
 8673      6E4100
 8674              	.LASF48:
 8675 0c61 4359424C 		.ascii	"CYBLE_EVT_GAP_DATA_LENGTH_CHANGE\000"
 8675      455F4556 
 8675      545F4741 
 8675      505F4441 
 8675      54415F4C 
 8676              	.LASF202:
ARM GAS  C:\Users\13740\AppData\Local\Temp\cc6vMOIu.s 			page 204


 8677 0c82 45787452 		.ascii	"ExtRtia\000"
 8677      74696100 
 8678              	.LASF241:
 8679 0c8a 61646969 		.ascii	"adiid\000"
 8679      6400
 8680              	.LASF331:
 8681 0c90 6379426C 		.ascii	"cyBle_pendingFlashWrite\000"
 8681      655F7065 
 8681      6E64696E 
 8681      67466C61 
 8681      73685772 
 8682              	.LASF125:
 8683 0ca8 4359424C 		.ascii	"CYBLE_ERROR_NTF_DISABLED\000"
 8683      455F4552 
 8683      524F525F 
 8683      4E54465F 
 8683      44495341 
 8684              	.LASF129:
 8685 0cc1 4359424C 		.ascii	"CYBLE_ERROR_STACK_BUSY\000"
 8685      455F4552 
 8685      524F525F 
 8685      53544143 
 8685      4B5F4255 
 8686              	.LASF305:
 8687 0cd8 76726566 		.ascii	"vref\000"
 8687      00
 8688              	.LASF312:
 8689 0cdd 6C6F6361 		.ascii	"localAddr\000"
 8689      6C416464 
 8689      7200
 8690              	.LASF334:
 8691 0ce7 61706952 		.ascii	"apiResult\000"
 8691      6573756C 
 8691      7400
 8692              	.LASF244:
 8693 0cf1 61747465 		.ascii	"attempt\000"
 8693      6D707400 
 8694              	.LASF10:
 8695 0cf9 6C6F6E67 		.ascii	"long long int\000"
 8695      206C6F6E 
 8695      6720696E 
 8695      7400
 8696              	.LASF142:
 8697 0d07 4359424C 		.ascii	"CYBLE_BLESS_STATE_DEEPSLEEP\000"
 8697      455F424C 
 8697      4553535F 
 8697      53544154 
 8697      455F4445 
 8698              	.LASF345:
 8699 0d23 6D61696E 		.ascii	"main.c\000"
 8699      2E6300
 8700              	.LASF292:
 8701 0d2a 61646472 		.ascii	"addr_2080\000"
 8701      5F323038 
 8701      3000
 8702              	.LASF220:
 8703 0d34 63757272 		.ascii	"current_uric_nA\000"
ARM GAS  C:\Users\13740\AppData\Local\Temp\cc6vMOIu.s 			page 205


 8703      656E745F 
 8703      75726963 
 8703      5F6E4100 
 8704              	.LASF293:
 8705 0d44 61646472 		.ascii	"addr_2084\000"
 8705      5F323038 
 8705      3400
 8706              	.LASF56:
 8707 0d4e 4359424C 		.ascii	"CYBLE_EVT_GATTC_ERROR_RSP\000"
 8707      455F4556 
 8707      545F4741 
 8707      5454435F 
 8707      4552524F 
 8708              	.LASF270:
 8709 0d68 74656D70 		.ascii	"temp_factor\000"
 8709      5F666163 
 8709      746F7200 
 8710              	.LASF116:
 8711 0d74 4359424C 		.ascii	"CYBLE_ERROR_GATT_DB_INVALID_ATTR_HANDLE\000"
 8711      455F4552 
 8711      524F525F 
 8711      47415454 
 8711      5F44425F 
 8712              	.LASF208:
 8713 0d9c 4669666F 		.ascii	"FifoDataCount\000"
 8713      44617461 
 8713      436F756E 
 8713      7400
 8714              	.LASF243:
 8715 0daa 69645F76 		.ascii	"id_valid\000"
 8715      616C6964 
 8715      00
 8716              	.LASF159:
 8717 0db3 4359424C 		.ascii	"CYBLE_STATE_INITIALIZING\000"
 8717      455F5354 
 8717      4154455F 
 8717      494E4954 
 8717      49414C49 
 8718              	.LASF237:
 8719 0dcc 496E6974 		.ascii	"InitState_t\000"
 8719      53746174 
 8719      655F7400 
 8720              	.LASF124:
 8721 0dd8 4359424C 		.ascii	"CYBLE_ERROR_MAX\000"
 8721      455F4552 
 8721      524F525F 
 8721      4D415800 
 8722              	.LASF224:
 8723 0de8 53454E53 		.ascii	"SENSOR_URIC_ACID\000"
 8723      4F525F55 
 8723      5249435F 
 8723      41434944 
 8723      00
 8724              	.LASF184:
 8725 0df9 57757074 		.ascii	"WuptClkFreq\000"
 8725      436C6B46 
 8725      72657100 
ARM GAS  C:\Users\13740\AppData\Local\Temp\cc6vMOIu.s 			page 206


 8726              	.LASF113:
 8727 0e05 4359424C 		.ascii	"CYBLE_ERROR_L2CAP_CONNECTION_ENTITY_NOT_FOUND\000"
 8727      455F4552 
 8727      524F525F 
 8727      4C324341 
 8727      505F434F 
 8728              	.LASF187:
 8729 0e33 416D704F 		.ascii	"AmpODR\000"
 8729      445200
 8730              	.LASF296:
 8731 0e3a 61646366 		.ascii	"adcfilter\000"
 8731      696C7465 
 8731      7200
 8732              	.LASF216:
 8733 0e44 75726963 		.ascii	"uric_acid\000"
 8733      5F616369 
 8733      6400
 8734              	.LASF256:
 8735 0e4e 4D656173 		.ascii	"MeasureAmperometricSensor\000"
 8735      75726541 
 8735      6D706572 
 8735      6F6D6574 
 8735      72696353 
 8736              	.LASF110:
 8737 0e68 4359424C 		.ascii	"CYBLE_ERROR_L2CAP_PSM_WRONG_ENCODING\000"
 8737      455F4552 
 8737      524F525F 
 8737      4C324341 
 8737      505F5053 
 8738              	.LASF273:
 8739 0e8d 436F6E74 		.ascii	"ControlElectricalStimulation\000"
 8739      726F6C45 
 8739      6C656374 
 8739      72696361 
 8739      6C537469 
 8740              	.LASF38:
 8741 0eaa 4359424C 		.ascii	"CYBLE_EVT_GAPP_ADVERTISEMENT_START_STOP\000"
 8741      455F4556 
 8741      545F4741 
 8741      50505F41 
 8741      44564552 
 8742              	.LASF165:
 8743 0ed2 6246414C 		.ascii	"bFALSE\000"
 8743      534500
 8744              	.LASF149:
 8745 0ed9 62644861 		.ascii	"bdHandle\000"
 8745      6E646C65 
 8745      00
 8746              	.LASF19:
 8747 0ee2 75696E74 		.ascii	"uint32\000"
 8747      333200
 8748              	.LASF228:
 8749 0ee9 494E4954 		.ascii	"INIT_RESET\000"
 8749      5F524553 
 8749      455400
 8750              	.LASF285:
 8751 0ef4 41707043 		.ascii	"AppCallBack\000"
ARM GAS  C:\Users\13740\AppData\Local\Temp\cc6vMOIu.s 			page 207


 8751      616C6C42 
 8751      61636B00 
 8752              	.LASF88:
 8753 0f00 4359424C 		.ascii	"CYBLE_EVT_L2CAP_CBFC_DATA_READ\000"
 8753      455F4556 
 8753      545F4C32 
 8753      4341505F 
 8753      43424643 
 8754              	.LASF162:
 8755 0f1f 4359424C 		.ascii	"CYBLE_STATE_DISCONNECTED\000"
 8755      455F5354 
 8755      4154455F 
 8755      44495343 
 8755      4F4E4E45 
 8756              	.LASF222:
 8757 0f38 53454E53 		.ascii	"SENSOR_GLUCOSE\000"
 8757      4F525F47 
 8757      4C55434F 
 8757      534500
 8758              	.LASF47:
 8759 0f47 4359424C 		.ascii	"CYBLE_EVT_GAP_OOB_GENERATED_NOTIFICATION\000"
 8759      455F4556 
 8759      545F4741 
 8759      505F4F4F 
 8759      425F4745 
 8760              	.LASF325:
 8761 0f70 675F6C70 		.ascii	"g_lptiacon_measure\000"
 8761      74696163 
 8761      6F6E5F6D 
 8761      65617375 
 8761      726500
 8762              	.LASF271:
 8763 0f83 436F6E74 		.ascii	"ControlDrugRelease\000"
 8763      726F6C44 
 8763      72756752 
 8763      656C6561 
 8763      736500
 8764              	.LASF135:
 8765 0f96 4359424C 		.ascii	"CYBLE_BLESS_INVALID\000"
 8765      455F424C 
 8765      4553535F 
 8765      494E5641 
 8765      4C494400 
 8766              	.LASF94:
 8767 0faa 4359424C 		.ascii	"CYBLE_EVT_HCI_PKT\000"
 8767      455F4556 
 8767      545F4843 
 8767      495F504B 
 8767      5400
 8768              	.LASF130:
 8769 0fbc 4359424C 		.ascii	"CYBLE_API_RESULT_T\000"
 8769      455F4150 
 8769      495F5245 
 8769      53554C54 
 8769      5F5400
 8770              	.LASF112:
 8771 0fcf 4359424C 		.ascii	"CYBLE_ERROR_L2CAP_PSM_NOT_REGISTERED\000"
ARM GAS  C:\Users\13740\AppData\Local\Temp\cc6vMOIu.s 			page 208


 8771      455F4552 
 8771      524F525F 
 8771      4C324341 
 8771      505F5053 
 8772              	.LASF167:
 8773 0ff4 426F6F6C 		.ascii	"BoolFlag\000"
 8773      466C6167 
 8773      00
 8774              	.LASF269:
 8775 0ffd 4D656173 		.ascii	"MeasureAllSensorsWithCurrent\000"
 8775      75726541 
 8775      6C6C5365 
 8775      6E736F72 
 8775      73576974 
 8776              	.LASF299:
 8777 101a 6C706461 		.ascii	"lpdaccon\000"
 8777      63636F6E 
 8777      00
 8778              	.LASF316:
 8779 1023 675F7465 		.ascii	"g_test_afecon\000"
 8779      73745F61 
 8779      6665636F 
 8779      6E00
 8780              	.LASF51:
 8781 1031 4359424C 		.ascii	"CYBLE_EVT_GAP_SMP_NEGOTIATED_AUTH_INFO\000"
 8781      455F4556 
 8781      545F4741 
 8781      505F534D 
 8781      505F4E45 
 8782              	.LASF232:
 8783 1058 494E4954 		.ascii	"INIT_CHECK_AFE\000"
 8783      5F434845 
 8783      434B5F41 
 8783      464500
 8784              	.LASF170:
 8785 1067 5365714C 		.ascii	"SeqLen\000"
 8785      656E00
 8786              	.LASF234:
 8787 106e 494E4954 		.ascii	"INIT_CONFIG_APP\000"
 8787      5F434F4E 
 8787      4649475F 
 8787      41505000 
 8788              	.LASF338:
 8789 107e 6C617374 		.ascii	"lastSendTime\000"
 8789      53656E64 
 8789      54696D65 
 8789      00
 8790              	.LASF23:
 8791 108b 6C6F6E67 		.ascii	"long double\000"
 8791      20646F75 
 8791      626C6500 
 8792              	.LASF14:
 8793 1097 75696E74 		.ascii	"uint16_t\000"
 8793      31365F74 
 8793      00
 8794              	.LASF219:
 8795 10a0 63757272 		.ascii	"current_lactate_nA\000"
ARM GAS  C:\Users\13740\AppData\Local\Temp\cc6vMOIu.s 			page 209


 8795      656E745F 
 8795      6C616374 
 8795      6174655F 
 8795      6E4100
 8796              	.LASF75:
 8797 10b3 4359424C 		.ascii	"CYBLE_EVT_GATTC_HANDLE_VALUE_IND\000"
 8797      455F4556 
 8797      545F4741 
 8797      5454435F 
 8797      48414E44 
 8798              	.LASF107:
 8799 10d4 4359424C 		.ascii	"CYBLE_ERROR_TX_POWER_READ\000"
 8799      455F4552 
 8799      524F525F 
 8799      54585F50 
 8799      4F574552 
 8800              	.LASF307:
 8801 10ee 6164635F 		.ascii	"adc_signed\000"
 8801      7369676E 
 8801      656400
 8802              	.LASF194:
 8803 10f9 41444353 		.ascii	"ADCSinc2Osr\000"
 8803      696E6332 
 8803      4F737200 
 8804              	.LASF144:
 8805 1105 4359424C 		.ascii	"CYBLE_BLESS_STATE_INVALID\000"
 8805      455F424C 
 8805      4553535F 
 8805      53544154 
 8805      455F494E 
 8806              	.LASF246:
 8807 111f 44696167 		.ascii	"DiagnoseFIFO\000"
 8807      6E6F7365 
 8807      4649464F 
 8807      00
 8808              	.LASF233:
 8809 112c 494E4954 		.ascii	"INIT_CHECK_FIFO\000"
 8809      5F434845 
 8809      434B5F46 
 8809      49464F00 
 8810              	.LASF122:
 8811 113c 4359424C 		.ascii	"CYBLE_ERROR_FLASH_WRITE\000"
 8811      455F4552 
 8811      524F525F 
 8811      464C4153 
 8811      485F5752 
 8812              	.LASF27:
 8813 1154 4359424C 		.ascii	"CYBLE_EVT_TIMEOUT\000"
 8813      455F4556 
 8813      545F5449 
 8813      4D454F55 
 8813      5400
 8814              	.LASF41:
 8815 1166 4359424C 		.ascii	"CYBLE_EVT_GAP_ENCRYPT_CHANGE\000"
 8815      455F4556 
 8815      545F4741 
 8815      505F454E 
ARM GAS  C:\Users\13740\AppData\Local\Temp\cc6vMOIu.s 			page 210


 8815      43525950 
 8816              	.LASF206:
 8817 1183 4D656173 		.ascii	"MeasureSeqInfo\000"
 8817      75726553 
 8817      6571496E 
 8817      666F00
 8818              	.LASF308:
 8819 1192 765F6164 		.ascii	"v_adc\000"
 8819      6300
 8820              	.LASF24:
 8821 1198 73697A65 		.ascii	"sizetype\000"
 8821      74797065 
 8821      00
 8822              	.LASF127:
 8823 11a1 4359424C 		.ascii	"CYBLE_ERROR_CHAR_IS_NOT_DISCOVERED\000"
 8823      455F4552 
 8823      524F525F 
 8823      43484152 
 8823      5F49535F 
 8824              	.LASF62:
 8825 11c4 4359424C 		.ascii	"CYBLE_EVT_GATTC_READ_BY_TYPE_RSP\000"
 8825      455F4556 
 8825      545F4741 
 8825      5454435F 
 8825      52454144 
 8826              	.LASF321:
 8827 11e5 675F6669 		.ascii	"g_fifosta_measure\000"
 8827      666F7374 
 8827      615F6D65 
 8827      61737572 
 8827      6500
 8828              	.LASF315:
 8829 11f7 675F7465 		.ascii	"g_test_reg_0908\000"
 8829      73745F72 
 8829      65675F30 
 8829      39303800 
 8830              	.LASF2:
 8831 1207 73686F72 		.ascii	"short int\000"
 8831      7420696E 
 8831      7400
 8832              	.LASF201:
 8833 1211 53656E73 		.ascii	"SensorBias\000"
 8833      6F724269 
 8833      617300
 8834              	.LASF238:
 8835 121c 7265675F 		.ascii	"reg_addr\000"
 8835      61646472 
 8835      00
 8836              	.LASF282:
 8837 1225 74657374 		.ascii	"testStep\000"
 8837      53746570 
 8837      00
 8838              	.LASF181:
 8839 122e 4D617853 		.ascii	"MaxSeqLenCal\000"
 8839      65714C65 
 8839      6E43616C 
 8839      00
ARM GAS  C:\Users\13740\AppData\Local\Temp\cc6vMOIu.s 			page 211


 8840              	.LASF7:
 8841 123b 6C6F6E67 		.ascii	"long int\000"
 8841      20696E74 
 8841      00
 8842              	.LASF180:
 8843 1244 53657153 		.ascii	"SeqStartAddrCal\000"
 8843      74617274 
 8843      41646472 
 8843      43616C00 
 8844              	.LASF57:
 8845 1254 4359424C 		.ascii	"CYBLE_EVT_GATT_CONNECT_IND\000"
 8845      455F4556 
 8845      545F4741 
 8845      54545F43 
 8845      4F4E4E45 
 8846              	.LASF96:
 8847 126f 4359424C 		.ascii	"CYBLE_EVT_MAX\000"
 8847      455F4556 
 8847      545F4D41 
 8847      5800
 8848              	.LASF49:
 8849 127d 4359424C 		.ascii	"CYBLE_EVT_GAP_ENHANCE_CONN_COMPLETE\000"
 8849      455F4556 
 8849      545F4741 
 8849      505F454E 
 8849      48414E43 
 8850              	.LASF67:
 8851 12a1 4359424C 		.ascii	"CYBLE_EVT_GATTC_READ_MULTI_RSP\000"
 8851      455F4556 
 8851      545F4741 
 8851      5454435F 
 8851      52454144 
 8852              	.LASF86:
 8853 12c0 4359424C 		.ascii	"CYBLE_EVT_L2CAP_CBFC_DISCONN_IND\000"
 8853      455F4556 
 8853      545F4C32 
 8853      4341505F 
 8853      43424643 
 8854              	.LASF140:
 8855 12e1 4359424C 		.ascii	"CYBLE_BLESS_STATE_ECO_ON\000"
 8855      455F424C 
 8855      4553535F 
 8855      53544154 
 8855      455F4543 
 8856              	.LASF245:
 8857 12fa 41443539 		.ascii	"AD5941_Initialize\000"
 8857      34315F49 
 8857      6E697469 
 8857      616C697A 
 8857      6500
 8858              	.LASF171:
 8859 130c 57726974 		.ascii	"WriteSRAM\000"
 8859      65535241 
 8859      4D00
 8860              	.LASF98:
 8861 1316 4359424C 		.ascii	"CYBLE_ERROR_INVALID_PARAMETER\000"
 8861      455F4552 
ARM GAS  C:\Users\13740\AppData\Local\Temp\cc6vMOIu.s 			page 212


 8861      524F525F 
 8861      494E5641 
 8861      4C49445F 
 8862              	.LASF32:
 8863 1334 4359424C 		.ascii	"CYBLE_EVT_GAPC_SCAN_PROGRESS_RESULT\000"
 8863      455F4556 
 8863      545F4741 
 8863      50435F53 
 8863      43414E5F 
 8864              	.LASF322:
 8865 1358 675F6166 		.ascii	"g_afecon_measure\000"
 8865      65636F6E 
 8865      5F6D6561 
 8865      73757265 
 8865      00
 8866              	.LASF133:
 8867 1369 4359424C 		.ascii	"CYBLE_BLESS_DEEPSLEEP\000"
 8867      455F424C 
 8867      4553535F 
 8867      44454550 
 8867      534C4545 
 8868              	.LASF182:
 8869 137f 5265446F 		.ascii	"ReDoRtiaCal\000"
 8869      52746961 
 8869      43616C00 
 8870              	.LASF50:
 8871 138b 4359424C 		.ascii	"CYBLE_EVT_GAPC_DIRECT_ADV_REPORT\000"
 8871      455F4556 
 8871      545F4741 
 8871      50435F44 
 8871      49524543 
 8872              	.LASF61:
 8873 13ac 4359424C 		.ascii	"CYBLE_EVT_GATTC_READ_BY_GROUP_TYPE_RSP\000"
 8873      455F4556 
 8873      545F4741 
 8873      5454435F 
 8873      52454144 
 8874              	.LASF309:
 8875 13d3 74657374 		.ascii	"testString\000"
 8875      53747269 
 8875      6E6700
 8876              	.LASF71:
 8877 13de 4359424C 		.ascii	"CYBLE_EVT_GATTS_PREP_WRITE_REQ\000"
 8877      455F4556 
 8877      545F4741 
 8877      5454535F 
 8877      50524550 
 8878              	.LASF152:
 8879 13fd 61637475 		.ascii	"actualLen\000"
 8879      616C4C65 
 8879      6E00
 8880              	.LASF143:
 8881 1407 4359424C 		.ascii	"CYBLE_BLESS_STATE_HIBERNATE\000"
 8881      455F424C 
 8881      4553535F 
 8881      53544154 
 8881      455F4849 
ARM GAS  C:\Users\13740\AppData\Local\Temp\cc6vMOIu.s 			page 213


 8882              	.LASF147:
 8883 1423 4359424C 		.ascii	"CYBLE_GAP_BD_ADDR_T\000"
 8883      455F4741 
 8883      505F4244 
 8883      5F414444 
 8883      525F5400 
 8884              	.LASF114:
 8885 1437 4359424C 		.ascii	"CYBLE_ERROR_L2CAP_CHANNEL_NOT_FOUND\000"
 8885      455F4552 
 8885      524F525F 
 8885      4C324341 
 8885      505F4348 
 8886              	.LASF3:
 8887 145b 5F5F7569 		.ascii	"__uint8_t\000"
 8887      6E74385F 
 8887      7400
 8888              	.LASF40:
 8889 1465 4359424C 		.ascii	"CYBLE_EVT_GAP_DEVICE_DISCONNECTED\000"
 8889      455F4556 
 8889      545F4741 
 8889      505F4445 
 8889      56494345 
 8890              	.LASF279:
 8891 1487 64696167 		.ascii	"diagStep\000"
 8891      53746570 
 8891      00
 8892              	.LASF190:
 8893 1490 41444352 		.ascii	"ADCRefVolt\000"
 8893      6566566F 
 8893      6C7400
 8894              	.LASF84:
 8895 149b 4359424C 		.ascii	"CYBLE_EVT_L2CAP_CBFC_CONN_IND\000"
 8895      455F4556 
 8895      545F4C32 
 8895      4341505F 
 8895      43424643 
 8896              	.LASF268:
 8897 14b9 52656164 		.ascii	"ReadCurrentFromSourceMeter_Simulated\000"
 8897      43757272 
 8897      656E7446 
 8897      726F6D53 
 8897      6F757263 
 8898              	.LASF248:
 8899 14de 6669666F 		.ascii	"fifosta\000"
 8899      73746100 
 8900              	.LASF297:
 8901 14e6 73657163 		.ascii	"seqcon\000"
 8901      6F6E00
 8902              	.LASF174:
 8903 14ed 4D61676E 		.ascii	"Magnitude\000"
 8903      69747564 
 8903      6500
 8904              	.LASF337:
 8905 14f7 675F5350 		.ascii	"g_SPI_Debug_Buf\000"
 8905      495F4465 
 8905      6275675F 
 8905      42756600 
ARM GAS  C:\Users\13740\AppData\Local\Temp\cc6vMOIu.s 			page 214


 8906              	.LASF291:
 8907 1507 6D61696E 		.ascii	"main\000"
 8907      00
 8908              	.LASF145:
 8909 150c 62644164 		.ascii	"bdAddr\000"
 8909      647200
 8910              	.LASF294:
 8911 1513 76657269 		.ascii	"verify_2080\000"
 8911      66795F32 
 8911      30383000 
 8912              	.LASF9:
 8913 151f 6C6F6E67 		.ascii	"long unsigned int\000"
 8913      20756E73 
 8913      69676E65 
 8913      6420696E 
 8913      7400
 8914              	.LASF111:
 8915 1531 4359424C 		.ascii	"CYBLE_ERROR_L2CAP_PSM_ALREADY_REGISTERED\000"
 8915      455F4552 
 8915      524F525F 
 8915      4C324341 
 8915      505F5053 
 8916              	.LASF44:
 8917 155a 4359424C 		.ascii	"CYBLE_EVT_GAP_KEYINFO_EXCHNGE_CMPLT\000"
 8917      455F4556 
 8917      545F4741 
 8917      505F4B45 
 8917      59494E46 
 8918              	.LASF35:
 8919 157e 4359424C 		.ascii	"CYBLE_EVT_GAP_PASSKEY_DISPLAY_REQUEST\000"
 8919      455F4556 
 8919      545F4741 
 8919      505F5041 
 8919      53534B45 
 8920              	.LASF80:
 8921 15a4 4359424C 		.ascii	"CYBLE_EVT_GATTC_LONG_PROCEDURE_END\000"
 8921      455F4556 
 8921      545F4741 
 8921      5454435F 
 8921      4C4F4E47 
 8922              	.LASF103:
 8923 15c7 4359424C 		.ascii	"CYBLE_ERROR_NO_CONNECTION\000"
 8923      455F4552 
 8923      524F525F 
 8923      4E4F5F43 
 8923      4F4E4E45 
 8924              	.LASF15:
 8925 15e1 696E7433 		.ascii	"int32_t\000"
 8925      325F7400 
 8926              	.LASF156:
 8927 15e9 4359424C 		.ascii	"CYBLE_GATT_HANDLE_VALUE_PAIR_T\000"
 8927      455F4741 
 8927      54545F48 
 8927      414E444C 
 8927      455F5641 
 8928              	.LASF91:
 8929 1608 4359424C 		.ascii	"CYBLE_EVT_L2CAP_CBFC_DATA_WRITE_IND\000"
ARM GAS  C:\Users\13740\AppData\Local\Temp\cc6vMOIu.s 			page 215


 8929      455F4556 
 8929      545F4C32 
 8929      4341505F 
 8929      43424643 
 8930              	.LASF284:
 8931 162c 54696D65 		.ascii	"Timer_Interrupt\000"
 8931      725F496E 
 8931      74657272 
 8931      75707400 
 8932              	.LASF319:
 8933 163c 675F7465 		.ascii	"g_test_done\000"
 8933      73745F64 
 8933      6F6E6500 
 8934              	.LASF37:
 8935 1648 4359424C 		.ascii	"CYBLE_EVT_GAP_AUTH_FAILED\000"
 8935      455F4556 
 8935      545F4741 
 8935      505F4155 
 8935      54485F46 
 8936              	.LASF31:
 8937 1662 4359424C 		.ascii	"CYBLE_EVT_MEMORY_REQUEST\000"
 8937      455F4556 
 8937      545F4D45 
 8937      4D4F5259 
 8937      5F524551 
 8938              	.LASF225:
 8939 167b 53454E53 		.ascii	"SENSOR_COUNT\000"
 8939      4F525F43 
 8939      4F554E54 
 8939      00
 8940              	.LASF146:
 8941 1688 74797065 		.ascii	"type\000"
 8941      00
 8942              	.LASF46:
 8943 168d 4359424C 		.ascii	"CYBLE_EVT_GAP_KEYPRESS_NOTIFICATION\000"
 8943      455F4556 
 8943      545F4741 
 8943      505F4B45 
 8943      59505245 
 8944              	.LASF328:
 8945 16b1 675F7365 		.ascii	"g_seqsta_measure\000"
 8945      71737461 
 8945      5F6D6561 
 8945      73757265 
 8945      00
 8946              	.LASF1:
 8947 16c2 756E7369 		.ascii	"unsigned char\000"
 8947      676E6564 
 8947      20636861 
 8947      7200
 8948              	.LASF8:
 8949 16d0 5F5F7569 		.ascii	"__uint32_t\000"
 8949      6E743332 
 8949      5F7400
 8950              	.LASF255:
 8951 16db 64617461 		.ascii	"dataCount\000"
 8951      436F756E 
ARM GAS  C:\Users\13740\AppData\Local\Temp\cc6vMOIu.s 			page 216


 8951      7400
 8952              	.LASF221:
 8953 16e5 53656E73 		.ascii	"SensorData_t\000"
 8953      6F724461 
 8953      74615F74 
 8953      00
 8954              	.LASF141:
 8955 16f2 4359424C 		.ascii	"CYBLE_BLESS_STATE_ECO_STABLE\000"
 8955      455F424C 
 8955      4553535F 
 8955      53544154 
 8955      455F4543 
 8956              	.LASF311:
 8957 170f 53746172 		.ascii	"StartAdvertisement\000"
 8957      74416476 
 8957      65727469 
 8957      73656D65 
 8957      6E7400
 8958              	.LASF25:
 8959 1722 4359424C 		.ascii	"CYBLE_EVT_HOST_INVALID\000"
 8959      455F4556 
 8959      545F484F 
 8959      53545F49 
 8959      4E56414C 
 8960              	.LASF313:
 8961 1739 675F7465 		.ascii	"g_test_adiid\000"
 8961      73745F61 
 8961      64696964 
 8961      00
 8962              	.LASF134:
 8963 1746 4359424C 		.ascii	"CYBLE_BLESS_HIBERNATE\000"
 8963      455F424C 
 8963      4553535F 
 8963      48494245 
 8963      524E4154 
 8964              	.LASF55:
 8965 175c 4359424C 		.ascii	"CYBLE_EVT_GAP_SMP_LOC_P256_KEYS_GEN_AND_SET_COMPLET"
 8965      455F4556 
 8965      545F4741 
 8965      505F534D 
 8965      505F4C4F 
 8966 178f 4500     		.ascii	"E\000"
 8967              	.LASF87:
 8968 1791 4359424C 		.ascii	"CYBLE_EVT_L2CAP_CBFC_DISCONN_CNF\000"
 8968      455F4556 
 8968      545F4C32 
 8968      4341505F 
 8968      43424643 
 8969              	.LASF39:
 8970 17b2 4359424C 		.ascii	"CYBLE_EVT_GAP_DEVICE_CONNECTED\000"
 8970      455F4556 
 8970      545F4741 
 8970      505F4445 
 8970      56494345 
 8971              	.LASF290:
 8972 17d1 41443539 		.ascii	"AD5941_HardReset\000"
 8972      34315F48 
ARM GAS  C:\Users\13740\AppData\Local\Temp\cc6vMOIu.s 			page 217


 8972      61726452 
 8972      65736574 
 8972      00
 8973              	.LASF227:
 8974 17e2 494E4954 		.ascii	"INIT_IDLE\000"
 8974      5F49444C 
 8974      4500
 8975              	.LASF257:
 8976 17ec 436F6E76 		.ascii	"ConvertCurrentToConcentration\000"
 8976      65727443 
 8976      75727265 
 8976      6E74546F 
 8976      436F6E63 
 8977              	.LASF52:
 8978 180a 4359424C 		.ascii	"CYBLE_EVT_GAP_CONN_ESTB\000"
 8978      455F4556 
 8978      545F4741 
 8978      505F434F 
 8978      4E4E5F45 
 8979              	.LASF54:
 8980 1822 4359424C 		.ascii	"CYBLE_EVT_GAP_AUTH_REQ_REPLY_ERR\000"
 8980      455F4556 
 8980      545F4741 
 8980      505F4155 
 8980      54485F52 
 8981              	.LASF217:
 8982 1843 74696D65 		.ascii	"timestamp\000"
 8982      7374616D 
 8982      7000
 8983              	.LASF264:
 8984 184d 72657369 		.ascii	"resistance\000"
 8984      7374616E 
 8984      636500
 8985              	.LASF0:
 8986 1858 7369676E 		.ascii	"signed char\000"
 8986      65642063 
 8986      68617200 
 8987              	.LASF252:
 8988 1864 466F7263 		.ascii	"ForceFIFOEnable\000"
 8988      65464946 
 8988      4F456E61 
 8988      626C6500 
 8989              	.LASF198:
 8990 1874 4C705469 		.ascii	"LpTiaRl\000"
 8990      61526C00 
 8991              	.LASF5:
 8992 187c 73686F72 		.ascii	"short unsigned int\000"
 8992      7420756E 
 8992      7369676E 
 8992      65642069 
 8992      6E7400
 8993              	.LASF261:
 8994 188f 4D656173 		.ascii	"MeasureTemperature\000"
 8994      75726554 
 8994      656D7065 
 8994      72617475 
 8994      726500
ARM GAS  C:\Users\13740\AppData\Local\Temp\cc6vMOIu.s 			page 218


 8995              	.LASF164:
 8996 18a2 41443539 		.ascii	"AD5940Err\000"
 8996      34304572 
 8996      7200
 8997              	.LASF123:
 8998 18ac 4359424C 		.ascii	"CYBLE_ERROR_CONTROLLER_BUSY\000"
 8998      455F4552 
 8998      524F525F 
 8998      434F4E54 
 8998      524F4C4C 
 8999              	.LASF115:
 9000 18c8 4359424C 		.ascii	"CYBLE_ERROR_L2CAP_PSM_NOT_IN_RANGE\000"
 9000      455F4552 
 9000      524F525F 
 9000      4C324341 
 9000      505F5053 
 9001              	.LASF230:
 9002 18eb 494E4954 		.ascii	"INIT_WRITE_REGS\000"
 9002      5F575249 
 9002      54455F52 
 9002      45475300 
 9003              	.LASF97:
 9004 18fb 4359424C 		.ascii	"CYBLE_ERROR_OK\000"
 9004      455F4552 
 9004      524F525F 
 9004      4F4B00
 9005              	.LASF346:
 9006 190a 453A5C64 		.ascii	"E:\\desktop\\bu\\eda\\Transistor1-4414\\Transistor."
 9006      65736B74 
 9006      6F705C62 
 9006      755C6564 
 9006      615C5472 
 9007 1938 63796473 		.ascii	"cydsn\000"
 9007      6E00
 9008              	.LASF235:
 9009 193e 494E4954 		.ascii	"INIT_START_MEASUREMENT\000"
 9009      5F535441 
 9009      52545F4D 
 9009      45415355 
 9009      52454D45 
 9010              	.LASF259:
 9011 1955 63757272 		.ascii	"current_nA\000"
 9011      656E745F 
 9011      6E4100
 9012              	.LASF76:
 9013 1960 4359424C 		.ascii	"CYBLE_EVT_GATTS_HANDLE_VALUE_CNF\000"
 9013      455F4556 
 9013      545F4741 
 9013      5454535F 
 9013      48414E44 
 9014              	.LASF253:
 9015 1981 76657269 		.ascii	"verify\000"
 9015      667900
 9016              	.LASF301:
 9017 1988 6669666F 		.ascii	"fifosta_now\000"
 9017      7374615F 
 9017      6E6F7700 
ARM GAS  C:\Users\13740\AppData\Local\Temp\cc6vMOIu.s 			page 219


 9018              	.LASF132:
 9019 1994 4359424C 		.ascii	"CYBLE_BLESS_SLEEP\000"
 9019      455F424C 
 9019      4553535F 
 9019      534C4545 
 9019      5000
 9020              	.LASF258:
 9021 19a6 73656E73 		.ascii	"sensorType\000"
 9021      6F725479 
 9021      706500
 9022              	.LASF150:
 9023 19b1 61747449 		.ascii	"attId\000"
 9023      6400
 9024              	.LASF324:
 9025 19b7 675F6669 		.ascii	"g_fifo_first_data\000"
 9025      666F5F66 
 9025      69727374 
 9025      5F646174 
 9025      6100
 9026              	.LASF137:
 9027 19c9 4359424C 		.ascii	"CYBLE_BLESS_STATE_ACTIVE\000"
 9027      455F424C 
 9027      4553535F 
 9027      53544154 
 9027      455F4143 
 9028              	.LASF138:
 9029 19e2 4359424C 		.ascii	"CYBLE_BLESS_STATE_EVENT_CLOSE\000"
 9029      455F424C 
 9029      4553535F 
 9029      53544154 
 9029      455F4556 
 9030              	.LASF43:
 9031 1a00 4359424C 		.ascii	"CYBLE_EVT_GAPC_SCAN_START_STOP\000"
 9031      455F4556 
 9031      545F4741 
 9031      50435F53 
 9031      43414E5F 
 9032              	.LASF178:
 9033 1a1f 53657153 		.ascii	"SeqStartAddr\000"
 9033      74617274 
 9033      41646472 
 9033      00
 9034              	.LASF262:
 9035 1a2c 61646343 		.ascii	"adcCode\000"
 9035      6F646500 
 9036              	.LASF161:
 9037 1a34 4359424C 		.ascii	"CYBLE_STATE_ADVERTISING\000"
 9037      455F5354 
 9037      4154455F 
 9037      41445645 
 9037      52544953 
 9038              	.LASF172:
 9039 1a4c 70536571 		.ascii	"pSeqCmd\000"
 9039      436D6400 
 9040              		.ident	"GCC: (GNU Tools for ARM Embedded Processors) 5.4.1 20160609 (release) [ARM/embedded-5-bran
