ARM GAS  C:\Users\13740\AppData\Local\Temp\cc1Gy8Oo.s 			page 1


   1              		.syntax unified
   2              		.cpu cortex-m0
   3              		.fpu softvfp
   4              		.eabi_attribute 20, 1
   5              		.eabi_attribute 21, 1
   6              		.eabi_attribute 23, 3
   7              		.eabi_attribute 24, 1
   8              		.eabi_attribute 25, 1
   9              		.eabi_attribute 26, 1
  10              		.eabi_attribute 30, 6
  11              		.eabi_attribute 34, 0
  12              		.eabi_attribute 18, 4
  13              		.thumb
  14              		.syntax unified
  15              		.file	"main.c"
  16              		.text
  17              	.Ltext0:
  18              		.cfi_sections	.debug_frame
  19              		.global	lastSendTime
  20              		.bss
  21              		.align	2
  22              		.type	lastSendTime, %object
  23              		.size	lastSendTime, 4
  24              	lastSendTime:
  25 0000 00000000 		.space	4
  26              		.global	mainTimer
  27              		.align	2
  28              		.type	mainTimer, %object
  29              		.size	mainTimer, 4
  30              	mainTimer:
  31 0004 00000000 		.space	4
  32              		.global	measurementFlag
  33              		.type	measurementFlag, %object
  34              		.size	measurementFlag, 1
  35              	measurementFlag:
  36 0008 00       		.space	1
  37              		.comm	apiResult,2,2
  38              		.global	sensorData
  39 0009 000000   		.align	2
  40              		.type	sensorData, %object
  41              		.size	sensorData, 32
  42              	sensorData:
  43 000c 00000000 		.space	32
  43      00000000 
  43      00000000 
  43      00000000 
  43      00000000 
  44              		.comm	pAmpCfg,4,4
  45              		.comm	ampBuffer,2048,4
  46              		.comm	ampResult,8,4
  47              		.section	.rodata
  48              		.align	2
  49              	.LC0:
  50 0000 5B494E49 		.ascii	"[INIT] Step 1: Resetting hardware...\015\000"
  50      545D2053 
  50      74657020 
  50      313A2052 
ARM GAS  C:\Users\13740\AppData\Local\Temp\cc1Gy8Oo.s 			page 2


  50      65736574 
  51 0026 0000     		.align	2
  52              	.LC2:
  53 0028 5B494E49 		.ascii	"[INIT] Hardware Reset complete.\015\000"
  53      545D2048 
  53      61726477 
  53      61726520 
  53      52657365 
  54 0049 000000   		.align	2
  55              	.LC4:
  56 004c 5B494E49 		.ascii	"[INIT] Step 2: Waking up SPI interface...\015\000"
  56      545D2053 
  56      74657020 
  56      323A2057 
  56      616B696E 
  57 0077 00       		.align	2
  58              	.LC6:
  59 0078 0D0A5B44 		.ascii	"\015\012[DEBUG] Verifying SPI Communication...\015\000"
  59      45425547 
  59      5D205665 
  59      72696679 
  59      696E6720 
  60 00a2 0000     		.align	2
  61              	.LC8:
  62 00a4 20205B41 		.ascii	"  [Attempt %d] ADIID: 0x%08lX, CHIPID: 0x%08lX\015\012"
  62      7474656D 
  62      70742025 
  62      645D2041 
  62      44494944 
  63 00d4 00       		.ascii	"\000"
  64 00d5 000000   		.align	2
  65              	.LC10:
  66 00d8 2020E29C 		.ascii	"  \342\234\205 Communication Success!\015\000"
  66      8520436F 
  66      6D6D756E 
  66      69636174 
  66      696F6E20 
  67 00f6 0000     		.align	2
  68              	.LC12:
  69 00f8 20202020 		.ascii	"     -> Warning: Read 0x00. Check MISO Connection o"
  69      202D3E20 
  69      5761726E 
  69      696E673A 
  69      20526561 
  70 012b 7220506F 		.ascii	"r Power.\015\000"
  70      7765722E 
  70      0D00
  71 0135 000000   		.align	2
  72              	.LC14:
  73 0138 20202020 		.ascii	"     -> Warning: Read 0xFF. Check if MISO is shorte"
  73      202D3E20 
  73      5761726E 
  73      696E673A 
  73      20526561 
  74 016b 6420746F 		.ascii	"d to VDD.\015\000"
  74      20564444 
  74      2E0D00
ARM GAS  C:\Users\13740\AppData\Local\Temp\cc1Gy8Oo.s 			page 3


  75 0176 0000     		.align	2
  76              	.LC16:
  77 0178 5B455252 		.ascii	"[ERROR] SPI Communication Failed. Halting Initializ"
  77      4F525D20 
  77      53504920 
  77      436F6D6D 
  77      756E6963 
  78 01ab 6174696F 		.ascii	"ation.\015\000"
  78      6E2E0D00 
  79 01b3 00       		.align	2
  80              	.LC18:
  81 01b4 0D0A5B49 		.ascii	"\015\012[INIT] Step 4: Running ADI Library Init (Ta"
  81      4E49545D 
  81      20537465 
  81      7020343A 
  81      2052756E 
  82 01e1 626C6520 		.ascii	"ble 14)...\015\000"
  82      3134292E 
  82      2E2E0D00 
  83 01ed 000000   		.align	2
  84              	.LC20:
  85 01f0 5B494E49 		.ascii	"[INIT] Library Init complete.\015\000"
  85      545D204C 
  85      69627261 
  85      72792049 
  85      6E697420 
  86 020f 00       		.align	2
  87              	.LC22:
  88 0210 5B494E49 		.ascii	"[INIT] Step 5: Configuring Application Parameters.."
  88      545D2053 
  88      74657020 
  88      353A2043 
  88      6F6E6669 
  89 0243 2E0D00   		.ascii	".\015\000"
  90 0246 0000     		.align	2
  91              	.LC25:
  92 0248 5B455252 		.ascii	"[ERROR] pAmpCfg is NULL!\015\000"
  92      4F525D20 
  92      70416D70 
  92      43666720 
  92      6973204E 
  93 0262 0000     		.align	2
  94              	.LC27:
  95 0264 5B494E49 		.ascii	"[INIT] Step 6: Calling AppAMPInit...\015\000"
  95      545D2053 
  95      74657020 
  95      363A2043 
  95      616C6C69 
  96 028a 0000     		.align	2
  97              	.LC30:
  98 028c 5B4F4B5D 		.ascii	"[OK] AD5941 System Initialized Successfully.\015\000"
  98      20414435 
  98      39343120 
  98      53797374 
  98      656D2049 
  99 02ba 0000     		.align	2
 100              	.LC32:
ARM GAS  C:\Users\13740\AppData\Local\Temp\cc1Gy8Oo.s 			page 4


 101 02bc 20202020 		.ascii	"     AMPInited Flag: %d\015\012\000"
 101      20414D50 
 101      496E6974 
 101      65642046 
 101      6C61673A 
 102 02d6 0000     		.align	2
 103              	.LC34:
 104 02d8 5B455252 		.ascii	"[ERROR] AppAMPInit failed with error code: %d\015\012"
 104      4F525D20 
 104      41707041 
 104      4D50496E 
 104      69742066 
 105 0307 00       		.ascii	"\000"
 106              		.section	.text.AD5941_Initialize,"ax",%progbits
 107              		.align	2
 108              		.global	AD5941_Initialize
 109              		.code	16
 110              		.thumb_func
 111              		.type	AD5941_Initialize, %function
 112              	AD5941_Initialize:
 113              	.LFB36:
 114              		.file 1 "main.c"
   1:main.c        **** 
   2:main.c        **** /*******************************************************************************
   3:main.c        **** * File Name: main.c
   4:main.c        **** *
   5:main.c        **** * Version 2.0
   6:main.c        **** *
   7:main.c        **** * Description:
   8:main.c        **** *  多路生物传感器系统 - 修复后的完整版本
   9:main.c        **** *  使用AD5940内置ADC，不依赖PSoC ADC模块
  10:main.c        **** *
  11:main.c        **** ********************************************************************************/
  12:main.c        **** 
  13:main.c        **** // /* 链接数学库（GCC编译器） */
  14:main.c        **** // #pragma comment(lib, "libm.a")
  15:main.c        **** 
  16:main.c        **** #include "main.h"
  17:main.c        **** #include "ad5940.h"
  18:main.c        **** #include "ad5941_platform.h"
  19:main.c        **** #include "Amperometric.h"
  20:main.c        **** 
  21:main.c        **** // 在 main() 函数开头添加变量
  22:main.c        **** uint32 lastSendTime = 0;  // 上次发送数据的时间
  23:main.c        **** #define SEND_INTERVAL 3   // 每3秒发送一次数据
  24:main.c        **** 
  25:main.c        **** /*******************************************************************************
  26:main.c        **** * 全局变量
  27:main.c        **** *******************************************************************************/
  28:main.c        **** volatile uint32 mainTimer = 0;
  29:main.c        **** volatile uint8 measurementFlag = 0;
  30:main.c        **** CYBLE_API_RESULT_T apiResult;
  31:main.c        **** 
  32:main.c        **** // 传感器数据结构
  33:main.c        **** typedef struct {
  34:main.c        ****     float temperature;      // 温度 (°C) - 从AD5940读取
  35:main.c        ****     float glucose;         // 葡萄糖 (mM)
ARM GAS  C:\Users\13740\AppData\Local\Temp\cc1Gy8Oo.s 			page 5


  36:main.c        ****     float lactate;         // 乳酸 (mM)
  37:main.c        ****     float uric_acid;       // 尿酸 (μM)
  38:main.c        ****     uint32 timestamp;      // 时间戳
  39:main.c        ****     
  40:main.c        ****     // 新增：原始电流值（从源表/AD5940读取）
  41:main.c        ****     float current_glucose_nA;   // 葡萄糖传感器电流 (nA)
  42:main.c        ****     float current_lactate_nA;   // 乳酸传感器电流 (nA)
  43:main.c        ****     float current_uric_nA;      // 尿酸传感器电流 (nA)    
  44:main.c        **** } SensorData_t;
  45:main.c        **** 
  46:main.c        **** // 传感器数据全局变量（定义在main.h中的SensorData_t结构）
  47:main.c        **** SensorData_t sensorData = {0};
  48:main.c        **** 
  49:main.c        **** typedef enum {
  50:main.c        ****     SENSOR_GLUCOSE = 0,
  51:main.c        ****     SENSOR_LACTATE = 1,
  52:main.c        ****     SENSOR_URIC_ACID = 2,
  53:main.c        ****     SENSOR_COUNT = 3
  54:main.c        **** } AmperometricSensor_t;
  55:main.c        **** 
  56:main.c        **** 
  57:main.c        **** 
  58:main.c        **** 
  59:main.c        **** 
  60:main.c        **** // AD5941相关变量
  61:main.c        **** AppAMPCfg_Type *pAmpCfg;
  62:main.c        **** uint32 ampBuffer[512];  // 用于AppAMPInit的缓冲区
  63:main.c        **** fAmpRes_Type ampResult;
  64:main.c        **** 
  65:main.c        **** /*******************************************************************************
  66:main.c        **** * Function Name: AD5941_Initialize
  67:main.c        **** ********************************************************************************
  68:main.c        **** * Summary:
  69:main.c        **** *   初始化AD5941电化学前端芯片 - 修复后的版本
  70:main.c        **** *******************************************************************************/
  71:main.c        **** void AD5941_Initialize(void)
  72:main.c        **** {
 115              		.loc 1 72 0
 116              		.cfi_startproc
 117              		@ args = 0, pretend = 0, frame = 24
 118              		@ frame_needed = 1, uses_anonymous_args = 0
 119 0000 80B5     		push	{r7, lr}
 120              		.cfi_def_cfa_offset 8
 121              		.cfi_offset 7, -8
 122              		.cfi_offset 14, -4
 123 0002 86B0     		sub	sp, sp, #24
 124              		.cfi_def_cfa_offset 32
 125 0004 00AF     		add	r7, sp, #0
 126              		.cfi_def_cfa_register 7
  73:main.c        ****     AD5940Err error;
  74:main.c        ****     
  75:main.c        ****     // ====================================================================
  76:main.c        ****     // 步骤 1: 硬件复位与引脚状态强制初始化
  77:main.c        ****     // ====================================================================
  78:main.c        ****     printf("[INIT] Step 1: Resetting hardware...\r\n");
 127              		.loc 1 78 0
 128 0006 A94B     		ldr	r3, .L13
ARM GAS  C:\Users\13740\AppData\Local\Temp\cc1Gy8Oo.s 			page 6


 129 0008 1800     		movs	r0, r3
 130 000a FFF7FEFF 		bl	puts
  79:main.c        ****     
  80:main.c        ****     // 1.1 确保SPI总线处于空闲状态 (Mode 0: SCLK=0, CS=1)
  81:main.c        ****     // 防止引脚之前的状态导致芯片误判
  82:main.c        ****     AD5940_CS_Write(1);   
 131              		.loc 1 82 0
 132 000e 0120     		movs	r0, #1
 133 0010 FFF7FEFF 		bl	AD5940_CS_Write
  83:main.c        ****     AD5940_SCLK_Write(0); 
 134              		.loc 1 83 0
 135 0014 0020     		movs	r0, #0
 136 0016 FFF7FEFF 		bl	AD5940_SCLK_Write
  84:main.c        ****     AD5940_MOSI_Write(0); 
 137              		.loc 1 84 0
 138 001a 0020     		movs	r0, #0
 139 001c FFF7FEFF 		bl	AD5940_MOSI_Write
  85:main.c        ****     CyDelay(10);
 140              		.loc 1 85 0
 141 0020 0A20     		movs	r0, #10
 142 0022 FFF7FEFF 		bl	CyDelay
  86:main.c        **** 
  87:main.c        ****     // 1.2 执行硬件复位
  88:main.c        ****     AD5940_RST_Write(0);  // 拉低复位
 143              		.loc 1 88 0
 144 0026 0020     		movs	r0, #0
 145 0028 FFF7FEFF 		bl	AD5940_RST_Write
  89:main.c        ****     CyDelay(10);          // 保持10ms
 146              		.loc 1 89 0
 147 002c 0A20     		movs	r0, #10
 148 002e FFF7FEFF 		bl	CyDelay
  90:main.c        ****     AD5940_RST_Write(1);  // 释放复位
 149              		.loc 1 90 0
 150 0032 0120     		movs	r0, #1
 151 0034 FFF7FEFF 		bl	AD5940_RST_Write
  91:main.c        ****     CyDelay(100);         // 等待芯片内部加载 (Boot time)
 152              		.loc 1 91 0
 153 0038 6420     		movs	r0, #100
 154 003a FFF7FEFF 		bl	CyDelay
  92:main.c        ****     
  93:main.c        ****     printf("[INIT] Hardware Reset complete.\r\n");
 155              		.loc 1 93 0
 156 003e 9C4B     		ldr	r3, .L13+4
 157 0040 1800     		movs	r0, r3
 158 0042 FFF7FEFF 		bl	puts
  94:main.c        **** 
  95:main.c        ****     // ====================================================================
  96:main.c        ****     // 步骤 2: 唤醒 SPI 接口 (关键步骤！)
  97:main.c        ****     // ====================================================================
  98:main.c        ****     // AD5940 复位后处于休眠状态，需要一个 CS 下降沿来唤醒 SPI 接口
  99:main.c        ****     printf("[INIT] Step 2: Waking up SPI interface...\r\n");
 159              		.loc 1 99 0
 160 0046 9B4B     		ldr	r3, .L13+8
 161 0048 1800     		movs	r0, r3
 162 004a FFF7FEFF 		bl	puts
 100:main.c        ****     
 101:main.c        ****     AD5940_CS_Write(0);   // 拉低 CS 唤醒
ARM GAS  C:\Users\13740\AppData\Local\Temp\cc1Gy8Oo.s 			page 7


 163              		.loc 1 101 0
 164 004e 0020     		movs	r0, #0
 165 0050 FFF7FEFF 		bl	AD5940_CS_Write
 102:main.c        ****     CyDelayUs(100);       // 保持一小段时间
 166              		.loc 1 102 0
 167 0054 6420     		movs	r0, #100
 168 0056 FFF7FEFF 		bl	CyDelayUs
 103:main.c        ****     AD5940_CS_Write(1);   // 拉高 CS
 169              		.loc 1 103 0
 170 005a 0120     		movs	r0, #1
 171 005c FFF7FEFF 		bl	AD5940_CS_Write
 104:main.c        ****     CyDelay(10);          // 等待接口准备就绪
 172              		.loc 1 104 0
 173 0060 0A20     		movs	r0, #10
 174 0062 FFF7FEFF 		bl	CyDelay
 105:main.c        **** 
 106:main.c        ****     // 初始化 MCU SPI 资源变量
 107:main.c        ****     AD5940_MCUResourceInit(NULL);
 175              		.loc 1 107 0
 176 0066 0020     		movs	r0, #0
 177 0068 FFF7FEFF 		bl	AD5940_MCUResourceInit
 108:main.c        **** 
 109:main.c        ****     // ====================================================================
 110:main.c        ****     // 步骤 3: 寄存器通信测试 (ID 检查)
 111:main.c        ****     // ====================================================================
 112:main.c        ****     printf("\r\n[DEBUG] Verifying SPI Communication...\r\n");
 178              		.loc 1 112 0
 179 006c 924B     		ldr	r3, .L13+12
 180 006e 1800     		movs	r0, r3
 181 0070 FFF7FEFF 		bl	puts
 113:main.c        ****     
 114:main.c        ****     uint32_t adiid = 0;
 182              		.loc 1 114 0
 183 0074 0023     		movs	r3, #0
 184 0076 FB60     		str	r3, [r7, #12]
 115:main.c        ****     uint32_t chipid = 0;
 185              		.loc 1 115 0
 186 0078 0023     		movs	r3, #0
 187 007a BB60     		str	r3, [r7, #8]
 116:main.c        ****     uint8_t id_valid = 0;
 188              		.loc 1 116 0
 189 007c 1723     		movs	r3, #23
 190 007e FB18     		adds	r3, r7, r3
 191 0080 0022     		movs	r2, #0
 192 0082 1A70     		strb	r2, [r3]
 193              	.LBB2:
 117:main.c        **** 
 118:main.c        ****     // 尝试读取3次，排除偶发的上电不稳定
 119:main.c        ****     for(int attempt = 1; attempt <= 3; attempt++)
 194              		.loc 1 119 0
 195 0084 0123     		movs	r3, #1
 196 0086 3B61     		str	r3, [r7, #16]
 197 0088 45E0     		b	.L2
 198              	.L8:
 120:main.c        ****     {
 121:main.c        ****         adiid = AD5940_ReadReg(REG_AFECON_ADIID);
 199              		.loc 1 121 0
ARM GAS  C:\Users\13740\AppData\Local\Temp\cc1Gy8Oo.s 			page 8


 200 008a 8023     		movs	r3, #128
 201 008c DB00     		lsls	r3, r3, #3
 202 008e 1800     		movs	r0, r3
 203 0090 FFF7FEFF 		bl	AD5940_ReadReg
 204 0094 0300     		movs	r3, r0
 205 0096 FB60     		str	r3, [r7, #12]
 122:main.c        ****         chipid = AD5940_ReadReg(REG_AFECON_CHIPID);
 206              		.loc 1 122 0
 207 0098 884B     		ldr	r3, .L13+16
 208 009a 1800     		movs	r0, r3
 209 009c FFF7FEFF 		bl	AD5940_ReadReg
 210 00a0 0300     		movs	r3, r0
 211 00a2 BB60     		str	r3, [r7, #8]
 123:main.c        ****         
 124:main.c        ****         printf("  [Attempt %d] ADIID: 0x%08lX, CHIPID: 0x%08lX\r\n", attempt, adiid, chipid);
 212              		.loc 1 124 0
 213 00a4 BB68     		ldr	r3, [r7, #8]
 214 00a6 FA68     		ldr	r2, [r7, #12]
 215 00a8 3969     		ldr	r1, [r7, #16]
 216 00aa 8548     		ldr	r0, .L13+20
 217 00ac FFF7FEFF 		bl	printf
 125:main.c        **** 
 126:main.c        ****         // 判定标准：ADIID 应为 0x4144, CHIPID 应为 0x5502 (AD5941) 或 0x5501 (AD5940)
 127:main.c        ****         if(adiid == 0x4144 && (chipid == 0x5501 || chipid == 0x5502))
 218              		.loc 1 127 0
 219 00b0 FB68     		ldr	r3, [r7, #12]
 220 00b2 844A     		ldr	r2, .L13+24
 221 00b4 9342     		cmp	r3, r2
 222 00b6 10D1     		bne	.L3
 223              		.loc 1 127 0 is_stmt 0 discriminator 1
 224 00b8 BB68     		ldr	r3, [r7, #8]
 225 00ba 834A     		ldr	r2, .L13+28
 226 00bc 9342     		cmp	r3, r2
 227 00be 03D0     		beq	.L4
 228              		.loc 1 127 0 discriminator 2
 229 00c0 BB68     		ldr	r3, [r7, #8]
 230 00c2 824A     		ldr	r2, .L13+32
 231 00c4 9342     		cmp	r3, r2
 232 00c6 08D1     		bne	.L3
 233              	.L4:
 128:main.c        ****         {
 129:main.c        ****             id_valid = 1;
 234              		.loc 1 129 0 is_stmt 1
 235 00c8 1723     		movs	r3, #23
 236 00ca FB18     		adds	r3, r7, r3
 237 00cc 0122     		movs	r2, #1
 238 00ce 1A70     		strb	r2, [r3]
 130:main.c        ****             printf("  ✅ Communication Success!\r\n");
 239              		.loc 1 130 0
 240 00d0 7F4B     		ldr	r3, .L13+36
 241 00d2 1800     		movs	r0, r3
 242 00d4 FFF7FEFF 		bl	puts
 131:main.c        ****             break;
 243              		.loc 1 131 0
 244 00d8 20E0     		b	.L5
 245              	.L3:
 132:main.c        ****         }
ARM GAS  C:\Users\13740\AppData\Local\Temp\cc1Gy8Oo.s 			page 9


 133:main.c        ****         else
 134:main.c        ****         {
 135:main.c        ****             // 如果读到全是 0，可能是 MISO 没连好或者芯片没电
 136:main.c        ****             // 如果读到全是 F，可能是 MISO 短路到 VCC
 137:main.c        ****             if(adiid == 0x0000) printf("     -> Warning: Read 0x00. Check MISO Connection or Power.
 246              		.loc 1 137 0
 247 00da FB68     		ldr	r3, [r7, #12]
 248 00dc 002B     		cmp	r3, #0
 249 00de 03D1     		bne	.L6
 250              		.loc 1 137 0 is_stmt 0 discriminator 1
 251 00e0 7C4B     		ldr	r3, .L13+40
 252 00e2 1800     		movs	r0, r3
 253 00e4 FFF7FEFF 		bl	puts
 254              	.L6:
 138:main.c        ****             if(adiid == 0xFFFF) printf("     -> Warning: Read 0xFF. Check if MISO is shorted to VDD
 255              		.loc 1 138 0 is_stmt 1
 256 00e8 FB68     		ldr	r3, [r7, #12]
 257 00ea 7B4A     		ldr	r2, .L13+44
 258 00ec 9342     		cmp	r3, r2
 259 00ee 03D1     		bne	.L7
 260              		.loc 1 138 0 is_stmt 0 discriminator 1
 261 00f0 7A4B     		ldr	r3, .L13+48
 262 00f2 1800     		movs	r0, r3
 263 00f4 FFF7FEFF 		bl	puts
 264              	.L7:
 139:main.c        ****             
 140:main.c        ****             // 失败重试前再次尝试唤醒
 141:main.c        ****             AD5940_CS_Write(0); CyDelayUs(20); AD5940_CS_Write(1);
 265              		.loc 1 141 0 is_stmt 1 discriminator 2
 266 00f8 0020     		movs	r0, #0
 267 00fa FFF7FEFF 		bl	AD5940_CS_Write
 268 00fe 1420     		movs	r0, #20
 269 0100 FFF7FEFF 		bl	CyDelayUs
 270 0104 0120     		movs	r0, #1
 271 0106 FFF7FEFF 		bl	AD5940_CS_Write
 142:main.c        ****             CyDelay(50);
 272              		.loc 1 142 0 discriminator 2
 273 010a 3220     		movs	r0, #50
 274 010c FFF7FEFF 		bl	CyDelay
 119:main.c        ****     {
 275              		.loc 1 119 0 discriminator 2
 276 0110 3B69     		ldr	r3, [r7, #16]
 277 0112 0133     		adds	r3, r3, #1
 278 0114 3B61     		str	r3, [r7, #16]
 279              	.L2:
 119:main.c        ****     {
 280              		.loc 1 119 0 is_stmt 0 discriminator 1
 281 0116 3B69     		ldr	r3, [r7, #16]
 282 0118 032B     		cmp	r3, #3
 283 011a B6DD     		ble	.L8
 284              	.L5:
 285              	.LBE2:
 143:main.c        ****         }
 144:main.c        ****     }
 145:main.c        **** 
 146:main.c        ****     if(!id_valid)
 286              		.loc 1 146 0 is_stmt 1
ARM GAS  C:\Users\13740\AppData\Local\Temp\cc1Gy8Oo.s 			page 10


 287 011c 1723     		movs	r3, #23
 288 011e FB18     		adds	r3, r7, r3
 289 0120 1B78     		ldrb	r3, [r3]
 290 0122 002B     		cmp	r3, #0
 291 0124 03D1     		bne	.L9
 147:main.c        ****     {
 148:main.c        ****         printf("[ERROR] SPI Communication Failed. Halting Initialization.\r\n");
 292              		.loc 1 148 0
 293 0126 6E4B     		ldr	r3, .L13+52
 294 0128 1800     		movs	r0, r3
 295 012a FFF7FEFF 		bl	puts
 296              	.L9:
 149:main.c        ****         // 这里可以选择 return，或者继续尝试(有时候是 glitch)
 150:main.c        ****         // return; 
 151:main.c        ****     }
 152:main.c        **** 
 153:main.c        ****     // ====================================================================
 154:main.c        ****     // 步骤 4: 执行 ADI 库初始化 (AD5940_Initialize)
 155:main.c        ****     // ====================================================================
 156:main.c        ****     // 这个函数会向芯片写入大量的校准数据和默认配置
 157:main.c        ****     printf("\r\n[INIT] Step 4: Running ADI Library Init (Table 14)...\r\n");
 297              		.loc 1 157 0
 298 012e 6D4B     		ldr	r3, .L13+56
 299 0130 1800     		movs	r0, r3
 300 0132 FFF7FEFF 		bl	puts
 158:main.c        ****     AD5940_Initialize(); 
 301              		.loc 1 158 0
 302 0136 FFF7FEFF 		bl	AD5940_Initialize
 159:main.c        ****     printf("[INIT] Library Init complete.\r\n");
 303              		.loc 1 159 0
 304 013a 6B4B     		ldr	r3, .L13+60
 305 013c 1800     		movs	r0, r3
 306 013e FFF7FEFF 		bl	puts
 160:main.c        ****     
 161:main.c        ****     // 再次等待 AFE 稳定
 162:main.c        ****     CyDelay(100); 
 307              		.loc 1 162 0
 308 0142 6420     		movs	r0, #100
 309 0144 FFF7FEFF 		bl	CyDelay
 163:main.c        **** 
 164:main.c        ****     // ====================================================================
 165:main.c        ****     // 步骤 5: 配置安培法 (Amperometric) 参数
 166:main.c        ****     // ====================================================================
 167:main.c        ****     printf("[INIT] Step 5: Configuring Application Parameters...\r\n");
 310              		.loc 1 167 0
 311 0148 684B     		ldr	r3, .L13+64
 312 014a 1800     		movs	r0, r3
 313 014c FFF7FEFF 		bl	puts
 168:main.c        ****     
 169:main.c        ****     AppAMPGetCfg(&pAmpCfg);
 314              		.loc 1 169 0
 315 0150 674B     		ldr	r3, .L13+68
 316 0152 1800     		movs	r0, r3
 317 0154 FFF7FEFF 		bl	AppAMPGetCfg
 170:main.c        ****     if(pAmpCfg == NULL)
 318              		.loc 1 170 0
 319 0158 654B     		ldr	r3, .L13+68
ARM GAS  C:\Users\13740\AppData\Local\Temp\cc1Gy8Oo.s 			page 11


 320 015a 1B68     		ldr	r3, [r3]
 321 015c 002B     		cmp	r3, #0
 322 015e 04D1     		bne	.L10
 171:main.c        ****     {
 172:main.c        ****         printf("[ERROR] pAmpCfg is NULL!\r\n");
 323              		.loc 1 172 0
 324 0160 644B     		ldr	r3, .L13+72
 325 0162 1800     		movs	r0, r3
 326 0164 FFF7FEFF 		bl	puts
 173:main.c        ****         return;
 327              		.loc 1 173 0
 328 0168 9CE0     		b	.L1
 329              	.L10:
 174:main.c        ****     }
 175:main.c        ****     
 176:main.c        ****     AD5940_LPModeClkS(LPMODECLK_LFOSC);
 330              		.loc 1 176 0
 331 016a 0120     		movs	r0, #1
 332 016c FFF7FEFF 		bl	AD5940_LPModeClkS
 177:main.c        **** 
 178:main.c        ****     // --- 基础配置 ---
 179:main.c        ****     pAmpCfg->bParaChanged = bTRUE;
 333              		.loc 1 179 0
 334 0170 5F4B     		ldr	r3, .L13+68
 335 0172 1B68     		ldr	r3, [r3]
 336 0174 0122     		movs	r2, #1
 337 0176 1A70     		strb	r2, [r3]
 180:main.c        ****     pAmpCfg->SeqStartAddr = 0;
 338              		.loc 1 180 0
 339 0178 5D4B     		ldr	r3, .L13+68
 340 017a 1B68     		ldr	r3, [r3]
 341 017c 0022     		movs	r2, #0
 342 017e 5A60     		str	r2, [r3, #4]
 181:main.c        ****     pAmpCfg->MaxSeqLen = 512;
 343              		.loc 1 181 0
 344 0180 5B4B     		ldr	r3, .L13+68
 345 0182 1B68     		ldr	r3, [r3]
 346 0184 8022     		movs	r2, #128
 347 0186 9200     		lsls	r2, r2, #2
 348 0188 9A60     		str	r2, [r3, #8]
 182:main.c        ****     pAmpCfg->SeqStartAddrCal = 0;
 349              		.loc 1 182 0
 350 018a 594B     		ldr	r3, .L13+68
 351 018c 1B68     		ldr	r3, [r3]
 352 018e 0022     		movs	r2, #0
 353 0190 DA60     		str	r2, [r3, #12]
 183:main.c        ****     pAmpCfg->MaxSeqLenCal = 512;
 354              		.loc 1 183 0
 355 0192 574B     		ldr	r3, .L13+68
 356 0194 1B68     		ldr	r3, [r3]
 357 0196 8022     		movs	r2, #128
 358 0198 9200     		lsls	r2, r2, #2
 359 019a 1A61     		str	r2, [r3, #16]
 184:main.c        ****     
 185:main.c        ****     // --- 时钟与电源 ---
 186:main.c        ****     pAmpCfg->SysClkFreq = 16000000.0;
 360              		.loc 1 186 0
ARM GAS  C:\Users\13740\AppData\Local\Temp\cc1Gy8Oo.s 			page 12


 361 019c 544B     		ldr	r3, .L13+68
 362 019e 1B68     		ldr	r3, [r3]
 363 01a0 554A     		ldr	r2, .L13+76
 364 01a2 9A61     		str	r2, [r3, #24]
 187:main.c        ****     pAmpCfg->WuptClkFreq = 32000.0;
 365              		.loc 1 187 0
 366 01a4 524B     		ldr	r3, .L13+68
 367 01a6 1B68     		ldr	r3, [r3]
 368 01a8 544A     		ldr	r2, .L13+80
 369 01aa DA61     		str	r2, [r3, #28]
 188:main.c        ****     pAmpCfg->AdcClkFreq = 16000000.0;
 370              		.loc 1 188 0
 371 01ac 504B     		ldr	r3, .L13+68
 372 01ae 1B68     		ldr	r3, [r3]
 373 01b0 514A     		ldr	r2, .L13+76
 374 01b2 1A62     		str	r2, [r3, #32]
 189:main.c        ****     pAmpCfg->PwrMod = AFEPWR_LP; // 低功耗
 375              		.loc 1 189 0
 376 01b4 4E4B     		ldr	r3, .L13+68
 377 01b6 1B68     		ldr	r3, [r3]
 378 01b8 0022     		movs	r2, #0
 379 01ba 9A63     		str	r2, [r3, #56]
 190:main.c        **** 
 191:main.c        ****     // --- 测量参数 ---
 192:main.c        ****     pAmpCfg->AmpODR = 10.0;      // 采样率 10Hz
 380              		.loc 1 192 0
 381 01bc 4C4B     		ldr	r3, .L13+68
 382 01be 1B68     		ldr	r3, [r3]
 383 01c0 4F4A     		ldr	r2, .L13+84
 384 01c2 9A62     		str	r2, [r3, #40]
 193:main.c        ****     pAmpCfg->NumOfData = -1;     // -1 表示无限连续测量
 385              		.loc 1 193 0
 386 01c4 4A4B     		ldr	r3, .L13+68
 387 01c6 1B68     		ldr	r3, [r3]
 388 01c8 0122     		movs	r2, #1
 389 01ca 5242     		rsbs	r2, r2, #0
 390 01cc DA62     		str	r2, [r3, #44]
 194:main.c        ****     pAmpCfg->FifoThresh = 4;     // FIFO 阈值
 391              		.loc 1 194 0
 392 01ce 484B     		ldr	r3, .L13+68
 393 01d0 1B68     		ldr	r3, [r3]
 394 01d2 0422     		movs	r2, #4
 395 01d4 5A62     		str	r2, [r3, #36]
 195:main.c        **** 
 196:main.c        ****     // --- 电化学参数 (根据你的代码) ---
 197:main.c        ****     pAmpCfg->RcalVal = 10000.0;     // 10k 校准电阻
 396              		.loc 1 197 0
 397 01d6 464B     		ldr	r3, .L13+68
 398 01d8 1B68     		ldr	r3, [r3]
 399 01da 4A4A     		ldr	r2, .L13+88
 400 01dc 1A63     		str	r2, [r3, #48]
 198:main.c        ****     pAmpCfg->ADCRefVolt = 1.82;     // Vref 1.82V
 401              		.loc 1 198 0
 402 01de 444B     		ldr	r3, .L13+68
 403 01e0 1B68     		ldr	r3, [r3]
 404 01e2 494A     		ldr	r2, .L13+92
 405 01e4 5A63     		str	r2, [r3, #52]
ARM GAS  C:\Users\13740\AppData\Local\Temp\cc1Gy8Oo.s 			page 13


 199:main.c        ****     pAmpCfg->ExtRtia = bFALSE;      // 使用内部 RTIA
 406              		.loc 1 199 0
 407 01e6 424B     		ldr	r3, .L13+68
 408 01e8 1B68     		ldr	r3, [r3]
 409 01ea 6422     		movs	r2, #100
 410 01ec 0021     		movs	r1, #0
 411 01ee 9954     		strb	r1, [r3, r2]
 200:main.c        **** 
 201:main.c        ****     // --- LPTIA (低功耗跨阻放大器) ---
 202:main.c        ****     pAmpCfg->LptiaRtiaSel = LPTIARTIA_10K; // 反馈电阻 10k
 412              		.loc 1 202 0
 413 01f0 3F4B     		ldr	r3, .L13+68
 414 01f2 1B68     		ldr	r3, [r3]
 415 01f4 0822     		movs	r2, #8
 416 01f6 9A64     		str	r2, [r3, #72]
 203:main.c        ****     pAmpCfg->LpTiaRf = LPTIARF_1M;         // 滤波电阻
 417              		.loc 1 203 0
 418 01f8 3D4B     		ldr	r3, .L13+68
 419 01fa 1B68     		ldr	r3, [r3]
 420 01fc 0722     		movs	r2, #7
 421 01fe DA64     		str	r2, [r3, #76]
 204:main.c        ****     pAmpCfg->LpTiaRl = LPTIARLOAD_100R;    // 负载电阻
 422              		.loc 1 204 0
 423 0200 3B4B     		ldr	r3, .L13+68
 424 0202 1B68     		ldr	r3, [r3]
 425 0204 0422     		movs	r2, #4
 426 0206 1A65     		str	r2, [r3, #80]
 205:main.c        ****     
 206:main.c        ****     // --- 偏置电压 ---
 207:main.c        ****     pAmpCfg->Vzero = 1100.0;      // Vzero = 1.1V
 427              		.loc 1 207 0
 428 0208 394B     		ldr	r3, .L13+68
 429 020a 1B68     		ldr	r3, [r3]
 430 020c 3F4A     		ldr	r2, .L13+96
 431 020e DA65     		str	r2, [r3, #92]
 208:main.c        ****     pAmpCfg->SensorBias = 0.0;    // Vbias = 0V (Sensor = Vzero)
 432              		.loc 1 208 0
 433 0210 374B     		ldr	r3, .L13+68
 434 0212 1B68     		ldr	r3, [r3]
 435 0214 0022     		movs	r2, #0
 436 0216 1A66     		str	r2, [r3, #96]
 209:main.c        **** 
 210:main.c        ****     // --- ADC ---
 211:main.c        ****     pAmpCfg->ADCPgaGain = ADCPGA_1P5;
 437              		.loc 1 211 0
 438 0218 354B     		ldr	r3, .L13+68
 439 021a 1B68     		ldr	r3, [r3]
 440 021c 0122     		movs	r2, #1
 441 021e DA63     		str	r2, [r3, #60]
 212:main.c        ****     pAmpCfg->ADCSinc3Osr = ADCSINC3OSR_4;
 442              		.loc 1 212 0
 443 0220 334B     		ldr	r3, .L13+68
 444 0222 1B68     		ldr	r3, [r3]
 445 0224 4022     		movs	r2, #64
 446 0226 0121     		movs	r1, #1
 447 0228 9954     		strb	r1, [r3, r2]
 213:main.c        ****     pAmpCfg->ADCSinc2Osr = ADCSINC2OSR_178;
ARM GAS  C:\Users\13740\AppData\Local\Temp\cc1Gy8Oo.s 			page 14


 448              		.loc 1 213 0
 449 022a 314B     		ldr	r3, .L13+68
 450 022c 1B68     		ldr	r3, [r3]
 451 022e 4122     		movs	r2, #65
 452 0230 0321     		movs	r1, #3
 453 0232 9954     		strb	r1, [r3, r2]
 214:main.c        ****     pAmpCfg->DataFifoSrc = FIFOSRC_SINC3;
 454              		.loc 1 214 0
 455 0234 2E4B     		ldr	r3, .L13+68
 456 0236 1B68     		ldr	r3, [r3]
 457 0238 0022     		movs	r2, #0
 458 023a 5A64     		str	r2, [r3, #68]
 215:main.c        **** 
 216:main.c        ****     // 清除状态
 217:main.c        ****     pAmpCfg->AMPInited = bFALSE;
 459              		.loc 1 217 0
 460 023c 2C4B     		ldr	r3, .L13+68
 461 023e 1B68     		ldr	r3, [r3]
 462 0240 6C22     		movs	r2, #108
 463 0242 0021     		movs	r1, #0
 464 0244 9954     		strb	r1, [r3, r2]
 218:main.c        ****     pAmpCfg->StopRequired = bFALSE;
 465              		.loc 1 218 0
 466 0246 2A4B     		ldr	r3, .L13+68
 467 0248 1B68     		ldr	r3, [r3]
 468 024a 9822     		movs	r2, #152
 469 024c 0021     		movs	r1, #0
 470 024e 9954     		strb	r1, [r3, r2]
 219:main.c        ****     pAmpCfg->FifoDataCount = 0;
 471              		.loc 1 219 0
 472 0250 274B     		ldr	r3, .L13+68
 473 0252 1B68     		ldr	r3, [r3]
 474 0254 9C22     		movs	r2, #156
 475 0256 0021     		movs	r1, #0
 476 0258 9950     		str	r1, [r3, r2]
 220:main.c        **** 
 221:main.c        ****     // ====================================================================
 222:main.c        ****     // 步骤 6: 启动应用
 223:main.c        ****     // ====================================================================
 224:main.c        ****     printf("[INIT] Step 6: Calling AppAMPInit...\r\n");
 477              		.loc 1 224 0
 478 025a 2D4B     		ldr	r3, .L13+100
 479 025c 1800     		movs	r0, r3
 480 025e FFF7FEFF 		bl	puts
 225:main.c        ****     error = AppAMPInit(ampBuffer, 512);
 481              		.loc 1 225 0
 482 0262 8023     		movs	r3, #128
 483 0264 9A00     		lsls	r2, r3, #2
 484 0266 2B4B     		ldr	r3, .L13+104
 485 0268 1100     		movs	r1, r2
 486 026a 1800     		movs	r0, r3
 487 026c FFF7FEFF 		bl	AppAMPInit
 488 0270 0300     		movs	r3, r0
 489 0272 7B60     		str	r3, [r7, #4]
 226:main.c        ****     
 227:main.c        ****     if(error == AD5940ERR_OK)
 490              		.loc 1 227 0
ARM GAS  C:\Users\13740\AppData\Local\Temp\cc1Gy8Oo.s 			page 15


 491 0274 7B68     		ldr	r3, [r7, #4]
 492 0276 002B     		cmp	r3, #0
 493 0278 0ED1     		bne	.L12
 228:main.c        ****     {
 229:main.c        ****         printf("[OK] AD5941 System Initialized Successfully.\r\n");
 494              		.loc 1 229 0
 495 027a 274B     		ldr	r3, .L13+108
 496 027c 1800     		movs	r0, r3
 497 027e FFF7FEFF 		bl	puts
 230:main.c        ****         printf("     AMPInited Flag: %d\r\n", pAmpCfg->AMPInited);
 498              		.loc 1 230 0
 499 0282 1B4B     		ldr	r3, .L13+68
 500 0284 1B68     		ldr	r3, [r3]
 501 0286 6C22     		movs	r2, #108
 502 0288 9B5C     		ldrb	r3, [r3, r2]
 503 028a 1A00     		movs	r2, r3
 504 028c 234B     		ldr	r3, .L13+112
 505 028e 1100     		movs	r1, r2
 506 0290 1800     		movs	r0, r3
 507 0292 FFF7FEFF 		bl	printf
 508 0296 05E0     		b	.L1
 509              	.L12:
 231:main.c        ****     }
 232:main.c        ****     else
 233:main.c        ****     {
 234:main.c        ****         printf("[ERROR] AppAMPInit failed with error code: %d\r\n", error);
 510              		.loc 1 234 0
 511 0298 7A68     		ldr	r2, [r7, #4]
 512 029a 214B     		ldr	r3, .L13+116
 513 029c 1100     		movs	r1, r2
 514 029e 1800     		movs	r0, r3
 515 02a0 FFF7FEFF 		bl	printf
 516              	.L1:
 235:main.c        ****     }
 236:main.c        **** }
 517              		.loc 1 236 0
 518 02a4 BD46     		mov	sp, r7
 519 02a6 06B0     		add	sp, sp, #24
 520              		@ sp needed
 521 02a8 80BD     		pop	{r7, pc}
 522              	.L14:
 523 02aa C046     		.align	2
 524              	.L13:
 525 02ac 00000000 		.word	.LC0
 526 02b0 28000000 		.word	.LC2
 527 02b4 4C000000 		.word	.LC4
 528 02b8 78000000 		.word	.LC6
 529 02bc 04040000 		.word	1028
 530 02c0 A4000000 		.word	.LC8
 531 02c4 44410000 		.word	16708
 532 02c8 01550000 		.word	21761
 533 02cc 02550000 		.word	21762
 534 02d0 D8000000 		.word	.LC10
 535 02d4 F8000000 		.word	.LC12
 536 02d8 FFFF0000 		.word	65535
 537 02dc 38010000 		.word	.LC14
 538 02e0 78010000 		.word	.LC16
ARM GAS  C:\Users\13740\AppData\Local\Temp\cc1Gy8Oo.s 			page 16


 539 02e4 B4010000 		.word	.LC18
 540 02e8 F0010000 		.word	.LC20
 541 02ec 10020000 		.word	.LC22
 542 02f0 00000000 		.word	pAmpCfg
 543 02f4 48020000 		.word	.LC25
 544 02f8 0024744B 		.word	1265902592
 545 02fc 0000FA46 		.word	1190789120
 546 0300 00002041 		.word	1092616192
 547 0304 00401C46 		.word	1176256512
 548 0308 C3F5E83F 		.word	1072231875
 549 030c 00808944 		.word	1149861888
 550 0310 64020000 		.word	.LC27
 551 0314 00000000 		.word	ampBuffer
 552 0318 8C020000 		.word	.LC30
 553 031c BC020000 		.word	.LC32
 554 0320 D8020000 		.word	.LC34
 555              		.cfi_endproc
 556              	.LFE36:
 557              		.size	AD5941_Initialize, .-AD5941_Initialize
 558              		.section	.rodata
 559              		.align	2
 560              	.LC36:
 561 0308 0A3D3D3D 		.ascii	"\012=== SPI COMMUNICATION TEST (ENHANCED) ===\000"
 561      20535049 
 561      20434F4D 
 561      4D554E49 
 561      43415449 
 562 0333 00       		.align	2
 563              	.LC38:
 564 0334 5B544553 		.ascii	"[TEST] Attempting 3 consecutive reads of REG_AFE_AF"
 564      545D2041 
 564      7474656D 
 564      7074696E 
 564      67203320 
 565 0367 45434F4E 		.ascii	"ECON...\000"
 565      2E2E2E00 
 566 036f 00       		.align	2
 567              	.LC40:
 568 0370 5B415454 		.ascii	"[ATTEMPT %d] Register Value: 0x%lX\012\000"
 568      454D5054 
 568      2025645D 
 568      20526567 
 568      69737465 
 569              		.align	2
 570              	.LC42:
 571 0394 0A5B5445 		.ascii	"\012[TEST] Reading different AD5940 registers...\000"
 571      53545D20 
 571      52656164 
 571      696E6720 
 571      64696666 
 572 03c2 0000     		.align	2
 573              	.LC44:
 574 03c4 20205245 		.ascii	"  REG_AFE_AFECON:  0x%lX\012\000"
 574      475F4146 
 574      455F4146 
 574      45434F4E 
 574      3A202030 
ARM GAS  C:\Users\13740\AppData\Local\Temp\cc1Gy8Oo.s 			page 17


 575 03de 0000     		.align	2
 576              	.LC46:
 577 03e0 20205245 		.ascii	"  REG_AFE_ADCCON:  0x%lX\012\000"
 577      475F4146 
 577      455F4144 
 577      43434F4E 
 577      3A202030 
 578 03fa 0000     		.align	2
 579              	.LC48:
 580 03fc 20205245 		.ascii	"  REG_AFE_FIFOCON: 0x%lX\012\000"
 580      475F4146 
 580      455F4649 
 580      464F434F 
 580      4E3A2030 
 581 0416 0000     		.align	2
 582              	.LC50:
 583 0418 20205245 		.ascii	"  REG_AFE_ADCDAT:  0x%lX\012\000"
 583      475F4146 
 583      455F4144 
 583      43444154 
 583      3A202030 
 584 0432 0000     		.align	2
 585              	.LC52:
 586 0434 0A5B414E 		.ascii	"\012[ANALYSIS]\000"
 586      414C5953 
 586      49535D00 
 587              		.align	2
 588              	.LC54:
 589 0440 5B435249 		.ascii	"[CRITICAL] Consistent 0x80 pattern detected!\000"
 589      54494341 
 589      4C5D2043 
 589      6F6E7369 
 589      7374656E 
 590 046d 000000   		.align	2
 591              	.LC56:
 592 0470 20202054 		.ascii	"   This is NOT random garbage - it's a systematic i"
 592      68697320 
 592      6973204E 
 592      4F542072 
 592      616E646F 
 593 04a3 73737565 		.ascii	"ssue:\000"
 593      3A00
 594 04a9 000000   		.align	2
 595              	.LC58:
 596 04ac 20202050 		.ascii	"   Possible Causes:\000"
 596      6F737369 
 596      626C6520 
 596      43617573 
 596      65733A00 
 597              		.align	2
 598              	.LC60:
 599 04c0 20202031 		.ascii	"   1. **MISO line floating** - Not connected or ope"
 599      2E202A2A 
 599      4D49534F 
 599      206C696E 
 599      6520666C 
 600 04f3 6E206369 		.ascii	"n circuit\000"
ARM GAS  C:\Users\13740\AppData\Local\Temp\cc1Gy8Oo.s 			page 18


 600      72637569 
 600      7400
 601 04fd 000000   		.align	2
 602              	.LC62:
 603 0500 20202032 		.ascii	"   2. **CS timing** - Signal not toggling correctly"
 603      2E202A2A 
 603      43532074 
 603      696D696E 
 603      672A2A20 
 604 0533 00       		.ascii	"\000"
 605              		.align	2
 606              	.LC64:
 607 0534 20202033 		.ascii	"   3. **DUMMY READ issue** - SPI read sequence prob"
 607      2E202A2A 
 607      44554D4D 
 607      59205245 
 607      41442069 
 608 0567 6C656D00 		.ascii	"lem\000"
 609 056b 00       		.align	2
 610              	.LC66:
 611 056c 20202034 		.ascii	"   4. **AD5940 not responding** - Check power, rese"
 611      2E202A2A 
 611      41443539 
 611      3430206E 
 611      6F742072 
 612 059f 742C2061 		.ascii	"t, and connections\000"
 612      6E642063 
 612      6F6E6E65 
 612      6374696F 
 612      6E7300
 613 05b2 0000     		.align	2
 614              	.LC68:
 615 05b4 0A202020 		.ascii	"\012   ACTION REQUIRED:\000"
 615      41435449 
 615      4F4E2052 
 615      45515549 
 615      5245443A 
 616 05c9 000000   		.align	2
 617              	.LC70:
 618 05cc 20202031 		.ascii	"   1. Check physical connection: PSoC P0.5 <-> AD59"
 618      2E204368 
 618      65636B20 
 618      70687973 
 618      6963616C 
 619 05ff 34302044 		.ascii	"40 DOUT\000"
 619      4F555400 
 620 0607 00       		.align	2
 621              	.LC72:
 622 0608 20202032 		.ascii	"   2. Measure voltage on DOUT pin (should toggle wi"
 622      2E204D65 
 622      61737572 
 622      6520766F 
 622      6C746167 
 623 063b 74682053 		.ascii	"th SCLK)\000"
 623      434C4B29 
 623      00
 624              		.align	2
ARM GAS  C:\Users\13740\AppData\Local\Temp\cc1Gy8Oo.s 			page 19


 625              	.LC74:
 626 0644 20202033 		.ascii	"   3. Verify AD5940 VDD = 3.3V and GND is connected"
 626      2E205665 
 626      72696679 
 626      20414435 
 626      39343020 
 627 0677 00       		.ascii	"\000"
 628              		.align	2
 629              	.LC76:
 630 0678 20202034 		.ascii	"   4. Try reducing SPI speed further (now at 100 kb"
 630      2E205472 
 630      79207265 
 630      64756369 
 630      6E672053 
 631 06ab 70732900 		.ascii	"ps)\000"
 632 06af 00       		.align	2
 633              	.LC78:
 634 06b0 5B474F4F 		.ascii	"[GOOD SIGN] Different values in different registers"
 634      44205349 
 634      474E5D20 
 634      44696666 
 634      6572656E 
 635 06e3 2100     		.ascii	"!\000"
 636 06e5 000000   		.align	2
 637              	.LC80:
 638 06e8 20202054 		.ascii	"   This suggests SPI communication is partially wor"
 638      68697320 
 638      73756767 
 638      65737473 
 638      20535049 
 639 071b 6B696E67 		.ascii	"king\000"
 639      00
 640              		.align	2
 641              	.LC82:
 642 0720 5B4F4B5D 		.ascii	"[OK] Register values appear reasonable\000"
 642      20526567 
 642      69737465 
 642      72207661 
 642      6C756573 
 643 0747 00       		.align	2
 644              	.LC84:
 645 0748 0A5B5350 		.ascii	"\012[SPI CONFIGURATION]\000"
 645      4920434F 
 645      4E464947 
 645      55524154 
 645      494F4E5D 
 646 075d 000000   		.align	2
 647              	.LC86:
 648 0760 2020202D 		.ascii	"   - SPI Speed: 100 kbps (reduced from 1 Mbps)\000"
 648      20535049 
 648      20537065 
 648      65643A20 
 648      31303020 
 649 078f 00       		.align	2
 650              	.LC88:
 651 0790 2020202D 		.ascii	"   - Mode: Motorola (CPHA=0, CPOL=0)\000"
 651      204D6F64 
ARM GAS  C:\Users\13740\AppData\Local\Temp\cc1Gy8Oo.s 			page 20


 651      653A204D 
 651      6F746F72 
 651      6F6C6120 
 652 07b5 000000   		.align	2
 653              	.LC90:
 654 07b8 2020202D 		.ascii	"   - Data Width: 8-bit\000"
 654      20446174 
 654      61205769 
 654      6474683A 
 654      20382D62 
 655 07cf 00       		.align	2
 656              	.LC92:
 657 07d0 3D3D3D20 		.ascii	"=== SPI TEST END ===\012\000"
 657      53504920 
 657      54455354 
 657      20454E44 
 657      203D3D3D 
 658              		.section	.text.DiagnosticsSPI,"ax",%progbits
 659              		.align	2
 660              		.global	DiagnosticsSPI
 661              		.code	16
 662              		.thumb_func
 663              		.type	DiagnosticsSPI, %function
 664              	DiagnosticsSPI:
 665              	.LFB37:
 237:main.c        **** 
 238:main.c        **** /*******************************************************************************
 239:main.c        **** * Function Name: DiagnosticsSPI
 240:main.c        **** ********************************************************************************
 241:main.c        **** * Summary:
 242:main.c        **** *   诊断 SPI 通讯 - 增强版本，多寄存器测试
 243:main.c        **** *******************************************************************************/
 244:main.c        **** void DiagnosticsSPI(void)
 245:main.c        **** {
 666              		.loc 1 245 0
 667              		.cfi_startproc
 668              		@ args = 0, pretend = 0, frame = 24
 669              		@ frame_needed = 1, uses_anonymous_args = 0
 670 0000 80B5     		push	{r7, lr}
 671              		.cfi_def_cfa_offset 8
 672              		.cfi_offset 7, -8
 673              		.cfi_offset 14, -4
 674 0002 86B0     		sub	sp, sp, #24
 675              		.cfi_def_cfa_offset 32
 676 0004 00AF     		add	r7, sp, #0
 677              		.cfi_def_cfa_register 7
 246:main.c        ****     printf("\n=== SPI COMMUNICATION TEST (ENHANCED) ===\n");
 678              		.loc 1 246 0
 679 0006 704B     		ldr	r3, .L25
 680 0008 1800     		movs	r0, r3
 681 000a FFF7FEFF 		bl	puts
 247:main.c        ****     
 248:main.c        ****     uint32 regValue = 0;
 682              		.loc 1 248 0
 683 000e 0023     		movs	r3, #0
 684 0010 3B61     		str	r3, [r7, #16]
 249:main.c        ****     uint32 regValue2 = 0;
ARM GAS  C:\Users\13740\AppData\Local\Temp\cc1Gy8Oo.s 			page 21


 685              		.loc 1 249 0
 686 0012 0023     		movs	r3, #0
 687 0014 FB60     		str	r3, [r7, #12]
 250:main.c        ****     uint32 regValue3 = 0;
 688              		.loc 1 250 0
 689 0016 0023     		movs	r3, #0
 690 0018 BB60     		str	r3, [r7, #8]
 251:main.c        ****     uint32 regValue4 = 0;
 691              		.loc 1 251 0
 692 001a 0023     		movs	r3, #0
 693 001c 7B60     		str	r3, [r7, #4]
 252:main.c        ****     int testCount = 0;
 694              		.loc 1 252 0
 695 001e 0023     		movs	r3, #0
 696 0020 7B61     		str	r3, [r7, #20]
 253:main.c        ****     
 254:main.c        ****     // 尝试多次读取，看是否有任何变化
 255:main.c        ****     printf("[TEST] Attempting 3 consecutive reads of REG_AFE_AFECON...\n");
 697              		.loc 1 255 0
 698 0022 6A4B     		ldr	r3, .L25+4
 699 0024 1800     		movs	r0, r3
 700 0026 FFF7FEFF 		bl	puts
 256:main.c        ****     for(testCount = 0; testCount < 3; testCount++)
 701              		.loc 1 256 0
 702 002a 0023     		movs	r3, #0
 703 002c 7B61     		str	r3, [r7, #20]
 704 002e 13E0     		b	.L16
 705              	.L17:
 257:main.c        ****     {
 258:main.c        ****         regValue = AD5940_ReadReg(BITM_AFE_AFECON_INAMPEN);
 706              		.loc 1 258 0 discriminator 3
 707 0030 8023     		movs	r3, #128
 708 0032 DB00     		lsls	r3, r3, #3
 709 0034 1800     		movs	r0, r3
 710 0036 FFF7FEFF 		bl	AD5940_ReadReg
 711 003a 0300     		movs	r3, r0
 712 003c 3B61     		str	r3, [r7, #16]
 259:main.c        ****         printf("[ATTEMPT %d] Register Value: 0x%lX\n", testCount + 1, (unsigned long)regValue);
 713              		.loc 1 259 0 discriminator 3
 714 003e 7B69     		ldr	r3, [r7, #20]
 715 0040 591C     		adds	r1, r3, #1
 716 0042 3A69     		ldr	r2, [r7, #16]
 717 0044 624B     		ldr	r3, .L25+8
 718 0046 1800     		movs	r0, r3
 719 0048 FFF7FEFF 		bl	printf
 260:main.c        ****         CyDelay(50);
 720              		.loc 1 260 0 discriminator 3
 721 004c 3220     		movs	r0, #50
 722 004e FFF7FEFF 		bl	CyDelay
 256:main.c        ****     {
 723              		.loc 1 256 0 discriminator 3
 724 0052 7B69     		ldr	r3, [r7, #20]
 725 0054 0133     		adds	r3, r3, #1
 726 0056 7B61     		str	r3, [r7, #20]
 727              	.L16:
 256:main.c        ****     {
 728              		.loc 1 256 0 is_stmt 0 discriminator 1
ARM GAS  C:\Users\13740\AppData\Local\Temp\cc1Gy8Oo.s 			page 22


 729 0058 7B69     		ldr	r3, [r7, #20]
 730 005a 022B     		cmp	r3, #2
 731 005c E8DD     		ble	.L17
 261:main.c        ****     }
 262:main.c        ****     
 263:main.c        ****     // 尝试读取不同的寄存器
 264:main.c        ****     printf("\n[TEST] Reading different AD5940 registers...\n");
 732              		.loc 1 264 0 is_stmt 1
 733 005e 5D4B     		ldr	r3, .L25+12
 734 0060 1800     		movs	r0, r3
 735 0062 FFF7FEFF 		bl	puts
 265:main.c        ****     regValue = AD5940_ReadReg(REG_AFE_AFECON);
 736              		.loc 1 265 0
 737 0066 8023     		movs	r3, #128
 738 0068 9B01     		lsls	r3, r3, #6
 739 006a 1800     		movs	r0, r3
 740 006c FFF7FEFF 		bl	AD5940_ReadReg
 741 0070 0300     		movs	r3, r0
 742 0072 3B61     		str	r3, [r7, #16]
 266:main.c        ****     printf("  REG_AFE_AFECON:  0x%lX\n", (unsigned long)regValue);
 743              		.loc 1 266 0
 744 0074 3A69     		ldr	r2, [r7, #16]
 745 0076 584B     		ldr	r3, .L25+16
 746 0078 1100     		movs	r1, r2
 747 007a 1800     		movs	r0, r3
 748 007c FFF7FEFF 		bl	printf
 267:main.c        ****     CyDelay(20);
 749              		.loc 1 267 0
 750 0080 1420     		movs	r0, #20
 751 0082 FFF7FEFF 		bl	CyDelay
 268:main.c        ****     
 269:main.c        ****     regValue2 = AD5940_ReadReg(REG_AFE_ADCCON);
 752              		.loc 1 269 0
 753 0086 554B     		ldr	r3, .L25+20
 754 0088 1800     		movs	r0, r3
 755 008a FFF7FEFF 		bl	AD5940_ReadReg
 756 008e 0300     		movs	r3, r0
 757 0090 FB60     		str	r3, [r7, #12]
 270:main.c        ****     printf("  REG_AFE_ADCCON:  0x%lX\n", (unsigned long)regValue2);     
 758              		.loc 1 270 0
 759 0092 FA68     		ldr	r2, [r7, #12]
 760 0094 524B     		ldr	r3, .L25+24
 761 0096 1100     		movs	r1, r2
 762 0098 1800     		movs	r0, r3
 763 009a FFF7FEFF 		bl	printf
 271:main.c        ****     CyDelay(20);
 764              		.loc 1 271 0
 765 009e 1420     		movs	r0, #20
 766 00a0 FFF7FEFF 		bl	CyDelay
 272:main.c        ****     
 273:main.c        ****     regValue3 = AD5940_ReadReg(REG_AFE_FIFOCON);
 767              		.loc 1 273 0
 768 00a4 4F4B     		ldr	r3, .L25+28
 769 00a6 1800     		movs	r0, r3
 770 00a8 FFF7FEFF 		bl	AD5940_ReadReg
 771 00ac 0300     		movs	r3, r0
 772 00ae BB60     		str	r3, [r7, #8]
ARM GAS  C:\Users\13740\AppData\Local\Temp\cc1Gy8Oo.s 			page 23


 274:main.c        ****     printf("  REG_AFE_FIFOCON: 0x%lX\n", (unsigned long)regValue3);
 773              		.loc 1 274 0
 774 00b0 BA68     		ldr	r2, [r7, #8]
 775 00b2 4D4B     		ldr	r3, .L25+32
 776 00b4 1100     		movs	r1, r2
 777 00b6 1800     		movs	r0, r3
 778 00b8 FFF7FEFF 		bl	printf
 275:main.c        ****     CyDelay(20);
 779              		.loc 1 275 0
 780 00bc 1420     		movs	r0, #20
 781 00be FFF7FEFF 		bl	CyDelay
 276:main.c        ****     
 277:main.c        ****     regValue4 = AD5940_ReadReg(REG_AFE_ADCDAT);
 782              		.loc 1 277 0
 783 00c2 4A4B     		ldr	r3, .L25+36
 784 00c4 1800     		movs	r0, r3
 785 00c6 FFF7FEFF 		bl	AD5940_ReadReg
 786 00ca 0300     		movs	r3, r0
 787 00cc 7B60     		str	r3, [r7, #4]
 278:main.c        ****     printf("  REG_AFE_ADCDAT:  0x%lX\n", (unsigned long)regValue4);
 788              		.loc 1 278 0
 789 00ce 7A68     		ldr	r2, [r7, #4]
 790 00d0 474B     		ldr	r3, .L25+40
 791 00d2 1100     		movs	r1, r2
 792 00d4 1800     		movs	r0, r3
 793 00d6 FFF7FEFF 		bl	printf
 279:main.c        ****     
 280:main.c        ****     // 分析读取结果
 281:main.c        ****     printf("\n[ANALYSIS]\n");
 794              		.loc 1 281 0
 795 00da 464B     		ldr	r3, .L25+44
 796 00dc 1800     		movs	r0, r3
 797 00de FFF7FEFF 		bl	puts
 282:main.c        ****     
 283:main.c        ****     if((regValue == 0x808080 || regValue == 0x80) && 
 798              		.loc 1 283 0
 799 00e2 3B69     		ldr	r3, [r7, #16]
 800 00e4 444A     		ldr	r2, .L25+48
 801 00e6 9342     		cmp	r3, r2
 802 00e8 02D0     		beq	.L18
 803              		.loc 1 283 0 is_stmt 0 discriminator 2
 804 00ea 3B69     		ldr	r3, [r7, #16]
 805 00ec 802B     		cmp	r3, #128
 806 00ee 3ED1     		bne	.L19
 807              	.L18:
 808              		.loc 1 283 0 discriminator 3
 809 00f0 FB68     		ldr	r3, [r7, #12]
 810 00f2 414A     		ldr	r2, .L25+48
 811 00f4 9342     		cmp	r3, r2
 812 00f6 02D0     		beq	.L20
 284:main.c        ****        (regValue2 == 0x808080 || regValue2 == 0x80) &&
 813              		.loc 1 284 0 is_stmt 1
 814 00f8 FB68     		ldr	r3, [r7, #12]
 815 00fa 802B     		cmp	r3, #128
 816 00fc 37D1     		bne	.L19
 817              	.L20:
 818              		.loc 1 284 0 is_stmt 0 discriminator 1
ARM GAS  C:\Users\13740\AppData\Local\Temp\cc1Gy8Oo.s 			page 24


 819 00fe BB68     		ldr	r3, [r7, #8]
 820 0100 3D4A     		ldr	r2, .L25+48
 821 0102 9342     		cmp	r3, r2
 822 0104 02D0     		beq	.L21
 285:main.c        ****        (regValue3 == 0x808080 || regValue3 == 0x80))
 823              		.loc 1 285 0 is_stmt 1
 824 0106 BB68     		ldr	r3, [r7, #8]
 825 0108 802B     		cmp	r3, #128
 826 010a 30D1     		bne	.L19
 827              	.L21:
 286:main.c        ****     {
 287:main.c        ****         printf("[CRITICAL] Consistent 0x80 pattern detected!\n");
 828              		.loc 1 287 0
 829 010c 3B4B     		ldr	r3, .L25+52
 830 010e 1800     		movs	r0, r3
 831 0110 FFF7FEFF 		bl	puts
 288:main.c        ****         printf("   This is NOT random garbage - it's a systematic issue:\n");
 832              		.loc 1 288 0
 833 0114 3A4B     		ldr	r3, .L25+56
 834 0116 1800     		movs	r0, r3
 835 0118 FFF7FEFF 		bl	puts
 289:main.c        ****         printf("   Possible Causes:\n");
 836              		.loc 1 289 0
 837 011c 394B     		ldr	r3, .L25+60
 838 011e 1800     		movs	r0, r3
 839 0120 FFF7FEFF 		bl	puts
 290:main.c        ****         printf("   1. **MISO line floating** - Not connected or open circuit\n");
 840              		.loc 1 290 0
 841 0124 384B     		ldr	r3, .L25+64
 842 0126 1800     		movs	r0, r3
 843 0128 FFF7FEFF 		bl	puts
 291:main.c        ****         printf("   2. **CS timing** - Signal not toggling correctly\n");
 844              		.loc 1 291 0
 845 012c 374B     		ldr	r3, .L25+68
 846 012e 1800     		movs	r0, r3
 847 0130 FFF7FEFF 		bl	puts
 292:main.c        ****         printf("   3. **DUMMY READ issue** - SPI read sequence problem\n");
 848              		.loc 1 292 0
 849 0134 364B     		ldr	r3, .L25+72
 850 0136 1800     		movs	r0, r3
 851 0138 FFF7FEFF 		bl	puts
 293:main.c        ****         printf("   4. **AD5940 not responding** - Check power, reset, and connections\n");
 852              		.loc 1 293 0
 853 013c 354B     		ldr	r3, .L25+76
 854 013e 1800     		movs	r0, r3
 855 0140 FFF7FEFF 		bl	puts
 294:main.c        ****         printf("\n   ACTION REQUIRED:\n");
 856              		.loc 1 294 0
 857 0144 344B     		ldr	r3, .L25+80
 858 0146 1800     		movs	r0, r3
 859 0148 FFF7FEFF 		bl	puts
 295:main.c        ****         printf("   1. Check physical connection: PSoC P0.5 <-> AD5940 DOUT\n");
 860              		.loc 1 295 0
 861 014c 334B     		ldr	r3, .L25+84
 862 014e 1800     		movs	r0, r3
 863 0150 FFF7FEFF 		bl	puts
 296:main.c        ****         printf("   2. Measure voltage on DOUT pin (should toggle with SCLK)\n");
ARM GAS  C:\Users\13740\AppData\Local\Temp\cc1Gy8Oo.s 			page 25


 864              		.loc 1 296 0
 865 0154 324B     		ldr	r3, .L25+88
 866 0156 1800     		movs	r0, r3
 867 0158 FFF7FEFF 		bl	puts
 297:main.c        ****         printf("   3. Verify AD5940 VDD = 3.3V and GND is connected\n");
 868              		.loc 1 297 0
 869 015c 314B     		ldr	r3, .L25+92
 870 015e 1800     		movs	r0, r3
 871 0160 FFF7FEFF 		bl	puts
 298:main.c        ****         printf("   4. Try reducing SPI speed further (now at 100 kbps)\n");
 872              		.loc 1 298 0
 873 0164 304B     		ldr	r3, .L25+96
 874 0166 1800     		movs	r0, r3
 875 0168 FFF7FEFF 		bl	puts
 876 016c 14E0     		b	.L22
 877              	.L19:
 299:main.c        ****     }
 300:main.c        ****     else if(regValue != regValue2 || regValue != regValue3)
 878              		.loc 1 300 0
 879 016e 3A69     		ldr	r2, [r7, #16]
 880 0170 FB68     		ldr	r3, [r7, #12]
 881 0172 9A42     		cmp	r2, r3
 882 0174 03D1     		bne	.L23
 883              		.loc 1 300 0 is_stmt 0 discriminator 1
 884 0176 3A69     		ldr	r2, [r7, #16]
 885 0178 BB68     		ldr	r3, [r7, #8]
 886 017a 9A42     		cmp	r2, r3
 887 017c 08D0     		beq	.L24
 888              	.L23:
 301:main.c        ****     {
 302:main.c        ****         printf("[GOOD SIGN] Different values in different registers!\n");
 889              		.loc 1 302 0 is_stmt 1
 890 017e 2B4B     		ldr	r3, .L25+100
 891 0180 1800     		movs	r0, r3
 892 0182 FFF7FEFF 		bl	puts
 303:main.c        ****         printf("   This suggests SPI communication is partially working\n");
 893              		.loc 1 303 0
 894 0186 2A4B     		ldr	r3, .L25+104
 895 0188 1800     		movs	r0, r3
 896 018a FFF7FEFF 		bl	puts
 897 018e 03E0     		b	.L22
 898              	.L24:
 304:main.c        ****     }
 305:main.c        ****     else
 306:main.c        ****     {
 307:main.c        ****         printf("[OK] Register values appear reasonable\n");
 899              		.loc 1 307 0
 900 0190 284B     		ldr	r3, .L25+108
 901 0192 1800     		movs	r0, r3
 902 0194 FFF7FEFF 		bl	puts
 903              	.L22:
 308:main.c        ****     }
 309:main.c        ****     
 310:main.c        ****     printf("\n[SPI CONFIGURATION]\n");
 904              		.loc 1 310 0
 905 0198 274B     		ldr	r3, .L25+112
 906 019a 1800     		movs	r0, r3
ARM GAS  C:\Users\13740\AppData\Local\Temp\cc1Gy8Oo.s 			page 26


 907 019c FFF7FEFF 		bl	puts
 311:main.c        ****     printf("   - SPI Speed: 100 kbps (reduced from 1 Mbps)\n");
 908              		.loc 1 311 0
 909 01a0 264B     		ldr	r3, .L25+116
 910 01a2 1800     		movs	r0, r3
 911 01a4 FFF7FEFF 		bl	puts
 312:main.c        ****     printf("   - Mode: Motorola (CPHA=0, CPOL=0)\n");
 912              		.loc 1 312 0
 913 01a8 254B     		ldr	r3, .L25+120
 914 01aa 1800     		movs	r0, r3
 915 01ac FFF7FEFF 		bl	puts
 313:main.c        ****     printf("   - Data Width: 8-bit\n");
 916              		.loc 1 313 0
 917 01b0 244B     		ldr	r3, .L25+124
 918 01b2 1800     		movs	r0, r3
 919 01b4 FFF7FEFF 		bl	puts
 314:main.c        ****     
 315:main.c        ****     printf("=== SPI TEST END ===\n\n");
 920              		.loc 1 315 0
 921 01b8 234B     		ldr	r3, .L25+128
 922 01ba 1800     		movs	r0, r3
 923 01bc FFF7FEFF 		bl	puts
 316:main.c        **** }
 924              		.loc 1 316 0
 925 01c0 C046     		nop
 926 01c2 BD46     		mov	sp, r7
 927 01c4 06B0     		add	sp, sp, #24
 928              		@ sp needed
 929 01c6 80BD     		pop	{r7, pc}
 930              	.L26:
 931              		.align	2
 932              	.L25:
 933 01c8 08030000 		.word	.LC36
 934 01cc 34030000 		.word	.LC38
 935 01d0 70030000 		.word	.LC40
 936 01d4 94030000 		.word	.LC42
 937 01d8 C4030000 		.word	.LC44
 938 01dc A8210000 		.word	8616
 939 01e0 E0030000 		.word	.LC46
 940 01e4 08200000 		.word	8200
 941 01e8 FC030000 		.word	.LC48
 942 01ec 74200000 		.word	8308
 943 01f0 18040000 		.word	.LC50
 944 01f4 34040000 		.word	.LC52
 945 01f8 80808000 		.word	8421504
 946 01fc 40040000 		.word	.LC54
 947 0200 70040000 		.word	.LC56
 948 0204 AC040000 		.word	.LC58
 949 0208 C0040000 		.word	.LC60
 950 020c 00050000 		.word	.LC62
 951 0210 34050000 		.word	.LC64
 952 0214 6C050000 		.word	.LC66
 953 0218 B4050000 		.word	.LC68
 954 021c CC050000 		.word	.LC70
 955 0220 08060000 		.word	.LC72
 956 0224 44060000 		.word	.LC74
 957 0228 78060000 		.word	.LC76
ARM GAS  C:\Users\13740\AppData\Local\Temp\cc1Gy8Oo.s 			page 27


 958 022c B0060000 		.word	.LC78
 959 0230 E8060000 		.word	.LC80
 960 0234 20070000 		.word	.LC82
 961 0238 48070000 		.word	.LC84
 962 023c 60070000 		.word	.LC86
 963 0240 90070000 		.word	.LC88
 964 0244 B8070000 		.word	.LC90
 965 0248 D0070000 		.word	.LC92
 966              		.cfi_endproc
 967              	.LFE37:
 968              		.size	DiagnosticsSPI, .-DiagnosticsSPI
 969              		.section	.rodata
 970 07e6 0000     		.align	2
 971              	.LC94:
 972 07e8 0A3D3D3D 		.ascii	"\012=== FIFO & INTERRUPT STATUS (ENHANCED) ===\000"
 972      20464946 
 972      4F202620 
 972      494E5445 
 972      52525550 
 973              		.align	2
 974              	.LC96:
 975 0814 5B444542 		.ascii	"[DEBUG] Checking FIFO status...\000"
 975      55475D20 
 975      43686563 
 975      6B696E67 
 975      20464946 
 976              		.align	2
 977              	.LC99:
 978 0834 20202020 		.ascii	"    FifoDataCount: %lu\012\000"
 978      4669666F 
 978      44617461 
 978      436F756E 
 978      743A2025 
 979              		.align	2
 980              	.LC101:
 981 084c 20202020 		.ascii	"    FifoThresh: %d\012\000"
 981      4669666F 
 981      54687265 
 981      73683A20 
 981      25640A00 
 982              		.align	2
 983              	.LC103:
 984 0860 20202020 		.ascii	"    AMPInited: %d\012\000"
 984      414D5049 
 984      6E697465 
 984      643A2025 
 984      640A00
 985 0873 00       		.align	2
 986              	.LC105:
 987 0874 20202020 		.ascii	"    StopRequired: %d\012\000"
 987      53746F70 
 987      52657175 
 987      69726564 
 987      3A202564 
 988 088a 0000     		.align	2
 989              	.LC107:
 990 088c 5B455252 		.ascii	"[ERROR] pAmpCfg is NULL!\000"
ARM GAS  C:\Users\13740\AppData\Local\Temp\cc1Gy8Oo.s 			page 28


 990      4F525D20 
 990      70416D70 
 990      43666720 
 990      6973204E 
 991 08a5 000000   		.align	2
 992              	.LC109:
 993 08a8 3D3D3D20 		.ascii	"=== FIFO TEST END ===\012\000"
 993      4649464F 
 993      20544553 
 993      5420454E 
 993      44203D3D 
 994 08bf 00       		.align	2
 995              	.LC111:
 996 08c0 20202020 		.ascii	"    [OK] FIFO Threshold Interrupt: DETECTED\000"
 996      5B4F4B5D 
 996      20464946 
 996      4F205468 
 996      72657368 
 997              		.align	2
 998              	.LC113:
 999 08ec 20202020 		.ascii	"    [WARNING] FIFO Threshold Interrupt: NOT DETECTE"
 999      5B574152 
 999      4E494E47 
 999      5D204649 
 999      464F2054 
 1000 091f 4400     		.ascii	"D\000"
 1001 0921 000000   		.align	2
 1002              	.LC115:
 1003 0924 20202020 		.ascii	"            Check if ADC is running and FIFO has da"
 1003      20202020 
 1003      20202020 
 1003      43686563 
 1003      6B206966 
 1004 0957 746100   		.ascii	"ta\000"
 1005 095a 0000     		.align	2
 1006              	.LC117:
 1007 095c 0A5B4449 		.ascii	"\012[DIAGNOSIS]\000"
 1007      41474E4F 
 1007      5349535D 
 1007      00
 1008 0969 000000   		.align	2
 1009              	.LC119:
 1010 096c 20202020 		.ascii	"    [CRITICAL] AMPInited = 0, initialization incomp"
 1010      5B435249 
 1010      54494341 
 1010      4C5D2041 
 1010      4D50496E 
 1011 099f 6C657465 		.ascii	"lete\000"
 1011      00
 1012              		.align	2
 1013              	.LC121:
 1014 09a4 20202020 		.ascii	"    This prevents any measurements from starting\000"
 1014      54686973 
 1014      20707265 
 1014      76656E74 
 1014      7320616E 
 1015 09d5 000000   		.align	2
ARM GAS  C:\Users\13740\AppData\Local\Temp\cc1Gy8Oo.s 			page 29


 1016              	.LC123:
 1017 09d8 20202020 		.ascii	"    [OK] AMPInited = 1, initialization complete\000"
 1017      5B4F4B5D 
 1017      20414D50 
 1017      496E6974 
 1017      6564203D 
 1018              		.section	.text.DiagnosticsFIFO,"ax",%progbits
 1019              		.align	2
 1020              		.global	DiagnosticsFIFO
 1021              		.code	16
 1022              		.thumb_func
 1023              		.type	DiagnosticsFIFO, %function
 1024              	DiagnosticsFIFO:
 1025              	.LFB38:
 317:main.c        **** 
 318:main.c        **** /*******************************************************************************
 319:main.c        **** * Function Name: DiagnosticsFIFO
 320:main.c        **** ********************************************************************************
 321:main.c        **** * Summary:
 322:main.c        **** *   诊断 FIFO 和中断状态 - 增强版本
 323:main.c        **** *******************************************************************************/
 324:main.c        **** void DiagnosticsFIFO(void)
 325:main.c        **** {
 1026              		.loc 1 325 0
 1027              		.cfi_startproc
 1028              		@ args = 0, pretend = 0, frame = 8
 1029              		@ frame_needed = 1, uses_anonymous_args = 0
 1030 0000 80B5     		push	{r7, lr}
 1031              		.cfi_def_cfa_offset 8
 1032              		.cfi_offset 7, -8
 1033              		.cfi_offset 14, -4
 1034 0002 82B0     		sub	sp, sp, #8
 1035              		.cfi_def_cfa_offset 16
 1036 0004 00AF     		add	r7, sp, #0
 1037              		.cfi_def_cfa_register 7
 326:main.c        ****     printf("\n=== FIFO & INTERRUPT STATUS (ENHANCED) ===\n");
 1038              		.loc 1 326 0
 1039 0006 394B     		ldr	r3, .L36
 1040 0008 1800     		movs	r0, r3
 1041 000a FFF7FEFF 		bl	puts
 327:main.c        ****     
 328:main.c        ****     uint32 fifoCount = 0;
 1042              		.loc 1 328 0
 1043 000e 0023     		movs	r3, #0
 1044 0010 7B60     		str	r3, [r7, #4]
 329:main.c        ****     
 330:main.c        ****     printf("[DEBUG] Checking FIFO status...\n");
 1045              		.loc 1 330 0
 1046 0012 374B     		ldr	r3, .L36+4
 1047 0014 1800     		movs	r0, r3
 1048 0016 FFF7FEFF 		bl	puts
 331:main.c        ****     if(pAmpCfg != NULL)
 1049              		.loc 1 331 0
 1050 001a 364B     		ldr	r3, .L36+8
 1051 001c 1B68     		ldr	r3, [r3]
 1052 001e 002B     		cmp	r3, #0
 1053 0020 2FD0     		beq	.L28
ARM GAS  C:\Users\13740\AppData\Local\Temp\cc1Gy8Oo.s 			page 30


 332:main.c        ****     {
 333:main.c        ****         printf("    FifoDataCount: %lu\n", (unsigned long)pAmpCfg->FifoDataCount);
 1054              		.loc 1 333 0
 1055 0022 344B     		ldr	r3, .L36+8
 1056 0024 1B68     		ldr	r3, [r3]
 1057 0026 9C22     		movs	r2, #156
 1058 0028 9A58     		ldr	r2, [r3, r2]
 1059 002a 334B     		ldr	r3, .L36+12
 1060 002c 1100     		movs	r1, r2
 1061 002e 1800     		movs	r0, r3
 1062 0030 FFF7FEFF 		bl	printf
 334:main.c        ****         printf("    FifoThresh: %d\n", (int)pAmpCfg->FifoThresh);
 1063              		.loc 1 334 0
 1064 0034 2F4B     		ldr	r3, .L36+8
 1065 0036 1B68     		ldr	r3, [r3]
 1066 0038 5B6A     		ldr	r3, [r3, #36]
 1067 003a 1A00     		movs	r2, r3
 1068 003c 2F4B     		ldr	r3, .L36+16
 1069 003e 1100     		movs	r1, r2
 1070 0040 1800     		movs	r0, r3
 1071 0042 FFF7FEFF 		bl	printf
 335:main.c        ****         printf("    AMPInited: %d\n", (int)pAmpCfg->AMPInited);
 1072              		.loc 1 335 0
 1073 0046 2B4B     		ldr	r3, .L36+8
 1074 0048 1B68     		ldr	r3, [r3]
 1075 004a 6C22     		movs	r2, #108
 1076 004c 9B5C     		ldrb	r3, [r3, r2]
 1077 004e 1A00     		movs	r2, r3
 1078 0050 2B4B     		ldr	r3, .L36+20
 1079 0052 1100     		movs	r1, r2
 1080 0054 1800     		movs	r0, r3
 1081 0056 FFF7FEFF 		bl	printf
 336:main.c        ****         printf("    StopRequired: %d\n", (int)pAmpCfg->StopRequired);
 1082              		.loc 1 336 0
 1083 005a 264B     		ldr	r3, .L36+8
 1084 005c 1B68     		ldr	r3, [r3]
 1085 005e 9822     		movs	r2, #152
 1086 0060 9B5C     		ldrb	r3, [r3, r2]
 1087 0062 1A00     		movs	r2, r3
 1088 0064 274B     		ldr	r3, .L36+24
 1089 0066 1100     		movs	r1, r2
 1090 0068 1800     		movs	r0, r3
 1091 006a FFF7FEFF 		bl	printf
 337:main.c        ****     }
 338:main.c        ****     else
 339:main.c        ****     {
 340:main.c        ****         printf("[ERROR] pAmpCfg is NULL!\n");
 341:main.c        ****         printf("=== FIFO TEST END ===\n\n");
 342:main.c        ****         return;
 343:main.c        ****     }
 344:main.c        ****     
 345:main.c        ****     if(AD5940_INTCTestFlag(AFEINTC_0, AFEINTSRC_DATAFIFOTHRESH) == bTRUE)
 1092              		.loc 1 345 0
 1093 006e 8023     		movs	r3, #128
 1094 0070 9B04     		lsls	r3, r3, #18
 1095 0072 1900     		movs	r1, r3
 1096 0074 0020     		movs	r0, #0
ARM GAS  C:\Users\13740\AppData\Local\Temp\cc1Gy8Oo.s 			page 31


 1097 0076 FFF7FEFF 		bl	AD5940_INTCTestFlag
 1098 007a 0300     		movs	r3, r0
 1099 007c 012B     		cmp	r3, #1
 1100 007e 0ED1     		bne	.L31
 1101 0080 08E0     		b	.L35
 1102              	.L28:
 340:main.c        ****         printf("=== FIFO TEST END ===\n\n");
 1103              		.loc 1 340 0
 1104 0082 214B     		ldr	r3, .L36+28
 1105 0084 1800     		movs	r0, r3
 1106 0086 FFF7FEFF 		bl	puts
 341:main.c        ****         return;
 1107              		.loc 1 341 0
 1108 008a 204B     		ldr	r3, .L36+32
 1109 008c 1800     		movs	r0, r3
 1110 008e FFF7FEFF 		bl	puts
 342:main.c        ****     }
 1111              		.loc 1 342 0
 1112 0092 27E0     		b	.L27
 1113              	.L35:
 346:main.c        ****     {
 347:main.c        ****         printf("    [OK] FIFO Threshold Interrupt: DETECTED\n");
 1114              		.loc 1 347 0
 1115 0094 1E4B     		ldr	r3, .L36+36
 1116 0096 1800     		movs	r0, r3
 1117 0098 FFF7FEFF 		bl	puts
 1118 009c 07E0     		b	.L32
 1119              	.L31:
 348:main.c        ****     }
 349:main.c        ****     else
 350:main.c        ****     {
 351:main.c        ****         printf("    [WARNING] FIFO Threshold Interrupt: NOT DETECTED\n");
 1120              		.loc 1 351 0
 1121 009e 1D4B     		ldr	r3, .L36+40
 1122 00a0 1800     		movs	r0, r3
 1123 00a2 FFF7FEFF 		bl	puts
 352:main.c        ****         printf("            Check if ADC is running and FIFO has data\n");
 1124              		.loc 1 352 0
 1125 00a6 1C4B     		ldr	r3, .L36+44
 1126 00a8 1800     		movs	r0, r3
 1127 00aa FFF7FEFF 		bl	puts
 1128              	.L32:
 353:main.c        ****     }
 354:main.c        ****     
 355:main.c        ****     printf("\n[DIAGNOSIS]\n");
 1129              		.loc 1 355 0
 1130 00ae 1B4B     		ldr	r3, .L36+48
 1131 00b0 1800     		movs	r0, r3
 1132 00b2 FFF7FEFF 		bl	puts
 356:main.c        ****     if(pAmpCfg->AMPInited == 0)
 1133              		.loc 1 356 0
 1134 00b6 0F4B     		ldr	r3, .L36+8
 1135 00b8 1B68     		ldr	r3, [r3]
 1136 00ba 6C22     		movs	r2, #108
 1137 00bc 9B5C     		ldrb	r3, [r3, r2]
 1138 00be 002B     		cmp	r3, #0
 1139 00c0 08D1     		bne	.L33
ARM GAS  C:\Users\13740\AppData\Local\Temp\cc1Gy8Oo.s 			page 32


 357:main.c        ****     {
 358:main.c        ****         printf("    [CRITICAL] AMPInited = 0, initialization incomplete\n");
 1140              		.loc 1 358 0
 1141 00c2 174B     		ldr	r3, .L36+52
 1142 00c4 1800     		movs	r0, r3
 1143 00c6 FFF7FEFF 		bl	puts
 359:main.c        ****         printf("    This prevents any measurements from starting\n");
 1144              		.loc 1 359 0
 1145 00ca 164B     		ldr	r3, .L36+56
 1146 00cc 1800     		movs	r0, r3
 1147 00ce FFF7FEFF 		bl	puts
 1148 00d2 03E0     		b	.L34
 1149              	.L33:
 360:main.c        ****     }
 361:main.c        ****     else
 362:main.c        ****     {
 363:main.c        ****         printf("    [OK] AMPInited = 1, initialization complete\n");
 1150              		.loc 1 363 0
 1151 00d4 144B     		ldr	r3, .L36+60
 1152 00d6 1800     		movs	r0, r3
 1153 00d8 FFF7FEFF 		bl	puts
 1154              	.L34:
 364:main.c        ****     }
 365:main.c        ****     
 366:main.c        ****     printf("=== FIFO TEST END ===\n\n");
 1155              		.loc 1 366 0
 1156 00dc 0B4B     		ldr	r3, .L36+32
 1157 00de 1800     		movs	r0, r3
 1158 00e0 FFF7FEFF 		bl	puts
 1159              	.L27:
 367:main.c        **** }
 1160              		.loc 1 367 0
 1161 00e4 BD46     		mov	sp, r7
 1162 00e6 02B0     		add	sp, sp, #8
 1163              		@ sp needed
 1164 00e8 80BD     		pop	{r7, pc}
 1165              	.L37:
 1166 00ea C046     		.align	2
 1167              	.L36:
 1168 00ec E8070000 		.word	.LC94
 1169 00f0 14080000 		.word	.LC96
 1170 00f4 00000000 		.word	pAmpCfg
 1171 00f8 34080000 		.word	.LC99
 1172 00fc 4C080000 		.word	.LC101
 1173 0100 60080000 		.word	.LC103
 1174 0104 74080000 		.word	.LC105
 1175 0108 8C080000 		.word	.LC107
 1176 010c A8080000 		.word	.LC109
 1177 0110 C0080000 		.word	.LC111
 1178 0114 EC080000 		.word	.LC113
 1179 0118 24090000 		.word	.LC115
 1180 011c 5C090000 		.word	.LC117
 1181 0120 6C090000 		.word	.LC119
 1182 0124 A4090000 		.word	.LC121
 1183 0128 D8090000 		.word	.LC123
 1184              		.cfi_endproc
 1185              	.LFE38:
ARM GAS  C:\Users\13740\AppData\Local\Temp\cc1Gy8Oo.s 			page 33


 1186              		.size	DiagnosticsFIFO, .-DiagnosticsFIFO
 1187              		.section	.rodata
 1188              		.align	2
 1189              	.LC125:
 1190 0a08 0A3D3D3D 		.ascii	"\012=== ELECTRODE CONFIGURATION ===\000"
 1190      20454C45 
 1190      4354524F 
 1190      44452043 
 1190      4F4E4649 
 1191 0a29 000000   		.align	2
 1192              	.LC127:
 1193 0a2c 5B444542 		.ascii	"[DEBUG] Electrode Control Pin Status:\000"
 1193      55475D20 
 1193      456C6563 
 1193      74726F64 
 1193      6520436F 
 1194 0a52 0000     		.align	2
 1195              	.LC129:
 1196 0a54 20202020 		.ascii	"    AMP1_EN (Glucose): %d\012\000"
 1196      414D5031 
 1196      5F454E20 
 1196      28476C75 
 1196      636F7365 
 1197 0a6f 00       		.align	2
 1198              	.LC131:
 1199 0a70 20202020 		.ascii	"    AMP2_EN (Lactate): %d\012\000"
 1199      414D5032 
 1199      5F454E20 
 1199      284C6163 
 1199      74617465 
 1200 0a8b 00       		.align	2
 1201              	.LC133:
 1202 0a8c 20202020 		.ascii	"    AMP3_EN (Uric Acid): %d\012\000"
 1202      414D5033 
 1202      5F454E20 
 1202      28557269 
 1202      63204163 
 1203 0aa9 000000   		.align	2
 1204              	.LC135:
 1205 0aac 0A5B4348 		.ascii	"\012[CHECK] Please verify:\000"
 1205      45434B5D 
 1205      20506C65 
 1205      61736520 
 1205      76657269 
 1206              		.align	2
 1207              	.LC137:
 1208 0ac4 20202020 		.ascii	"    1. WE (Working Electrode): Connected to appropr"
 1208      312E2057 
 1208      45202857 
 1208      6F726B69 
 1208      6E672045 
 1209 0af7 69617465 		.ascii	"iate sensor\000"
 1209      2073656E 
 1209      736F7200 
 1210 0b03 00       		.align	2
 1211              	.LC139:
 1212 0b04 20202020 		.ascii	"    2. RE (Reference Electrode): Connected to Ag/Ag"
ARM GAS  C:\Users\13740\AppData\Local\Temp\cc1Gy8Oo.s 			page 34


 1212      322E2052 
 1212      45202852 
 1212      65666572 
 1212      656E6365 
 1213 0b37 436C206F 		.ascii	"Cl or similar\000"
 1213      72207369 
 1213      6D696C61 
 1213      7200
 1214 0b45 000000   		.align	2
 1215              	.LC141:
 1216 0b48 20202020 		.ascii	"    3. CE (Counter Electrode): Connected to carbon "
 1216      332E2043 
 1216      45202843 
 1216      6F756E74 
 1216      65722045 
 1217 0b7b 6F722073 		.ascii	"or similar\000"
 1217      696D696C 
 1217      617200
 1218              		.global	__aeabi_f2d
 1219 0b86 0000     		.align	2
 1220              	.LC144:
 1221 0b88 20202020 		.ascii	"    4. Sensor bias voltage: %.1f mV\012\000"
 1221      342E2053 
 1221      656E736F 
 1221      72206269 
 1221      61732076 
 1222 0bad 000000   		.align	2
 1223              	.LC146:
 1224 0bb0 20202020 		.ascii	"    5. RTIA value: %.0f Ohm\012\000"
 1224      352E2052 
 1224      54494120 
 1224      76616C75 
 1224      653A2025 
 1225 0bcd 000000   		.align	2
 1226              	.LC148:
 1227 0bd0 3D3D3D20 		.ascii	"=== ELECTRODE TEST END ===\012\000"
 1227      454C4543 
 1227      54524F44 
 1227      45205445 
 1227      53542045 
 1228              		.section	.text.DiagnosticsElectrodes,"ax",%progbits
 1229              		.align	2
 1230              		.global	DiagnosticsElectrodes
 1231              		.code	16
 1232              		.thumb_func
 1233              		.type	DiagnosticsElectrodes, %function
 1234              	DiagnosticsElectrodes:
 1235              	.LFB39:
 368:main.c        **** 
 369:main.c        **** /*******************************************************************************
 370:main.c        **** * Function Name: DiagnosticsElectrodes
 371:main.c        **** ********************************************************************************
 372:main.c        **** * Summary:
 373:main.c        **** *   诊断电极配置和接线
 374:main.c        **** *******************************************************************************/
 375:main.c        **** void DiagnosticsElectrodes(void)
 376:main.c        **** {
ARM GAS  C:\Users\13740\AppData\Local\Temp\cc1Gy8Oo.s 			page 35


 1236              		.loc 1 376 0
 1237              		.cfi_startproc
 1238              		@ args = 0, pretend = 0, frame = 0
 1239              		@ frame_needed = 1, uses_anonymous_args = 0
 1240 0000 B0B5     		push	{r4, r5, r7, lr}
 1241              		.cfi_def_cfa_offset 16
 1242              		.cfi_offset 4, -16
 1243              		.cfi_offset 5, -12
 1244              		.cfi_offset 7, -8
 1245              		.cfi_offset 14, -4
 1246 0002 00AF     		add	r7, sp, #0
 1247              		.cfi_def_cfa_register 7
 377:main.c        ****     printf("\n=== ELECTRODE CONFIGURATION ===\n");
 1248              		.loc 1 377 0
 1249 0004 2A4B     		ldr	r3, .L39
 1250 0006 1800     		movs	r0, r3
 1251 0008 FFF7FEFF 		bl	puts
 378:main.c        ****     
 379:main.c        ****     printf("[DEBUG] Electrode Control Pin Status:\n");
 1252              		.loc 1 379 0
 1253 000c 294B     		ldr	r3, .L39+4
 1254 000e 1800     		movs	r0, r3
 1255 0010 FFF7FEFF 		bl	puts
 380:main.c        ****     printf("    AMP1_EN (Glucose): %d\n", (int)AMP1_EN_Read());
 1256              		.loc 1 380 0
 1257 0014 FFF7FEFF 		bl	AMP1_EN_Read
 1258 0018 0300     		movs	r3, r0
 1259 001a 1A00     		movs	r2, r3
 1260 001c 264B     		ldr	r3, .L39+8
 1261 001e 1100     		movs	r1, r2
 1262 0020 1800     		movs	r0, r3
 1263 0022 FFF7FEFF 		bl	printf
 381:main.c        ****     printf("    AMP2_EN (Lactate): %d\n", (int)AMP2_EN_Read());
 1264              		.loc 1 381 0
 1265 0026 FFF7FEFF 		bl	AMP2_EN_Read
 1266 002a 0300     		movs	r3, r0
 1267 002c 1A00     		movs	r2, r3
 1268 002e 234B     		ldr	r3, .L39+12
 1269 0030 1100     		movs	r1, r2
 1270 0032 1800     		movs	r0, r3
 1271 0034 FFF7FEFF 		bl	printf
 382:main.c        ****     printf("    AMP3_EN (Uric Acid): %d\n", (int)AMP3_EN_Read());
 1272              		.loc 1 382 0
 1273 0038 FFF7FEFF 		bl	AMP3_EN_Read
 1274 003c 0300     		movs	r3, r0
 1275 003e 1A00     		movs	r2, r3
 1276 0040 1F4B     		ldr	r3, .L39+16
 1277 0042 1100     		movs	r1, r2
 1278 0044 1800     		movs	r0, r3
 1279 0046 FFF7FEFF 		bl	printf
 383:main.c        ****     
 384:main.c        ****     printf("\n[CHECK] Please verify:\n");
 1280              		.loc 1 384 0
 1281 004a 1E4B     		ldr	r3, .L39+20
 1282 004c 1800     		movs	r0, r3
 1283 004e FFF7FEFF 		bl	puts
 385:main.c        ****     printf("    1. WE (Working Electrode): Connected to appropriate sensor\n");
ARM GAS  C:\Users\13740\AppData\Local\Temp\cc1Gy8Oo.s 			page 36


 1284              		.loc 1 385 0
 1285 0052 1D4B     		ldr	r3, .L39+24
 1286 0054 1800     		movs	r0, r3
 1287 0056 FFF7FEFF 		bl	puts
 386:main.c        ****     printf("    2. RE (Reference Electrode): Connected to Ag/AgCl or similar\n");
 1288              		.loc 1 386 0
 1289 005a 1C4B     		ldr	r3, .L39+28
 1290 005c 1800     		movs	r0, r3
 1291 005e FFF7FEFF 		bl	puts
 387:main.c        ****     printf("    3. CE (Counter Electrode): Connected to carbon or similar\n");
 1292              		.loc 1 387 0
 1293 0062 1B4B     		ldr	r3, .L39+32
 1294 0064 1800     		movs	r0, r3
 1295 0066 FFF7FEFF 		bl	puts
 388:main.c        ****     printf("    4. Sensor bias voltage: %.1f mV\n", (double)pAmpCfg->SensorBias);
 1296              		.loc 1 388 0
 1297 006a 1A4B     		ldr	r3, .L39+36
 1298 006c 1B68     		ldr	r3, [r3]
 1299 006e 1B6E     		ldr	r3, [r3, #96]
 1300 0070 181C     		adds	r0, r3, #0
 1301 0072 FFF7FEFF 		bl	__aeabi_f2d
 1302 0076 0300     		movs	r3, r0
 1303 0078 0C00     		movs	r4, r1
 1304 007a 1749     		ldr	r1, .L39+40
 1305 007c 1A00     		movs	r2, r3
 1306 007e 2300     		movs	r3, r4
 1307 0080 0800     		movs	r0, r1
 1308 0082 FFF7FEFF 		bl	printf
 389:main.c        ****     printf("    5. RTIA value: %.0f Ohm\n", (double)pAmpCfg->RtiaCalValue.Magnitude);
 1309              		.loc 1 389 0
 1310 0086 134B     		ldr	r3, .L39+36
 1311 0088 1B68     		ldr	r3, [r3]
 1312 008a 5B6D     		ldr	r3, [r3, #84]
 1313 008c 181C     		adds	r0, r3, #0
 1314 008e FFF7FEFF 		bl	__aeabi_f2d
 1315 0092 0300     		movs	r3, r0
 1316 0094 0C00     		movs	r4, r1
 1317 0096 1149     		ldr	r1, .L39+44
 1318 0098 1A00     		movs	r2, r3
 1319 009a 2300     		movs	r3, r4
 1320 009c 0800     		movs	r0, r1
 1321 009e FFF7FEFF 		bl	printf
 390:main.c        ****     
 391:main.c        ****     printf("=== ELECTRODE TEST END ===\n\n");
 1322              		.loc 1 391 0
 1323 00a2 0F4B     		ldr	r3, .L39+48
 1324 00a4 1800     		movs	r0, r3
 1325 00a6 FFF7FEFF 		bl	puts
 392:main.c        **** }
 1326              		.loc 1 392 0
 1327 00aa C046     		nop
 1328 00ac BD46     		mov	sp, r7
 1329              		@ sp needed
 1330 00ae B0BD     		pop	{r4, r5, r7, pc}
 1331              	.L40:
 1332              		.align	2
 1333              	.L39:
ARM GAS  C:\Users\13740\AppData\Local\Temp\cc1Gy8Oo.s 			page 37


 1334 00b0 080A0000 		.word	.LC125
 1335 00b4 2C0A0000 		.word	.LC127
 1336 00b8 540A0000 		.word	.LC129
 1337 00bc 700A0000 		.word	.LC131
 1338 00c0 8C0A0000 		.word	.LC133
 1339 00c4 AC0A0000 		.word	.LC135
 1340 00c8 C40A0000 		.word	.LC137
 1341 00cc 040B0000 		.word	.LC139
 1342 00d0 480B0000 		.word	.LC141
 1343 00d4 00000000 		.word	pAmpCfg
 1344 00d8 880B0000 		.word	.LC144
 1345 00dc B00B0000 		.word	.LC146
 1346 00e0 D00B0000 		.word	.LC148
 1347              		.cfi_endproc
 1348              	.LFE39:
 1349              		.size	DiagnosticsElectrodes, .-DiagnosticsElectrodes
 1350              		.section	.rodata
 1351              		.align	2
 1352              	.LC150:
 1353 0bec 0A3D3D3D 		.ascii	"\012=== RAW SPI TEST ===\000"
 1353      20524157 
 1353      20535049 
 1353      20544553 
 1353      54203D3D 
 1354 0c02 0000     		.align	2
 1355              	.LC152:
 1356 0c04 5B544553 		.ascii	"[TEST 1] Sending 0x00, 0x00, 0x00, 0x00...\000"
 1356      5420315D 
 1356      2053656E 
 1356      64696E67 
 1356      20307830 
 1357 0c2f 00       		.align	2
 1358              	.LC154:
 1359 0c30 20205458 		.ascii	"  TX: 0x00 0x00 0x00 0x00\000"
 1359      3A203078 
 1359      30302030 
 1359      78303020 
 1359      30783030 
 1360 0c4a 0000     		.align	2
 1361              	.LC156:
 1362 0c4c 20205258 		.ascii	"  RX: 0x%02X 0x%02X 0x%02X 0x%02X\012\000"
 1362      3A203078 
 1362      25303258 
 1362      20307825 
 1362      30325820 
 1363 0c6f 00       		.align	2
 1364              	.LC158:
 1365 0c70 5B544553 		.ascii	"[TEST 2] Sending 0xFF, 0xFF, 0xFF, 0xFF...\000"
 1365      5420325D 
 1365      2053656E 
 1365      64696E67 
 1365      20307846 
 1366 0c9b 00       		.align	2
 1367              	.LC160:
 1368 0c9c 20205458 		.ascii	"  TX: 0xFF 0xFF 0xFF 0xFF\000"
 1368      3A203078 
 1368      46462030 
ARM GAS  C:\Users\13740\AppData\Local\Temp\cc1Gy8Oo.s 			page 38


 1368      78464620 
 1368      30784646 
 1369 0cb6 0000     		.align	2
 1370              	.LC162:
 1371 0cb8 5B544553 		.ascii	"[TEST 3] Sending 0xAA, 0x55, 0xAA, 0x55...\000"
 1371      5420335D 
 1371      2053656E 
 1371      64696E67 
 1371      20307841 
 1372 0ce3 00       		.align	2
 1373              	.LC164:
 1374 0ce4 20205458 		.ascii	"  TX: 0xAA 0x55 0xAA 0x55\000"
 1374      3A203078 
 1374      41412030 
 1374      78353520 
 1374      30784141 
 1375 0cfe 0000     		.align	2
 1376              	.LC167:
 1377 0d00 20205B43 		.ascii	"  [CRITICAL] All tests return same value!\000"
 1377      52495449 
 1377      43414C5D 
 1377      20416C6C 
 1377      20746573 
 1378 0d2a 0000     		.align	2
 1379              	.LC169:
 1380 0d2c 20205468 		.ascii	"  This indicates MISO line is:\000"
 1380      69732069 
 1380      6E646963 
 1380      61746573 
 1380      204D4953 
 1381 0d4b 00       		.align	2
 1382              	.LC171:
 1383 0d4c 20202D20 		.ascii	"  - Stuck or floating with 0x80 pattern (10000000 b"
 1383      53747563 
 1383      6B206F72 
 1383      20666C6F 
 1383      6174696E 
 1384 0d7f 696E6172 		.ascii	"inary)\000"
 1384      792900
 1385 0d86 0000     		.align	2
 1386              	.LC173:
 1387 0d88 20202D20 		.ascii	"  - Pulled high (0xFF = 11111111 binary, likely flo"
 1387      50756C6C 
 1387      65642068 
 1387      69676820 
 1387      28307846 
 1388 0dbb 6174696E 		.ascii	"ating/not connected)\000"
 1388      672F6E6F 
 1388      7420636F 
 1388      6E6E6563 
 1388      74656429 
 1389              		.align	2
 1390              	.LC175:
 1391 0dd0 20202D20 		.ascii	"  - Stuck low or shorted to ground\000"
 1391      53747563 
 1391      6B206C6F 
 1391      77206F72 
ARM GAS  C:\Users\13740\AppData\Local\Temp\cc1Gy8Oo.s 			page 39


 1391      2073686F 
 1392 0df3 00       		.align	2
 1393              	.LC177:
 1394 0df4 0A202048 		.ascii	"\012  HARDWARE CHECK REQUIRED:\000"
 1394      41524457 
 1394      41524520 
 1394      43484543 
 1394      4B205245 
 1395              		.align	2
 1396              	.LC179:
 1397 0e10 2020312E 		.ascii	"  1. Verify MISO pin (PSoC P0.5) is physically conn"
 1397      20566572 
 1397      69667920 
 1397      4D49534F 
 1397      2070696E 
 1398 0e43 65637465 		.ascii	"ected to AD5940 DOUT\000"
 1398      6420746F 
 1398      20414435 
 1398      39343020 
 1398      444F5554 
 1399              		.align	2
 1400              	.LC181:
 1401 0e58 2020322E 		.ascii	"  2. Check for shorts or cold solder joints\000"
 1401      20436865 
 1401      636B2066 
 1401      6F722073 
 1401      686F7274 
 1402              		.align	2
 1403              	.LC183:
 1404 0e84 2020332E 		.ascii	"  3. Verify AD5940 is powered correctly (3.3V)\000"
 1404      20566572 
 1404      69667920 
 1404      41443539 
 1404      34302069 
 1405 0eb3 00       		.align	2
 1406              	.LC185:
 1407 0eb4 2020342E 		.ascii	"  4. Check CS and SCLK connections\000"
 1407      20436865 
 1407      636B2043 
 1407      5320616E 
 1407      64205343 
 1408 0ed7 00       		.align	2
 1409              	.LC187:
 1410 0ed8 20205B4F 		.ascii	"  [OK] SPI is responding with variable data\000"
 1410      4B5D2053 
 1410      50492069 
 1410      73207265 
 1410      73706F6E 
 1411              		.align	2
 1412              	.LC189:
 1413 0f04 0A3D3D3D 		.ascii	"\012=== RAW SPI TEST END ===\012\000"
 1413      20524157 
 1413      20535049 
 1413      20544553 
 1413      5420454E 
 1414              		.section	.text.TestRawSPI,"ax",%progbits
 1415              		.align	2
ARM GAS  C:\Users\13740\AppData\Local\Temp\cc1Gy8Oo.s 			page 40


 1416              		.global	TestRawSPI
 1417              		.code	16
 1418              		.thumb_func
 1419              		.type	TestRawSPI, %function
 1420              	TestRawSPI:
 1421              	.LFB40:
 393:main.c        **** 
 394:main.c        **** /*******************************************************************************
 395:main.c        **** * Function Name: TestRawSPI
 396:main.c        **** ********************************************************************************
 397:main.c        **** * Summary:
 398:main.c        **** *   测试原生 SPI 通讯（使用底层AD5940接口）
 399:main.c        **** *   用于确认 SPI 硬件是否工作
 400:main.c        **** *******************************************************************************/
 401:main.c        **** void TestRawSPI(void)
 402:main.c        **** {
 1422              		.loc 1 402 0
 1423              		.cfi_startproc
 1424              		@ args = 0, pretend = 0, frame = 24
 1425              		@ frame_needed = 1, uses_anonymous_args = 0
 1426 0000 90B5     		push	{r4, r7, lr}
 1427              		.cfi_def_cfa_offset 12
 1428              		.cfi_offset 4, -12
 1429              		.cfi_offset 7, -8
 1430              		.cfi_offset 14, -4
 1431 0002 89B0     		sub	sp, sp, #36
 1432              		.cfi_def_cfa_offset 48
 1433 0004 02AF     		add	r7, sp, #8
 1434              		.cfi_def_cfa 7, 40
 403:main.c        ****     printf("\n=== RAW SPI TEST ===\n");
 1435              		.loc 1 403 0
 1436 0006 954B     		ldr	r3, .L54
 1437 0008 1800     		movs	r0, r3
 1438 000a FFF7FEFF 		bl	puts
 404:main.c        ****     
 405:main.c        ****     uint8 txBuffer[8];
 406:main.c        ****     uint8 rxBuffer[8];
 407:main.c        ****     int i;
 408:main.c        ****     
 409:main.c        ****     // 测试 1: 发送 0x00 模式
 410:main.c        ****     printf("[TEST 1] Sending 0x00, 0x00, 0x00, 0x00...\n");
 1439              		.loc 1 410 0
 1440 000e 944B     		ldr	r3, .L54+4
 1441 0010 1800     		movs	r0, r3
 1442 0012 FFF7FEFF 		bl	puts
 411:main.c        ****     for(i = 0; i < 4; i++)
 1443              		.loc 1 411 0
 1444 0016 0023     		movs	r3, #0
 1445 0018 7B61     		str	r3, [r7, #20]
 1446 001a 08E0     		b	.L42
 1447              	.L43:
 412:main.c        ****         txBuffer[i] = 0x00;
 1448              		.loc 1 412 0 discriminator 3
 1449 001c 0C23     		movs	r3, #12
 1450 001e FA18     		adds	r2, r7, r3
 1451 0020 7B69     		ldr	r3, [r7, #20]
 1452 0022 D318     		adds	r3, r2, r3
ARM GAS  C:\Users\13740\AppData\Local\Temp\cc1Gy8Oo.s 			page 41


 1453 0024 0022     		movs	r2, #0
 1454 0026 1A70     		strb	r2, [r3]
 411:main.c        ****     for(i = 0; i < 4; i++)
 1455              		.loc 1 411 0 discriminator 3
 1456 0028 7B69     		ldr	r3, [r7, #20]
 1457 002a 0133     		adds	r3, r3, #1
 1458 002c 7B61     		str	r3, [r7, #20]
 1459              	.L42:
 411:main.c        ****     for(i = 0; i < 4; i++)
 1460              		.loc 1 411 0 is_stmt 0 discriminator 1
 1461 002e 7B69     		ldr	r3, [r7, #20]
 1462 0030 032B     		cmp	r3, #3
 1463 0032 F3DD     		ble	.L43
 413:main.c        ****     
 414:main.c        ****     AD5940_CsClr();
 1464              		.loc 1 414 0 is_stmt 1
 1465 0034 FFF7FEFF 		bl	AD5940_CsClr
 415:main.c        ****     CyDelay(2);
 1466              		.loc 1 415 0
 1467 0038 0220     		movs	r0, #2
 1468 003a FFF7FEFF 		bl	CyDelay
 416:main.c        ****     AD5940_ReadWriteNBytes(txBuffer, rxBuffer, 4);
 1469              		.loc 1 416 0
 1470 003e 391D     		adds	r1, r7, #4
 1471 0040 0C23     		movs	r3, #12
 1472 0042 FB18     		adds	r3, r7, r3
 1473 0044 0422     		movs	r2, #4
 1474 0046 1800     		movs	r0, r3
 1475 0048 FFF7FEFF 		bl	AD5940_ReadWriteNBytes
 417:main.c        ****     CyDelay(2);
 1476              		.loc 1 417 0
 1477 004c 0220     		movs	r0, #2
 1478 004e FFF7FEFF 		bl	CyDelay
 418:main.c        ****     AD5940_CsSet();
 1479              		.loc 1 418 0
 1480 0052 FFF7FEFF 		bl	AD5940_CsSet
 419:main.c        ****     
 420:main.c        ****     printf("  TX: 0x00 0x00 0x00 0x00\n");
 1481              		.loc 1 420 0
 1482 0056 834B     		ldr	r3, .L54+8
 1483 0058 1800     		movs	r0, r3
 1484 005a FFF7FEFF 		bl	puts
 421:main.c        ****     printf("  RX: 0x%02X 0x%02X 0x%02X 0x%02X\n", rxBuffer[0], rxBuffer[1], rxBuffer[2], rxBuffer[3
 1485              		.loc 1 421 0
 1486 005e 3B1D     		adds	r3, r7, #4
 1487 0060 1B78     		ldrb	r3, [r3]
 1488 0062 1900     		movs	r1, r3
 1489 0064 3B1D     		adds	r3, r7, #4
 1490 0066 5B78     		ldrb	r3, [r3, #1]
 1491 0068 1A00     		movs	r2, r3
 1492 006a 3B1D     		adds	r3, r7, #4
 1493 006c 9B78     		ldrb	r3, [r3, #2]
 1494 006e 1C00     		movs	r4, r3
 1495 0070 3B1D     		adds	r3, r7, #4
 1496 0072 DB78     		ldrb	r3, [r3, #3]
 1497 0074 7C48     		ldr	r0, .L54+12
 1498 0076 0093     		str	r3, [sp]
ARM GAS  C:\Users\13740\AppData\Local\Temp\cc1Gy8Oo.s 			page 42


 1499 0078 2300     		movs	r3, r4
 1500 007a FFF7FEFF 		bl	printf
 422:main.c        ****     
 423:main.c        ****     CyDelay(100);
 1501              		.loc 1 423 0
 1502 007e 6420     		movs	r0, #100
 1503 0080 FFF7FEFF 		bl	CyDelay
 424:main.c        ****     
 425:main.c        ****     // 测试 2: 发送 0xFF 模式
 426:main.c        ****     printf("[TEST 2] Sending 0xFF, 0xFF, 0xFF, 0xFF...\n");
 1504              		.loc 1 426 0
 1505 0084 794B     		ldr	r3, .L54+16
 1506 0086 1800     		movs	r0, r3
 1507 0088 FFF7FEFF 		bl	puts
 427:main.c        ****     for(i = 0; i < 4; i++)
 1508              		.loc 1 427 0
 1509 008c 0023     		movs	r3, #0
 1510 008e 7B61     		str	r3, [r7, #20]
 1511 0090 08E0     		b	.L44
 1512              	.L45:
 428:main.c        ****         txBuffer[i] = 0xFF;
 1513              		.loc 1 428 0 discriminator 3
 1514 0092 0C23     		movs	r3, #12
 1515 0094 FA18     		adds	r2, r7, r3
 1516 0096 7B69     		ldr	r3, [r7, #20]
 1517 0098 D318     		adds	r3, r2, r3
 1518 009a FF22     		movs	r2, #255
 1519 009c 1A70     		strb	r2, [r3]
 427:main.c        ****     for(i = 0; i < 4; i++)
 1520              		.loc 1 427 0 discriminator 3
 1521 009e 7B69     		ldr	r3, [r7, #20]
 1522 00a0 0133     		adds	r3, r3, #1
 1523 00a2 7B61     		str	r3, [r7, #20]
 1524              	.L44:
 427:main.c        ****     for(i = 0; i < 4; i++)
 1525              		.loc 1 427 0 is_stmt 0 discriminator 1
 1526 00a4 7B69     		ldr	r3, [r7, #20]
 1527 00a6 032B     		cmp	r3, #3
 1528 00a8 F3DD     		ble	.L45
 429:main.c        ****     
 430:main.c        ****     AD5940_CsClr();
 1529              		.loc 1 430 0 is_stmt 1
 1530 00aa FFF7FEFF 		bl	AD5940_CsClr
 431:main.c        ****     CyDelay(2);
 1531              		.loc 1 431 0
 1532 00ae 0220     		movs	r0, #2
 1533 00b0 FFF7FEFF 		bl	CyDelay
 432:main.c        ****     AD5940_ReadWriteNBytes(txBuffer, rxBuffer, 4);
 1534              		.loc 1 432 0
 1535 00b4 391D     		adds	r1, r7, #4
 1536 00b6 0C23     		movs	r3, #12
 1537 00b8 FB18     		adds	r3, r7, r3
 1538 00ba 0422     		movs	r2, #4
 1539 00bc 1800     		movs	r0, r3
 1540 00be FFF7FEFF 		bl	AD5940_ReadWriteNBytes
 433:main.c        ****     CyDelay(2);
 1541              		.loc 1 433 0
ARM GAS  C:\Users\13740\AppData\Local\Temp\cc1Gy8Oo.s 			page 43


 1542 00c2 0220     		movs	r0, #2
 1543 00c4 FFF7FEFF 		bl	CyDelay
 434:main.c        ****     AD5940_CsSet();
 1544              		.loc 1 434 0
 1545 00c8 FFF7FEFF 		bl	AD5940_CsSet
 435:main.c        ****     
 436:main.c        ****     printf("  TX: 0xFF 0xFF 0xFF 0xFF\n");
 1546              		.loc 1 436 0
 1547 00cc 684B     		ldr	r3, .L54+20
 1548 00ce 1800     		movs	r0, r3
 1549 00d0 FFF7FEFF 		bl	puts
 437:main.c        ****     printf("  RX: 0x%02X 0x%02X 0x%02X 0x%02X\n", rxBuffer[0], rxBuffer[1], rxBuffer[2], rxBuffer[3
 1550              		.loc 1 437 0
 1551 00d4 3B1D     		adds	r3, r7, #4
 1552 00d6 1B78     		ldrb	r3, [r3]
 1553 00d8 1900     		movs	r1, r3
 1554 00da 3B1D     		adds	r3, r7, #4
 1555 00dc 5B78     		ldrb	r3, [r3, #1]
 1556 00de 1A00     		movs	r2, r3
 1557 00e0 3B1D     		adds	r3, r7, #4
 1558 00e2 9B78     		ldrb	r3, [r3, #2]
 1559 00e4 1C00     		movs	r4, r3
 1560 00e6 3B1D     		adds	r3, r7, #4
 1561 00e8 DB78     		ldrb	r3, [r3, #3]
 1562 00ea 5F48     		ldr	r0, .L54+12
 1563 00ec 0093     		str	r3, [sp]
 1564 00ee 2300     		movs	r3, r4
 1565 00f0 FFF7FEFF 		bl	printf
 438:main.c        ****     
 439:main.c        ****     CyDelay(100);
 1566              		.loc 1 439 0
 1567 00f4 6420     		movs	r0, #100
 1568 00f6 FFF7FEFF 		bl	CyDelay
 440:main.c        ****     
 441:main.c        ****     // 测试 3: 发送 0xAA 0x55 交替模式
 442:main.c        ****     printf("[TEST 3] Sending 0xAA, 0x55, 0xAA, 0x55...\n");
 1569              		.loc 1 442 0
 1570 00fa 5E4B     		ldr	r3, .L54+24
 1571 00fc 1800     		movs	r0, r3
 1572 00fe FFF7FEFF 		bl	puts
 443:main.c        ****     txBuffer[0] = 0xAA;
 1573              		.loc 1 443 0
 1574 0102 0C23     		movs	r3, #12
 1575 0104 FB18     		adds	r3, r7, r3
 1576 0106 AA22     		movs	r2, #170
 1577 0108 1A70     		strb	r2, [r3]
 444:main.c        ****     txBuffer[1] = 0x55;
 1578              		.loc 1 444 0
 1579 010a 0C23     		movs	r3, #12
 1580 010c FB18     		adds	r3, r7, r3
 1581 010e 5522     		movs	r2, #85
 1582 0110 5A70     		strb	r2, [r3, #1]
 445:main.c        ****     txBuffer[2] = 0xAA;
 1583              		.loc 1 445 0
 1584 0112 0C23     		movs	r3, #12
 1585 0114 FB18     		adds	r3, r7, r3
 1586 0116 AA22     		movs	r2, #170
ARM GAS  C:\Users\13740\AppData\Local\Temp\cc1Gy8Oo.s 			page 44


 1587 0118 9A70     		strb	r2, [r3, #2]
 446:main.c        ****     txBuffer[3] = 0x55;
 1588              		.loc 1 446 0
 1589 011a 0C23     		movs	r3, #12
 1590 011c FB18     		adds	r3, r7, r3
 1591 011e 5522     		movs	r2, #85
 1592 0120 DA70     		strb	r2, [r3, #3]
 447:main.c        ****     
 448:main.c        ****     AD5940_CsClr();
 1593              		.loc 1 448 0
 1594 0122 FFF7FEFF 		bl	AD5940_CsClr
 449:main.c        ****     CyDelay(2);
 1595              		.loc 1 449 0
 1596 0126 0220     		movs	r0, #2
 1597 0128 FFF7FEFF 		bl	CyDelay
 450:main.c        ****     AD5940_ReadWriteNBytes(txBuffer, rxBuffer, 4);
 1598              		.loc 1 450 0
 1599 012c 391D     		adds	r1, r7, #4
 1600 012e 0C23     		movs	r3, #12
 1601 0130 FB18     		adds	r3, r7, r3
 1602 0132 0422     		movs	r2, #4
 1603 0134 1800     		movs	r0, r3
 1604 0136 FFF7FEFF 		bl	AD5940_ReadWriteNBytes
 451:main.c        ****     CyDelay(2);
 1605              		.loc 1 451 0
 1606 013a 0220     		movs	r0, #2
 1607 013c FFF7FEFF 		bl	CyDelay
 452:main.c        ****     AD5940_CsSet();
 1608              		.loc 1 452 0
 1609 0140 FFF7FEFF 		bl	AD5940_CsSet
 453:main.c        ****     
 454:main.c        ****     printf("  TX: 0xAA 0x55 0xAA 0x55\n");
 1610              		.loc 1 454 0
 1611 0144 4C4B     		ldr	r3, .L54+28
 1612 0146 1800     		movs	r0, r3
 1613 0148 FFF7FEFF 		bl	puts
 455:main.c        ****     printf("  RX: 0x%02X 0x%02X 0x%02X 0x%02X\n", rxBuffer[0], rxBuffer[1], rxBuffer[2], rxBuffer[3
 1614              		.loc 1 455 0
 1615 014c 3B1D     		adds	r3, r7, #4
 1616 014e 1B78     		ldrb	r3, [r3]
 1617 0150 1900     		movs	r1, r3
 1618 0152 3B1D     		adds	r3, r7, #4
 1619 0154 5B78     		ldrb	r3, [r3, #1]
 1620 0156 1A00     		movs	r2, r3
 1621 0158 3B1D     		adds	r3, r7, #4
 1622 015a 9B78     		ldrb	r3, [r3, #2]
 1623 015c 1C00     		movs	r4, r3
 1624 015e 3B1D     		adds	r3, r7, #4
 1625 0160 DB78     		ldrb	r3, [r3, #3]
 1626 0162 4148     		ldr	r0, .L54+12
 1627 0164 0093     		str	r3, [sp]
 1628 0166 2300     		movs	r3, r4
 1629 0168 FFF7FEFF 		bl	printf
 456:main.c        ****     
 457:main.c        ****     // 分析结果
 458:main.c        ****     printf("\n[ANALYSIS]\n");
 1630              		.loc 1 458 0
ARM GAS  C:\Users\13740\AppData\Local\Temp\cc1Gy8Oo.s 			page 45


 1631 016c 434B     		ldr	r3, .L54+32
 1632 016e 1800     		movs	r0, r3
 1633 0170 FFF7FEFF 		bl	puts
 459:main.c        ****     
 460:main.c        ****     // 如果所有测试都返回相同的值，说明有严重的硬件问题
 461:main.c        ****     if((rxBuffer[0] == 0x80 && rxBuffer[1] == 0x80 && rxBuffer[2] == 0x80 && rxBuffer[3] == 0x80) |
 1634              		.loc 1 461 0
 1635 0174 3B1D     		adds	r3, r7, #4
 1636 0176 1B78     		ldrb	r3, [r3]
 1637 0178 802B     		cmp	r3, #128
 1638 017a 0BD1     		bne	.L46
 1639              		.loc 1 461 0 is_stmt 0 discriminator 1
 1640 017c 3B1D     		adds	r3, r7, #4
 1641 017e 5B78     		ldrb	r3, [r3, #1]
 1642 0180 802B     		cmp	r3, #128
 1643 0182 07D1     		bne	.L46
 1644              		.loc 1 461 0 discriminator 3
 1645 0184 3B1D     		adds	r3, r7, #4
 1646 0186 9B78     		ldrb	r3, [r3, #2]
 1647 0188 802B     		cmp	r3, #128
 1648 018a 03D1     		bne	.L46
 1649              		.loc 1 461 0 discriminator 5
 1650 018c 3B1D     		adds	r3, r7, #4
 1651 018e DB78     		ldrb	r3, [r3, #3]
 1652 0190 802B     		cmp	r3, #128
 1653 0192 1FD0     		beq	.L47
 1654              	.L46:
 462:main.c        ****        (rxBuffer[0] == 0xFF && rxBuffer[1] == 0xFF && rxBuffer[2] == 0xFF && rxBuffer[3] == 0xFF) |
 1655              		.loc 1 462 0 is_stmt 1 discriminator 7
 1656 0194 3B1D     		adds	r3, r7, #4
 1657 0196 1B78     		ldrb	r3, [r3]
 461:main.c        ****        (rxBuffer[0] == 0xFF && rxBuffer[1] == 0xFF && rxBuffer[2] == 0xFF && rxBuffer[3] == 0xFF) |
 1658              		.loc 1 461 0 discriminator 7
 1659 0198 FF2B     		cmp	r3, #255
 1660 019a 0BD1     		bne	.L48
 1661              		.loc 1 462 0
 1662 019c 3B1D     		adds	r3, r7, #4
 1663 019e 5B78     		ldrb	r3, [r3, #1]
 1664 01a0 FF2B     		cmp	r3, #255
 1665 01a2 07D1     		bne	.L48
 1666              		.loc 1 462 0 is_stmt 0 discriminator 1
 1667 01a4 3B1D     		adds	r3, r7, #4
 1668 01a6 9B78     		ldrb	r3, [r3, #2]
 1669 01a8 FF2B     		cmp	r3, #255
 1670 01aa 03D1     		bne	.L48
 1671              		.loc 1 462 0 discriminator 3
 1672 01ac 3B1D     		adds	r3, r7, #4
 1673 01ae DB78     		ldrb	r3, [r3, #3]
 1674 01b0 FF2B     		cmp	r3, #255
 1675 01b2 0FD0     		beq	.L47
 1676              	.L48:
 463:main.c        ****        (rxBuffer[0] == 0x00 && rxBuffer[1] == 0x00 && rxBuffer[2] == 0x00 && rxBuffer[3] == 0x00))
 1677              		.loc 1 463 0 is_stmt 1 discriminator 5
 1678 01b4 3B1D     		adds	r3, r7, #4
 1679 01b6 1B78     		ldrb	r3, [r3]
 462:main.c        ****        (rxBuffer[0] == 0xFF && rxBuffer[1] == 0xFF && rxBuffer[2] == 0xFF && rxBuffer[3] == 0xFF) |
 1680              		.loc 1 462 0 discriminator 5
ARM GAS  C:\Users\13740\AppData\Local\Temp\cc1Gy8Oo.s 			page 46


 1681 01b8 002B     		cmp	r3, #0
 1682 01ba 42D1     		bne	.L49
 1683              		.loc 1 463 0
 1684 01bc 3B1D     		adds	r3, r7, #4
 1685 01be 5B78     		ldrb	r3, [r3, #1]
 1686 01c0 002B     		cmp	r3, #0
 1687 01c2 3ED1     		bne	.L49
 1688              		.loc 1 463 0 is_stmt 0 discriminator 1
 1689 01c4 3B1D     		adds	r3, r7, #4
 1690 01c6 9B78     		ldrb	r3, [r3, #2]
 1691 01c8 002B     		cmp	r3, #0
 1692 01ca 3AD1     		bne	.L49
 1693              		.loc 1 463 0 discriminator 2
 1694 01cc 3B1D     		adds	r3, r7, #4
 1695 01ce DB78     		ldrb	r3, [r3, #3]
 1696 01d0 002B     		cmp	r3, #0
 1697 01d2 36D1     		bne	.L49
 1698              	.L47:
 464:main.c        ****     {
 465:main.c        ****         printf("  [CRITICAL] All tests return same value!\n");
 1699              		.loc 1 465 0 is_stmt 1
 1700 01d4 2A4B     		ldr	r3, .L54+36
 1701 01d6 1800     		movs	r0, r3
 1702 01d8 FFF7FEFF 		bl	puts
 466:main.c        ****         printf("  This indicates MISO line is:\n");
 1703              		.loc 1 466 0
 1704 01dc 294B     		ldr	r3, .L54+40
 1705 01de 1800     		movs	r0, r3
 1706 01e0 FFF7FEFF 		bl	puts
 467:main.c        ****         
 468:main.c        ****         if(rxBuffer[0] == 0x80)
 1707              		.loc 1 468 0
 1708 01e4 3B1D     		adds	r3, r7, #4
 1709 01e6 1B78     		ldrb	r3, [r3]
 1710 01e8 802B     		cmp	r3, #128
 1711 01ea 04D1     		bne	.L50
 469:main.c        ****             printf("  - Stuck or floating with 0x80 pattern (10000000 binary)\n");
 1712              		.loc 1 469 0
 1713 01ec 264B     		ldr	r3, .L54+44
 1714 01ee 1800     		movs	r0, r3
 1715 01f0 FFF7FEFF 		bl	puts
 1716 01f4 10E0     		b	.L51
 1717              	.L50:
 470:main.c        ****         else if(rxBuffer[0] == 0xFF)
 1718              		.loc 1 470 0
 1719 01f6 3B1D     		adds	r3, r7, #4
 1720 01f8 1B78     		ldrb	r3, [r3]
 1721 01fa FF2B     		cmp	r3, #255
 1722 01fc 04D1     		bne	.L52
 471:main.c        ****             printf("  - Pulled high (0xFF = 11111111 binary, likely floating/not connected)\n");
 1723              		.loc 1 471 0
 1724 01fe 234B     		ldr	r3, .L54+48
 1725 0200 1800     		movs	r0, r3
 1726 0202 FFF7FEFF 		bl	puts
 1727 0206 07E0     		b	.L51
 1728              	.L52:
 472:main.c        ****         else if(rxBuffer[0] == 0x00)
ARM GAS  C:\Users\13740\AppData\Local\Temp\cc1Gy8Oo.s 			page 47


 1729              		.loc 1 472 0
 1730 0208 3B1D     		adds	r3, r7, #4
 1731 020a 1B78     		ldrb	r3, [r3]
 1732 020c 002B     		cmp	r3, #0
 1733 020e 03D1     		bne	.L51
 473:main.c        ****             printf("  - Stuck low or shorted to ground\n");
 1734              		.loc 1 473 0
 1735 0210 1F4B     		ldr	r3, .L54+52
 1736 0212 1800     		movs	r0, r3
 1737 0214 FFF7FEFF 		bl	puts
 1738              	.L51:
 474:main.c        ****             
 475:main.c        ****         printf("\n  HARDWARE CHECK REQUIRED:\n");
 1739              		.loc 1 475 0
 1740 0218 1E4B     		ldr	r3, .L54+56
 1741 021a 1800     		movs	r0, r3
 1742 021c FFF7FEFF 		bl	puts
 476:main.c        ****         printf("  1. Verify MISO pin (PSoC P0.5) is physically connected to AD5940 DOUT\n");
 1743              		.loc 1 476 0
 1744 0220 1D4B     		ldr	r3, .L54+60
 1745 0222 1800     		movs	r0, r3
 1746 0224 FFF7FEFF 		bl	puts
 477:main.c        ****         printf("  2. Check for shorts or cold solder joints\n");
 1747              		.loc 1 477 0
 1748 0228 1C4B     		ldr	r3, .L54+64
 1749 022a 1800     		movs	r0, r3
 1750 022c FFF7FEFF 		bl	puts
 478:main.c        ****         printf("  3. Verify AD5940 is powered correctly (3.3V)\n");
 1751              		.loc 1 478 0
 1752 0230 1B4B     		ldr	r3, .L54+68
 1753 0232 1800     		movs	r0, r3
 1754 0234 FFF7FEFF 		bl	puts
 479:main.c        ****         printf("  4. Check CS and SCLK connections\n");
 1755              		.loc 1 479 0
 1756 0238 1A4B     		ldr	r3, .L54+72
 1757 023a 1800     		movs	r0, r3
 1758 023c FFF7FEFF 		bl	puts
 1759 0240 03E0     		b	.L53
 1760              	.L49:
 480:main.c        ****     }
 481:main.c        ****     else
 482:main.c        ****     {
 483:main.c        ****         printf("  [OK] SPI is responding with variable data\n");
 1761              		.loc 1 483 0
 1762 0242 194B     		ldr	r3, .L54+76
 1763 0244 1800     		movs	r0, r3
 1764 0246 FFF7FEFF 		bl	puts
 1765              	.L53:
 484:main.c        ****     }
 485:main.c        ****     
 486:main.c        ****     printf("\n=== RAW SPI TEST END ===\n\n");
 1766              		.loc 1 486 0
 1767 024a 184B     		ldr	r3, .L54+80
 1768 024c 1800     		movs	r0, r3
 1769 024e FFF7FEFF 		bl	puts
 487:main.c        **** }
 1770              		.loc 1 487 0
ARM GAS  C:\Users\13740\AppData\Local\Temp\cc1Gy8Oo.s 			page 48


 1771 0252 C046     		nop
 1772 0254 BD46     		mov	sp, r7
 1773 0256 07B0     		add	sp, sp, #28
 1774              		@ sp needed
 1775 0258 90BD     		pop	{r4, r7, pc}
 1776              	.L55:
 1777 025a C046     		.align	2
 1778              	.L54:
 1779 025c EC0B0000 		.word	.LC150
 1780 0260 040C0000 		.word	.LC152
 1781 0264 300C0000 		.word	.LC154
 1782 0268 4C0C0000 		.word	.LC156
 1783 026c 700C0000 		.word	.LC158
 1784 0270 9C0C0000 		.word	.LC160
 1785 0274 B80C0000 		.word	.LC162
 1786 0278 E40C0000 		.word	.LC164
 1787 027c 34040000 		.word	.LC52
 1788 0280 000D0000 		.word	.LC167
 1789 0284 2C0D0000 		.word	.LC169
 1790 0288 4C0D0000 		.word	.LC171
 1791 028c 880D0000 		.word	.LC173
 1792 0290 D00D0000 		.word	.LC175
 1793 0294 F40D0000 		.word	.LC177
 1794 0298 100E0000 		.word	.LC179
 1795 029c 580E0000 		.word	.LC181
 1796 02a0 840E0000 		.word	.LC183
 1797 02a4 B40E0000 		.word	.LC185
 1798 02a8 D80E0000 		.word	.LC187
 1799 02ac 040F0000 		.word	.LC189
 1800              		.cfi_endproc
 1801              	.LFE40:
 1802              		.size	TestRawSPI, .-TestRawSPI
 1803              		.section	.rodata
 1804 0f1f 00       		.align	2
 1805              	.LC191:
 1806 0f20 0A00     		.ascii	"\012\000"
 1807 0f22 0000     		.align	2
 1808              	.LC193:
 1809 0f24 E29594E2 		.ascii	"\342\225\224\342\225\220\342\225\220\342\225\220\342"
 1809      9590E295 
 1809      90E29590 
 1809      E2
 1810 0f31 9590E295 		.ascii	"\225\220\342\225\220\342\225\220\342\225\220\342\225"
 1810      90E29590 
 1810      E29590E2 
 1810      95
 1811 0f3e 90E29590 		.ascii	"\220\342\225\220\342\225\220\342\225\220\342\225\220"
 1811      E29590E2 
 1811      9590E295 
 1811      90
 1812 0f4b E29590E2 		.ascii	"\342\225\220\342\225\220\342\225\220\342\225\220\342"
 1812      9590E295 
 1812      90E29590 
 1812      E2
 1813 0f58 9590E295 		.ascii	"\225\220\342\225\220\342\225\220\342\225\220\342\225"
 1813      90E29590 
 1813      E29590E2 
ARM GAS  C:\Users\13740\AppData\Local\Temp\cc1Gy8Oo.s 			page 49


 1813      95
 1814 0f65 90E29590 		.ascii	"\220\342\225\220\342\225\220\342\225\220\342\225\220"
 1814      E29590E2 
 1814      9590E295 
 1814      90
 1815 0f72 E29590E2 		.ascii	"\342\225\220\342\225\220\342\225\220\342\225\220\342"
 1815      9590E295 
 1815      90E29590 
 1815      E2
 1816 0f7f 9590E295 		.ascii	"\225\220\342\225\220\342\225\220\342\225\220\342\225"
 1816      90E29590 
 1816      E29590E2 
 1816      95
 1817 0f8c 90E29590 		.ascii	"\220\342\225\220\342\225\220\342\225\220\342\225\220"
 1817      E29590E2 
 1817      9590E295 
 1817      90
 1818 0f99 E29590E2 		.ascii	"\342\225\220\342\225\220\342\225\220\342\225\220\342"
 1818      9590E295 
 1818      90E29590 
 1818      E2
 1819 0fa6 9590E295 		.ascii	"\225\220\342\225\220\342\225\220\342\225\220\342\225"
 1819      90E29590 
 1819      E29590E2 
 1819      95
 1820 0fb3 90E29590 		.ascii	"\220\342\225\220\342\225\220\342\225\220\342\225\220"
 1820      E29590E2 
 1820      9590E295 
 1820      90
 1821 0fc0 E29590E2 		.ascii	"\342\225\220\342\225\220\342\225\220\342\225\220\342"
 1821      9590E295 
 1821      90E29590 
 1821      E2
 1822 0fcd 9590E295 		.ascii	"\225\220\342\225\227\000"
 1822      9700
 1823 0fd3 00       		.align	2
 1824              	.LC195:
 1825 0fd4 E2959120 		.ascii	"\342\225\221        AD5941 COMPLETE DIAGNOSTIC SUIT"
 1825      20202020 
 1825      20202041 
 1825      44353934 
 1825      3120434F 
 1826 0ffe 45202020 		.ascii	"E                \342\225\221\000"
 1826      20202020 
 1826      20202020 
 1826      20202020 
 1826      20E29591 
 1827 1013 00       		.align	2
 1828              	.LC197:
 1829 1014 E2959120 		.ascii	"\342\225\221         Troubleshooting BLE Data Trans"
 1829      20202020 
 1829      20202020 
 1829      54726F75 
 1829      626C6573 
 1830 103e 6D697373 		.ascii	"mission          \342\225\221\000"
 1830      696F6E20 
 1830      20202020 
ARM GAS  C:\Users\13740\AppData\Local\Temp\cc1Gy8Oo.s 			page 50


 1830      20202020 
 1830      20E29591 
 1831 1053 00       		.align	2
 1832              	.LC199:
 1833 1054 E2959AE2 		.ascii	"\342\225\232\342\225\220\342\225\220\342\225\220\342"
 1833      9590E295 
 1833      90E29590 
 1833      E2
 1834 1061 9590E295 		.ascii	"\225\220\342\225\220\342\225\220\342\225\220\342\225"
 1834      90E29590 
 1834      E29590E2 
 1834      95
 1835 106e 90E29590 		.ascii	"\220\342\225\220\342\225\220\342\225\220\342\225\220"
 1835      E29590E2 
 1835      9590E295 
 1835      90
 1836 107b E29590E2 		.ascii	"\342\225\220\342\225\220\342\225\220\342\225\220\342"
 1836      9590E295 
 1836      90E29590 
 1836      E2
 1837 1088 9590E295 		.ascii	"\225\220\342\225\220\342\225\220\342\225\220\342\225"
 1837      90E29590 
 1837      E29590E2 
 1837      95
 1838 1095 90E29590 		.ascii	"\220\342\225\220\342\225\220\342\225\220\342\225\220"
 1838      E29590E2 
 1838      9590E295 
 1838      90
 1839 10a2 E29590E2 		.ascii	"\342\225\220\342\225\220\342\225\220\342\225\220\342"
 1839      9590E295 
 1839      90E29590 
 1839      E2
 1840 10af 9590E295 		.ascii	"\225\220\342\225\220\342\225\220\342\225\220\342\225"
 1840      90E29590 
 1840      E29590E2 
 1840      95
 1841 10bc 90E29590 		.ascii	"\220\342\225\220\342\225\220\342\225\220\342\225\220"
 1841      E29590E2 
 1841      9590E295 
 1841      90
 1842 10c9 E29590E2 		.ascii	"\342\225\220\342\225\220\342\225\220\342\225\220\342"
 1842      9590E295 
 1842      90E29590 
 1842      E2
 1843 10d6 9590E295 		.ascii	"\225\220\342\225\220\342\225\220\342\225\220\342\225"
 1843      90E29590 
 1843      E29590E2 
 1843      95
 1844 10e3 90E29590 		.ascii	"\220\342\225\220\342\225\220\342\225\220\342\225\220"
 1844      E29590E2 
 1844      9590E295 
 1844      90
 1845 10f0 E29590E2 		.ascii	"\342\225\220\342\225\220\342\225\220\342\225\220\342"
 1845      9590E295 
 1845      90E29590 
 1845      E2
 1846 10fd 9590E295 		.ascii	"\225\220\342\225\235\000"
ARM GAS  C:\Users\13740\AppData\Local\Temp\cc1Gy8Oo.s 			page 51


 1846      9D00
 1847 1103 00       		.align	2
 1848              	.LC201:
 1849 1104 0A5B5354 		.ascii	"\012[STEP 0] Testing Raw SPI Communication...\000"
 1849      45502030 
 1849      5D205465 
 1849      7374696E 
 1849      67205261 
 1850 112f 00       		.align	2
 1851              	.LC203:
 1852 1130 5B535445 		.ascii	"[STEP 1] Verifying AD5940 SPI Communication...\000"
 1852      5020315D 
 1852      20566572 
 1852      69667969 
 1852      6E672041 
 1853 115f 00       		.align	2
 1854              	.LC205:
 1855 1160 5B535445 		.ascii	"[STEP 2] Checking FIFO and Interrupts...\000"
 1855      5020325D 
 1855      20436865 
 1855      636B696E 
 1855      67204649 
 1856 1189 000000   		.align	2
 1857              	.LC207:
 1858 118c 5B535445 		.ascii	"[STEP 3] Verifying Electrode Configuration...\000"
 1858      5020335D 
 1858      20566572 
 1858      69667969 
 1858      6E672045 
 1859 11ba 0000     		.align	2
 1860              	.LC209:
 1861 11bc 0AE29594 		.ascii	"\012\342\225\224\342\225\220\342\225\220\342\225\220"
 1861      E29590E2 
 1861      9590E295 
 1861      90
 1862 11c9 E29590E2 		.ascii	"\342\225\220\342\225\220\342\225\220\342\225\220\342"
 1862      9590E295 
 1862      90E29590 
 1862      E2
 1863 11d6 9590E295 		.ascii	"\225\220\342\225\220\342\225\220\342\225\220\342\225"
 1863      90E29590 
 1863      E29590E2 
 1863      95
 1864 11e3 90E29590 		.ascii	"\220\342\225\220\342\225\220\342\225\220\342\225\220"
 1864      E29590E2 
 1864      9590E295 
 1864      90
 1865 11f0 E29590E2 		.ascii	"\342\225\220\342\225\220\342\225\220\342\225\220\342"
 1865      9590E295 
 1865      90E29590 
 1865      E2
 1866 11fd 9590E295 		.ascii	"\225\220\342\225\220\342\225\220\342\225\220\342\225"
 1866      90E29590 
 1866      E29590E2 
 1866      95
 1867 120a 90E29590 		.ascii	"\220\342\225\220\342\225\220\342\225\220\342\225\220"
 1867      E29590E2 
ARM GAS  C:\Users\13740\AppData\Local\Temp\cc1Gy8Oo.s 			page 52


 1867      9590E295 
 1867      90
 1868 1217 E29590E2 		.ascii	"\342\225\220\342\225\220\342\225\220\342\225\220\342"
 1868      9590E295 
 1868      90E29590 
 1868      E2
 1869 1224 9590E295 		.ascii	"\225\220\342\225\220\342\225\220\342\225\220\342\225"
 1869      90E29590 
 1869      E29590E2 
 1869      95
 1870 1231 90E29590 		.ascii	"\220\342\225\220\342\225\220\342\225\220\342\225\220"
 1870      E29590E2 
 1870      9590E295 
 1870      90
 1871 123e E29590E2 		.ascii	"\342\225\220\342\225\220\342\225\220\342\225\220\342"
 1871      9590E295 
 1871      90E29590 
 1871      E2
 1872 124b 9590E295 		.ascii	"\225\220\342\225\220\342\225\220\342\225\220\342\225"
 1872      90E29590 
 1872      E29590E2 
 1872      95
 1873 1258 90E29590 		.ascii	"\220\342\225\220\342\225\220\342\225\220\342\225\220"
 1873      E29590E2 
 1873      9590E295 
 1873      90
 1874 1265 E29590E2 		.ascii	"\342\225\220\342\225\227\000"
 1874      959700
 1875              		.align	2
 1876              	.LC211:
 1877 126c E2959120 		.ascii	"\342\225\221  DIAGNOSTIC COMPLETE - Check output ab"
 1877      20444941 
 1877      474E4F53 
 1877      54494320 
 1877      434F4D50 
 1878 1296 6F766520 		.ascii	"ove for issues   \342\225\221\000"
 1878      666F7220 
 1878      69737375 
 1878      65732020 
 1878      20E29591 
 1879 12ab 00       		.align	2
 1880              	.LC213:
 1881 12ac E2959AE2 		.ascii	"\342\225\232\342\225\220\342\225\220\342\225\220\342"
 1881      9590E295 
 1881      90E29590 
 1881      E2
 1882 12b9 9590E295 		.ascii	"\225\220\342\225\220\342\225\220\342\225\220\342\225"
 1882      90E29590 
 1882      E29590E2 
 1882      95
 1883 12c6 90E29590 		.ascii	"\220\342\225\220\342\225\220\342\225\220\342\225\220"
 1883      E29590E2 
 1883      9590E295 
 1883      90
 1884 12d3 E29590E2 		.ascii	"\342\225\220\342\225\220\342\225\220\342\225\220\342"
 1884      9590E295 
 1884      90E29590 
ARM GAS  C:\Users\13740\AppData\Local\Temp\cc1Gy8Oo.s 			page 53


 1884      E2
 1885 12e0 9590E295 		.ascii	"\225\220\342\225\220\342\225\220\342\225\220\342\225"
 1885      90E29590 
 1885      E29590E2 
 1885      95
 1886 12ed 90E29590 		.ascii	"\220\342\225\220\342\225\220\342\225\220\342\225\220"
 1886      E29590E2 
 1886      9590E295 
 1886      90
 1887 12fa E29590E2 		.ascii	"\342\225\220\342\225\220\342\225\220\342\225\220\342"
 1887      9590E295 
 1887      90E29590 
 1887      E2
 1888 1307 9590E295 		.ascii	"\225\220\342\225\220\342\225\220\342\225\220\342\225"
 1888      90E29590 
 1888      E29590E2 
 1888      95
 1889 1314 90E29590 		.ascii	"\220\342\225\220\342\225\220\342\225\220\342\225\220"
 1889      E29590E2 
 1889      9590E295 
 1889      90
 1890 1321 E29590E2 		.ascii	"\342\225\220\342\225\220\342\225\220\342\225\220\342"
 1890      9590E295 
 1890      90E29590 
 1890      E2
 1891 132e 9590E295 		.ascii	"\225\220\342\225\220\342\225\220\342\225\220\342\225"
 1891      90E29590 
 1891      E29590E2 
 1891      95
 1892 133b 90E29590 		.ascii	"\220\342\225\220\342\225\220\342\225\220\342\225\220"
 1892      E29590E2 
 1892      9590E295 
 1892      90
 1893 1348 E29590E2 		.ascii	"\342\225\220\342\225\220\342\225\220\342\225\220\342"
 1893      9590E295 
 1893      90E29590 
 1893      E2
 1894 1355 9590E295 		.ascii	"\225\220\342\225\235\012\000"
 1894      9D0A00
 1895              		.section	.text.FullDiagnostics,"ax",%progbits
 1896              		.align	2
 1897              		.global	FullDiagnostics
 1898              		.code	16
 1899              		.thumb_func
 1900              		.type	FullDiagnostics, %function
 1901              	FullDiagnostics:
 1902              	.LFB41:
 488:main.c        **** 
 489:main.c        **** /*******************************************************************************
 490:main.c        **** * Function Name: FullDiagnostics
 491:main.c        **** ********************************************************************************
 492:main.c        **** * Summary:
 493:main.c        **** *   执行完整诊断 - 包含原生SPI测试
 494:main.c        **** *******************************************************************************/
 495:main.c        **** void FullDiagnostics(void)
 496:main.c        **** {
 1903              		.loc 1 496 0
ARM GAS  C:\Users\13740\AppData\Local\Temp\cc1Gy8Oo.s 			page 54


 1904              		.cfi_startproc
 1905              		@ args = 0, pretend = 0, frame = 0
 1906              		@ frame_needed = 1, uses_anonymous_args = 0
 1907 0000 80B5     		push	{r7, lr}
 1908              		.cfi_def_cfa_offset 8
 1909              		.cfi_offset 7, -8
 1910              		.cfi_offset 14, -4
 1911 0002 00AF     		add	r7, sp, #0
 1912              		.cfi_def_cfa_register 7
 497:main.c        ****     printf("\n\n");
 1913              		.loc 1 497 0
 1914 0004 214B     		ldr	r3, .L57
 1915 0006 1800     		movs	r0, r3
 1916 0008 FFF7FEFF 		bl	puts
 498:main.c        ****     printf("╔════════════════════════════
 1917              		.loc 1 498 0
 1918 000c 204B     		ldr	r3, .L57+4
 1919 000e 1800     		movs	r0, r3
 1920 0010 FFF7FEFF 		bl	puts
 499:main.c        ****     printf("║        AD5941 COMPLETE DIAGNOSTIC SUITE                ║\n");
 1921              		.loc 1 499 0
 1922 0014 1F4B     		ldr	r3, .L57+8
 1923 0016 1800     		movs	r0, r3
 1924 0018 FFF7FEFF 		bl	puts
 500:main.c        ****     printf("║         Troubleshooting BLE Data Transmission          ║\n");
 1925              		.loc 1 500 0
 1926 001c 1E4B     		ldr	r3, .L57+12
 1927 001e 1800     		movs	r0, r3
 1928 0020 FFF7FEFF 		bl	puts
 501:main.c        ****     printf("╚════════════════════════════
 1929              		.loc 1 501 0
 1930 0024 1D4B     		ldr	r3, .L57+16
 1931 0026 1800     		movs	r0, r3
 1932 0028 FFF7FEFF 		bl	puts
 502:main.c        ****     
 503:main.c        ****     printf("\n[STEP 0] Testing Raw SPI Communication...\n");
 1933              		.loc 1 503 0
 1934 002c 1C4B     		ldr	r3, .L57+20
 1935 002e 1800     		movs	r0, r3
 1936 0030 FFF7FEFF 		bl	puts
 504:main.c        ****     TestRawSPI();
 1937              		.loc 1 504 0
 1938 0034 FFF7FEFF 		bl	TestRawSPI
 505:main.c        ****     
 506:main.c        ****     CyDelay(100);
 1939              		.loc 1 506 0
 1940 0038 6420     		movs	r0, #100
 1941 003a FFF7FEFF 		bl	CyDelay
 507:main.c        ****     
 508:main.c        ****     printf("[STEP 1] Verifying AD5940 SPI Communication...\n");
 1942              		.loc 1 508 0
 1943 003e 194B     		ldr	r3, .L57+24
 1944 0040 1800     		movs	r0, r3
 1945 0042 FFF7FEFF 		bl	puts
 509:main.c        ****     DiagnosticsSPI();
 1946              		.loc 1 509 0
 1947 0046 FFF7FEFF 		bl	DiagnosticsSPI
ARM GAS  C:\Users\13740\AppData\Local\Temp\cc1Gy8Oo.s 			page 55


 510:main.c        ****     
 511:main.c        ****     CyDelay(100);
 1948              		.loc 1 511 0
 1949 004a 6420     		movs	r0, #100
 1950 004c FFF7FEFF 		bl	CyDelay
 512:main.c        ****     
 513:main.c        ****     printf("[STEP 2] Checking FIFO and Interrupts...\n");
 1951              		.loc 1 513 0
 1952 0050 154B     		ldr	r3, .L57+28
 1953 0052 1800     		movs	r0, r3
 1954 0054 FFF7FEFF 		bl	puts
 514:main.c        ****     DiagnosticsFIFO();
 1955              		.loc 1 514 0
 1956 0058 FFF7FEFF 		bl	DiagnosticsFIFO
 515:main.c        ****     
 516:main.c        ****     CyDelay(100);
 1957              		.loc 1 516 0
 1958 005c 6420     		movs	r0, #100
 1959 005e FFF7FEFF 		bl	CyDelay
 517:main.c        ****     
 518:main.c        ****     printf("[STEP 3] Verifying Electrode Configuration...\n");
 1960              		.loc 1 518 0
 1961 0062 124B     		ldr	r3, .L57+32
 1962 0064 1800     		movs	r0, r3
 1963 0066 FFF7FEFF 		bl	puts
 519:main.c        ****     DiagnosticsElectrodes();
 1964              		.loc 1 519 0
 1965 006a FFF7FEFF 		bl	DiagnosticsElectrodes
 520:main.c        ****     
 521:main.c        ****     printf("\n╔═══════════════════════════
 1966              		.loc 1 521 0
 1967 006e 104B     		ldr	r3, .L57+36
 1968 0070 1800     		movs	r0, r3
 1969 0072 FFF7FEFF 		bl	puts
 522:main.c        ****     printf("║  DIAGNOSTIC COMPLETE - Check output above for issues   ║\n");
 1970              		.loc 1 522 0
 1971 0076 0F4B     		ldr	r3, .L57+40
 1972 0078 1800     		movs	r0, r3
 1973 007a FFF7FEFF 		bl	puts
 523:main.c        ****     printf("╚════════════════════════════
 1974              		.loc 1 523 0
 1975 007e 0E4B     		ldr	r3, .L57+44
 1976 0080 1800     		movs	r0, r3
 1977 0082 FFF7FEFF 		bl	puts
 524:main.c        **** }
 1978              		.loc 1 524 0
 1979 0086 C046     		nop
 1980 0088 BD46     		mov	sp, r7
 1981              		@ sp needed
 1982 008a 80BD     		pop	{r7, pc}
 1983              	.L58:
 1984              		.align	2
 1985              	.L57:
 1986 008c 200F0000 		.word	.LC191
 1987 0090 240F0000 		.word	.LC193
 1988 0094 D40F0000 		.word	.LC195
 1989 0098 14100000 		.word	.LC197
ARM GAS  C:\Users\13740\AppData\Local\Temp\cc1Gy8Oo.s 			page 56


 1990 009c 54100000 		.word	.LC199
 1991 00a0 04110000 		.word	.LC201
 1992 00a4 30110000 		.word	.LC203
 1993 00a8 60110000 		.word	.LC205
 1994 00ac 8C110000 		.word	.LC207
 1995 00b0 BC110000 		.word	.LC209
 1996 00b4 6C120000 		.word	.LC211
 1997 00b8 AC120000 		.word	.LC213
 1998              		.cfi_endproc
 1999              	.LFE41:
 2000              		.size	FullDiagnostics, .-FullDiagnostics
 2001              		.global	__aeabi_fmul
 2002              		.section	.text.MeasureAmperometricSensor,"ax",%progbits
 2003              		.align	2
 2004              		.global	MeasureAmperometricSensor
 2005              		.code	16
 2006              		.thumb_func
 2007              		.type	MeasureAmperometricSensor, %function
 2008              	MeasureAmperometricSensor:
 2009              	.LFB42:
 525:main.c        **** 
 526:main.c        **** /*******************************************************************************
 527:main.c        **** * Function Name: MeasureAmperometricSensor
 528:main.c        **** ********************************************************************************
 529:main.c        **** * Summary:
 530:main.c        **** *   测量安培法传感器 - 修复后版本
 531:main.c        **** *   不使用AMux，直接使用AD5941的WE0/WE1/WE2通道
 532:main.c        **** *******************************************************************************/
 533:main.c        **** float MeasureAmperometricSensor(AmperometricSensor_t sensorType)
 534:main.c        **** {
 2010              		.loc 1 534 0
 2011              		.cfi_startproc
 2012              		@ args = 0, pretend = 0, frame = 24
 2013              		@ frame_needed = 1, uses_anonymous_args = 0
 2014 0000 80B5     		push	{r7, lr}
 2015              		.cfi_def_cfa_offset 8
 2016              		.cfi_offset 7, -8
 2017              		.cfi_offset 14, -4
 2018 0002 86B0     		sub	sp, sp, #24
 2019              		.cfi_def_cfa_offset 32
 2020 0004 00AF     		add	r7, sp, #0
 2021              		.cfi_def_cfa_register 7
 2022 0006 0200     		movs	r2, r0
 2023 0008 FB1D     		adds	r3, r7, #7
 2024 000a 1A70     		strb	r2, [r3]
 535:main.c        ****     float current_uA = 0;
 2025              		.loc 1 535 0
 2026 000c 0023     		movs	r3, #0
 2027 000e 7B61     		str	r3, [r7, #20]
 536:main.c        ****     uint32_t dataCount = 0;
 2028              		.loc 1 536 0
 2029 0010 0023     		movs	r3, #0
 2030 0012 FB60     		str	r3, [r7, #12]
 537:main.c        ****     AD5940Err error;
 538:main.c        ****     
 539:main.c        ****     
 540:main.c        ****     // 注意：如果不使用AMux，AD5941会使用默认的WE0通道
ARM GAS  C:\Users\13740\AppData\Local\Temp\cc1Gy8Oo.s 			page 57


 541:main.c        ****     // 如果需要切换WE通道，需要在配置中修改
 542:main.c        ****     
 543:main.c        ****     // 启动测量
 544:main.c        ****     error = AppAMPCtrl(AMPCTRL_START, NULL);
 2031              		.loc 1 544 0
 2032 0014 0021     		movs	r1, #0
 2033 0016 0020     		movs	r0, #0
 2034 0018 FFF7FEFF 		bl	AppAMPCtrl
 2035 001c 0300     		movs	r3, r0
 2036 001e 3B61     		str	r3, [r7, #16]
 545:main.c        ****     if(error != AD5940ERR_OK)
 2037              		.loc 1 545 0
 2038 0020 3B69     		ldr	r3, [r7, #16]
 2039 0022 002B     		cmp	r3, #0
 2040 0024 01D0     		beq	.L60
 546:main.c        ****     {
 547:main.c        ****         return 0;
 2041              		.loc 1 547 0
 2042 0026 0023     		movs	r3, #0
 2043 0028 20E0     		b	.L63
 2044              	.L60:
 548:main.c        ****     }
 549:main.c        ****     
 550:main.c        ****     // 等待测量稳定（安培法需要500ms）
 551:main.c        ****     CyDelay(500);
 2045              		.loc 1 551 0
 2046 002a FA23     		movs	r3, #250
 2047 002c 5B00     		lsls	r3, r3, #1
 2048 002e 1800     		movs	r0, r3
 2049 0030 FFF7FEFF 		bl	CyDelay
 552:main.c        ****     
 553:main.c        ****     // 读取FIFO数据
 554:main.c        ****     error = AppAMPISR(&ampResult, &dataCount);
 2050              		.loc 1 554 0
 2051 0034 0C23     		movs	r3, #12
 2052 0036 FA18     		adds	r2, r7, r3
 2053 0038 0E4B     		ldr	r3, .L64
 2054 003a 1100     		movs	r1, r2
 2055 003c 1800     		movs	r0, r3
 2056 003e FFF7FEFF 		bl	AppAMPISR
 2057 0042 0300     		movs	r3, r0
 2058 0044 3B61     		str	r3, [r7, #16]
 555:main.c        ****     
 556:main.c        ****     if(error == AD5940ERR_OK && dataCount > 0)
 2059              		.loc 1 556 0
 2060 0046 3B69     		ldr	r3, [r7, #16]
 2061 0048 002B     		cmp	r3, #0
 2062 004a 0AD1     		bne	.L62
 2063              		.loc 1 556 0 is_stmt 0 discriminator 1
 2064 004c FB68     		ldr	r3, [r7, #12]
 2065 004e 002B     		cmp	r3, #0
 2066 0050 07D0     		beq	.L62
 557:main.c        ****     {
 558:main.c        ****         // 获取电流值（fAmpRes_Type结构体中的Current成员）
 559:main.c        ****         current_uA = ampResult.Current * 1000.0;  // 转换为nA
 2067              		.loc 1 559 0 is_stmt 1
 2068 0052 084B     		ldr	r3, .L64
ARM GAS  C:\Users\13740\AppData\Local\Temp\cc1Gy8Oo.s 			page 58


 2069 0054 1B68     		ldr	r3, [r3]
 2070 0056 0849     		ldr	r1, .L64+4
 2071 0058 181C     		adds	r0, r3, #0
 2072 005a FFF7FEFF 		bl	__aeabi_fmul
 2073 005e 031C     		adds	r3, r0, #0
 2074 0060 7B61     		str	r3, [r7, #20]
 2075              	.L62:
 560:main.c        ****     }
 561:main.c        ****     else
 562:main.c        ****     {
 563:main.c        ****     }
 564:main.c        ****     
 565:main.c        ****     // 停止测量
 566:main.c        ****     AppAMPCtrl(AMPCTRL_STOPNOW, NULL);
 2076              		.loc 1 566 0
 2077 0062 0021     		movs	r1, #0
 2078 0064 0120     		movs	r0, #1
 2079 0066 FFF7FEFF 		bl	AppAMPCtrl
 567:main.c        ****     
 568:main.c        ****     return current_uA;
 2080              		.loc 1 568 0
 2081 006a 7B69     		ldr	r3, [r7, #20]
 2082              	.L63:
 569:main.c        **** }
 2083              		.loc 1 569 0 discriminator 1
 2084 006c 181C     		adds	r0, r3, #0
 2085 006e BD46     		mov	sp, r7
 2086 0070 06B0     		add	sp, sp, #24
 2087              		@ sp needed
 2088 0072 80BD     		pop	{r7, pc}
 2089              	.L65:
 2090              		.align	2
 2091              	.L64:
 2092 0074 00000000 		.word	ampResult
 2093 0078 00007A44 		.word	1148846080
 2094              		.cfi_endproc
 2095              	.LFE42:
 2096              		.size	MeasureAmperometricSensor, .-MeasureAmperometricSensor
 2097              		.global	__aeabi_ddiv
 2098              		.global	__aeabi_d2f
 2099              		.section	.text.ConvertCurrentToConcentration,"ax",%progbits
 2100              		.align	2
 2101              		.global	ConvertCurrentToConcentration
 2102              		.code	16
 2103              		.thumb_func
 2104              		.type	ConvertCurrentToConcentration, %function
 2105              	ConvertCurrentToConcentration:
 2106              	.LFB43:
 570:main.c        **** 
 571:main.c        **** /*******************************************************************************
 572:main.c        **** * Function Name: ConvertCurrentToConcentration
 573:main.c        **** ********************************************************************************
 574:main.c        **** * Summary:
 575:main.c        **** *   将电流值转换为浓度（根据论文校准系数）
 576:main.c        **** *******************************************************************************/
 577:main.c        **** float ConvertCurrentToConcentration(float current_nA, uint8 sensorType)
 578:main.c        **** {
ARM GAS  C:\Users\13740\AppData\Local\Temp\cc1Gy8Oo.s 			page 59


 2107              		.loc 1 578 0
 2108              		.cfi_startproc
 2109              		@ args = 0, pretend = 0, frame = 16
 2110              		@ frame_needed = 1, uses_anonymous_args = 0
 2111 0000 90B5     		push	{r4, r7, lr}
 2112              		.cfi_def_cfa_offset 12
 2113              		.cfi_offset 4, -12
 2114              		.cfi_offset 7, -8
 2115              		.cfi_offset 14, -4
 2116 0002 85B0     		sub	sp, sp, #20
 2117              		.cfi_def_cfa_offset 32
 2118 0004 00AF     		add	r7, sp, #0
 2119              		.cfi_def_cfa_register 7
 2120 0006 7860     		str	r0, [r7, #4]
 2121 0008 0A00     		movs	r2, r1
 2122 000a FB1C     		adds	r3, r7, #3
 2123 000c 1A70     		strb	r2, [r3]
 579:main.c        ****     float concentration = 0;
 2124              		.loc 1 579 0
 2125 000e 0023     		movs	r3, #0
 2126 0010 FB60     		str	r3, [r7, #12]
 580:main.c        ****     
 581:main.c        ****     switch(sensorType)
 2127              		.loc 1 581 0
 2128 0012 FB1C     		adds	r3, r7, #3
 2129 0014 1B78     		ldrb	r3, [r3]
 2130 0016 012B     		cmp	r3, #1
 2131 0018 13D0     		beq	.L68
 2132 001a 022B     		cmp	r3, #2
 2133 001c 21D0     		beq	.L69
 2134 001e 002B     		cmp	r3, #0
 2135 0020 2FD1     		bne	.L73
 582:main.c        ****     {
 583:main.c        ****         case SENSOR_GLUCOSE:
 584:main.c        ****             concentration = current_nA / 16.34;  // 16.34 nA/mM
 2136              		.loc 1 584 0
 2137 0022 7868     		ldr	r0, [r7, #4]
 2138 0024 FFF7FEFF 		bl	__aeabi_f2d
 2139 0028 1A4A     		ldr	r2, .L74
 2140 002a 1B4B     		ldr	r3, .L74+4
 2141 002c FFF7FEFF 		bl	__aeabi_ddiv
 2142 0030 0300     		movs	r3, r0
 2143 0032 0C00     		movs	r4, r1
 2144 0034 1800     		movs	r0, r3
 2145 0036 2100     		movs	r1, r4
 2146 0038 FFF7FEFF 		bl	__aeabi_d2f
 2147 003c 031C     		adds	r3, r0, #0
 2148 003e FB60     		str	r3, [r7, #12]
 585:main.c        ****             break;
 2149              		.loc 1 585 0
 2150 0040 22E0     		b	.L71
 2151              	.L68:
 586:main.c        ****             
 587:main.c        ****         case SENSOR_LACTATE:
 588:main.c        ****             concentration = current_nA / 41.44;  // 41.44 nA/mM
 2152              		.loc 1 588 0
 2153 0042 7868     		ldr	r0, [r7, #4]
ARM GAS  C:\Users\13740\AppData\Local\Temp\cc1Gy8Oo.s 			page 60


 2154 0044 FFF7FEFF 		bl	__aeabi_f2d
 2155 0048 144A     		ldr	r2, .L74+8
 2156 004a 154B     		ldr	r3, .L74+12
 2157 004c FFF7FEFF 		bl	__aeabi_ddiv
 2158 0050 0300     		movs	r3, r0
 2159 0052 0C00     		movs	r4, r1
 2160 0054 1800     		movs	r0, r3
 2161 0056 2100     		movs	r1, r4
 2162 0058 FFF7FEFF 		bl	__aeabi_d2f
 2163 005c 031C     		adds	r3, r0, #0
 2164 005e FB60     		str	r3, [r7, #12]
 589:main.c        ****             break;
 2165              		.loc 1 589 0
 2166 0060 12E0     		b	.L71
 2167              	.L69:
 590:main.c        ****             
 591:main.c        ****         case SENSOR_URIC_ACID:
 592:main.c        ****             concentration = current_nA / 189.60; // 189.60 nA/μM
 2168              		.loc 1 592 0
 2169 0062 7868     		ldr	r0, [r7, #4]
 2170 0064 FFF7FEFF 		bl	__aeabi_f2d
 2171 0068 0E4A     		ldr	r2, .L74+16
 2172 006a 0F4B     		ldr	r3, .L74+20
 2173 006c FFF7FEFF 		bl	__aeabi_ddiv
 2174 0070 0300     		movs	r3, r0
 2175 0072 0C00     		movs	r4, r1
 2176 0074 1800     		movs	r0, r3
 2177 0076 2100     		movs	r1, r4
 2178 0078 FFF7FEFF 		bl	__aeabi_d2f
 2179 007c 031C     		adds	r3, r0, #0
 2180 007e FB60     		str	r3, [r7, #12]
 593:main.c        ****             break;
 2181              		.loc 1 593 0
 2182 0080 02E0     		b	.L71
 2183              	.L73:
 594:main.c        ****             
 595:main.c        ****         default:
 596:main.c        ****             concentration = 0;
 2184              		.loc 1 596 0
 2185 0082 0023     		movs	r3, #0
 2186 0084 FB60     		str	r3, [r7, #12]
 597:main.c        ****             break;
 2187              		.loc 1 597 0
 2188 0086 C046     		nop
 2189              	.L71:
 598:main.c        ****     }
 599:main.c        ****     
 600:main.c        ****     return concentration;
 2190              		.loc 1 600 0
 2191 0088 FB68     		ldr	r3, [r7, #12]
 601:main.c        **** }
 2192              		.loc 1 601 0
 2193 008a 181C     		adds	r0, r3, #0
 2194 008c BD46     		mov	sp, r7
 2195 008e 05B0     		add	sp, sp, #20
 2196              		@ sp needed
 2197 0090 90BD     		pop	{r4, r7, pc}
ARM GAS  C:\Users\13740\AppData\Local\Temp\cc1Gy8Oo.s 			page 61


 2198              	.L75:
 2199 0092 C046     		.align	2
 2200              	.L74:
 2201 0094 D7A3703D 		.word	1030792151
 2202 0098 0A573040 		.word	1076909834
 2203 009c B81E85EB 		.word	-343597384
 2204 00a0 51B84440 		.word	1078245457
 2205 00a4 33333333 		.word	858993459
 2206 00a8 33B36740 		.word	1080537907
 2207              		.cfi_endproc
 2208              	.LFE43:
 2209              		.size	ConvertCurrentToConcentration, .-ConvertCurrentToConcentration
 2210              		.section	.text.MeasureTemperature,"ax",%progbits
 2211              		.align	2
 2212              		.global	MeasureTemperature
 2213              		.code	16
 2214              		.thumb_func
 2215              		.type	MeasureTemperature, %function
 2216              	MeasureTemperature:
 2217              	.LFB44:
 602:main.c        **** 
 603:main.c        **** /*******************************************************************************
 604:main.c        **** * Function Name: MeasureTemperature
 605:main.c        **** ********************************************************************************
 606:main.c        **** * Summary:
 607:main.c        **** *   使用AD5940的ADC测量温度传感器
 608:main.c        **** *   替代PSoC的ADC模块
 609:main.c        **** *******************************************************************************/
 610:main.c        **** float MeasureTemperature(void)
 611:main.c        **** {
 2218              		.loc 1 611 0
 2219              		.cfi_startproc
 2220              		@ args = 0, pretend = 0, frame = 8
 2221              		@ frame_needed = 1, uses_anonymous_args = 0
 2222 0000 80B5     		push	{r7, lr}
 2223              		.cfi_def_cfa_offset 8
 2224              		.cfi_offset 7, -8
 2225              		.cfi_offset 14, -4
 2226 0002 82B0     		sub	sp, sp, #8
 2227              		.cfi_def_cfa_offset 16
 2228 0004 00AF     		add	r7, sp, #0
 2229              		.cfi_def_cfa_register 7
 612:main.c        ****     float temperature = 25.0;  // 默认室温
 2230              		.loc 1 612 0
 2231 0006 044B     		ldr	r3, .L78
 2232 0008 7B60     		str	r3, [r7, #4]
 613:main.c        ****     uint32_t adcCode;
 614:main.c        ****     float voltage, resistance;
 615:main.c        ****     
 616:main.c        ****     
 617:main.c        ****     // 方法1: 使用AD5940的辅助ADC（AUX ADC）测量温度传感器
 618:main.c        ****     // 注意：需要配置AD5940的GPIO或者AUX输入来连接温度传感器
 619:main.c        ****     
 620:main.c        ****     // 这里提供一个简化的实现
 621:main.c        ****     // 实际应用中，你需要：
 622:main.c        ****     // 1. 配置AD5940的GPIO/AUX为ADC输入
 623:main.c        ****     // 2. 读取ADC值
ARM GAS  C:\Users\13740\AppData\Local\Temp\cc1Gy8Oo.s 			page 62


 624:main.c        ****     // 3. 转换为温度
 625:main.c        ****     
 626:main.c        ****     // 示例代码（需要根据实际硬件调整）:
 627:main.c        ****     /*
 628:main.c        ****     AD5940_StructInit(&ADCInit, sizeof(ADCInit));
 629:main.c        ****     ADCInit.ADCMuxP = ADCMUXP_AIN2;  // 假设温度传感器连接到AIN2
 630:main.c        ****     ADCInit.ADCMuxN = ADCMUXN_VSET1P1;
 631:main.c        ****     AD5940_ADCInit(&ADCInit);
 632:main.c        ****     
 633:main.c        ****     AD5940_ADCStart();
 634:main.c        ****     CyDelay(10);
 635:main.c        ****     adcCode = AD5940_ReadADC();
 636:main.c        ****     
 637:main.c        ****     voltage = (adcCode * 1.82) / 32768.0;  // 转换为电压
 638:main.c        ****     resistance = 1000.0 * voltage / (3.3 - voltage);  // 假设分压电路
 639:main.c        ****     temperature = 25.0 + (resistance - 1000.0) / (1000.0 * 0.0021);
 640:main.c        ****     */
 641:main.c        ****     
 642:main.c        ****     // 临时方案：从系统读取或使用固定值
 643:main.c        ****     temperature = 37.0;  // 假设体温
 2233              		.loc 1 643 0
 2234 000a 044B     		ldr	r3, .L78+4
 2235 000c 7B60     		str	r3, [r7, #4]
 644:main.c        ****     
 645:main.c        ****     
 646:main.c        ****     return temperature;
 2236              		.loc 1 646 0
 2237 000e 7B68     		ldr	r3, [r7, #4]
 647:main.c        **** }
 2238              		.loc 1 647 0
 2239 0010 181C     		adds	r0, r3, #0
 2240 0012 BD46     		mov	sp, r7
 2241 0014 02B0     		add	sp, sp, #8
 2242              		@ sp needed
 2243 0016 80BD     		pop	{r7, pc}
 2244              	.L79:
 2245              		.align	2
 2246              	.L78:
 2247 0018 0000C841 		.word	1103626240
 2248 001c 00001442 		.word	1108606976
 2249              		.cfi_endproc
 2250              	.LFE44:
 2251              		.size	MeasureTemperature, .-MeasureTemperature
 2252              		.section	.text.ReadCurrentFromAD5940,"ax",%progbits
 2253              		.align	2
 2254              		.global	ReadCurrentFromAD5940
 2255              		.code	16
 2256              		.thumb_func
 2257              		.type	ReadCurrentFromAD5940, %function
 2258              	ReadCurrentFromAD5940:
 2259              	.LFB45:
 648:main.c        **** 
 649:main.c        **** 
 650:main.c        **** /*******************************************************************************
 651:main.c        **** * Function Name: ReadCurrentFromAD5940
 652:main.c        **** ********************************************************************************
 653:main.c        **** * Summary:
ARM GAS  C:\Users\13740\AppData\Local\Temp\cc1Gy8Oo.s 			page 63


 654:main.c        **** *   从 AD5940 读取实际电流值（安培法测量）
 655:main.c        **** *   
 656:main.c        **** * Parameters:
 657:main.c        **** *   sensorType: 传感器类型（GLUCOSE, LACTATE, URIC_ACID）
 658:main.c        **** *
 659:main.c        **** * Return:
 660:main.c        **** *   float: 电流值（单位：nA）
 661:main.c        **** *******************************************************************************/
 662:main.c        **** float ReadCurrentFromAD5940(AmperometricSensor_t sensorType)
 663:main.c        **** {
 2260              		.loc 1 663 0
 2261              		.cfi_startproc
 2262              		@ args = 0, pretend = 0, frame = 24
 2263              		@ frame_needed = 1, uses_anonymous_args = 0
 2264 0000 80B5     		push	{r7, lr}
 2265              		.cfi_def_cfa_offset 8
 2266              		.cfi_offset 7, -8
 2267              		.cfi_offset 14, -4
 2268 0002 86B0     		sub	sp, sp, #24
 2269              		.cfi_def_cfa_offset 32
 2270 0004 00AF     		add	r7, sp, #0
 2271              		.cfi_def_cfa_register 7
 2272 0006 0200     		movs	r2, r0
 2273 0008 FB1D     		adds	r3, r7, #7
 2274 000a 1A70     		strb	r2, [r3]
 664:main.c        ****     float current_nA = 0;
 2275              		.loc 1 664 0
 2276 000c 0023     		movs	r3, #0
 2277 000e 7B61     		str	r3, [r7, #20]
 665:main.c        ****     uint32_t dataCount = 0;
 2278              		.loc 1 665 0
 2279 0010 0023     		movs	r3, #0
 2280 0012 BB60     		str	r3, [r7, #8]
 666:main.c        ****     AD5940Err error;
 667:main.c        ****     static uint32_t ampFifoBuffer[256];  // 存储FIFO数据的缓冲区
 668:main.c        ****     
 669:main.c        ****     // 1. 配置 AD5940 为安培法测量模式
 670:main.c        ****     AppAMPGetCfg(&pAmpCfg);
 2281              		.loc 1 670 0
 2282 0014 494B     		ldr	r3, .L93
 2283 0016 1800     		movs	r0, r3
 2284 0018 FFF7FEFF 		bl	AppAMPGetCfg
 671:main.c        ****     
 672:main.c        ****     // 根据传感器类型设置工作电极
 673:main.c        ****     switch(sensorType)
 2285              		.loc 1 673 0
 2286 001c FB1D     		adds	r3, r7, #7
 2287 001e 1B78     		ldrb	r3, [r3]
 2288 0020 012B     		cmp	r3, #1
 2289 0022 0DD0     		beq	.L82
 2290 0024 022B     		cmp	r3, #2
 2291 0026 15D0     		beq	.L83
 2292 0028 002B     		cmp	r3, #0
 2293 002a 1DD1     		bne	.L81
 674:main.c        ****     {
 675:main.c        ****         case SENSOR_GLUCOSE:
 676:main.c        ****             AMP1_EN_Write(1);  // 启用通道1
ARM GAS  C:\Users\13740\AppData\Local\Temp\cc1Gy8Oo.s 			page 64


 2294              		.loc 1 676 0
 2295 002c 0120     		movs	r0, #1
 2296 002e FFF7FEFF 		bl	AMP1_EN_Write
 677:main.c        ****             AMP2_EN_Write(0);
 2297              		.loc 1 677 0
 2298 0032 0020     		movs	r0, #0
 2299 0034 FFF7FEFF 		bl	AMP2_EN_Write
 678:main.c        ****             AMP3_EN_Write(0);
 2300              		.loc 1 678 0
 2301 0038 0020     		movs	r0, #0
 2302 003a FFF7FEFF 		bl	AMP3_EN_Write
 679:main.c        ****             break;
 2303              		.loc 1 679 0
 2304 003e 13E0     		b	.L81
 2305              	.L82:
 680:main.c        ****             
 681:main.c        ****         case SENSOR_LACTATE:
 682:main.c        ****             AMP1_EN_Write(0);
 2306              		.loc 1 682 0
 2307 0040 0020     		movs	r0, #0
 2308 0042 FFF7FEFF 		bl	AMP1_EN_Write
 683:main.c        ****             AMP2_EN_Write(1);  // 启用通道2
 2309              		.loc 1 683 0
 2310 0046 0120     		movs	r0, #1
 2311 0048 FFF7FEFF 		bl	AMP2_EN_Write
 684:main.c        ****             AMP3_EN_Write(0);
 2312              		.loc 1 684 0
 2313 004c 0020     		movs	r0, #0
 2314 004e FFF7FEFF 		bl	AMP3_EN_Write
 685:main.c        ****             break;
 2315              		.loc 1 685 0
 2316 0052 09E0     		b	.L81
 2317              	.L83:
 686:main.c        ****             
 687:main.c        ****         case SENSOR_URIC_ACID:
 688:main.c        ****             AMP1_EN_Write(0);
 2318              		.loc 1 688 0
 2319 0054 0020     		movs	r0, #0
 2320 0056 FFF7FEFF 		bl	AMP1_EN_Write
 689:main.c        ****             AMP2_EN_Write(0);
 2321              		.loc 1 689 0
 2322 005a 0020     		movs	r0, #0
 2323 005c FFF7FEFF 		bl	AMP2_EN_Write
 690:main.c        ****             AMP3_EN_Write(1);  // 启用通道3
 2324              		.loc 1 690 0
 2325 0060 0120     		movs	r0, #1
 2326 0062 FFF7FEFF 		bl	AMP3_EN_Write
 691:main.c        ****             break;
 2327              		.loc 1 691 0
 2328 0066 C046     		nop
 2329              	.L81:
 692:main.c        ****     }
 693:main.c        ****     
 694:main.c        ****     CyDelay(50);  // 等待通道切换稳定
 2330              		.loc 1 694 0
 2331 0068 3220     		movs	r0, #50
 2332 006a FFF7FEFF 		bl	CyDelay
ARM GAS  C:\Users\13740\AppData\Local\Temp\cc1Gy8Oo.s 			page 65


 695:main.c        ****     
 696:main.c        ****     // 2. 启动测量
 697:main.c        ****     error = AppAMPCtrl(AMPCTRL_START, NULL);
 2333              		.loc 1 697 0
 2334 006e 0021     		movs	r1, #0
 2335 0070 0020     		movs	r0, #0
 2336 0072 FFF7FEFF 		bl	AppAMPCtrl
 2337 0076 0300     		movs	r3, r0
 2338 0078 3B61     		str	r3, [r7, #16]
 698:main.c        ****     if(error != AD5940ERR_OK)
 2339              		.loc 1 698 0
 2340 007a 3B69     		ldr	r3, [r7, #16]
 2341 007c 002B     		cmp	r3, #0
 2342 007e 01D0     		beq	.L85
 699:main.c        ****     {
 700:main.c        ****         return 0;
 2343              		.loc 1 700 0
 2344 0080 0023     		movs	r3, #0
 2345 0082 56E0     		b	.L92
 2346              	.L85:
 701:main.c        ****     }
 702:main.c        ****     
 703:main.c        ****     // 3. 等待测量稳定（安培法需要 500ms）
 704:main.c        ****     CyDelay(500);
 2347              		.loc 1 704 0
 2348 0084 FA23     		movs	r3, #250
 2349 0086 5B00     		lsls	r3, r3, #1
 2350 0088 1800     		movs	r0, r3
 2351 008a FFF7FEFF 		bl	CyDelay
 705:main.c        ****     
 706:main.c        ****     // 4. 读取 FIFO 数据
 707:main.c        ****     // 第一个参数：指向FIFO数据缓冲区，AppAMPISR会将ADC代码读到这里，然后
 708:main.c        ****     // 第二个参数：指向数据计数，返回读取的数据点数
 709:main.c        ****     error = AppAMPISR(ampFifoBuffer, &dataCount);
 2352              		.loc 1 709 0
 2353 008e 0823     		movs	r3, #8
 2354 0090 FA18     		adds	r2, r7, r3
 2355 0092 2B4B     		ldr	r3, .L93+4
 2356 0094 1100     		movs	r1, r2
 2357 0096 1800     		movs	r0, r3
 2358 0098 FFF7FEFF 		bl	AppAMPISR
 2359 009c 0300     		movs	r3, r0
 2360 009e 3B61     		str	r3, [r7, #16]
 710:main.c        ****     
 711:main.c        ****     if(error == AD5940ERR_OK && dataCount > 0)
 2361              		.loc 1 711 0
 2362 00a0 3B69     		ldr	r3, [r7, #16]
 2363 00a2 002B     		cmp	r3, #0
 2364 00a4 0DD1     		bne	.L87
 2365              		.loc 1 711 0 is_stmt 0 discriminator 1
 2366 00a6 BB68     		ldr	r3, [r7, #8]
 2367 00a8 002B     		cmp	r3, #0
 2368 00aa 0AD0     		beq	.L87
 2369              	.LBB3:
 712:main.c        ****     {
 713:main.c        ****         // 5. 从缓冲区中提取电流值
 714:main.c        ****         // AppAMPDataProcess 已经将ADC值转换为电流值（float）
ARM GAS  C:\Users\13740\AppData\Local\Temp\cc1Gy8Oo.s 			page 66


 715:main.c        ****         // 结果存储在 ampFifoBuffer 中（已转换为float指针）
 716:main.c        ****         float *pCurrentData = (float *)ampFifoBuffer;
 2370              		.loc 1 716 0 is_stmt 1
 2371 00ac 244B     		ldr	r3, .L93+4
 2372 00ae FB60     		str	r3, [r7, #12]
 717:main.c        ****         
 718:main.c        ****         // 取第一个样本的电流值（单位：A）
 719:main.c        ****         current_nA = pCurrentData[0] * 1e9;  // 转换为 nA
 2373              		.loc 1 719 0
 2374 00b0 FB68     		ldr	r3, [r7, #12]
 2375 00b2 1B68     		ldr	r3, [r3]
 2376 00b4 2349     		ldr	r1, .L93+8
 2377 00b6 181C     		adds	r0, r3, #0
 2378 00b8 FFF7FEFF 		bl	__aeabi_fmul
 2379 00bc 031C     		adds	r3, r0, #0
 2380 00be 7B61     		str	r3, [r7, #20]
 2381              	.LBE3:
 712:main.c        ****     {
 2382              		.loc 1 712 0
 2383 00c0 01E0     		b	.L88
 2384              	.L87:
 720:main.c        ****         
 721:main.c        ****     }
 722:main.c        ****     else
 723:main.c        ****     {
 724:main.c        ****         current_nA = 0;
 2385              		.loc 1 724 0
 2386 00c2 0023     		movs	r3, #0
 2387 00c4 7B61     		str	r3, [r7, #20]
 2388              	.L88:
 725:main.c        ****     }
 726:main.c        ****     
 727:main.c        ****     // 6. 停止测量
 728:main.c        ****     AppAMPCtrl(AMPCTRL_STOPNOW, NULL);
 2389              		.loc 1 728 0
 2390 00c6 0021     		movs	r1, #0
 2391 00c8 0120     		movs	r0, #1
 2392 00ca FFF7FEFF 		bl	AppAMPCtrl
 729:main.c        ****     
 730:main.c        **** 
 731:main.c        ****     
 732:main.c        ****     
 733:main.c        ****     
 734:main.c        **** 
 735:main.c        ****     CyDelay(50);  // 等待通道切换稳定
 2393              		.loc 1 735 0
 2394 00ce 3220     		movs	r0, #50
 2395 00d0 FFF7FEFF 		bl	CyDelay
 736:main.c        ****     
 737:main.c        ****     // 2. 启动测量
 738:main.c        ****     error = AppAMPCtrl(AMPCTRL_START, NULL);
 2396              		.loc 1 738 0
 2397 00d4 0021     		movs	r1, #0
 2398 00d6 0020     		movs	r0, #0
 2399 00d8 FFF7FEFF 		bl	AppAMPCtrl
 2400 00dc 0300     		movs	r3, r0
 2401 00de 3B61     		str	r3, [r7, #16]
ARM GAS  C:\Users\13740\AppData\Local\Temp\cc1Gy8Oo.s 			page 67


 739:main.c        ****     if(error != AD5940ERR_OK)
 2402              		.loc 1 739 0
 2403 00e0 3B69     		ldr	r3, [r7, #16]
 2404 00e2 002B     		cmp	r3, #0
 2405 00e4 01D0     		beq	.L89
 740:main.c        ****     {
 741:main.c        ****         return 0;
 2406              		.loc 1 741 0
 2407 00e6 0023     		movs	r3, #0
 2408 00e8 23E0     		b	.L92
 2409              	.L89:
 742:main.c        ****     }
 743:main.c        ****     
 744:main.c        ****     // 3. 等待测量稳定（安培法需要 500ms）
 745:main.c        ****     CyDelay(500);
 2410              		.loc 1 745 0
 2411 00ea FA23     		movs	r3, #250
 2412 00ec 5B00     		lsls	r3, r3, #1
 2413 00ee 1800     		movs	r0, r3
 2414 00f0 FFF7FEFF 		bl	CyDelay
 746:main.c        ****     
 747:main.c        ****     // 4. 读取 FIFO 数据
 748:main.c        ****     error = AppAMPISR(&ampResult, &dataCount);
 2415              		.loc 1 748 0
 2416 00f4 0823     		movs	r3, #8
 2417 00f6 FA18     		adds	r2, r7, r3
 2418 00f8 134B     		ldr	r3, .L93+12
 2419 00fa 1100     		movs	r1, r2
 2420 00fc 1800     		movs	r0, r3
 2421 00fe FFF7FEFF 		bl	AppAMPISR
 2422 0102 0300     		movs	r3, r0
 2423 0104 3B61     		str	r3, [r7, #16]
 749:main.c        ****     
 750:main.c        ****     if(error == AD5940ERR_OK && dataCount > 0)
 2424              		.loc 1 750 0
 2425 0106 3B69     		ldr	r3, [r7, #16]
 2426 0108 002B     		cmp	r3, #0
 2427 010a 0BD1     		bne	.L90
 2428              		.loc 1 750 0 is_stmt 0 discriminator 1
 2429 010c BB68     		ldr	r3, [r7, #8]
 2430 010e 002B     		cmp	r3, #0
 2431 0110 08D0     		beq	.L90
 751:main.c        ****     {
 752:main.c        ****         // 5. 从结果中提取电流值
 753:main.c        ****         current_nA = ampResult.Current * 1e9;  // 转换为 nA
 2432              		.loc 1 753 0 is_stmt 1
 2433 0112 0D4B     		ldr	r3, .L93+12
 2434 0114 1B68     		ldr	r3, [r3]
 2435 0116 0B49     		ldr	r1, .L93+8
 2436 0118 181C     		adds	r0, r3, #0
 2437 011a FFF7FEFF 		bl	__aeabi_fmul
 2438 011e 031C     		adds	r3, r0, #0
 2439 0120 7B61     		str	r3, [r7, #20]
 2440 0122 01E0     		b	.L91
 2441              	.L90:
 754:main.c        ****         
 755:main.c        ****     }
ARM GAS  C:\Users\13740\AppData\Local\Temp\cc1Gy8Oo.s 			page 68


 756:main.c        ****     else
 757:main.c        ****     {
 758:main.c        ****         current_nA = 0;
 2442              		.loc 1 758 0
 2443 0124 0023     		movs	r3, #0
 2444 0126 7B61     		str	r3, [r7, #20]
 2445              	.L91:
 759:main.c        ****     }
 760:main.c        ****     
 761:main.c        ****     // 6. 停止测量
 762:main.c        ****     AppAMPCtrl(AMPCTRL_STOPNOW, NULL);
 2446              		.loc 1 762 0
 2447 0128 0021     		movs	r1, #0
 2448 012a 0120     		movs	r0, #1
 2449 012c FFF7FEFF 		bl	AppAMPCtrl
 763:main.c        ****     
 764:main.c        ****     return current_nA;
 2450              		.loc 1 764 0
 2451 0130 7B69     		ldr	r3, [r7, #20]
 2452              	.L92:
 765:main.c        **** }
 2453              		.loc 1 765 0 discriminator 1
 2454 0132 181C     		adds	r0, r3, #0
 2455 0134 BD46     		mov	sp, r7
 2456 0136 06B0     		add	sp, sp, #24
 2457              		@ sp needed
 2458 0138 80BD     		pop	{r7, pc}
 2459              	.L94:
 2460 013a C046     		.align	2
 2461              	.L93:
 2462 013c 00000000 		.word	pAmpCfg
 2463 0140 2C000000 		.word	ampFifoBuffer.9604
 2464 0144 286B6E4E 		.word	1315859240
 2465 0148 00000000 		.word	ampResult
 2466              		.cfi_endproc
 2467              	.LFE45:
 2468              		.size	ReadCurrentFromAD5940, .-ReadCurrentFromAD5940
 2469              		.global	__aeabi_idivmod
 2470              		.global	__aeabi_i2d
 2471              		.global	__aeabi_dadd
 2472              		.section	.text.ReadCurrentFromSourceMeter_Simulated,"ax",%progbits
 2473              		.align	2
 2474              		.global	ReadCurrentFromSourceMeter_Simulated
 2475              		.code	16
 2476              		.thumb_func
 2477              		.type	ReadCurrentFromSourceMeter_Simulated, %function
 2478              	ReadCurrentFromSourceMeter_Simulated:
 2479              	.LFB46:
 766:main.c        **** 
 767:main.c        **** /*******************************************************************************
 768:main.c        **** * Function Name: ReadCurrentFromSourceMeter_Simulated
 769:main.c        **** ********************************************************************************
 770:main.c        **** * Summary:
 771:main.c        **** *   模拟从源表读取电流值（用于测试）
 772:main.c        **** *   实际使用时替换为真实的源表读取代码
 773:main.c        **** *
 774:main.c        **** * Return:
ARM GAS  C:\Users\13740\AppData\Local\Temp\cc1Gy8Oo.s 			page 69


 775:main.c        **** *   float: 电流值（单位：nA）
 776:main.c        **** *******************************************************************************/
 777:main.c        **** float ReadCurrentFromSourceMeter_Simulated(AmperometricSensor_t sensorType)
 778:main.c        **** {
 2480              		.loc 1 778 0
 2481              		.cfi_startproc
 2482              		@ args = 0, pretend = 0, frame = 16
 2483              		@ frame_needed = 1, uses_anonymous_args = 0
 2484 0000 90B5     		push	{r4, r7, lr}
 2485              		.cfi_def_cfa_offset 12
 2486              		.cfi_offset 4, -12
 2487              		.cfi_offset 7, -8
 2488              		.cfi_offset 14, -4
 2489 0002 85B0     		sub	sp, sp, #20
 2490              		.cfi_def_cfa_offset 32
 2491 0004 00AF     		add	r7, sp, #0
 2492              		.cfi_def_cfa_register 7
 2493 0006 0200     		movs	r2, r0
 2494 0008 FB1D     		adds	r3, r7, #7
 2495 000a 1A70     		strb	r2, [r3]
 779:main.c        ****     float current_nA = 0;
 2496              		.loc 1 779 0
 2497 000c 0023     		movs	r3, #0
 2498 000e FB60     		str	r3, [r7, #12]
 780:main.c        ****     
 781:main.c        ****     // 模拟不同传感器的典型电流响应
 782:main.c        ****     switch(sensorType)
 2499              		.loc 1 782 0
 2500 0010 FB1D     		adds	r3, r7, #7
 2501 0012 1B78     		ldrb	r3, [r3]
 2502 0014 012B     		cmp	r3, #1
 2503 0016 1CD0     		beq	.L97
 2504 0018 022B     		cmp	r3, #2
 2505 001a 33D0     		beq	.L98
 2506 001c 002B     		cmp	r3, #0
 2507 001e 4AD1     		bne	.L102
 2508              	.LBB4:
 783:main.c        ****     {
 784:main.c        ****         case SENSOR_GLUCOSE:
 785:main.c        ****             // 5 mM 葡萄糖 → 约 80 nA（根据论文校准系数 16.34 nA/mM）
 786:main.c        ****             current_nA = 85.0 + (rand() % 10 - 5);  // 80-90 nA
 2509              		.loc 1 786 0
 2510 0020 FFF7FEFF 		bl	rand
 2511 0024 0300     		movs	r3, r0
 2512 0026 0A21     		movs	r1, #10
 2513 0028 1800     		movs	r0, r3
 2514 002a FFF7FEFF 		bl	__aeabi_idivmod
 2515 002e 0B00     		movs	r3, r1
 2516 0030 053B     		subs	r3, r3, #5
 2517 0032 1800     		movs	r0, r3
 2518 0034 FFF7FEFF 		bl	__aeabi_i2d
 2519 0038 0022     		movs	r2, #0
 2520 003a 234B     		ldr	r3, .L103
 2521 003c FFF7FEFF 		bl	__aeabi_dadd
 2522 0040 0300     		movs	r3, r0
 2523 0042 0C00     		movs	r4, r1
 2524 0044 1800     		movs	r0, r3
ARM GAS  C:\Users\13740\AppData\Local\Temp\cc1Gy8Oo.s 			page 70


 2525 0046 2100     		movs	r1, r4
 2526 0048 FFF7FEFF 		bl	__aeabi_d2f
 2527 004c 031C     		adds	r3, r0, #0
 2528 004e FB60     		str	r3, [r7, #12]
 787:main.c        ****             break;
 2529              		.loc 1 787 0
 2530 0050 34E0     		b	.L100
 2531              	.L97:
 788:main.c        ****             
 789:main.c        ****         case SENSOR_LACTATE:
 790:main.c        ****             // 2 mM 乳酸 → 约 100 nA（根据论文校准系数 41.44 nA/mM）
 791:main.c        ****             current_nA = 100.0 + (rand() % 10 - 5);  // 95-105 nA
 2532              		.loc 1 791 0
 2533 0052 FFF7FEFF 		bl	rand
 2534 0056 0300     		movs	r3, r0
 2535 0058 0A21     		movs	r1, #10
 2536 005a 1800     		movs	r0, r3
 2537 005c FFF7FEFF 		bl	__aeabi_idivmod
 2538 0060 0B00     		movs	r3, r1
 2539 0062 053B     		subs	r3, r3, #5
 2540 0064 1800     		movs	r0, r3
 2541 0066 FFF7FEFF 		bl	__aeabi_i2d
 2542 006a 0022     		movs	r2, #0
 2543 006c 174B     		ldr	r3, .L103+4
 2544 006e FFF7FEFF 		bl	__aeabi_dadd
 2545 0072 0300     		movs	r3, r0
 2546 0074 0C00     		movs	r4, r1
 2547 0076 1800     		movs	r0, r3
 2548 0078 2100     		movs	r1, r4
 2549 007a FFF7FEFF 		bl	__aeabi_d2f
 2550 007e 031C     		adds	r3, r0, #0
 2551 0080 FB60     		str	r3, [r7, #12]
 792:main.c        ****             break;
 2552              		.loc 1 792 0
 2553 0082 1BE0     		b	.L100
 2554              	.L98:
 793:main.c        ****             
 794:main.c        ****         case SENSOR_URIC_ACID:
 795:main.c        ****             // 300 μM 尿酸 → 约 57000 nA（根据论文校准系数 189.60 nA/μM）
 796:main.c        ****             //current_nA = 57000.0 + (rand() % 100 - 50);
 797:main.c        ****             current_nA = 570.0 + (rand() % 100 - 50);
 2555              		.loc 1 797 0
 2556 0084 FFF7FEFF 		bl	rand
 2557 0088 0300     		movs	r3, r0
 2558 008a 6421     		movs	r1, #100
 2559 008c 1800     		movs	r0, r3
 2560 008e FFF7FEFF 		bl	__aeabi_idivmod
 2561 0092 0B00     		movs	r3, r1
 2562 0094 323B     		subs	r3, r3, #50
 2563 0096 1800     		movs	r0, r3
 2564 0098 FFF7FEFF 		bl	__aeabi_i2d
 2565 009c 0022     		movs	r2, #0
 2566 009e 0C4B     		ldr	r3, .L103+8
 2567 00a0 FFF7FEFF 		bl	__aeabi_dadd
 2568 00a4 0300     		movs	r3, r0
 2569 00a6 0C00     		movs	r4, r1
 2570 00a8 1800     		movs	r0, r3
ARM GAS  C:\Users\13740\AppData\Local\Temp\cc1Gy8Oo.s 			page 71


 2571 00aa 2100     		movs	r1, r4
 2572 00ac FFF7FEFF 		bl	__aeabi_d2f
 2573 00b0 031C     		adds	r3, r0, #0
 2574 00b2 FB60     		str	r3, [r7, #12]
 798:main.c        ****             break;
 2575              		.loc 1 798 0
 2576 00b4 02E0     		b	.L100
 2577              	.L102:
 799:main.c        ****             
 800:main.c        ****         default:
 801:main.c        ****             current_nA = 0;
 2578              		.loc 1 801 0
 2579 00b6 0023     		movs	r3, #0
 2580 00b8 FB60     		str	r3, [r7, #12]
 802:main.c        ****             break;
 2581              		.loc 1 802 0
 2582 00ba C046     		nop
 2583              	.L100:
 2584              	.LBE4:
 803:main.c        ****     }
 804:main.c        ****     
 805:main.c        **** 
 806:main.c        ****     
 807:main.c        ****     return current_nA;
 2585              		.loc 1 807 0
 2586 00bc FB68     		ldr	r3, [r7, #12]
 808:main.c        **** }
 2587              		.loc 1 808 0
 2588 00be 181C     		adds	r0, r3, #0
 2589 00c0 BD46     		mov	sp, r7
 2590 00c2 05B0     		add	sp, sp, #20
 2591              		@ sp needed
 2592 00c4 90BD     		pop	{r4, r7, pc}
 2593              	.L104:
 2594 00c6 C046     		.align	2
 2595              	.L103:
 2596 00c8 00405540 		.word	1079328768
 2597 00cc 00005940 		.word	1079574528
 2598 00d0 00D08140 		.word	1082249216
 2599              		.cfi_endproc
 2600              	.LFE46:
 2601              		.size	ReadCurrentFromSourceMeter_Simulated, .-ReadCurrentFromSourceMeter_Simulated
 2602              		.global	__aeabi_dsub
 2603              		.global	__aeabi_dmul
 2604              		.section	.text.MeasureAllSensorsWithCurrent,"ax",%progbits
 2605              		.align	2
 2606              		.global	MeasureAllSensorsWithCurrent
 2607              		.code	16
 2608              		.thumb_func
 2609              		.type	MeasureAllSensorsWithCurrent, %function
 2610              	MeasureAllSensorsWithCurrent:
 2611              	.LFB47:
 809:main.c        **** 
 810:main.c        **** /*******************************************************************************
 811:main.c        **** * Function Name: MeasureAllSensorsWithCurrent
 812:main.c        **** ********************************************************************************
 813:main.c        **** * Summary:
ARM GAS  C:\Users\13740\AppData\Local\Temp\cc1Gy8Oo.s 			page 72


 814:main.c        **** *   测量所有传感器 - 包含实际电流值
 815:main.c        **** *******************************************************************************/
 816:main.c        **** void MeasureAllSensorsWithCurrent(void)
 817:main.c        **** {
 2612              		.loc 1 817 0
 2613              		.cfi_startproc
 2614              		@ args = 0, pretend = 0, frame = 8
 2615              		@ frame_needed = 1, uses_anonymous_args = 0
 2616 0000 90B5     		push	{r4, r7, lr}
 2617              		.cfi_def_cfa_offset 12
 2618              		.cfi_offset 4, -12
 2619              		.cfi_offset 7, -8
 2620              		.cfi_offset 14, -4
 2621 0002 83B0     		sub	sp, sp, #12
 2622              		.cfi_def_cfa_offset 24
 2623 0004 00AF     		add	r7, sp, #0
 2624              		.cfi_def_cfa_register 7
 818:main.c        ****  
 819:main.c        ****     // 1. 温度测量
 820:main.c        ****     sensorData.temperature = MeasureTemperature();
 2625              		.loc 1 820 0
 2626 0006 FFF7FEFF 		bl	MeasureTemperature
 2627 000a 021C     		adds	r2, r0, #0
 2628 000c 3A4B     		ldr	r3, .L106
 2629 000e 1A60     		str	r2, [r3]
 821:main.c        ****     
 822:main.c        ****     // 2. 葡萄糖测量
 823:main.c        **** 
 824:main.c        ****     
 825:main.c        ****     // 方法 A: 使用 AD5940 读取（推荐）
 826:main.c        ****    sensorData.current_glucose_nA = ReadCurrentFromAD5940(SENSOR_GLUCOSE);
 2630              		.loc 1 826 0
 2631 0010 0020     		movs	r0, #0
 2632 0012 FFF7FEFF 		bl	ReadCurrentFromAD5940
 2633 0016 021C     		adds	r2, r0, #0
 2634 0018 374B     		ldr	r3, .L106
 2635 001a 5A61     		str	r2, [r3, #20]
 827:main.c        ****     
 828:main.c        ****     // 方法 B: 使用模拟值测试（测试用）
 829:main.c        ****     //sensorData.current_glucose_nA = ReadCurrentFromSourceMeter_Simulated(SENSOR_GLUCOSE);
 830:main.c        ****     
 831:main.c        ****     // 转换为浓度
 832:main.c        ****     sensorData.glucose = ConvertCurrentToConcentration(sensorData.current_glucose_nA, SENSOR_GLUCOS
 2636              		.loc 1 832 0
 2637 001c 364B     		ldr	r3, .L106
 2638 001e 5B69     		ldr	r3, [r3, #20]
 2639 0020 0021     		movs	r1, #0
 2640 0022 181C     		adds	r0, r3, #0
 2641 0024 FFF7FEFF 		bl	ConvertCurrentToConcentration
 2642 0028 021C     		adds	r2, r0, #0
 2643 002a 334B     		ldr	r3, .L106
 2644 002c 5A60     		str	r2, [r3, #4]
 833:main.c        ****     
 834:main.c        ****     
 835:main.c        ****     // 3. 乳酸测量
 836:main.c        **** 
 837:main.c        ****      sensorData.current_lactate_nA = ReadCurrentFromAD5940(SENSOR_LACTATE); 
ARM GAS  C:\Users\13740\AppData\Local\Temp\cc1Gy8Oo.s 			page 73


 2645              		.loc 1 837 0
 2646 002e 0120     		movs	r0, #1
 2647 0030 FFF7FEFF 		bl	ReadCurrentFromAD5940
 2648 0034 021C     		adds	r2, r0, #0
 2649 0036 304B     		ldr	r3, .L106
 2650 0038 9A61     		str	r2, [r3, #24]
 838:main.c        ****     //sensorData.current_lactate_nA = ReadCurrentFromSourceMeter_Simulated(SENSOR_LACTATE);
 839:main.c        ****     sensorData.lactate = ConvertCurrentToConcentration(sensorData.current_lactate_nA, SENSOR_LACTAT
 2651              		.loc 1 839 0
 2652 003a 2F4B     		ldr	r3, .L106
 2653 003c 9B69     		ldr	r3, [r3, #24]
 2654 003e 0121     		movs	r1, #1
 2655 0040 181C     		adds	r0, r3, #0
 2656 0042 FFF7FEFF 		bl	ConvertCurrentToConcentration
 2657 0046 021C     		adds	r2, r0, #0
 2658 0048 2B4B     		ldr	r3, .L106
 2659 004a 9A60     		str	r2, [r3, #8]
 840:main.c        ****     
 841:main.c        ****     // 4. 尿酸测量
 842:main.c        **** 
 843:main.c        ****     sensorData.current_uric_nA = ReadCurrentFromAD5940(SENSOR_URIC_ACID);
 2660              		.loc 1 843 0
 2661 004c 0220     		movs	r0, #2
 2662 004e FFF7FEFF 		bl	ReadCurrentFromAD5940
 2663 0052 021C     		adds	r2, r0, #0
 2664 0054 284B     		ldr	r3, .L106
 2665 0056 DA61     		str	r2, [r3, #28]
 844:main.c        ****     //sensorData.uric_acid = ConvertCurrentToConcentration(sensorData.current_uric_nA,SENSOR_URIC_A
 845:main.c        ****     // [修改] 切换为模拟数据
 846:main.c        ****     // sensorData.current_uric_acid_nA = ReadCurrentFromAD5940(SENSOR_URIC_ACID);
 847:main.c        ****     //sensorData.current_uric_nA = ReadCurrentFromSourceMeter_Simulated(SENSOR_URIC_ACID); 
 848:main.c        ****     // [增加] 电流换算到浓度
 849:main.c        ****     sensorData.uric_acid = ConvertCurrentToConcentration(sensorData.current_uric_nA, SENSOR_URIC_AC
 2666              		.loc 1 849 0
 2667 0058 274B     		ldr	r3, .L106
 2668 005a DB69     		ldr	r3, [r3, #28]
 2669 005c 0221     		movs	r1, #2
 2670 005e 181C     		adds	r0, r3, #0
 2671 0060 FFF7FEFF 		bl	ConvertCurrentToConcentration
 2672 0064 021C     		adds	r2, r0, #0
 2673 0066 244B     		ldr	r3, .L106
 2674 0068 DA60     		str	r2, [r3, #12]
 850:main.c        **** 
 851:main.c        ****     
 852:main.c        **** 
 853:main.c        ****     
 854:main.c        ****     // 6. 温度校准
 855:main.c        ****     float temp_factor = 1.0 + 0.03 * (sensorData.temperature - 37.0);
 2675              		.loc 1 855 0
 2676 006a 234B     		ldr	r3, .L106
 2677 006c 1B68     		ldr	r3, [r3]
 2678 006e 181C     		adds	r0, r3, #0
 2679 0070 FFF7FEFF 		bl	__aeabi_f2d
 2680 0074 0022     		movs	r2, #0
 2681 0076 214B     		ldr	r3, .L106+4
 2682 0078 FFF7FEFF 		bl	__aeabi_dsub
 2683 007c 0300     		movs	r3, r0
ARM GAS  C:\Users\13740\AppData\Local\Temp\cc1Gy8Oo.s 			page 74


 2684 007e 0C00     		movs	r4, r1
 2685 0080 1800     		movs	r0, r3
 2686 0082 2100     		movs	r1, r4
 2687 0084 1E4A     		ldr	r2, .L106+8
 2688 0086 1F4B     		ldr	r3, .L106+12
 2689 0088 FFF7FEFF 		bl	__aeabi_dmul
 2690 008c 0300     		movs	r3, r0
 2691 008e 0C00     		movs	r4, r1
 2692 0090 1800     		movs	r0, r3
 2693 0092 2100     		movs	r1, r4
 2694 0094 0022     		movs	r2, #0
 2695 0096 1C4B     		ldr	r3, .L106+16
 2696 0098 FFF7FEFF 		bl	__aeabi_dadd
 2697 009c 0300     		movs	r3, r0
 2698 009e 0C00     		movs	r4, r1
 2699 00a0 1800     		movs	r0, r3
 2700 00a2 2100     		movs	r1, r4
 2701 00a4 FFF7FEFF 		bl	__aeabi_d2f
 2702 00a8 031C     		adds	r3, r0, #0
 2703 00aa 7B60     		str	r3, [r7, #4]
 856:main.c        ****     sensorData.glucose *= temp_factor;
 2704              		.loc 1 856 0
 2705 00ac 124B     		ldr	r3, .L106
 2706 00ae 5B68     		ldr	r3, [r3, #4]
 2707 00b0 7968     		ldr	r1, [r7, #4]
 2708 00b2 181C     		adds	r0, r3, #0
 2709 00b4 FFF7FEFF 		bl	__aeabi_fmul
 2710 00b8 031C     		adds	r3, r0, #0
 2711 00ba 1A1C     		adds	r2, r3, #0
 2712 00bc 0E4B     		ldr	r3, .L106
 2713 00be 5A60     		str	r2, [r3, #4]
 857:main.c        ****     sensorData.lactate *= temp_factor;
 2714              		.loc 1 857 0
 2715 00c0 0D4B     		ldr	r3, .L106
 2716 00c2 9B68     		ldr	r3, [r3, #8]
 2717 00c4 7968     		ldr	r1, [r7, #4]
 2718 00c6 181C     		adds	r0, r3, #0
 2719 00c8 FFF7FEFF 		bl	__aeabi_fmul
 2720 00cc 031C     		adds	r3, r0, #0
 2721 00ce 1A1C     		adds	r2, r3, #0
 2722 00d0 094B     		ldr	r3, .L106
 2723 00d2 9A60     		str	r2, [r3, #8]
 858:main.c        ****     sensorData.uric_acid *= temp_factor;
 2724              		.loc 1 858 0
 2725 00d4 084B     		ldr	r3, .L106
 2726 00d6 DB68     		ldr	r3, [r3, #12]
 2727 00d8 7968     		ldr	r1, [r7, #4]
 2728 00da 181C     		adds	r0, r3, #0
 2729 00dc FFF7FEFF 		bl	__aeabi_fmul
 2730 00e0 031C     		adds	r3, r0, #0
 2731 00e2 1A1C     		adds	r2, r3, #0
 2732 00e4 044B     		ldr	r3, .L106
 2733 00e6 DA60     		str	r2, [r3, #12]
 859:main.c        ****     
 860:main.c        ****     sensorData.timestamp = mainTimer;
 2734              		.loc 1 860 0
 2735 00e8 084B     		ldr	r3, .L106+20
ARM GAS  C:\Users\13740\AppData\Local\Temp\cc1Gy8Oo.s 			page 75


 2736 00ea 1A68     		ldr	r2, [r3]
 2737 00ec 024B     		ldr	r3, .L106
 2738 00ee 1A61     		str	r2, [r3, #16]
 861:main.c        ****     
 862:main.c        **** }
 2739              		.loc 1 862 0
 2740 00f0 C046     		nop
 2741 00f2 BD46     		mov	sp, r7
 2742 00f4 03B0     		add	sp, sp, #12
 2743              		@ sp needed
 2744 00f6 90BD     		pop	{r4, r7, pc}
 2745              	.L107:
 2746              		.align	2
 2747              	.L106:
 2748 00f8 00000000 		.word	sensorData
 2749 00fc 00804240 		.word	1078099968
 2750 0100 B81E85EB 		.word	-343597384
 2751 0104 51B89E3F 		.word	1067366481
 2752 0108 0000F03F 		.word	1072693248
 2753 010c 00000000 		.word	mainTimer
 2754              		.cfi_endproc
 2755              	.LFE47:
 2756              		.size	MeasureAllSensorsWithCurrent, .-MeasureAllSensorsWithCurrent
 2757              		.section	.text.ControlDrugRelease,"ax",%progbits
 2758              		.align	2
 2759              		.global	ControlDrugRelease
 2760              		.code	16
 2761              		.thumb_func
 2762              		.type	ControlDrugRelease, %function
 2763              	ControlDrugRelease:
 2764              	.LFB48:
 863:main.c        **** 
 864:main.c        **** 
 865:main.c        **** /*******************************************************************************
 866:main.c        **** * Function Name: ControlDrugRelease
 867:main.c        **** ********************************************************************************
 868:main.c        **** * Summary:
 869:main.c        **** *   控制药物释放（电控水凝胶）
 870:main.c        **** *******************************************************************************/
 871:main.c        **** void ControlDrugRelease(uint8 enable)
 872:main.c        **** {
 2765              		.loc 1 872 0
 2766              		.cfi_startproc
 2767              		@ args = 0, pretend = 0, frame = 8
 2768              		@ frame_needed = 1, uses_anonymous_args = 0
 2769 0000 80B5     		push	{r7, lr}
 2770              		.cfi_def_cfa_offset 8
 2771              		.cfi_offset 7, -8
 2772              		.cfi_offset 14, -4
 2773 0002 82B0     		sub	sp, sp, #8
 2774              		.cfi_def_cfa_offset 16
 2775 0004 00AF     		add	r7, sp, #0
 2776              		.cfi_def_cfa_register 7
 2777 0006 0200     		movs	r2, r0
 2778 0008 FB1D     		adds	r3, r7, #7
 2779 000a 1A70     		strb	r2, [r3]
 873:main.c        ****     if(enable)
ARM GAS  C:\Users\13740\AppData\Local\Temp\cc1Gy8Oo.s 			page 76


 2780              		.loc 1 873 0
 2781 000c FB1D     		adds	r3, r7, #7
 2782 000e 1B78     		ldrb	r3, [r3]
 2783 0010 002B     		cmp	r3, #0
 2784 0012 03D0     		beq	.L109
 874:main.c        ****     {
 875:main.c        ****         DRUG_EN_1_Write(1);
 2785              		.loc 1 875 0
 2786 0014 0120     		movs	r0, #1
 2787 0016 FFF7FEFF 		bl	DRUG_EN_1_Write
 876:main.c        ****     }
 877:main.c        ****     else
 878:main.c        ****     {
 879:main.c        ****         DRUG_EN_1_Write(0);
 880:main.c        ****     }
 881:main.c        **** }
 2788              		.loc 1 881 0
 2789 001a 02E0     		b	.L111
 2790              	.L109:
 879:main.c        ****     }
 2791              		.loc 1 879 0
 2792 001c 0020     		movs	r0, #0
 2793 001e FFF7FEFF 		bl	DRUG_EN_1_Write
 2794              	.L111:
 2795              		.loc 1 881 0
 2796 0022 C046     		nop
 2797 0024 BD46     		mov	sp, r7
 2798 0026 02B0     		add	sp, sp, #8
 2799              		@ sp needed
 2800 0028 80BD     		pop	{r7, pc}
 2801              		.cfi_endproc
 2802              	.LFE48:
 2803              		.size	ControlDrugRelease, .-ControlDrugRelease
 2804 002a C046     		.section	.text.ControlElectricalStimulation,"ax",%progbits
 2805              		.align	2
 2806              		.global	ControlElectricalStimulation
 2807              		.code	16
 2808              		.thumb_func
 2809              		.type	ControlElectricalStimulation, %function
 2810              	ControlElectricalStimulation:
 2811              	.LFB49:
 882:main.c        **** 
 883:main.c        **** /*******************************************************************************
 884:main.c        **** * Function Name: ControlElectricalStimulation
 885:main.c        **** ********************************************************************************
 886:main.c        **** * Summary:
 887:main.c        **** *   控制电刺激治疗
 888:main.c        **** *******************************************************************************/
 889:main.c        **** void ControlElectricalStimulation(uint8 enable)
 890:main.c        **** {
 2812              		.loc 1 890 0
 2813              		.cfi_startproc
 2814              		@ args = 0, pretend = 0, frame = 8
 2815              		@ frame_needed = 1, uses_anonymous_args = 0
 2816 0000 80B5     		push	{r7, lr}
 2817              		.cfi_def_cfa_offset 8
 2818              		.cfi_offset 7, -8
ARM GAS  C:\Users\13740\AppData\Local\Temp\cc1Gy8Oo.s 			page 77


 2819              		.cfi_offset 14, -4
 2820 0002 82B0     		sub	sp, sp, #8
 2821              		.cfi_def_cfa_offset 16
 2822 0004 00AF     		add	r7, sp, #0
 2823              		.cfi_def_cfa_register 7
 2824 0006 0200     		movs	r2, r0
 2825 0008 FB1D     		adds	r3, r7, #7
 2826 000a 1A70     		strb	r2, [r3]
 891:main.c        ****     if(enable)
 2827              		.loc 1 891 0
 2828 000c FB1D     		adds	r3, r7, #7
 2829 000e 1B78     		ldrb	r3, [r3]
 2830 0010 002B     		cmp	r3, #0
 2831 0012 03D0     		beq	.L113
 892:main.c        ****     {
 893:main.c        ****         STIM_EN_A_Write(1);
 2832              		.loc 1 893 0
 2833 0014 0120     		movs	r0, #1
 2834 0016 FFF7FEFF 		bl	STIM_EN_A_Write
 894:main.c        ****     }
 895:main.c        ****     else
 896:main.c        ****     {
 897:main.c        ****         STIM_EN_A_Write(0);
 898:main.c        ****     }
 899:main.c        **** }
 2835              		.loc 1 899 0
 2836 001a 02E0     		b	.L115
 2837              	.L113:
 897:main.c        ****     }
 2838              		.loc 1 897 0
 2839 001c 0020     		movs	r0, #0
 2840 001e FFF7FEFF 		bl	STIM_EN_A_Write
 2841              	.L115:
 2842              		.loc 1 899 0
 2843 0022 C046     		nop
 2844 0024 BD46     		mov	sp, r7
 2845 0026 02B0     		add	sp, sp, #8
 2846              		@ sp needed
 2847 0028 80BD     		pop	{r7, pc}
 2848              		.cfi_endproc
 2849              	.LFE49:
 2850              		.size	ControlElectricalStimulation, .-ControlElectricalStimulation
 2851 002a C046     		.section	.rodata
 2852              		.align	2
 2853              	.LC223:
 2854 135c 5241573A 		.ascii	"RAW:%02X%02X%02X%02X%02X%02X\000"
 2854      25303258 
 2854      25303258 
 2854      25303258 
 2854      25303258 
 2855              		.section	.text.SendGlucoseDataViaBLE,"ax",%progbits
 2856              		.align	2
 2857              		.global	SendGlucoseDataViaBLE
 2858              		.code	16
 2859              		.thumb_func
 2860              		.type	SendGlucoseDataViaBLE, %function
 2861              	SendGlucoseDataViaBLE:
ARM GAS  C:\Users\13740\AppData\Local\Temp\cc1Gy8Oo.s 			page 78


 2862              	.LFB50:
 900:main.c        **** 
 901:main.c        **** /*******************************************************************************
 902:main.c        **** * Function Name: SendCurrentDataViaBLE
 903:main.c        **** ********************************************************************************
 904:main.c        **** * Summary:
 905:main.c        **** *   发送电流值到 BLE（显示在手机 App 上）
 906:main.c        **** *******************************************************************************/
 907:main.c        **** 
 908:main.c        **** /*
 909:main.c        **** 
 910:main.c        **** // 发送葡萄糖数据（浓度 + 电流）
 911:main.c        **** void SendGlucoseDataViaBLE(void)
 912:main.c        **** {
 913:main.c        ****     CYBLE_GATTS_HANDLE_VALUE_NTF_T notificationHandle;
 914:main.c        ****     static char dataString[30];
 915:main.c        ****     
 916:main.c        ****     if(CyBle_GetState() == CYBLE_STATE_CONNECTED)
 917:main.c        ****     {
 918:main.c        ****         sprintf(dataString, "%.2f mM (%.1f nA)", 
 919:main.c        ****                 sensorData.glucose, 
 920:main.c        ****                 sensorData.current_glucose_nA);
 921:main.c        ****         
 922:main.c        ****         notificationHandle.attrHandle = CYBLE_CUSTOM_SERVICE_GLUCOSE_MEASUREMENT_CHAR_HANDLE;
 923:main.c        ****         notificationHandle.value.val = (uint8*)dataString;
 924:main.c        ****         notificationHandle.value.len = strlen(dataString);
 925:main.c        ****         
 926:main.c        ****         if(CyBle_GattsNotification(cyBle_connHandle, &notificationHandle) == CYBLE_ERROR_OK)
 927:main.c        ****         {
 928:main.c        ****         }
 929:main.c        ****     }
 930:main.c        **** }
 931:main.c        **** 
 932:main.c        **** */
 933:main.c        **** 
 934:main.c        **** // 纯净版：不再需要手动翻转CS，因为底层 AD5940_SPIReadReg 已经修复了
 935:main.c        **** // 引用 ad5940.c 里的那个全局变量
 936:main.c        **** extern uint8_t g_SPI_Debug_Buf[8];
 937:main.c        **** 
 938:main.c        **** void SendGlucoseDataViaBLE(void)
 939:main.c        **** {
 2863              		.loc 1 939 0
 2864              		.cfi_startproc
 2865              		@ args = 0, pretend = 0, frame = 24
 2866              		@ frame_needed = 1, uses_anonymous_args = 0
 2867 0000 F0B5     		push	{r4, r5, r6, r7, lr}
 2868              		.cfi_def_cfa_offset 20
 2869              		.cfi_offset 4, -20
 2870              		.cfi_offset 5, -16
 2871              		.cfi_offset 6, -12
 2872              		.cfi_offset 7, -8
 2873              		.cfi_offset 14, -4
 2874 0002 8BB0     		sub	sp, sp, #44
 2875              		.cfi_def_cfa_offset 64
 2876 0004 04AF     		add	r7, sp, #16
 2877              		.cfi_def_cfa 7, 48
 940:main.c        ****     CYBLE_GATTS_HANDLE_VALUE_NTF_T notificationHandle;
ARM GAS  C:\Users\13740\AppData\Local\Temp\cc1Gy8Oo.s 			page 79


 941:main.c        ****     static char dataString[50];
 942:main.c        ****     
 943:main.c        ****     if(CyBle_GetState() == CYBLE_STATE_CONNECTED)
 2878              		.loc 1 943 0
 2879 0006 3C4B     		ldr	r3, .L121
 2880 0008 1B78     		ldrb	r3, [r3]
 2881 000a 022B     		cmp	r3, #2
 2882 000c 6FD1     		bne	.L120
 944:main.c        ****     {
 945:main.c        ****         // 触发一次读取操作 (读取 CHIPID 0x0404)
 946:main.c        ****         AD5940_RST_Write(1); CyDelay(10);
 2883              		.loc 1 946 0
 2884 000e 0120     		movs	r0, #1
 2885 0010 FFF7FEFF 		bl	AD5940_RST_Write
 2886 0014 0A20     		movs	r0, #10
 2887 0016 FFF7FEFF 		bl	CyDelay
 947:main.c        ****         AD5940_RST_Write(0); CyDelay(50);  // 拉低复位线
 2888              		.loc 1 947 0
 2889 001a 0020     		movs	r0, #0
 2890 001c FFF7FEFF 		bl	AD5940_RST_Write
 2891 0020 3220     		movs	r0, #50
 2892 0022 FFF7FEFF 		bl	CyDelay
 948:main.c        ****         AD5940_RST_Write(1); CyDelay(100); // 拉高并等待芯片加载固件
 2893              		.loc 1 948 0
 2894 0026 0120     		movs	r0, #1
 2895 0028 FFF7FEFF 		bl	AD5940_RST_Write
 2896 002c 6420     		movs	r0, #100
 2897 002e FFF7FEFF 		bl	CyDelay
 949:main.c        ****         
 950:main.c        ****         // --- 清除 SPILOCK 的骚操作 ---
 951:main.c        ****         // 有时候芯片上电会数错时钟，我们手动给它 8 个空时钟
 952:main.c        ****         AD5940_CS_Write(0);
 2898              		.loc 1 952 0
 2899 0032 0020     		movs	r0, #0
 2900 0034 FFF7FEFF 		bl	AD5940_CS_Write
 2901              	.LBB5:
 953:main.c        ****         for(int i=0; i<16; i++) { AD5940_SCLK_Write(1); CyDelayUs(2); AD5940_SCLK_Write(0); CyDelay
 2902              		.loc 1 953 0
 2903 0038 0023     		movs	r3, #0
 2904 003a 7B61     		str	r3, [r7, #20]
 2905 003c 0EE0     		b	.L118
 2906              	.L119:
 2907              		.loc 1 953 0 is_stmt 0 discriminator 3
 2908 003e 0120     		movs	r0, #1
 2909 0040 FFF7FEFF 		bl	AD5940_SCLK_Write
 2910 0044 0220     		movs	r0, #2
 2911 0046 FFF7FEFF 		bl	CyDelayUs
 2912 004a 0020     		movs	r0, #0
 2913 004c FFF7FEFF 		bl	AD5940_SCLK_Write
 2914 0050 0220     		movs	r0, #2
 2915 0052 FFF7FEFF 		bl	CyDelayUs
 2916 0056 7B69     		ldr	r3, [r7, #20]
 2917 0058 0133     		adds	r3, r3, #1
 2918 005a 7B61     		str	r3, [r7, #20]
 2919              	.L118:
 2920              		.loc 1 953 0 discriminator 1
 2921 005c 7B69     		ldr	r3, [r7, #20]
ARM GAS  C:\Users\13740\AppData\Local\Temp\cc1Gy8Oo.s 			page 80


 2922 005e 0F2B     		cmp	r3, #15
 2923 0060 EDDD     		ble	.L119
 2924              	.LBE5:
 954:main.c        ****         AD5940_CS_Write(1);
 2925              		.loc 1 954 0 is_stmt 1
 2926 0062 0120     		movs	r0, #1
 2927 0064 FFF7FEFF 		bl	AD5940_CS_Write
 955:main.c        ****         CyDelay(10);
 2928              		.loc 1 955 0
 2929 0068 0A20     		movs	r0, #10
 2930 006a FFF7FEFF 		bl	CyDelay
 956:main.c        **** 
 957:main.c        ****         // 现在尝试读取
 958:main.c        ****         AD5940_ReadReg(REG_AFECON_CHIPID); 
 2931              		.loc 1 958 0
 2932 006e 234B     		ldr	r3, .L121+4
 2933 0070 1800     		movs	r0, r3
 2934 0072 FFF7FEFF 		bl	AD5940_ReadReg
 959:main.c        **** 
 960:main.c        ****         // 直接输出这次通讯的所有原始字节
 961:main.c        ****         // 我们想看的是：[0]Cmd, [1]AddrH, [2]AddrL, [3]Dummy, [4]DataH, [5]DataL
 962:main.c        ****         sprintf(dataString, "RAW:%02X%02X%02X%02X%02X%02X", 
 963:main.c        ****                 g_SPI_Debug_Buf[0], g_SPI_Debug_Buf[1], g_SPI_Debug_Buf[2], 
 2935              		.loc 1 963 0
 2936 0076 224B     		ldr	r3, .L121+8
 2937 0078 1B78     		ldrb	r3, [r3]
 962:main.c        ****                 g_SPI_Debug_Buf[0], g_SPI_Debug_Buf[1], g_SPI_Debug_Buf[2], 
 2938              		.loc 1 962 0
 2939 007a 1E00     		movs	r6, r3
 2940              		.loc 1 963 0
 2941 007c 204B     		ldr	r3, .L121+8
 2942 007e 5B78     		ldrb	r3, [r3, #1]
 962:main.c        ****                 g_SPI_Debug_Buf[0], g_SPI_Debug_Buf[1], g_SPI_Debug_Buf[2], 
 2943              		.loc 1 962 0
 2944 0080 7B60     		str	r3, [r7, #4]
 2945              		.loc 1 963 0
 2946 0082 1F4B     		ldr	r3, .L121+8
 2947 0084 9B78     		ldrb	r3, [r3, #2]
 962:main.c        ****                 g_SPI_Debug_Buf[0], g_SPI_Debug_Buf[1], g_SPI_Debug_Buf[2], 
 2948              		.loc 1 962 0
 2949 0086 1A00     		movs	r2, r3
 964:main.c        ****                 g_SPI_Debug_Buf[3], g_SPI_Debug_Buf[4], g_SPI_Debug_Buf[5]);
 2950              		.loc 1 964 0
 2951 0088 1D4B     		ldr	r3, .L121+8
 2952 008a DB78     		ldrb	r3, [r3, #3]
 962:main.c        ****                 g_SPI_Debug_Buf[0], g_SPI_Debug_Buf[1], g_SPI_Debug_Buf[2], 
 2953              		.loc 1 962 0
 2954 008c 1C00     		movs	r4, r3
 2955              		.loc 1 964 0
 2956 008e 1C4B     		ldr	r3, .L121+8
 2957 0090 1B79     		ldrb	r3, [r3, #4]
 962:main.c        ****                 g_SPI_Debug_Buf[0], g_SPI_Debug_Buf[1], g_SPI_Debug_Buf[2], 
 2958              		.loc 1 962 0
 2959 0092 1D00     		movs	r5, r3
 2960              		.loc 1 964 0
 2961 0094 1A4B     		ldr	r3, .L121+8
 2962 0096 5B79     		ldrb	r3, [r3, #5]
ARM GAS  C:\Users\13740\AppData\Local\Temp\cc1Gy8Oo.s 			page 81


 962:main.c        ****                 g_SPI_Debug_Buf[0], g_SPI_Debug_Buf[1], g_SPI_Debug_Buf[2], 
 2963              		.loc 1 962 0
 2964 0098 1A49     		ldr	r1, .L121+12
 2965 009a 1B48     		ldr	r0, .L121+16
 2966 009c 0393     		str	r3, [sp, #12]
 2967 009e 0295     		str	r5, [sp, #8]
 2968 00a0 0194     		str	r4, [sp, #4]
 2969 00a2 0092     		str	r2, [sp]
 2970 00a4 7B68     		ldr	r3, [r7, #4]
 2971 00a6 3200     		movs	r2, r6
 2972 00a8 FFF7FEFF 		bl	sprintf
 965:main.c        **** 
 966:main.c        ****         notificationHandle.attrHandle = CYBLE_CUSTOM_SERVICE_GLUCOSE_MEASUREMENT_CHAR_HANDLE;
 2973              		.loc 1 966 0
 2974 00ac 0823     		movs	r3, #8
 2975 00ae FB18     		adds	r3, r7, r3
 2976 00b0 1722     		movs	r2, #23
 2977 00b2 1A81     		strh	r2, [r3, #8]
 967:main.c        ****         notificationHandle.value.val = (uint8*)dataString;
 2978              		.loc 1 967 0
 2979 00b4 0823     		movs	r3, #8
 2980 00b6 FB18     		adds	r3, r7, r3
 2981 00b8 134A     		ldr	r2, .L121+16
 2982 00ba 1A60     		str	r2, [r3]
 968:main.c        ****         notificationHandle.value.len = strlen(dataString);
 2983              		.loc 1 968 0
 2984 00bc 124B     		ldr	r3, .L121+16
 2985 00be 1800     		movs	r0, r3
 2986 00c0 FFF7FEFF 		bl	strlen
 2987 00c4 0300     		movs	r3, r0
 2988 00c6 9AB2     		uxth	r2, r3
 2989 00c8 0823     		movs	r3, #8
 2990 00ca FB18     		adds	r3, r7, r3
 2991 00cc 9A80     		strh	r2, [r3, #4]
 969:main.c        ****         CyBle_GattsNotification(cyBle_connHandle, &notificationHandle);
 2992              		.loc 1 969 0
 2993 00ce 0823     		movs	r3, #8
 2994 00d0 F918     		adds	r1, r7, r3
 2995 00d2 0E4B     		ldr	r3, .L121+20
 2996 00d4 1A78     		ldrb	r2, [r3]
 2997 00d6 5B78     		ldrb	r3, [r3, #1]
 2998 00d8 1B02     		lsls	r3, r3, #8
 2999 00da 1A43     		orrs	r2, r3
 3000 00dc 0023     		movs	r3, #0
 3001 00de 1204     		lsls	r2, r2, #16
 3002 00e0 120C     		lsrs	r2, r2, #16
 3003 00e2 1B0C     		lsrs	r3, r3, #16
 3004 00e4 1B04     		lsls	r3, r3, #16
 3005 00e6 1343     		orrs	r3, r2
 3006 00e8 1800     		movs	r0, r3
 3007 00ea FFF7FEFF 		bl	CyBle_GattsNotification
 3008              	.L120:
 970:main.c        ****     }
 971:main.c        **** }
 3009              		.loc 1 971 0
 3010 00ee C046     		nop
 3011 00f0 BD46     		mov	sp, r7
ARM GAS  C:\Users\13740\AppData\Local\Temp\cc1Gy8Oo.s 			page 82


 3012 00f2 07B0     		add	sp, sp, #28
 3013              		@ sp needed
 3014 00f4 F0BD     		pop	{r4, r5, r6, r7, pc}
 3015              	.L122:
 3016 00f6 C046     		.align	2
 3017              	.L121:
 3018 00f8 00000000 		.word	cyBle_state
 3019 00fc 04040000 		.word	1028
 3020 0100 00000000 		.word	g_SPI_Debug_Buf
 3021 0104 5C130000 		.word	.LC223
 3022 0108 2C040000 		.word	dataString.9636
 3023 010c 00000000 		.word	cyBle_connHandle
 3024              		.cfi_endproc
 3025              	.LFE50:
 3026              		.size	SendGlucoseDataViaBLE, .-SendGlucoseDataViaBLE
 3027              		.global	__aeabi_uidivmod
 3028              		.section	.rodata
 3029 1379 000000   		.align	2
 3030              	.LC229:
 3031 137c 57523A25 		.ascii	"WR:%08lX RD:%08lX\000"
 3031      30386C58 
 3031      2052443A 
 3031      2530386C 
 3031      5800
 3032              		.section	.text.SendLactateDataViaBLE,"ax",%progbits
 3033              		.align	2
 3034              		.global	SendLactateDataViaBLE
 3035              		.code	16
 3036              		.thumb_func
 3037              		.type	SendLactateDataViaBLE, %function
 3038              	SendLactateDataViaBLE:
 3039              	.LFB51:
 972:main.c        **** 
 973:main.c        **** // 发送乳酸数据（改为诊断日志输出）
 974:main.c        **** void SendLactateDataViaBLE(void)
 975:main.c        **** {
 3040              		.loc 1 975 0
 3041              		.cfi_startproc
 3042              		@ args = 0, pretend = 0, frame = 24
 3043              		@ frame_needed = 1, uses_anonymous_args = 0
 3044 0000 80B5     		push	{r7, lr}
 3045              		.cfi_def_cfa_offset 8
 3046              		.cfi_offset 7, -8
 3047              		.cfi_offset 14, -4
 3048 0002 86B0     		sub	sp, sp, #24
 3049              		.cfi_def_cfa_offset 32
 3050 0004 00AF     		add	r7, sp, #0
 3051              		.cfi_def_cfa_register 7
 976:main.c        ****     CYBLE_GATTS_HANDLE_VALUE_NTF_T notificationHandle;
 977:main.c        ****     static char dataString[40];
 978:main.c        ****     static uint8 diagStep = 0;
 979:main.c        ****     
 980:main.c        ****     if(CyBle_GetState() == CYBLE_STATE_CONNECTED)
 3052              		.loc 1 980 0
 3053 0006 2E4B     		ldr	r3, .L128
 3054 0008 1B78     		ldrb	r3, [r3]
 3055 000a 022B     		cmp	r3, #2
ARM GAS  C:\Users\13740\AppData\Local\Temp\cc1Gy8Oo.s 			page 83


 3056 000c 54D1     		bne	.L127
 981:main.c        ****     {
 982:main.c        ****         switch(diagStep % 3)
 3057              		.loc 1 982 0
 3058 000e 2D4B     		ldr	r3, .L128+4
 3059 0010 1B78     		ldrb	r3, [r3]
 3060 0012 0321     		movs	r1, #3
 3061 0014 1800     		movs	r0, r3
 3062 0016 FFF7FEFF 		bl	__aeabi_uidivmod
 3063 001a 0B00     		movs	r3, r1
 3064 001c DBB2     		uxtb	r3, r3
 3065 001e 002B     		cmp	r3, #0
 3066 0020 27D1     		bne	.L125
 3067              	.LBB6:
 983:main.c        ****         {
 984:main.c        **** 
 985:main.c        ****             case 0:
 986:main.c        ****                 // 测试 2: 读写测试寄存器 (AFECON)
 987:main.c        ****                 {
 988:main.c        ****                     // 1. 先读取当前值
 989:main.c        ****                     uint32_t original = AD5940_ReadReg(REG_AFE_AFECON);
 3068              		.loc 1 989 0
 3069 0022 8023     		movs	r3, #128
 3070 0024 9B01     		lsls	r3, r3, #6
 3071 0026 1800     		movs	r0, r3
 3072 0028 FFF7FEFF 		bl	AD5940_ReadReg
 3073 002c 0300     		movs	r3, r0
 3074 002e 7B61     		str	r3, [r7, #20]
 990:main.c        ****                     
 991:main.c        ****                     // 2. 准备一个测试值：保留原值，但修改 bit 14 (Waveform Gen Ena
 992:main.c        ****                     //    我们将其取反，这样肯定和原来不一样
 993:main.c        ****                     uint32_t testVal = original ^ (1 << 14); 
 3075              		.loc 1 993 0
 3076 0030 7B69     		ldr	r3, [r7, #20]
 3077 0032 8022     		movs	r2, #128
 3078 0034 D201     		lsls	r2, r2, #7
 3079 0036 5340     		eors	r3, r2
 3080 0038 3B61     		str	r3, [r7, #16]
 994:main.c        ****                     
 995:main.c        ****                     // 3. 写入修改后的值
 996:main.c        ****                     AD5940_WriteReg(REG_AFE_AFECON, testVal); 
 3081              		.loc 1 996 0
 3082 003a 3A69     		ldr	r2, [r7, #16]
 3083 003c 8023     		movs	r3, #128
 3084 003e 9B01     		lsls	r3, r3, #6
 3085 0040 1100     		movs	r1, r2
 3086 0042 1800     		movs	r0, r3
 3087 0044 FFF7FEFF 		bl	AD5940_WriteReg
 997:main.c        ****                     
 998:main.c        ****                     // 4. 读回验证
 999:main.c        ****                     uint32_t readback = AD5940_ReadReg(REG_AFE_AFECON);
 3088              		.loc 1 999 0
 3089 0048 8023     		movs	r3, #128
 3090 004a 9B01     		lsls	r3, r3, #6
 3091 004c 1800     		movs	r0, r3
 3092 004e FFF7FEFF 		bl	AD5940_ReadReg
 3093 0052 0300     		movs	r3, r0
ARM GAS  C:\Users\13740\AppData\Local\Temp\cc1Gy8Oo.s 			page 84


 3094 0054 FB60     		str	r3, [r7, #12]
1000:main.c        ****                     
1001:main.c        ****                     // 5. 恢复原值 (这是好习惯，测完还原)
1002:main.c        ****                     AD5940_WriteReg(REG_AFE_AFECON, original);
 3095              		.loc 1 1002 0
 3096 0056 7A69     		ldr	r2, [r7, #20]
 3097 0058 8023     		movs	r3, #128
 3098 005a 9B01     		lsls	r3, r3, #6
 3099 005c 1100     		movs	r1, r2
 3100 005e 1800     		movs	r0, r3
 3101 0060 FFF7FEFF 		bl	AD5940_WriteReg
1003:main.c        ****                     
1004:main.c        ****                     // 打印结果：显示 写入值 vs 读回值
1005:main.c        ****                     // 如果 readback == testVal，说明读写完全正常
1006:main.c        ****                     sprintf(dataString, "WR:%08lX RD:%08lX", testVal, readback);
 3102              		.loc 1 1006 0
 3103 0064 FB68     		ldr	r3, [r7, #12]
 3104 0066 3A69     		ldr	r2, [r7, #16]
 3105 0068 1749     		ldr	r1, .L128+8
 3106 006a 1848     		ldr	r0, .L128+12
 3107 006c FFF7FEFF 		bl	sprintf
 3108              	.LBE6:
1007:main.c        ****                     
1008:main.c        ****                     // 如果你只想看读回的值：
1009:main.c        ****                     // sprintf(dataString, "AFE:%08lX", readback);
1010:main.c        ****                 }
1011:main.c        ****                 break;
 3109              		.loc 1 1011 0
 3110 0070 C046     		nop
 3111              	.L125:
1012:main.c        ****         }
1013:main.c        ****         
1014:main.c        ****         diagStep++;
 3112              		.loc 1 1014 0
 3113 0072 144B     		ldr	r3, .L128+4
 3114 0074 1B78     		ldrb	r3, [r3]
 3115 0076 0133     		adds	r3, r3, #1
 3116 0078 DAB2     		uxtb	r2, r3
 3117 007a 124B     		ldr	r3, .L128+4
 3118 007c 1A70     		strb	r2, [r3]
1015:main.c        ****         
1016:main.c        ****         notificationHandle.attrHandle = CYBLE_CUSTOM_SERVICE_LACTATE_CHAR_HANDLE;
 3119              		.loc 1 1016 0
 3120 007e 3B00     		movs	r3, r7
 3121 0080 1222     		movs	r2, #18
 3122 0082 1A81     		strh	r2, [r3, #8]
1017:main.c        ****         notificationHandle.value.val = (uint8*)dataString;
 3123              		.loc 1 1017 0
 3124 0084 3B00     		movs	r3, r7
 3125 0086 114A     		ldr	r2, .L128+12
 3126 0088 1A60     		str	r2, [r3]
1018:main.c        ****         notificationHandle.value.len = strlen(dataString);
 3127              		.loc 1 1018 0
 3128 008a 104B     		ldr	r3, .L128+12
 3129 008c 1800     		movs	r0, r3
 3130 008e FFF7FEFF 		bl	strlen
 3131 0092 0300     		movs	r3, r0
ARM GAS  C:\Users\13740\AppData\Local\Temp\cc1Gy8Oo.s 			page 85


 3132 0094 9AB2     		uxth	r2, r3
 3133 0096 3B00     		movs	r3, r7
 3134 0098 9A80     		strh	r2, [r3, #4]
1019:main.c        ****         
1020:main.c        ****         if(CyBle_GattsNotification(cyBle_connHandle, &notificationHandle) == CYBLE_ERROR_OK)
 3135              		.loc 1 1020 0
 3136 009a 3900     		movs	r1, r7
 3137 009c 0C4B     		ldr	r3, .L128+16
 3138 009e 1A78     		ldrb	r2, [r3]
 3139 00a0 5B78     		ldrb	r3, [r3, #1]
 3140 00a2 1B02     		lsls	r3, r3, #8
 3141 00a4 1A43     		orrs	r2, r3
 3142 00a6 0023     		movs	r3, #0
 3143 00a8 1204     		lsls	r2, r2, #16
 3144 00aa 120C     		lsrs	r2, r2, #16
 3145 00ac 1B0C     		lsrs	r3, r3, #16
 3146 00ae 1B04     		lsls	r3, r3, #16
 3147 00b0 1343     		orrs	r3, r2
 3148 00b2 1800     		movs	r0, r3
 3149 00b4 FFF7FEFF 		bl	CyBle_GattsNotification
 3150              	.L127:
1021:main.c        ****         {
1022:main.c        ****         }
1023:main.c        ****     }
1024:main.c        **** }
 3151              		.loc 1 1024 0
 3152 00b8 C046     		nop
 3153 00ba BD46     		mov	sp, r7
 3154 00bc 06B0     		add	sp, sp, #24
 3155              		@ sp needed
 3156 00be 80BD     		pop	{r7, pc}
 3157              	.L129:
 3158              		.align	2
 3159              	.L128:
 3160 00c0 00000000 		.word	cyBle_state
 3161 00c4 5E040000 		.word	diagStep.9646
 3162 00c8 7C130000 		.word	.LC229
 3163 00cc 60040000 		.word	dataString.9645
 3164 00d0 00000000 		.word	cyBle_connHandle
 3165              		.cfi_endproc
 3166              	.LFE51:
 3167              		.size	SendLactateDataViaBLE, .-SendLactateDataViaBLE
 3168              		.section	.rodata
 3169 138e 0000     		.align	2
 3170              	.LC236:
 3171 1390 53434C4B 		.ascii	"SCLK=0, Read:%d\000"
 3171      3D302C20 
 3171      52656164 
 3171      3A256400 
 3172              		.align	2
 3173              	.LC239:
 3174 13a0 53434C4B 		.ascii	"SCLK=1, Read:%d\000"
 3174      3D312C20 
 3174      52656164 
 3174      3A256400 
 3175              		.align	2
 3176              	.LC241:
ARM GAS  C:\Users\13740\AppData\Local\Temp\cc1Gy8Oo.s 			page 86


 3177 13b0 43533A25 		.ascii	"CS:%d MOSI:%d MISO:%d\000"
 3177      64204D4F 
 3177      53493A25 
 3177      64204D49 
 3177      534F3A25 
 3178 13c6 0000     		.align	2
 3179              	.LC243:
 3180 13c8 53434C4B 		.ascii	"SCLK toggled 10x\000"
 3180      20746F67 
 3180      676C6564 
 3180      20313078 
 3180      00
 3181 13d9 000000   		.align	2
 3182              	.LC245:
 3183 13dc 43686563 		.ascii	"Check TopDesign pin cfg\000"
 3183      6B20546F 
 3183      70446573 
 3183      69676E20 
 3183      70696E20 
 3184              		.section	.text.SendTemperatureViaBLE,"ax",%progbits
 3185              		.align	2
 3186              		.global	SendTemperatureViaBLE
 3187              		.code	16
 3188              		.thumb_func
 3189              		.type	SendTemperatureViaBLE, %function
 3190              	SendTemperatureViaBLE:
 3191              	.LFB52:
1025:main.c        **** 
1026:main.c        **** // 发送温度数据（改为芯片状态诊断）
1027:main.c        **** // void SendTemperatureViaBLE(void)
1028:main.c        **** // {
1029:main.c        **** //     CYBLE_GATTS_HANDLE_VALUE_NTF_T notificationHandle;
1030:main.c        **** //     static char tempString[40];
1031:main.c        ****     
1032:main.c        **** //     if(CyBle_GetState() == CYBLE_STATE_CONNECTED)
1033:main.c        **** //     {
1034:main.c        **** //         // 读取 SPI 寄存器检查芯片状态
1035:main.c        **** //         uint32 regValue = AD5940_ReadReg(REG_AFE_AFECON);
1036:main.c        **** //         uint8 initStatus = 0;
1037:main.c        ****         
1038:main.c        **** //         // 检查 pAmpCfg 指针是否有效
1039:main.c        **** //         if(pAmpCfg != NULL)
1040:main.c        **** //         {
1041:main.c        **** //             initStatus = (uint8)pAmpCfg->AMPInited;
1042:main.c        **** //         }
1043:main.c        ****         
1044:main.c        **** //         // 显示 SPI 寄存器值 + 初始化状态
1045:main.c        **** //         sprintf(tempString, "SPI:0x%lX Init:%d", 
1046:main.c        **** //                 (unsigned long)regValue,
1047:main.c        **** //                 (int)initStatus);
1048:main.c        ****         
1049:main.c        **** //         notificationHandle.attrHandle = CYBLE_CUSTOM_SERVICE_LACTATE_CHAR_HANDLE;
1050:main.c        **** //         notificationHandle.value.val = (uint8*)tempString;
1051:main.c        **** //         notificationHandle.value.len = strlen(tempString);
1052:main.c        ****         
1053:main.c        **** //         CyBle_GattsNotification(cyBle_connHandle, &notificationHandle);
1054:main.c        **** //     }
ARM GAS  C:\Users\13740\AppData\Local\Temp\cc1Gy8Oo.s 			page 87


1055:main.c        **** // }
1056:main.c        **** 
1057:main.c        **** void SendTemperatureViaBLE(void)
1058:main.c        **** {
 3192              		.loc 1 1058 0
 3193              		.cfi_startproc
 3194              		@ args = 0, pretend = 0, frame = 16
 3195              		@ frame_needed = 1, uses_anonymous_args = 0
 3196 0000 B0B5     		push	{r4, r5, r7, lr}
 3197              		.cfi_def_cfa_offset 16
 3198              		.cfi_offset 4, -16
 3199              		.cfi_offset 5, -12
 3200              		.cfi_offset 7, -8
 3201              		.cfi_offset 14, -4
 3202 0002 86B0     		sub	sp, sp, #24
 3203              		.cfi_def_cfa_offset 40
 3204 0004 02AF     		add	r7, sp, #8
 3205              		.cfi_def_cfa 7, 32
1059:main.c        ****     CYBLE_GATTS_HANDLE_VALUE_NTF_T notificationHandle;
1060:main.c        ****     static char tempString[60];
1061:main.c        ****     static uint8 testStep = 0;
1062:main.c        ****     
1063:main.c        ****     if(CyBle_GetState() == CYBLE_STATE_CONNECTED)
 3206              		.loc 1 1063 0
 3207 0006 494B     		ldr	r3, .L142
 3208 0008 1B78     		ldrb	r3, [r3]
 3209 000a 022B     		cmp	r3, #2
 3210 000c 00D0     		beq	.LCB2339
 3211 000e 89E0     		b	.L141	@long jump
 3212              	.LCB2339:
1064:main.c        ****     {
1065:main.c        ****         switch(testStep % 5)
 3213              		.loc 1 1065 0
 3214 0010 474B     		ldr	r3, .L142+4
 3215 0012 1B78     		ldrb	r3, [r3]
 3216 0014 0521     		movs	r1, #5
 3217 0016 1800     		movs	r0, r3
 3218 0018 FFF7FEFF 		bl	__aeabi_uidivmod
 3219 001c 0B00     		movs	r3, r1
 3220 001e DBB2     		uxtb	r3, r3
 3221 0020 042B     		cmp	r3, #4
 3222 0022 5CD8     		bhi	.L132
 3223 0024 9A00     		lsls	r2, r3, #2
 3224 0026 434B     		ldr	r3, .L142+8
 3225 0028 D318     		adds	r3, r2, r3
 3226 002a 1B68     		ldr	r3, [r3]
 3227 002c 9F46     		mov	pc, r3
 3228              		.section	.rodata
 3229              		.align	2
 3230              	.L134:
 3231 13f4 2E000000 		.word	.L133
 3232 13f8 4E000000 		.word	.L135
 3233 13fc 6E000000 		.word	.L136
 3234 1400 94000000 		.word	.L137
 3235 1404 D0000000 		.word	.L138
 3236              		.section	.text.SendTemperatureViaBLE
 3237              	.L133:
ARM GAS  C:\Users\13740\AppData\Local\Temp\cc1Gy8Oo.s 			page 88


1066:main.c        ****         {
1067:main.c        ****             case 0:
1068:main.c        ****                 // 🔧 测试1：尝试设置SCLK为0
1069:main.c        ****                 AD5940_SCLK_Write(0);
 3238              		.loc 1 1069 0
 3239 002e 0020     		movs	r0, #0
 3240 0030 FFF7FEFF 		bl	AD5940_SCLK_Write
1070:main.c        ****                 CyDelay(10);
 3241              		.loc 1 1070 0
 3242 0034 0A20     		movs	r0, #10
 3243 0036 FFF7FEFF 		bl	CyDelay
1071:main.c        ****                 sprintf(tempString, "SCLK=0, Read:%d", AD5940_SCLK_Read());
 3244              		.loc 1 1071 0
 3245 003a FFF7FEFF 		bl	AD5940_SCLK_Read
 3246 003e 0300     		movs	r3, r0
 3247 0040 1A00     		movs	r2, r3
 3248 0042 3D49     		ldr	r1, .L142+12
 3249 0044 3D4B     		ldr	r3, .L142+16
 3250 0046 1800     		movs	r0, r3
 3251 0048 FFF7FEFF 		bl	sprintf
1072:main.c        ****                 break;
 3252              		.loc 1 1072 0
 3253 004c 47E0     		b	.L132
 3254              	.L135:
1073:main.c        ****                 
1074:main.c        ****             case 1:
1075:main.c        ****                 // 🔧 测试2：尝试设置SCLK为1
1076:main.c        ****                 AD5940_SCLK_Write(1);
 3255              		.loc 1 1076 0
 3256 004e 0120     		movs	r0, #1
 3257 0050 FFF7FEFF 		bl	AD5940_SCLK_Write
1077:main.c        ****                 CyDelay(10);
 3258              		.loc 1 1077 0
 3259 0054 0A20     		movs	r0, #10
 3260 0056 FFF7FEFF 		bl	CyDelay
1078:main.c        ****                 sprintf(tempString, "SCLK=1, Read:%d", AD5940_SCLK_Read());
 3261              		.loc 1 1078 0
 3262 005a FFF7FEFF 		bl	AD5940_SCLK_Read
 3263 005e 0300     		movs	r3, r0
 3264 0060 1A00     		movs	r2, r3
 3265 0062 3749     		ldr	r1, .L142+20
 3266 0064 354B     		ldr	r3, .L142+16
 3267 0066 1800     		movs	r0, r3
 3268 0068 FFF7FEFF 		bl	sprintf
1079:main.c        ****                 break;
 3269              		.loc 1 1079 0
 3270 006c 37E0     		b	.L132
 3271              	.L136:
1080:main.c        ****                 
1081:main.c        ****             case 2:
1082:main.c        ****                 // 🔧 测试3：检查CS和MOSI
1083:main.c        ****                 sprintf(tempString, "CS:%d MOSI:%d MISO:%d", 
1084:main.c        ****                         AD5940_CS_Read(),
 3272              		.loc 1 1084 0
 3273 006e FFF7FEFF 		bl	AD5940_CS_Read
 3274 0072 0300     		movs	r3, r0
1083:main.c        ****                         AD5940_CS_Read(),
ARM GAS  C:\Users\13740\AppData\Local\Temp\cc1Gy8Oo.s 			page 89


 3275              		.loc 1 1083 0
 3276 0074 1C00     		movs	r4, r3
1085:main.c        ****                         AD5940_MOSI_Read(),
 3277              		.loc 1 1085 0
 3278 0076 FFF7FEFF 		bl	AD5940_MOSI_Read
 3279 007a 0300     		movs	r3, r0
1083:main.c        ****                         AD5940_CS_Read(),
 3280              		.loc 1 1083 0
 3281 007c 1D00     		movs	r5, r3
1086:main.c        ****                         AD5940_MISO_Read());
 3282              		.loc 1 1086 0
 3283 007e FFF7FEFF 		bl	AD5940_MISO_Read
 3284 0082 0300     		movs	r3, r0
1083:main.c        ****                         AD5940_CS_Read(),
 3285              		.loc 1 1083 0
 3286 0084 2F49     		ldr	r1, .L142+24
 3287 0086 2D48     		ldr	r0, .L142+16
 3288 0088 0093     		str	r3, [sp]
 3289 008a 2B00     		movs	r3, r5
 3290 008c 2200     		movs	r2, r4
 3291 008e FFF7FEFF 		bl	sprintf
1087:main.c        ****                 break;
 3292              		.loc 1 1087 0
 3293 0092 24E0     		b	.L132
 3294              	.L137:
 3295              	.LBB7:
1088:main.c        ****                 
1089:main.c        ****             case 3:
1090:main.c        ****                 // 🔧 测试4：快速翻转SCLK 10次
1091:main.c        ****                 for(int i=0; i<10; i++) {
 3296              		.loc 1 1091 0
 3297 0094 0023     		movs	r3, #0
 3298 0096 FB60     		str	r3, [r7, #12]
 3299 0098 0EE0     		b	.L139
 3300              	.L140:
1092:main.c        ****                     AD5940_SCLK_Write(1);
 3301              		.loc 1 1092 0 discriminator 3
 3302 009a 0120     		movs	r0, #1
 3303 009c FFF7FEFF 		bl	AD5940_SCLK_Write
1093:main.c        ****                     CyDelayUs(10);
 3304              		.loc 1 1093 0 discriminator 3
 3305 00a0 0A20     		movs	r0, #10
 3306 00a2 FFF7FEFF 		bl	CyDelayUs
1094:main.c        ****                     AD5940_SCLK_Write(0);
 3307              		.loc 1 1094 0 discriminator 3
 3308 00a6 0020     		movs	r0, #0
 3309 00a8 FFF7FEFF 		bl	AD5940_SCLK_Write
1095:main.c        ****                     CyDelayUs(10);
 3310              		.loc 1 1095 0 discriminator 3
 3311 00ac 0A20     		movs	r0, #10
 3312 00ae FFF7FEFF 		bl	CyDelayUs
1091:main.c        ****                     AD5940_SCLK_Write(1);
 3313              		.loc 1 1091 0 discriminator 3
 3314 00b2 FB68     		ldr	r3, [r7, #12]
 3315 00b4 0133     		adds	r3, r3, #1
 3316 00b6 FB60     		str	r3, [r7, #12]
 3317              	.L139:
ARM GAS  C:\Users\13740\AppData\Local\Temp\cc1Gy8Oo.s 			page 90


1091:main.c        ****                     AD5940_SCLK_Write(1);
 3318              		.loc 1 1091 0 is_stmt 0 discriminator 1
 3319 00b8 FB68     		ldr	r3, [r7, #12]
 3320 00ba 092B     		cmp	r3, #9
 3321 00bc EDDD     		ble	.L140
 3322              	.LBE7:
1096:main.c        ****                 }
1097:main.c        ****                 sprintf(tempString, "SCLK toggled 10x");
 3323              		.loc 1 1097 0 is_stmt 1
 3324 00be 1F4B     		ldr	r3, .L142+16
 3325 00c0 214A     		ldr	r2, .L142+28
 3326 00c2 13CA     		ldmia	r2!, {r0, r1, r4}
 3327 00c4 13C3     		stmia	r3!, {r0, r1, r4}
 3328 00c6 1168     		ldr	r1, [r2]
 3329 00c8 1960     		str	r1, [r3]
 3330 00ca 1279     		ldrb	r2, [r2, #4]
 3331 00cc 1A71     		strb	r2, [r3, #4]
1098:main.c        ****                 break;
 3332              		.loc 1 1098 0
 3333 00ce 06E0     		b	.L132
 3334              	.L138:
1099:main.c        ****                 
1100:main.c        ****             case 4:
1101:main.c        ****                 // 🔧 测试5：读取引脚配置寄存器（如果可能）
1102:main.c        ****                 // 这需要查PSoC寄存器，暂时显示基本状态
1103:main.c        ****                 sprintf(tempString, "Check TopDesign pin cfg");
 3335              		.loc 1 1103 0
 3336 00d0 1A4B     		ldr	r3, .L142+16
 3337 00d2 1E4A     		ldr	r2, .L142+32
 3338 00d4 13CA     		ldmia	r2!, {r0, r1, r4}
 3339 00d6 13C3     		stmia	r3!, {r0, r1, r4}
 3340 00d8 13CA     		ldmia	r2!, {r0, r1, r4}
 3341 00da 13C3     		stmia	r3!, {r0, r1, r4}
1104:main.c        ****                 break;
 3342              		.loc 1 1104 0
 3343 00dc C046     		nop
 3344              	.L132:
1105:main.c        ****         }
1106:main.c        ****         
1107:main.c        ****         testStep++;
 3345              		.loc 1 1107 0
 3346 00de 144B     		ldr	r3, .L142+4
 3347 00e0 1B78     		ldrb	r3, [r3]
 3348 00e2 0133     		adds	r3, r3, #1
 3349 00e4 DAB2     		uxtb	r2, r3
 3350 00e6 124B     		ldr	r3, .L142+4
 3351 00e8 1A70     		strb	r2, [r3]
1108:main.c        ****         
1109:main.c        ****         notificationHandle.attrHandle = CYBLE_CUSTOM_SERVICE_LACTATE_CHAR_HANDLE;
 3352              		.loc 1 1109 0
 3353 00ea 3B00     		movs	r3, r7
 3354 00ec 1222     		movs	r2, #18
 3355 00ee 1A81     		strh	r2, [r3, #8]
1110:main.c        ****         notificationHandle.value.val = (uint8*)tempString;
 3356              		.loc 1 1110 0
 3357 00f0 3B00     		movs	r3, r7
 3358 00f2 124A     		ldr	r2, .L142+16
ARM GAS  C:\Users\13740\AppData\Local\Temp\cc1Gy8Oo.s 			page 91


 3359 00f4 1A60     		str	r2, [r3]
1111:main.c        ****         notificationHandle.value.len = strlen(tempString);
 3360              		.loc 1 1111 0
 3361 00f6 114B     		ldr	r3, .L142+16
 3362 00f8 1800     		movs	r0, r3
 3363 00fa FFF7FEFF 		bl	strlen
 3364 00fe 0300     		movs	r3, r0
 3365 0100 9AB2     		uxth	r2, r3
 3366 0102 3B00     		movs	r3, r7
 3367 0104 9A80     		strh	r2, [r3, #4]
1112:main.c        ****         CyBle_GattsNotification(cyBle_connHandle, &notificationHandle);
 3368              		.loc 1 1112 0
 3369 0106 3900     		movs	r1, r7
 3370 0108 114B     		ldr	r3, .L142+36
 3371 010a 1A78     		ldrb	r2, [r3]
 3372 010c 5B78     		ldrb	r3, [r3, #1]
 3373 010e 1B02     		lsls	r3, r3, #8
 3374 0110 1A43     		orrs	r2, r3
 3375 0112 0023     		movs	r3, #0
 3376 0114 1204     		lsls	r2, r2, #16
 3377 0116 120C     		lsrs	r2, r2, #16
 3378 0118 1B0C     		lsrs	r3, r3, #16
 3379 011a 1B04     		lsls	r3, r3, #16
 3380 011c 1343     		orrs	r3, r2
 3381 011e 1800     		movs	r0, r3
 3382 0120 FFF7FEFF 		bl	CyBle_GattsNotification
 3383              	.L141:
1113:main.c        ****     }
1114:main.c        **** }
 3384              		.loc 1 1114 0
 3385 0124 C046     		nop
 3386 0126 BD46     		mov	sp, r7
 3387 0128 04B0     		add	sp, sp, #16
 3388              		@ sp needed
 3389 012a B0BD     		pop	{r4, r5, r7, pc}
 3390              	.L143:
 3391              		.align	2
 3392              	.L142:
 3393 012c 00000000 		.word	cyBle_state
 3394 0130 88040000 		.word	testStep.9657
 3395 0134 F4130000 		.word	.L134
 3396 0138 90130000 		.word	.LC236
 3397 013c 8C040000 		.word	tempString.9656
 3398 0140 A0130000 		.word	.LC239
 3399 0144 B0130000 		.word	.LC241
 3400 0148 C8130000 		.word	.LC243
 3401 014c DC130000 		.word	.LC245
 3402 0150 00000000 		.word	cyBle_connHandle
 3403              		.cfi_endproc
 3404              	.LFE52:
 3405              		.size	SendTemperatureViaBLE, .-SendTemperatureViaBLE
 3406              		.section	.text.SendAllSensorDataViaBLE,"ax",%progbits
 3407              		.align	2
 3408              		.global	SendAllSensorDataViaBLE
 3409              		.code	16
 3410              		.thumb_func
 3411              		.type	SendAllSensorDataViaBLE, %function
ARM GAS  C:\Users\13740\AppData\Local\Temp\cc1Gy8Oo.s 			page 92


 3412              	SendAllSensorDataViaBLE:
 3413              	.LFB53:
1115:main.c        **** 
1116:main.c        **** 
1117:main.c        **** // AD5940_HWReset已在ad5940.c中定义，使用ad5941_platform.c中的AD5940_RstClr/RstSet
1118:main.c        **** // 如需在main.c中使用复位功能，可直接调用AD5940_HWReset()函数
1119:main.c        **** 
1120:main.c        **** 
1121:main.c        **** 
1122:main.c        **** 
1123:main.c        **** 
1124:main.c        **** /*******************************************************************************
1125:main.c        **** * Function Name: SendAllSensorDataViaBLE
1126:main.c        **** ********************************************************************************
1127:main.c        **** * Summary:
1128:main.c        **** *   发送所有传感器数据（包含电流值）
1129:main.c        **** *******************************************************************************/
1130:main.c        **** void SendAllSensorDataViaBLE(void)
1131:main.c        **** {
 3414              		.loc 1 1131 0
 3415              		.cfi_startproc
 3416              		@ args = 0, pretend = 0, frame = 0
 3417              		@ frame_needed = 1, uses_anonymous_args = 0
 3418 0000 80B5     		push	{r7, lr}
 3419              		.cfi_def_cfa_offset 8
 3420              		.cfi_offset 7, -8
 3421              		.cfi_offset 14, -4
 3422 0002 00AF     		add	r7, sp, #0
 3423              		.cfi_def_cfa_register 7
1132:main.c        ****     if(CyBle_GetState() == CYBLE_STATE_CONNECTED)
 3424              		.loc 1 1132 0
 3425 0004 0A4B     		ldr	r3, .L147
 3426 0006 1B78     		ldrb	r3, [r3]
 3427 0008 022B     		cmp	r3, #2
 3428 000a 0ED1     		bne	.L146
1133:main.c        ****     {
1134:main.c        ****         
1135:main.c        ****         SendTemperatureViaBLE();
 3429              		.loc 1 1135 0
 3430 000c FFF7FEFF 		bl	SendTemperatureViaBLE
1136:main.c        ****         CyDelay(50);
 3431              		.loc 1 1136 0
 3432 0010 3220     		movs	r0, #50
 3433 0012 FFF7FEFF 		bl	CyDelay
1137:main.c        ****         
1138:main.c        ****         SendGlucoseDataViaBLE();  // 包含电流值
 3434              		.loc 1 1138 0
 3435 0016 FFF7FEFF 		bl	SendGlucoseDataViaBLE
1139:main.c        ****         CyDelay(50);
 3436              		.loc 1 1139 0
 3437 001a 3220     		movs	r0, #50
 3438 001c FFF7FEFF 		bl	CyDelay
1140:main.c        ****         
1141:main.c        ****         SendLactateDataViaBLE();  // 包含电流值
 3439              		.loc 1 1141 0
 3440 0020 FFF7FEFF 		bl	SendLactateDataViaBLE
1142:main.c        ****         CyDelay(50);
ARM GAS  C:\Users\13740\AppData\Local\Temp\cc1Gy8Oo.s 			page 93


 3441              		.loc 1 1142 0
 3442 0024 3220     		movs	r0, #50
 3443 0026 FFF7FEFF 		bl	CyDelay
 3444              	.L146:
1143:main.c        ****         
1144:main.c        ****        
1145:main.c        ****     }
1146:main.c        **** }
 3445              		.loc 1 1146 0
 3446 002a C046     		nop
 3447 002c BD46     		mov	sp, r7
 3448              		@ sp needed
 3449 002e 80BD     		pop	{r7, pc}
 3450              	.L148:
 3451              		.align	2
 3452              	.L147:
 3453 0030 00000000 		.word	cyBle_state
 3454              		.cfi_endproc
 3455              	.LFE53:
 3456              		.size	SendAllSensorDataViaBLE, .-SendAllSensorDataViaBLE
 3457              		.section	.text.Timer_Interrupt,"ax",%progbits
 3458              		.align	2
 3459              		.global	Timer_Interrupt
 3460              		.code	16
 3461              		.thumb_func
 3462              		.type	Timer_Interrupt, %function
 3463              	Timer_Interrupt:
 3464              	.LFB54:
1147:main.c        **** 
1148:main.c        **** /*******************************************************************************
1149:main.c        **** * Function Name: Timer_Interrupt
1150:main.c        **** ********************************************************************************
1151:main.c        **** * Summary:
1152:main.c        **** *   定时器中断 - 每秒触发一次
1153:main.c        **** *******************************************************************************/
1154:main.c        **** CY_ISR(Timer_Interrupt)
1155:main.c        **** {
 3465              		.loc 1 1155 0
 3466              		.cfi_startproc
 3467              		@ args = 0, pretend = 0, frame = 0
 3468              		@ frame_needed = 1, uses_anonymous_args = 0
 3469 0000 80B5     		push	{r7, lr}
 3470              		.cfi_def_cfa_offset 8
 3471              		.cfi_offset 7, -8
 3472              		.cfi_offset 14, -4
 3473 0002 00AF     		add	r7, sp, #0
 3474              		.cfi_def_cfa_register 7
1156:main.c        ****     static uint8 led = LED_OFF;
1157:main.c        ****     
1158:main.c        ****     if(CYBLE_STATE_ADVERTISING == CyBle_GetState())
 3475              		.loc 1 1158 0
 3476 0004 0D4B     		ldr	r3, .L151
 3477 0006 1B78     		ldrb	r3, [r3]
 3478 0008 032B     		cmp	r3, #3
 3479 000a 0BD1     		bne	.L150
1159:main.c        ****     {
1160:main.c        ****         led ^= LED_OFF;
ARM GAS  C:\Users\13740\AppData\Local\Temp\cc1Gy8Oo.s 			page 94


 3480              		.loc 1 1160 0
 3481 000c 0C4B     		ldr	r3, .L151+4
 3482 000e 1B78     		ldrb	r3, [r3]
 3483 0010 0122     		movs	r2, #1
 3484 0012 5340     		eors	r3, r2
 3485 0014 DAB2     		uxtb	r2, r3
 3486 0016 0A4B     		ldr	r3, .L151+4
 3487 0018 1A70     		strb	r2, [r3]
1161:main.c        ****         Advertising_LED_Write(led);
 3488              		.loc 1 1161 0
 3489 001a 094B     		ldr	r3, .L151+4
 3490 001c 1B78     		ldrb	r3, [r3]
 3491 001e 1800     		movs	r0, r3
 3492 0020 FFF7FEFF 		bl	Advertising_LED_Write
 3493              	.L150:
1162:main.c        ****     }
1163:main.c        ****     
1164:main.c        ****     mainTimer++;
 3494              		.loc 1 1164 0
 3495 0024 074B     		ldr	r3, .L151+8
 3496 0026 1B68     		ldr	r3, [r3]
 3497 0028 5A1C     		adds	r2, r3, #1
 3498 002a 064B     		ldr	r3, .L151+8
 3499 002c 1A60     		str	r2, [r3]
1165:main.c        ****     measurementFlag = 1;  // 每秒设置测量标志
 3500              		.loc 1 1165 0
 3501 002e 064B     		ldr	r3, .L151+12
 3502 0030 0122     		movs	r2, #1
 3503 0032 1A70     		strb	r2, [r3]
1166:main.c        **** }
 3504              		.loc 1 1166 0
 3505 0034 C046     		nop
 3506 0036 BD46     		mov	sp, r7
 3507              		@ sp needed
 3508 0038 80BD     		pop	{r7, pc}
 3509              	.L152:
 3510 003a C046     		.align	2
 3511              	.L151:
 3512 003c 00000000 		.word	cyBle_state
 3513 0040 00000000 		.word	led.9674
 3514 0044 00000000 		.word	mainTimer
 3515 0048 00000000 		.word	measurementFlag
 3516              		.cfi_endproc
 3517              	.LFE54:
 3518              		.size	Timer_Interrupt, .-Timer_Interrupt
 3519              		.section	.text.AppCallBack,"ax",%progbits
 3520              		.align	2
 3521              		.global	AppCallBack
 3522              		.code	16
 3523              		.thumb_func
 3524              		.type	AppCallBack, %function
 3525              	AppCallBack:
 3526              	.LFB55:
1167:main.c        **** 
1168:main.c        **** /*******************************************************************************
1169:main.c        **** * Function Name: AppCallBack
1170:main.c        **** ********************************************************************************
ARM GAS  C:\Users\13740\AppData\Local\Temp\cc1Gy8Oo.s 			page 95


1171:main.c        **** * Summary:
1172:main.c        **** *   BLE事件回调函数
1173:main.c        **** *******************************************************************************/
1174:main.c        **** void AppCallBack(uint32 event, void* eventParam)
1175:main.c        **** {
 3527              		.loc 1 1175 0
 3528              		.cfi_startproc
 3529              		@ args = 0, pretend = 0, frame = 8
 3530              		@ frame_needed = 1, uses_anonymous_args = 0
 3531 0000 80B5     		push	{r7, lr}
 3532              		.cfi_def_cfa_offset 8
 3533              		.cfi_offset 7, -8
 3534              		.cfi_offset 14, -4
 3535 0002 82B0     		sub	sp, sp, #8
 3536              		.cfi_def_cfa_offset 16
 3537 0004 00AF     		add	r7, sp, #0
 3538              		.cfi_def_cfa_register 7
 3539 0006 7860     		str	r0, [r7, #4]
 3540 0008 3960     		str	r1, [r7]
1176:main.c        ****     uint16 i;
1177:main.c        ****     
1178:main.c        ****     switch(event)
 3541              		.loc 1 1178 0
 3542 000a 7B68     		ldr	r3, [r7, #4]
 3543 000c 272B     		cmp	r3, #39
 3544 000e 0DD0     		beq	.L155
 3545 0010 04D8     		bhi	.L156
 3546 0012 012B     		cmp	r3, #1
 3547 0014 07D0     		beq	.L157
 3548 0016 262B     		cmp	r3, #38
 3549 0018 0FD0     		beq	.L158
1179:main.c        ****     {
1180:main.c        ****         case CYBLE_EVT_STACK_ON:
1181:main.c        ****             StartAdvertisement();
1182:main.c        ****             break;
1183:main.c        **** 
1184:main.c        ****         case CYBLE_EVT_GAP_DEVICE_CONNECTED:
1185:main.c        ****             Advertising_LED_Write(LED_OFF);
1186:main.c        ****             break;
1187:main.c        **** 
1188:main.c        ****         case CYBLE_EVT_GAP_DEVICE_DISCONNECTED:
1189:main.c        ****             StartAdvertisement();
1190:main.c        ****             break;
1191:main.c        ****             
1192:main.c        ****         case CYBLE_EVT_GAPP_ADVERTISEMENT_START_STOP:
1193:main.c        ****             if(CYBLE_STATE_DISCONNECTED == CyBle_GetState())
1194:main.c        ****             {
1195:main.c        ****                 Advertising_LED_Write(LED_OFF);
1196:main.c        ****                 Disconnect_LED_Write(LED_ON);
1197:main.c        ****                 
1198:main.c        ****                 // 清除中断并进入休眠
1199:main.c        ****                 AD5940_EXTI_ClearInterrupt();
1200:main.c        ****                 AD5940_Interrupt_ClearPending();
1201:main.c        ****                 AD5940_Interrupt_Start();
1202:main.c        ****                 CySysPmHibernate();
1203:main.c        ****             }
1204:main.c        ****             break;
ARM GAS  C:\Users\13740\AppData\Local\Temp\cc1Gy8Oo.s 			page 96


1205:main.c        **** 
1206:main.c        ****         case CYBLE_EVT_PENDING_FLASH_WRITE:
1207:main.c        ****             break;
1208:main.c        **** 
1209:main.c        ****         default:
1210:main.c        ****             break;
 3550              		.loc 1 1210 0
 3551 001a 24E0     		b	.L161
 3552              	.L156:
1178:main.c        ****     {
 3553              		.loc 1 1178 0
 3554 001c 282B     		cmp	r3, #40
 3555 001e 09D0     		beq	.L159
 3556 0020 FA2B     		cmp	r3, #250
 3557 0022 1DD0     		beq	.L163
 3558              		.loc 1 1210 0
 3559 0024 1FE0     		b	.L161
 3560              	.L157:
1181:main.c        ****             break;
 3561              		.loc 1 1181 0
 3562 0026 FFF7FEFF 		bl	StartAdvertisement
1182:main.c        **** 
 3563              		.loc 1 1182 0
 3564 002a 1CE0     		b	.L161
 3565              	.L155:
1185:main.c        ****             break;
 3566              		.loc 1 1185 0
 3567 002c 0120     		movs	r0, #1
 3568 002e FFF7FEFF 		bl	Advertising_LED_Write
1186:main.c        **** 
 3569              		.loc 1 1186 0
 3570 0032 18E0     		b	.L161
 3571              	.L159:
1189:main.c        ****             break;
 3572              		.loc 1 1189 0
 3573 0034 FFF7FEFF 		bl	StartAdvertisement
1190:main.c        ****             
 3574              		.loc 1 1190 0
 3575 0038 15E0     		b	.L161
 3576              	.L158:
1193:main.c        ****             {
 3577              		.loc 1 1193 0
 3578 003a 0D4B     		ldr	r3, .L165
 3579 003c 1B78     		ldrb	r3, [r3]
 3580 003e 042B     		cmp	r3, #4
 3581 0040 10D1     		bne	.L164
1195:main.c        ****                 Disconnect_LED_Write(LED_ON);
 3582              		.loc 1 1195 0
 3583 0042 0120     		movs	r0, #1
 3584 0044 FFF7FEFF 		bl	Advertising_LED_Write
1196:main.c        ****                 
 3585              		.loc 1 1196 0
 3586 0048 0020     		movs	r0, #0
 3587 004a FFF7FEFF 		bl	Disconnect_LED_Write
1199:main.c        ****                 AD5940_Interrupt_ClearPending();
 3588              		.loc 1 1199 0
 3589 004e FFF7FEFF 		bl	AD5940_EXTI_ClearInterrupt
ARM GAS  C:\Users\13740\AppData\Local\Temp\cc1Gy8Oo.s 			page 97


1200:main.c        ****                 AD5940_Interrupt_Start();
 3590              		.loc 1 1200 0
 3591 0052 FFF7FEFF 		bl	AD5940_Interrupt_ClearPending
1201:main.c        ****                 CySysPmHibernate();
 3592              		.loc 1 1201 0
 3593 0056 FFF7FEFF 		bl	AD5940_Interrupt_Start
1202:main.c        ****             }
 3594              		.loc 1 1202 0
 3595 005a FFF7FEFF 		bl	CySysPmHibernate
1204:main.c        **** 
 3596              		.loc 1 1204 0
 3597 005e 01E0     		b	.L164
 3598              	.L163:
1207:main.c        **** 
 3599              		.loc 1 1207 0
 3600 0060 C046     		nop
 3601 0062 00E0     		b	.L161
 3602              	.L164:
1204:main.c        **** 
 3603              		.loc 1 1204 0
 3604 0064 C046     		nop
 3605              	.L161:
1211:main.c        ****     }
1212:main.c        **** }
 3606              		.loc 1 1212 0
 3607 0066 C046     		nop
 3608 0068 BD46     		mov	sp, r7
 3609 006a 02B0     		add	sp, sp, #8
 3610              		@ sp needed
 3611 006c 80BD     		pop	{r7, pc}
 3612              	.L166:
 3613 006e C046     		.align	2
 3614              	.L165:
 3615 0070 00000000 		.word	cyBle_state
 3616              		.cfi_endproc
 3617              	.LFE55:
 3618              		.size	AppCallBack, .-AppCallBack
 3619              		.section	.text.LowPowerImplementation,"ax",%progbits
 3620              		.align	2
 3621              		.code	16
 3622              		.thumb_func
 3623              		.type	LowPowerImplementation, %function
 3624              	LowPowerImplementation:
 3625              	.LFB56:
1213:main.c        **** 
1214:main.c        **** /*******************************************************************************
1215:main.c        **** * Function Name: LowPowerImplementation
1216:main.c        **** ********************************************************************************
1217:main.c        **** * Summary:
1218:main.c        **** *   低功耗实现
1219:main.c        **** *******************************************************************************/
1220:main.c        **** static void LowPowerImplementation(void)
1221:main.c        **** {
 3626              		.loc 1 1221 0
 3627              		.cfi_startproc
 3628              		@ args = 0, pretend = 0, frame = 8
 3629              		@ frame_needed = 1, uses_anonymous_args = 0
ARM GAS  C:\Users\13740\AppData\Local\Temp\cc1Gy8Oo.s 			page 98


 3630 0000 90B5     		push	{r4, r7, lr}
 3631              		.cfi_def_cfa_offset 12
 3632              		.cfi_offset 4, -12
 3633              		.cfi_offset 7, -8
 3634              		.cfi_offset 14, -4
 3635 0002 83B0     		sub	sp, sp, #12
 3636              		.cfi_def_cfa_offset 24
 3637 0004 00AF     		add	r7, sp, #0
 3638              		.cfi_def_cfa_register 7
1222:main.c        ****     CYBLE_LP_MODE_T bleMode;
1223:main.c        ****     uint8 interruptStatus;
1224:main.c        ****     
1225:main.c        ****     if((CyBle_GetState() == CYBLE_STATE_ADVERTISING) || 
 3639              		.loc 1 1225 0
 3640 0006 1A4B     		ldr	r3, .L175
 3641 0008 1B78     		ldrb	r3, [r3]
 3642 000a 032B     		cmp	r3, #3
 3643 000c 03D0     		beq	.L168
1226:main.c        ****        (CyBle_GetState() == CYBLE_STATE_CONNECTED))
 3644              		.loc 1 1226 0 discriminator 1
 3645 000e 184B     		ldr	r3, .L175
 3646 0010 1B78     		ldrb	r3, [r3]
1225:main.c        ****        (CyBle_GetState() == CYBLE_STATE_CONNECTED))
 3647              		.loc 1 1225 0 discriminator 1
 3648 0012 022B     		cmp	r3, #2
 3649 0014 27D1     		bne	.L174
 3650              	.L168:
1227:main.c        ****     {
1228:main.c        ****         bleMode = CyBle_EnterLPM(CYBLE_BLESS_DEEPSLEEP);
 3651              		.loc 1 1228 0
 3652 0016 FC1D     		adds	r4, r7, #7
 3653 0018 0320     		movs	r0, #3
 3654 001a FFF7FEFF 		bl	CyBle_EnterLPM
 3655 001e 0300     		movs	r3, r0
 3656 0020 2370     		strb	r3, [r4]
1229:main.c        ****         interruptStatus = CyEnterCriticalSection();
 3657              		.loc 1 1229 0
 3658 0022 BC1D     		adds	r4, r7, #6
 3659 0024 FFF7FEFF 		bl	CyEnterCriticalSection
 3660 0028 0300     		movs	r3, r0
 3661 002a 2370     		strb	r3, [r4]
1230:main.c        ****         
1231:main.c        ****         if(bleMode == CYBLE_BLESS_DEEPSLEEP)
 3662              		.loc 1 1231 0
 3663 002c FB1D     		adds	r3, r7, #7
 3664 002e 1B78     		ldrb	r3, [r3]
 3665 0030 032B     		cmp	r3, #3
 3666 0032 0CD1     		bne	.L170
1232:main.c        ****         {
1233:main.c        ****             if((CyBle_GetBleSsState() == CYBLE_BLESS_STATE_ECO_ON) || 
 3667              		.loc 1 1233 0
 3668 0034 FFF7FEFF 		bl	CyBle_GetBleSsState
 3669 0038 0300     		movs	r3, r0
 3670 003a 042B     		cmp	r3, #4
 3671 003c 04D0     		beq	.L171
1234:main.c        ****                (CyBle_GetBleSsState() == CYBLE_BLESS_STATE_DEEPSLEEP))
 3672              		.loc 1 1234 0 discriminator 1
ARM GAS  C:\Users\13740\AppData\Local\Temp\cc1Gy8Oo.s 			page 99


 3673 003e FFF7FEFF 		bl	CyBle_GetBleSsState
 3674 0042 0300     		movs	r3, r0
1233:main.c        ****                (CyBle_GetBleSsState() == CYBLE_BLESS_STATE_DEEPSLEEP))
 3675              		.loc 1 1233 0 discriminator 1
 3676 0044 062B     		cmp	r3, #6
 3677 0046 09D1     		bne	.L173
 3678              	.L171:
1235:main.c        ****             {
1236:main.c        ****                 CySysPmDeepSleep();
 3679              		.loc 1 1236 0
 3680 0048 FFF7FEFF 		bl	CySysPmDeepSleep
 3681 004c 06E0     		b	.L173
 3682              	.L170:
1237:main.c        ****             }
1238:main.c        ****         }
1239:main.c        ****         else
1240:main.c        ****         {
1241:main.c        ****             if(CyBle_GetBleSsState() != CYBLE_BLESS_STATE_EVENT_CLOSE)
 3683              		.loc 1 1241 0
 3684 004e FFF7FEFF 		bl	CyBle_GetBleSsState
 3685 0052 0300     		movs	r3, r0
 3686 0054 022B     		cmp	r3, #2
 3687 0056 01D0     		beq	.L173
1242:main.c        ****             {
1243:main.c        ****                 CySysPmSleep();
 3688              		.loc 1 1243 0
 3689 0058 FFF7FEFF 		bl	CySysPmSleep
 3690              	.L173:
1244:main.c        ****             }
1245:main.c        ****         }
1246:main.c        ****         
1247:main.c        ****         CyExitCriticalSection(interruptStatus);
 3691              		.loc 1 1247 0
 3692 005c BB1D     		adds	r3, r7, #6
 3693 005e 1B78     		ldrb	r3, [r3]
 3694 0060 1800     		movs	r0, r3
 3695 0062 FFF7FEFF 		bl	CyExitCriticalSection
 3696              	.L174:
1248:main.c        ****     }
1249:main.c        **** }
 3697              		.loc 1 1249 0
 3698 0066 C046     		nop
 3699 0068 BD46     		mov	sp, r7
 3700 006a 03B0     		add	sp, sp, #12
 3701              		@ sp needed
 3702 006c 90BD     		pop	{r4, r7, pc}
 3703              	.L176:
 3704 006e C046     		.align	2
 3705              	.L175:
 3706 0070 00000000 		.word	cyBle_state
 3707              		.cfi_endproc
 3708              	.LFE56:
 3709              		.size	LowPowerImplementation, .-LowPowerImplementation
 3710              		.section	.text.AD5941_HardReset,"ax",%progbits
 3711              		.align	2
 3712              		.global	AD5941_HardReset
 3713              		.code	16
ARM GAS  C:\Users\13740\AppData\Local\Temp\cc1Gy8Oo.s 			page 100


 3714              		.thumb_func
 3715              		.type	AD5941_HardReset, %function
 3716              	AD5941_HardReset:
 3717              	.LFB57:
1250:main.c        **** 
1251:main.c        **** void AD5941_HardReset(void)
1252:main.c        **** {
 3718              		.loc 1 1252 0
 3719              		.cfi_startproc
 3720              		@ args = 0, pretend = 0, frame = 0
 3721              		@ frame_needed = 1, uses_anonymous_args = 0
 3722 0000 80B5     		push	{r7, lr}
 3723              		.cfi_def_cfa_offset 8
 3724              		.cfi_offset 7, -8
 3725              		.cfi_offset 14, -4
 3726 0002 00AF     		add	r7, sp, #0
 3727              		.cfi_def_cfa_register 7
1253:main.c        ****     AD5940_RST_Write(0);
 3728              		.loc 1 1253 0
 3729 0004 0020     		movs	r0, #0
 3730 0006 FFF7FEFF 		bl	AD5940_RST_Write
1254:main.c        ****     CyDelay(20);          // ≥10ms
 3731              		.loc 1 1254 0
 3732 000a 1420     		movs	r0, #20
 3733 000c FFF7FEFF 		bl	CyDelay
1255:main.c        ****     AD5940_RST_Write(1);
 3734              		.loc 1 1255 0
 3735 0010 0120     		movs	r0, #1
 3736 0012 FFF7FEFF 		bl	AD5940_RST_Write
1256:main.c        ****     CyDelay(100);         // ≥50ms，给足
 3737              		.loc 1 1256 0
 3738 0016 6420     		movs	r0, #100
 3739 0018 FFF7FEFF 		bl	CyDelay
1257:main.c        **** }
 3740              		.loc 1 1257 0
 3741 001c C046     		nop
 3742 001e BD46     		mov	sp, r7
 3743              		@ sp needed
 3744 0020 80BD     		pop	{r7, pc}
 3745              		.cfi_endproc
 3746              	.LFE57:
 3747              		.size	AD5941_HardReset, .-AD5941_HardReset
 3748 0022 C046     		.section	.rodata
 3749              		.align	2
 3750              	.LC255:
 3751 1408 0A2A2A2A 		.ascii	"\012*** SYSTEM STARTUP ***\000"
 3751      20535953 
 3751      54454D20 
 3751      53544152 
 3751      54555020 
 3752              		.align	2
 3753              	.LC259:
 3754 1420 5B455252 		.ascii	"[ERROR] BLE initialization failed\000"
 3754      4F525D20 
 3754      424C4520 
 3754      696E6974 
 3754      69616C69 
ARM GAS  C:\Users\13740\AppData\Local\Temp\cc1Gy8Oo.s 			page 101


 3755 1442 0000     		.align	2
 3756              	.LC261:
 3757 1444 5B4F4B5D 		.ascii	"[OK] BLE initialized\000"
 3757      20424C45 
 3757      20696E69 
 3757      7469616C 
 3757      697A6564 
 3758 1459 000000   		.align	2
 3759              	.LC263:
 3760 145c 5B494E46 		.ascii	"[INFO] Initializing Software SPI on GPIO pins...\000"
 3760      4F5D2049 
 3760      6E697469 
 3760      616C697A 
 3760      696E6720 
 3761 148d 000000   		.align	2
 3762              	.LC265:
 3763 1490 5B4F4B5D 		.ascii	"[OK] Software SPI initialized\000"
 3763      20536F66 
 3763      74776172 
 3763      65205350 
 3763      4920696E 
 3764 14ae 0000     		.align	2
 3765              	.LC267:
 3766 14b0 0A5B4449 		.ascii	"\012[DIAGNOSTIC] Software SPI GPIO Pin Status:\000"
 3766      41474E4F 
 3766      53544943 
 3766      5D20536F 
 3766      66747761 
 3767              		.align	2
 3768              	.LC269:
 3769 14dc 20205343 		.ascii	"  SCLK (P1.7): %d (should be 1 at idle)\012\000"
 3769      4C4B2028 
 3769      50312E37 
 3769      293A2025 
 3769      64202873 
 3770 1505 000000   		.align	2
 3771              	.LC271:
 3772 1508 20204D4F 		.ascii	"  MOSI (P0.4): %d\012\000"
 3772      53492028 
 3772      50302E34 
 3772      293A2025 
 3772      640A00
 3773 151b 00       		.align	2
 3774              	.LC273:
 3775 151c 20204D49 		.ascii	"  MISO (P0.5): %d\012\000"
 3775      534F2028 
 3775      50302E35 
 3775      293A2025 
 3775      640A00
 3776 152f 00       		.align	2
 3777              	.LC275:
 3778 1530 20204353 		.ascii	"  CS   (P?.?): %d (should be 1 at idle)\012\000"
 3778      20202028 
 3778      503F2E3F 
 3778      293A2025 
 3778      64202873 
 3779 1559 000000   		.align	2
ARM GAS  C:\Users\13740\AppData\Local\Temp\cc1Gy8Oo.s 			page 102


 3780              	.LC277:
 3781 155c 0A5B4449 		.ascii	"\012[DIAGNOSTIC] SCLK Toggle Test:\000"
 3781      41474E4F 
 3781      53544943 
 3781      5D205343 
 3781      4C4B2054 
 3782              		.align	2
 3783              	.LC279:
 3784 157c 20205343 		.ascii	"  SCLK Low: %d (expect 0)\012\000"
 3784      4C4B204C 
 3784      6F773A20 
 3784      25642028 
 3784      65787065 
 3785 1597 00       		.align	2
 3786              	.LC281:
 3787 1598 20205343 		.ascii	"  SCLK High: %d (expect 1)\012\000"
 3787      4C4B2048 
 3787      6967683A 
 3787      20256420 
 3787      28657870 
 3788              		.align	2
 3789              	.LC283:
 3790 15b4 2020E29C 		.ascii	"  \342\234\205 SCLK can toggle correctly!\000"
 3790      85205343 
 3790      4C4B2063 
 3790      616E2074 
 3790      6F67676C 
 3791 15d5 000000   		.align	2
 3792              	.LC285:
 3793 15d8 2020E29D 		.ascii	"  \342\235\214 SCLK toggle test FAILED - pin may be"
 3793      8C205343 
 3793      4C4B2074 
 3793      6F67676C 
 3793      65207465 
 3794 1602 20737475 		.ascii	" stuck!\000"
 3794      636B2100 
 3795 160a 0000     		.align	2
 3796              	.LC287:
 3797 160c 5B494E46 		.ascii	"[INFO] Initializing control pins...\000"
 3797      4F5D2049 
 3797      6E697469 
 3797      616C697A 
 3797      696E6720 
 3798              		.align	2
 3799              	.LC289:
 3800 1630 5B4F4B5D 		.ascii	"[OK] Control pins initialized\000"
 3800      20436F6E 
 3800      74726F6C 
 3800      2070696E 
 3800      7320696E 
 3801 164e 0000     		.align	2
 3802              	.LC291:
 3803 1650 5B494E46 		.ascii	"[INFO] Initializing AD5941...\000"
 3803      4F5D2049 
 3803      6E697469 
 3803      616C697A 
 3803      696E6720 
ARM GAS  C:\Users\13740\AppData\Local\Temp\cc1Gy8Oo.s 			page 103


 3804 166e 0000     		.align	2
 3805              	.LC293:
 3806 1670 5B494E46 		.ascii	"[INFO] Starting timer interrupt...\000"
 3806      4F5D2053 
 3806      74617274 
 3806      696E6720 
 3806      74696D65 
 3807 1693 00       		.align	2
 3808              	.LC296:
 3809 1694 5B4F4B5D 		.ascii	"[OK] Timer started\000"
 3809      2054696D 
 3809      65722073 
 3809      74617274 
 3809      656400
 3810 16a7 00       		.align	2
 3811              	.LC298:
 3812 16a8 0A5B4449 		.ascii	"\012[DIAGNOSTIC] Running full system diagnostics..."
 3812      41474E4F 
 3812      53544943 
 3812      5D205275 
 3812      6E6E696E 
 3813 16d8 00       		.ascii	"\000"
 3814 16d9 000000   		.align	2
 3815              	.LC300:
 3816 16dc 5B494E46 		.ascii	"[INFO] Waiting for AD5941 initialization...\000"
 3816      4F5D2057 
 3816      61697469 
 3816      6E672066 
 3816      6F722041 
 3817              		.align	2
 3818              	.LC303:
 3819 1708 5B494E46 		.ascii	"[INFO] Init status: %d (waited %lu ms)\012\000"
 3819      4F5D2049 
 3819      6E697420 
 3819      73746174 
 3819      75733A20 
 3820              		.align	2
 3821              	.LC305:
 3822 1730 5B494E46 		.ascii	"[INFO] Enabling electrode channels...\000"
 3822      4F5D2045 
 3822      6E61626C 
 3822      696E6720 
 3822      656C6563 
 3823 1756 0000     		.align	2
 3824              	.LC307:
 3825 1758 5B4F4B5D 		.ascii	"[OK] AD5941 initialization COMPLETE!\000"
 3825      20414435 
 3825      39343120 
 3825      696E6974 
 3825      69616C69 
 3826 177d 000000   		.align	2
 3827              	.LC309:
 3828 1780 5B574152 		.ascii	"[WARNING] AD5941 initialization timeout or failed\000"
 3828      4E494E47 
 3828      5D204144 
 3828      35393431 
 3828      20696E69 
ARM GAS  C:\Users\13740\AppData\Local\Temp\cc1Gy8Oo.s 			page 104


 3829              		.global	__aeabi_fcmpgt
 3830              		.section	.text.main,"ax",%progbits
 3831              		.align	2
 3832              		.global	main
 3833              		.code	16
 3834              		.thumb_func
 3835              		.type	main, %function
 3836              	main:
 3837              	.LFB58:
1258:main.c        **** 
1259:main.c        **** /*******************************************************************************
1260:main.c        **** * Function Name: main
1261:main.c        **** ********************************************************************************
1262:main.c        **** * Summary:
1263:main.c        **** *   主函数
1264:main.c        **** *******************************************************************************/
1265:main.c        **** int main()
1266:main.c        **** {
 3838              		.loc 1 1266 0
 3839              		.cfi_startproc
 3840              		@ args = 0, pretend = 0, frame = 24
 3841              		@ frame_needed = 1, uses_anonymous_args = 0
 3842 0000 90B5     		push	{r4, r7, lr}
 3843              		.cfi_def_cfa_offset 12
 3844              		.cfi_offset 4, -12
 3845              		.cfi_offset 7, -8
 3846              		.cfi_offset 14, -4
 3847 0002 87B0     		sub	sp, sp, #28
 3848              		.cfi_def_cfa_offset 40
 3849 0004 00AF     		add	r7, sp, #0
 3850              		.cfi_def_cfa_register 7
1267:main.c        ****     CyGlobalIntEnable;
 3851              		.loc 1 1267 0
 3852              		.syntax divided
 3853              	@ 1267 "main.c" 1
 3854 0006 62B6     		CPSIE   i
 3855              	@ 0 "" 2
1268:main.c        ****     
1269:main.c        ****     // 初始化LED
1270:main.c        ****     Disconnect_LED_Write(LED_OFF);
 3856              		.loc 1 1270 0
 3857              		.thumb
 3858              		.syntax unified
 3859 0008 0120     		movs	r0, #1
 3860 000a FFF7FEFF 		bl	Disconnect_LED_Write
1271:main.c        ****     Advertising_LED_Write(LED_OFF);
 3861              		.loc 1 1271 0
 3862 000e 0120     		movs	r0, #1
 3863 0010 FFF7FEFF 		bl	Advertising_LED_Write
1272:main.c        ****     
1273:main.c        ****     printf("\n*** SYSTEM STARTUP ***\n");
 3864              		.loc 1 1273 0
 3865 0014 CC4B     		ldr	r3, .L200
 3866 0016 1800     		movs	r0, r3
 3867 0018 FFF7FEFF 		bl	puts
1274:main.c        ****     
1275:main.c        ****     // 初始化BLE
ARM GAS  C:\Users\13740\AppData\Local\Temp\cc1Gy8Oo.s 			page 105


1276:main.c        ****     apiResult = CyBle_Start(AppCallBack);
 3868              		.loc 1 1276 0
 3869 001c CB4B     		ldr	r3, .L200+4
 3870 001e 1800     		movs	r0, r3
 3871 0020 FFF7FEFF 		bl	CyBle_Start
 3872 0024 0300     		movs	r3, r0
 3873 0026 1A00     		movs	r2, r3
 3874 0028 C94B     		ldr	r3, .L200+8
 3875 002a 1A80     		strh	r2, [r3]
1277:main.c        ****     if(apiResult != CYBLE_ERROR_OK)
 3876              		.loc 1 1277 0
 3877 002c C84B     		ldr	r3, .L200+8
 3878 002e 1B88     		ldrh	r3, [r3]
 3879 0030 002B     		cmp	r3, #0
 3880 0032 04D0     		beq	.L179
1278:main.c        ****     {
1279:main.c        ****         printf("[ERROR] BLE initialization failed\n");
 3881              		.loc 1 1279 0
 3882 0034 C74B     		ldr	r3, .L200+12
 3883 0036 1800     		movs	r0, r3
 3884 0038 FFF7FEFF 		bl	puts
 3885 003c 03E0     		b	.L180
 3886              	.L179:
1280:main.c        ****     }
1281:main.c        ****     else
1282:main.c        ****     {
1283:main.c        ****         printf("[OK] BLE initialized\n");
 3887              		.loc 1 1283 0
 3888 003e C64B     		ldr	r3, .L200+16
 3889 0040 1800     		movs	r0, r3
 3890 0042 FFF7FEFF 		bl	puts
 3891              	.L180:
1284:main.c        ****     }
1285:main.c        ****     
1286:main.c        ****     // 初始化SPI引脚为GPIO（软件SPI不需要硬件SPI_1）
1287:main.c        ****     printf("[INFO] Initializing Software SPI on GPIO pins...\n");
 3892              		.loc 1 1287 0
 3893 0046 C54B     		ldr	r3, .L200+20
 3894 0048 1800     		movs	r0, r3
 3895 004a FFF7FEFF 		bl	puts
1288:main.c        ****     
1289:main.c        ****     // 初始化SPI引脚为输出
1290:main.c        ****     // SCLK、MOSI、CS设置为输出
1291:main.c        ****     // MISO设置为输入（在read函数中）
1292:main.c        ****     
1293:main.c        ****     // 设置SCLK初始状态为高（空闲）
1294:main.c        ****     AD5940_SCLK_Write(0);  // 正确：CPOL=0, 空闲状态为低电平
 3896              		.loc 1 1294 0
 3897 004e 0020     		movs	r0, #0
 3898 0050 FFF7FEFF 		bl	AD5940_SCLK_Write
1295:main.c        ****     CyDelay(10);
 3899              		.loc 1 1295 0
 3900 0054 0A20     		movs	r0, #10
 3901 0056 FFF7FEFF 		bl	CyDelay
1296:main.c        ****     printf("[OK] Software SPI initialized\n");
 3902              		.loc 1 1296 0
 3903 005a C14B     		ldr	r3, .L200+24
ARM GAS  C:\Users\13740\AppData\Local\Temp\cc1Gy8Oo.s 			page 106


 3904 005c 1800     		movs	r0, r3
 3905 005e FFF7FEFF 		bl	puts
1297:main.c        ****     
1298:main.c        ****     // 🔍 软件SPI诊断
1299:main.c        ****     printf("\n[DIAGNOSTIC] Software SPI GPIO Pin Status:\n");
 3906              		.loc 1 1299 0
 3907 0062 C04B     		ldr	r3, .L200+28
 3908 0064 1800     		movs	r0, r3
 3909 0066 FFF7FEFF 		bl	puts
1300:main.c        ****     
1301:main.c        ****     // 检查各引脚的初始状态
1302:main.c        ****     uint8_t sclk_data = AD5940_SCLK_Read();
 3910              		.loc 1 1302 0
 3911 006a 0F23     		movs	r3, #15
 3912 006c FC18     		adds	r4, r7, r3
 3913 006e FFF7FEFF 		bl	AD5940_SCLK_Read
 3914 0072 0300     		movs	r3, r0
 3915 0074 2370     		strb	r3, [r4]
1303:main.c        ****     uint8_t mosi_data = AD5940_MOSI_Read();
 3916              		.loc 1 1303 0
 3917 0076 0E23     		movs	r3, #14
 3918 0078 FC18     		adds	r4, r7, r3
 3919 007a FFF7FEFF 		bl	AD5940_MOSI_Read
 3920 007e 0300     		movs	r3, r0
 3921 0080 2370     		strb	r3, [r4]
1304:main.c        ****     uint8_t miso_data = AD5940_MISO_Read();
 3922              		.loc 1 1304 0
 3923 0082 0D23     		movs	r3, #13
 3924 0084 FC18     		adds	r4, r7, r3
 3925 0086 FFF7FEFF 		bl	AD5940_MISO_Read
 3926 008a 0300     		movs	r3, r0
 3927 008c 2370     		strb	r3, [r4]
1305:main.c        ****     uint8_t cs_data = AD5940_CS_Read();
 3928              		.loc 1 1305 0
 3929 008e 0C23     		movs	r3, #12
 3930 0090 FC18     		adds	r4, r7, r3
 3931 0092 FFF7FEFF 		bl	AD5940_CS_Read
 3932 0096 0300     		movs	r3, r0
 3933 0098 2370     		strb	r3, [r4]
1306:main.c        ****     
1307:main.c        ****     printf("  SCLK (P1.7): %d (should be 1 at idle)\n", sclk_data);
 3934              		.loc 1 1307 0
 3935 009a 0F23     		movs	r3, #15
 3936 009c FB18     		adds	r3, r7, r3
 3937 009e 1A78     		ldrb	r2, [r3]
 3938 00a0 B14B     		ldr	r3, .L200+32
 3939 00a2 1100     		movs	r1, r2
 3940 00a4 1800     		movs	r0, r3
 3941 00a6 FFF7FEFF 		bl	printf
1308:main.c        ****     printf("  MOSI (P0.4): %d\n", mosi_data);
 3942              		.loc 1 1308 0
 3943 00aa 0E23     		movs	r3, #14
 3944 00ac FB18     		adds	r3, r7, r3
 3945 00ae 1A78     		ldrb	r2, [r3]
 3946 00b0 AE4B     		ldr	r3, .L200+36
 3947 00b2 1100     		movs	r1, r2
 3948 00b4 1800     		movs	r0, r3
ARM GAS  C:\Users\13740\AppData\Local\Temp\cc1Gy8Oo.s 			page 107


 3949 00b6 FFF7FEFF 		bl	printf
1309:main.c        ****     printf("  MISO (P0.5): %d\n", miso_data);
 3950              		.loc 1 1309 0
 3951 00ba 0D23     		movs	r3, #13
 3952 00bc FB18     		adds	r3, r7, r3
 3953 00be 1A78     		ldrb	r2, [r3]
 3954 00c0 AB4B     		ldr	r3, .L200+40
 3955 00c2 1100     		movs	r1, r2
 3956 00c4 1800     		movs	r0, r3
 3957 00c6 FFF7FEFF 		bl	printf
1310:main.c        ****     printf("  CS   (P?.?): %d (should be 1 at idle)\n", cs_data);
 3958              		.loc 1 1310 0
 3959 00ca 0C23     		movs	r3, #12
 3960 00cc FB18     		adds	r3, r7, r3
 3961 00ce 1A78     		ldrb	r2, [r3]
 3962 00d0 A84B     		ldr	r3, .L200+44
 3963 00d2 1100     		movs	r1, r2
 3964 00d4 1800     		movs	r0, r3
 3965 00d6 FFF7FEFF 		bl	printf
1311:main.c        ****     
1312:main.c        ****     // 验证SCLK能否正确跳变（快速测试）
1313:main.c        ****     printf("\n[DIAGNOSTIC] SCLK Toggle Test:\n");
 3966              		.loc 1 1313 0
 3967 00da A74B     		ldr	r3, .L200+48
 3968 00dc 1800     		movs	r0, r3
 3969 00de FFF7FEFF 		bl	puts
1314:main.c        ****     AD5940_SCLK_Write(0);
 3970              		.loc 1 1314 0
 3971 00e2 0020     		movs	r0, #0
 3972 00e4 FFF7FEFF 		bl	AD5940_SCLK_Write
1315:main.c        ****     CyDelayUs(1);
 3973              		.loc 1 1315 0
 3974 00e8 0120     		movs	r0, #1
 3975 00ea FFF7FEFF 		bl	CyDelayUs
1316:main.c        ****     uint8_t sclk_low = AD5940_SCLK_Read();
 3976              		.loc 1 1316 0
 3977 00ee 0B23     		movs	r3, #11
 3978 00f0 FC18     		adds	r4, r7, r3
 3979 00f2 FFF7FEFF 		bl	AD5940_SCLK_Read
 3980 00f6 0300     		movs	r3, r0
 3981 00f8 2370     		strb	r3, [r4]
1317:main.c        ****     
1318:main.c        ****     AD5940_SCLK_Write(1);
 3982              		.loc 1 1318 0
 3983 00fa 0120     		movs	r0, #1
 3984 00fc FFF7FEFF 		bl	AD5940_SCLK_Write
1319:main.c        ****     CyDelayUs(1);
 3985              		.loc 1 1319 0
 3986 0100 0120     		movs	r0, #1
 3987 0102 FFF7FEFF 		bl	CyDelayUs
1320:main.c        ****     uint8_t sclk_high = AD5940_SCLK_Read();
 3988              		.loc 1 1320 0
 3989 0106 0A23     		movs	r3, #10
 3990 0108 FC18     		adds	r4, r7, r3
 3991 010a FFF7FEFF 		bl	AD5940_SCLK_Read
 3992 010e 0300     		movs	r3, r0
 3993 0110 2370     		strb	r3, [r4]
ARM GAS  C:\Users\13740\AppData\Local\Temp\cc1Gy8Oo.s 			page 108


1321:main.c        ****     
1322:main.c        ****     printf("  SCLK Low: %d (expect 0)\n", sclk_low);
 3994              		.loc 1 1322 0
 3995 0112 0B23     		movs	r3, #11
 3996 0114 FB18     		adds	r3, r7, r3
 3997 0116 1A78     		ldrb	r2, [r3]
 3998 0118 984B     		ldr	r3, .L200+52
 3999 011a 1100     		movs	r1, r2
 4000 011c 1800     		movs	r0, r3
 4001 011e FFF7FEFF 		bl	printf
1323:main.c        ****     printf("  SCLK High: %d (expect 1)\n", sclk_high);
 4002              		.loc 1 1323 0
 4003 0122 0A23     		movs	r3, #10
 4004 0124 FB18     		adds	r3, r7, r3
 4005 0126 1A78     		ldrb	r2, [r3]
 4006 0128 954B     		ldr	r3, .L200+56
 4007 012a 1100     		movs	r1, r2
 4008 012c 1800     		movs	r0, r3
 4009 012e FFF7FEFF 		bl	printf
1324:main.c        ****     
1325:main.c        ****     if(sclk_low == 0 && sclk_high == 1)
 4010              		.loc 1 1325 0
 4011 0132 0B23     		movs	r3, #11
 4012 0134 FB18     		adds	r3, r7, r3
 4013 0136 1B78     		ldrb	r3, [r3]
 4014 0138 002B     		cmp	r3, #0
 4015 013a 09D1     		bne	.L181
 4016              		.loc 1 1325 0 is_stmt 0 discriminator 1
 4017 013c 0A23     		movs	r3, #10
 4018 013e FB18     		adds	r3, r7, r3
 4019 0140 1B78     		ldrb	r3, [r3]
 4020 0142 012B     		cmp	r3, #1
 4021 0144 04D1     		bne	.L181
1326:main.c        ****     {
1327:main.c        ****         printf("  ✅ SCLK can toggle correctly!\n");
 4022              		.loc 1 1327 0 is_stmt 1
 4023 0146 8F4B     		ldr	r3, .L200+60
 4024 0148 1800     		movs	r0, r3
 4025 014a FFF7FEFF 		bl	puts
 4026 014e 03E0     		b	.L182
 4027              	.L181:
1328:main.c        ****     }
1329:main.c        ****     else
1330:main.c        ****     {
1331:main.c        ****         printf("  ❌ SCLK toggle test FAILED - pin may be stuck!\n");
 4028              		.loc 1 1331 0
 4029 0150 8D4B     		ldr	r3, .L200+64
 4030 0152 1800     		movs	r0, r3
 4031 0154 FFF7FEFF 		bl	puts
 4032              	.L182:
1332:main.c        ****     }
1333:main.c        ****     printf("\n");
 4033              		.loc 1 1333 0
 4034 0158 0A20     		movs	r0, #10
 4035 015a FFF7FEFF 		bl	putchar
1334:main.c        ****     
1335:main.c        ****     AD5941_HardReset();   // ← 必须在任何 SPI 前
ARM GAS  C:\Users\13740\AppData\Local\Temp\cc1Gy8Oo.s 			page 109


 4036              		.loc 1 1335 0
 4037 015e FFF7FEFF 		bl	AD5941_HardReset
1336:main.c        **** 
1337:main.c        ****     
1338:main.c        ****     
1339:main.c        ****    
1340:main.c        ****     // 🔍 快速验证 CHIPID - 在 AD5941_Initialize 前进行简单测试
1341:main.c        ****   
1342:main.c        ****     uint32_t testChipID = AD5940_ReadReg(REG_AFECON_CHIPID);
 4038              		.loc 1 1342 0
 4039 0162 8A4B     		ldr	r3, .L200+68
 4040 0164 1800     		movs	r0, r3
 4041 0166 FFF7FEFF 		bl	AD5940_ReadReg
 4042 016a 0300     		movs	r3, r0
 4043 016c 7B60     		str	r3, [r7, #4]
1343:main.c        **** 
1344:main.c        ****     
1345:main.c        ****     // 初始化控制引脚
1346:main.c        ****     printf("[INFO] Initializing control pins...\n");
 4044              		.loc 1 1346 0
 4045 016e 884B     		ldr	r3, .L200+72
 4046 0170 1800     		movs	r0, r3
 4047 0172 FFF7FEFF 		bl	puts
1347:main.c        ****     DRUG_EN_1_Write(0);
 4048              		.loc 1 1347 0
 4049 0176 0020     		movs	r0, #0
 4050 0178 FFF7FEFF 		bl	DRUG_EN_1_Write
1348:main.c        ****     STIM_EN_A_Write(0);
 4051              		.loc 1 1348 0
 4052 017c 0020     		movs	r0, #0
 4053 017e FFF7FEFF 		bl	STIM_EN_A_Write
1349:main.c        ****     AMP1_EN_Write(0);
 4054              		.loc 1 1349 0
 4055 0182 0020     		movs	r0, #0
 4056 0184 FFF7FEFF 		bl	AMP1_EN_Write
1350:main.c        ****     AMP2_EN_Write(0);
 4057              		.loc 1 1350 0
 4058 0188 0020     		movs	r0, #0
 4059 018a FFF7FEFF 		bl	AMP2_EN_Write
1351:main.c        ****     AMP3_EN_Write(0);
 4060              		.loc 1 1351 0
 4061 018e 0020     		movs	r0, #0
 4062 0190 FFF7FEFF 		bl	AMP3_EN_Write
1352:main.c        ****     printf("[OK] Control pins initialized\n");
 4063              		.loc 1 1352 0
 4064 0194 7F4B     		ldr	r3, .L200+76
 4065 0196 1800     		movs	r0, r3
 4066 0198 FFF7FEFF 		bl	puts
1353:main.c        ****         // 初始化AD5941
1354:main.c        ****     printf("[INFO] Initializing AD5941...\n");
 4067              		.loc 1 1354 0
 4068 019c 7E4B     		ldr	r3, .L200+80
 4069 019e 1800     		movs	r0, r3
 4070 01a0 FFF7FEFF 		bl	puts
1355:main.c        ****     
1356:main.c        ****     // 物理复位序列
1357:main.c        ****     AD5940_RST_Write(0); 
ARM GAS  C:\Users\13740\AppData\Local\Temp\cc1Gy8Oo.s 			page 110


 4071              		.loc 1 1357 0
 4072 01a4 0020     		movs	r0, #0
 4073 01a6 FFF7FEFF 		bl	AD5940_RST_Write
1358:main.c        ****     CyDelay(10);
 4074              		.loc 1 1358 0
 4075 01aa 0A20     		movs	r0, #10
 4076 01ac FFF7FEFF 		bl	CyDelay
1359:main.c        ****     AD5940_RST_Write(1);
 4077              		.loc 1 1359 0
 4078 01b0 0120     		movs	r0, #1
 4079 01b2 FFF7FEFF 		bl	AD5940_RST_Write
1360:main.c        ****     CyDelay(50); // 等待芯片内部启动
 4080              		.loc 1 1360 0
 4081 01b6 3220     		movs	r0, #50
 4082 01b8 FFF7FEFF 		bl	CyDelay
1361:main.c        ****     AD5941_Initialize();
 4083              		.loc 1 1361 0
 4084 01bc FFF7FEFF 		bl	AD5941_Initialize
1362:main.c        ****     // 启动定时器中断
1363:main.c        ****     printf("[INFO] Starting timer interrupt...\n");
 4085              		.loc 1 1363 0
 4086 01c0 764B     		ldr	r3, .L200+84
 4087 01c2 1800     		movs	r0, r3
 4088 01c4 FFF7FEFF 		bl	puts
1364:main.c        ****     CySysWdtSetInterruptCallback(CY_SYS_WDT_COUNTER2, Timer_Interrupt);
 4089              		.loc 1 1364 0
 4090 01c8 754B     		ldr	r3, .L200+88
 4091 01ca 1900     		movs	r1, r3
 4092 01cc 0220     		movs	r0, #2
 4093 01ce FFF7FEFF 		bl	CySysWdtSetInterruptCallback
1365:main.c        ****     CySysWdtEnableCounterIsr(CY_SYS_WDT_COUNTER2);
 4094              		.loc 1 1365 0
 4095 01d2 0220     		movs	r0, #2
 4096 01d4 FFF7FEFF 		bl	CySysWdtEnableCounterIsr
1366:main.c        ****     printf("[OK] Timer started\n");
 4097              		.loc 1 1366 0
 4098 01d8 724B     		ldr	r3, .L200+92
 4099 01da 1800     		movs	r0, r3
 4100 01dc FFF7FEFF 		bl	puts
1367:main.c        ****     
1368:main.c        ****     // ===== 完整诊断 =====
1369:main.c        ****     printf("\n[DIAGNOSTIC] Running full system diagnostics...\n");
 4101              		.loc 1 1369 0
 4102 01e0 714B     		ldr	r3, .L200+96
 4103 01e2 1800     		movs	r0, r3
 4104 01e4 FFF7FEFF 		bl	puts
1370:main.c        ****     CyDelay(500);
 4105              		.loc 1 1370 0
 4106 01e8 FA23     		movs	r3, #250
 4107 01ea 5B00     		lsls	r3, r3, #1
 4108 01ec 1800     		movs	r0, r3
 4109 01ee FFF7FEFF 		bl	CyDelay
1371:main.c        ****     FullDiagnostics();
 4110              		.loc 1 1371 0
 4111 01f2 FFF7FEFF 		bl	FullDiagnostics
1372:main.c        ****     CyDelay(500);
 4112              		.loc 1 1372 0
ARM GAS  C:\Users\13740\AppData\Local\Temp\cc1Gy8Oo.s 			page 111


 4113 01f6 FA23     		movs	r3, #250
 4114 01f8 5B00     		lsls	r3, r3, #1
 4115 01fa 1800     		movs	r0, r3
 4116 01fc FFF7FEFF 		bl	CyDelay
1373:main.c        ****     
1374:main.c        ****     // 等待初始化完成
1375:main.c        ****     printf("[INFO] Waiting for AD5941 initialization...\n");
 4117              		.loc 1 1375 0
 4118 0200 6A4B     		ldr	r3, .L200+100
 4119 0202 1800     		movs	r0, r3
 4120 0204 FFF7FEFF 		bl	puts
1376:main.c        ****     uint32 initWaitTime = 0;
 4121              		.loc 1 1376 0
 4122 0208 0023     		movs	r3, #0
 4123 020a 7B61     		str	r3, [r7, #20]
1377:main.c        ****     while((pAmpCfg->AMPInited == bFALSE) && (initWaitTime < 5000))
 4124              		.loc 1 1377 0
 4125 020c 0FE0     		b	.L183
 4126              	.L185:
1378:main.c        ****     {
1379:main.c        ****         CyDelay(100);
 4127              		.loc 1 1379 0
 4128 020e 6420     		movs	r0, #100
 4129 0210 FFF7FEFF 		bl	CyDelay
1380:main.c        ****         initWaitTime += 100;
 4130              		.loc 1 1380 0
 4131 0214 7B69     		ldr	r3, [r7, #20]
 4132 0216 6433     		adds	r3, r3, #100
 4133 0218 7B61     		str	r3, [r7, #20]
1381:main.c        ****         printf("[INFO] Init status: %d (waited %lu ms)\n", (int)pAmpCfg->AMPInited, initWaitTime);
 4134              		.loc 1 1381 0
 4135 021a 654B     		ldr	r3, .L200+104
 4136 021c 1B68     		ldr	r3, [r3]
 4137 021e 6C22     		movs	r2, #108
 4138 0220 9B5C     		ldrb	r3, [r3, r2]
 4139 0222 1900     		movs	r1, r3
 4140 0224 7A69     		ldr	r2, [r7, #20]
 4141 0226 634B     		ldr	r3, .L200+108
 4142 0228 1800     		movs	r0, r3
 4143 022a FFF7FEFF 		bl	printf
 4144              	.L183:
1377:main.c        ****     {
 4145              		.loc 1 1377 0
 4146 022e 604B     		ldr	r3, .L200+104
 4147 0230 1B68     		ldr	r3, [r3]
 4148 0232 6C22     		movs	r2, #108
 4149 0234 9B5C     		ldrb	r3, [r3, r2]
 4150 0236 002B     		cmp	r3, #0
 4151 0238 03D1     		bne	.L184
1377:main.c        ****     {
 4152              		.loc 1 1377 0 is_stmt 0 discriminator 1
 4153 023a 7B69     		ldr	r3, [r7, #20]
 4154 023c 5E4A     		ldr	r2, .L200+112
 4155 023e 9342     		cmp	r3, r2
 4156 0240 E5D9     		bls	.L185
 4157              	.L184:
1382:main.c        ****     }
ARM GAS  C:\Users\13740\AppData\Local\Temp\cc1Gy8Oo.s 			page 112


1383:main.c        ****         if(pAmpCfg->AMPInited == bTRUE)
 4158              		.loc 1 1383 0 is_stmt 1
 4159 0242 5B4B     		ldr	r3, .L200+104
 4160 0244 1B68     		ldr	r3, [r3]
 4161 0246 6C22     		movs	r2, #108
 4162 0248 9B5C     		ldrb	r3, [r3, r2]
 4163 024a 012B     		cmp	r3, #1
 4164 024c 0CD1     		bne	.L186
1384:main.c        ****     {
1385:main.c        ****         printf("[INFO] Enabling electrode channels...\n");
 4165              		.loc 1 1385 0
 4166 024e 5B4B     		ldr	r3, .L200+116
 4167 0250 1800     		movs	r0, r3
 4168 0252 FFF7FEFF 		bl	puts
1386:main.c        ****         AMP1_EN_Write(1);
 4169              		.loc 1 1386 0
 4170 0256 0120     		movs	r0, #1
 4171 0258 FFF7FEFF 		bl	AMP1_EN_Write
1387:main.c        ****         AMP2_EN_Write(1);
 4172              		.loc 1 1387 0
 4173 025c 0120     		movs	r0, #1
 4174 025e FFF7FEFF 		bl	AMP2_EN_Write
1388:main.c        ****         AMP3_EN_Write(1);
 4175              		.loc 1 1388 0
 4176 0262 0120     		movs	r0, #1
 4177 0264 FFF7FEFF 		bl	AMP3_EN_Write
 4178              	.L186:
1389:main.c        ****     }
1390:main.c        ****     if(pAmpCfg->AMPInited == bTRUE)
 4179              		.loc 1 1390 0
 4180 0268 514B     		ldr	r3, .L200+104
 4181 026a 1B68     		ldr	r3, [r3]
 4182 026c 6C22     		movs	r2, #108
 4183 026e 9B5C     		ldrb	r3, [r3, r2]
 4184 0270 012B     		cmp	r3, #1
 4185 0272 04D1     		bne	.L187
1391:main.c        ****     {
1392:main.c        ****         printf("[OK] AD5941 initialization COMPLETE!\n");
 4186              		.loc 1 1392 0
 4187 0274 524B     		ldr	r3, .L200+120
 4188 0276 1800     		movs	r0, r3
 4189 0278 FFF7FEFF 		bl	puts
 4190 027c 03E0     		b	.L188
 4191              	.L187:
1393:main.c        ****     }
1394:main.c        ****     else
1395:main.c        ****     {
1396:main.c        ****         printf("[WARNING] AD5941 initialization timeout or failed\n");
 4192              		.loc 1 1396 0
 4193 027e 514B     		ldr	r3, .L200+124
 4194 0280 1800     		movs	r0, r3
 4195 0282 FFF7FEFF 		bl	puts
 4196              	.L188:
1397:main.c        ****     }
1398:main.c        ****     
1399:main.c        ****     uint32 lastSendTime = 0;
 4197              		.loc 1 1399 0
ARM GAS  C:\Users\13740\AppData\Local\Temp\cc1Gy8Oo.s 			page 113


 4198 0286 0023     		movs	r3, #0
 4199 0288 3B61     		str	r3, [r7, #16]
1400:main.c        ****     #define SEND_INTERVAL 3  // 每3秒刷新一次
1401:main.c        ****     
1402:main.c        ****     AD5940_HWReset();          // 1. 先硬复位！
 4200              		.loc 1 1402 0
 4201 028a FFF7FEFF 		bl	AD5940_HWReset
1403:main.c        ****     AD5940_CsSet();            // 2. 确保 CS 初始为高
 4202              		.loc 1 1403 0
 4203 028e FFF7FEFF 		bl	AD5940_CsSet
1404:main.c        ****     CyDelay(10);
 4204              		.loc 1 1404 0
 4205 0292 0A20     		movs	r0, #10
 4206 0294 FFF7FEFF 		bl	CyDelay
1405:main.c        ****     
1406:main.c        ****     // 3. 发送一个“哑指令”来清除可能的锁死状态
1407:main.c        ****     AD5940_ReadReg(REG_AFECON_CHIPID); 
 4207              		.loc 1 1407 0
 4208 0298 3C4B     		ldr	r3, .L200+68
 4209 029a 1800     		movs	r0, r3
 4210 029c FFF7FEFF 		bl	AD5940_ReadReg
1408:main.c        ****     CyDelay(10);
 4211              		.loc 1 1408 0
 4212 02a0 0A20     		movs	r0, #10
 4213 02a2 FFF7FEFF 		bl	CyDelay
 4214              	.L197:
1409:main.c        ****     /***************************************************************************
1410:main.c        ****     * 主循环
1411:main.c        ****     ***************************************************************************/
1412:main.c        ****     while(1)
1413:main.c        ****     {
1414:main.c        ****         // 处理BLE事件
1415:main.c        ****         CyBle_ProcessEvents();
 4215              		.loc 1 1415 0
 4216 02a6 FFF7FEFF 		bl	CyBle_ProcessEvents
1416:main.c        ****         
1417:main.c        ****         // 低功耗管理
1418:main.c        ****         
1419:main.c        **** 
1420:main.c        ****         //LowPowerImplementation();
1421:main.c        ****         
1422:main.c        ****         // 每秒执行一次传感器测量
1423:main.c        ****         if(measurementFlag)
 4217              		.loc 1 1423 0
 4218 02aa 474B     		ldr	r3, .L200+128
 4219 02ac 1B78     		ldrb	r3, [r3]
 4220 02ae DBB2     		uxtb	r3, r3
 4221 02b0 002B     		cmp	r3, #0
 4222 02b2 3CD0     		beq	.L189
1424:main.c        ****         {
1425:main.c        ****             measurementFlag = 0;
 4223              		.loc 1 1425 0
 4224 02b4 444B     		ldr	r3, .L200+128
 4225 02b6 0022     		movs	r2, #0
 4226 02b8 1A70     		strb	r2, [r3]
1426:main.c        ****             
1427:main.c        ****             // 测量所有传感器
ARM GAS  C:\Users\13740\AppData\Local\Temp\cc1Gy8Oo.s 			page 114


1428:main.c        ****             MeasureAllSensorsWithCurrent();
 4227              		.loc 1 1428 0
 4228 02ba FFF7FEFF 		bl	MeasureAllSensorsWithCurrent
1429:main.c        ****             
1430:main.c        ****             // 每3秒发送一次数据（自动刷新）
1431:main.c        ****             if((mainTimer - lastSendTime) >= SEND_INTERVAL)
 4229              		.loc 1 1431 0
 4230 02be 434B     		ldr	r3, .L200+132
 4231 02c0 1A68     		ldr	r2, [r3]
 4232 02c2 3B69     		ldr	r3, [r7, #16]
 4233 02c4 D31A     		subs	r3, r2, r3
 4234 02c6 022B     		cmp	r3, #2
 4235 02c8 08D9     		bls	.L190
1432:main.c        ****             {
1433:main.c        ****                 lastSendTime = mainTimer;
 4236              		.loc 1 1433 0
 4237 02ca 404B     		ldr	r3, .L200+132
 4238 02cc 1B68     		ldr	r3, [r3]
 4239 02ce 3B61     		str	r3, [r7, #16]
1434:main.c        ****                 
1435:main.c        ****                 if(CyBle_GetState() == CYBLE_STATE_CONNECTED)
 4240              		.loc 1 1435 0
 4241 02d0 3F4B     		ldr	r3, .L200+136
 4242 02d2 1B78     		ldrb	r3, [r3]
 4243 02d4 022B     		cmp	r3, #2
 4244 02d6 01D1     		bne	.L190
1436:main.c        ****                 {
1437:main.c        ****                     SendAllSensorDataViaBLE();  // 使用新的发送函数
 4245              		.loc 1 1437 0
 4246 02d8 FFF7FEFF 		bl	SendAllSensorDataViaBLE
 4247              	.L190:
1438:main.c        ****                 }
1439:main.c        ****             }
1440:main.c        ****             
1441:main.c        ****             // 智能治疗决策
1442:main.c        ****             // 1. 检测感染（温度升高或乳酸升高）
1443:main.c        ****             if(sensorData.temperature > 38.5 || sensorData.lactate > 5.0)
 4248              		.loc 1 1443 0
 4249 02dc 3D4B     		ldr	r3, .L200+140
 4250 02de 1B68     		ldr	r3, [r3]
 4251 02e0 3D49     		ldr	r1, .L200+144
 4252 02e2 181C     		adds	r0, r3, #0
 4253 02e4 FFF7FEFF 		bl	__aeabi_fcmpgt
 4254 02e8 031E     		subs	r3, r0, #0
 4255 02ea 07D1     		bne	.L191
 4256              		.loc 1 1443 0 is_stmt 0 discriminator 1
 4257 02ec 394B     		ldr	r3, .L200+140
 4258 02ee 9B68     		ldr	r3, [r3, #8]
 4259 02f0 3A49     		ldr	r1, .L200+148
 4260 02f2 181C     		adds	r0, r3, #0
 4261 02f4 FFF7FEFF 		bl	__aeabi_fcmpgt
 4262 02f8 031E     		subs	r3, r0, #0
 4263 02fa 09D0     		beq	.L192
 4264              	.L191:
1444:main.c        ****             {
1445:main.c        ****                 ControlDrugRelease(1);
 4265              		.loc 1 1445 0 is_stmt 1
ARM GAS  C:\Users\13740\AppData\Local\Temp\cc1Gy8Oo.s 			page 115


 4266 02fc 0120     		movs	r0, #1
 4267 02fe FFF7FEFF 		bl	ControlDrugRelease
1446:main.c        ****                 CyDelay(10000);  // 释放10秒（实际应该是10分钟，这里缩短用于测
 4268              		.loc 1 1446 0
 4269 0302 374B     		ldr	r3, .L200+152
 4270 0304 1800     		movs	r0, r3
 4271 0306 FFF7FEFF 		bl	CyDelay
1447:main.c        ****                 ControlDrugRelease(0);
 4272              		.loc 1 1447 0
 4273 030a 0020     		movs	r0, #0
 4274 030c FFF7FEFF 		bl	ControlDrugRelease
 4275              	.L192:
1448:main.c        ****             }
1449:main.c        ****             
1450:main.c        ****             // 2. 促进愈合（电刺激）
1451:main.c        ****             if(sensorData.glucose > 10.0)
 4276              		.loc 1 1451 0
 4277 0310 304B     		ldr	r3, .L200+140
 4278 0312 5B68     		ldr	r3, [r3, #4]
 4279 0314 3349     		ldr	r1, .L200+156
 4280 0316 181C     		adds	r0, r3, #0
 4281 0318 FFF7FEFF 		bl	__aeabi_fcmpgt
 4282 031c 031E     		subs	r3, r0, #0
 4283 031e 03D0     		beq	.L199
1452:main.c        ****             {
1453:main.c        ****                 ControlElectricalStimulation(1);
 4284              		.loc 1 1453 0
 4285 0320 0120     		movs	r0, #1
 4286 0322 FFF7FEFF 		bl	ControlElectricalStimulation
 4287 0326 02E0     		b	.L189
 4288              	.L199:
1454:main.c        ****             }
1455:main.c        ****             else
1456:main.c        ****             {
1457:main.c        ****                 ControlElectricalStimulation(0);
 4289              		.loc 1 1457 0
 4290 0328 0020     		movs	r0, #0
 4291 032a FFF7FEFF 		bl	ControlElectricalStimulation
 4292              	.L189:
1458:main.c        ****             }
1459:main.c        ****         }
1460:main.c        ****         
1461:main.c        ****         // Flash写入
1462:main.c        ****         if(cyBle_pendingFlashWrite != 0u)
 4293              		.loc 1 1462 0
 4294 032e 2E4B     		ldr	r3, .L200+160
 4295 0330 1B78     		ldrb	r3, [r3]
 4296 0332 002B     		cmp	r3, #0
 4297 0334 B7D0     		beq	.L197
1463:main.c        ****         {
1464:main.c        ****             apiResult = CyBle_StoreBondingData(0u);
 4298              		.loc 1 1464 0
 4299 0336 0020     		movs	r0, #0
 4300 0338 FFF7FEFF 		bl	CyBle_StoreBondingData
 4301 033c 0300     		movs	r3, r0
 4302 033e 1A00     		movs	r2, r3
 4303 0340 034B     		ldr	r3, .L200+8
ARM GAS  C:\Users\13740\AppData\Local\Temp\cc1Gy8Oo.s 			page 116


 4304 0342 1A80     		strh	r2, [r3]
1465:main.c        ****         }
1466:main.c        ****     }
 4305              		.loc 1 1466 0
 4306 0344 AFE7     		b	.L197
 4307              	.L201:
 4308 0346 C046     		.align	2
 4309              	.L200:
 4310 0348 08140000 		.word	.LC255
 4311 034c 00000000 		.word	AppCallBack
 4312 0350 00000000 		.word	apiResult
 4313 0354 20140000 		.word	.LC259
 4314 0358 44140000 		.word	.LC261
 4315 035c 5C140000 		.word	.LC263
 4316 0360 90140000 		.word	.LC265
 4317 0364 B0140000 		.word	.LC267
 4318 0368 DC140000 		.word	.LC269
 4319 036c 08150000 		.word	.LC271
 4320 0370 1C150000 		.word	.LC273
 4321 0374 30150000 		.word	.LC275
 4322 0378 5C150000 		.word	.LC277
 4323 037c 7C150000 		.word	.LC279
 4324 0380 98150000 		.word	.LC281
 4325 0384 B4150000 		.word	.LC283
 4326 0388 D8150000 		.word	.LC285
 4327 038c 04040000 		.word	1028
 4328 0390 0C160000 		.word	.LC287
 4329 0394 30160000 		.word	.LC289
 4330 0398 50160000 		.word	.LC291
 4331 039c 70160000 		.word	.LC293
 4332 03a0 00000000 		.word	Timer_Interrupt
 4333 03a4 94160000 		.word	.LC296
 4334 03a8 A8160000 		.word	.LC298
 4335 03ac DC160000 		.word	.LC300
 4336 03b0 00000000 		.word	pAmpCfg
 4337 03b4 08170000 		.word	.LC303
 4338 03b8 87130000 		.word	4999
 4339 03bc 30170000 		.word	.LC305
 4340 03c0 58170000 		.word	.LC307
 4341 03c4 80170000 		.word	.LC309
 4342 03c8 00000000 		.word	measurementFlag
 4343 03cc 00000000 		.word	mainTimer
 4344 03d0 00000000 		.word	cyBle_state
 4345 03d4 00000000 		.word	sensorData
 4346 03d8 00001A42 		.word	1109000192
 4347 03dc 0000A040 		.word	1084227584
 4348 03e0 10270000 		.word	10000
 4349 03e4 00002041 		.word	1092616192
 4350 03e8 00000000 		.word	cyBle_pendingFlashWrite
 4351              		.cfi_endproc
 4352              	.LFE58:
 4353              		.size	main, .-main
 4354              		.section	.rodata
 4355 17b2 0000     		.align	2
 4356              	.LC317:
 4357 17b4 E5B9BFE6 		.ascii	"\345\271\277\346\222\255\345\220\257\345\212\250\345"
 4357      92ADE590 
ARM GAS  C:\Users\13740\AppData\Local\Temp\cc1Gy8Oo.s 			page 117


 4357      AFE58AA8 
 4357      E5
 4358 17c1 A4B1E8B4 		.ascii	"\244\261\350\264\245: %d\015\012\000"
 4358      A53A2025 
 4358      640D0A00 
 4359 17cd 000000   		.align	2
 4360              	.LC319:
 4361 17d0 E5BC80E5 		.ascii	"\345\274\200\345\247\213\345\271\277\346\222\255, \345"
 4361      A78BE5B9 
 4361      BFE692AD 
 4361      2C20E5
 4362 17df 9CB0E59D 		.ascii	"\234\260\345\235\200: \000"
 4362      803A2000 
 4363 17e7 00       		.align	2
 4364              	.LC321:
 4365 17e8 25322E32 		.ascii	"%2.2x\000"
 4365      7800
 4366 17ee 0000     		.align	2
 4367              	.LC323:
 4368 17f0 0D00     		.ascii	"\015\000"
 4369              		.section	.text.StartAdvertisement,"ax",%progbits
 4370              		.align	2
 4371              		.global	StartAdvertisement
 4372              		.code	16
 4373              		.thumb_func
 4374              		.type	StartAdvertisement, %function
 4375              	StartAdvertisement:
 4376              	.LFB59:
1467:main.c        **** }
1468:main.c        **** 
1469:main.c        **** /*******************************************************************************
1470:main.c        **** * Function Name: StartAdvertisement
1471:main.c        **** ********************************************************************************
1472:main.c        **** * Summary:
1473:main.c        **** *   启动BLE广播
1474:main.c        **** *******************************************************************************/
1475:main.c        **** void StartAdvertisement(void)
1476:main.c        **** {
 4377              		.loc 1 1476 0
 4378              		.cfi_startproc
 4379              		@ args = 0, pretend = 0, frame = 16
 4380              		@ frame_needed = 1, uses_anonymous_args = 0
 4381 0000 80B5     		push	{r7, lr}
 4382              		.cfi_def_cfa_offset 8
 4383              		.cfi_offset 7, -8
 4384              		.cfi_offset 14, -4
 4385 0002 84B0     		sub	sp, sp, #16
 4386              		.cfi_def_cfa_offset 24
 4387 0004 00AF     		add	r7, sp, #0
 4388              		.cfi_def_cfa_register 7
1477:main.c        ****     uint16 i;
1478:main.c        ****     CYBLE_GAP_BD_ADDR_T localAddr;
1479:main.c        ****     
1480:main.c        ****     apiResult = CyBle_GappStartAdvertisement(CYBLE_ADVERTISING_FAST);
 4389              		.loc 1 1480 0
 4390 0006 0020     		movs	r0, #0
 4391 0008 FFF7FEFF 		bl	CyBle_GappStartAdvertisement
ARM GAS  C:\Users\13740\AppData\Local\Temp\cc1Gy8Oo.s 			page 118


 4392 000c 0300     		movs	r3, r0
 4393 000e 1A00     		movs	r2, r3
 4394 0010 1F4B     		ldr	r3, .L208
 4395 0012 1A80     		strh	r2, [r3]
1481:main.c        ****     if(apiResult != CYBLE_ERROR_OK)
 4396              		.loc 1 1481 0
 4397 0014 1E4B     		ldr	r3, .L208
 4398 0016 1B88     		ldrh	r3, [r3]
 4399 0018 002B     		cmp	r3, #0
 4400 001a 08D0     		beq	.L203
1482:main.c        ****     {
1483:main.c        ****         DBG_PRINTF("广播启动失败: %d\r\n", apiResult);
 4401              		.loc 1 1483 0
 4402 001c 1C4B     		ldr	r3, .L208
 4403 001e 1B88     		ldrh	r3, [r3]
 4404 0020 1A00     		movs	r2, r3
 4405 0022 1C4B     		ldr	r3, .L208+4
 4406 0024 1100     		movs	r1, r2
 4407 0026 1800     		movs	r0, r3
 4408 0028 FFF7FEFF 		bl	printf
1484:main.c        ****     }
1485:main.c        ****     else
1486:main.c        ****     {
1487:main.c        ****         DBG_PRINTF("开始广播, 地址: ");
1488:main.c        ****         localAddr.type = 0u;
1489:main.c        ****         CyBle_GetDeviceAddress(&localAddr);
1490:main.c        ****         for(i = CYBLE_GAP_BD_ADDR_SIZE; i > 0u; i--)
1491:main.c        ****         {
1492:main.c        ****             DBG_PRINTF("%2.2x", localAddr.bdAddr[i-1]);
1493:main.c        ****         }
1494:main.c        ****         DBG_PRINTF("\r\n");
1495:main.c        ****     }
1496:main.c        **** }
 4409              		.loc 1 1496 0
 4410 002c 2BE0     		b	.L207
 4411              	.L203:
1487:main.c        ****         localAddr.type = 0u;
 4412              		.loc 1 1487 0
 4413 002e 1A4B     		ldr	r3, .L208+8
 4414 0030 1800     		movs	r0, r3
 4415 0032 FFF7FEFF 		bl	printf
1488:main.c        ****         CyBle_GetDeviceAddress(&localAddr);
 4416              		.loc 1 1488 0
 4417 0036 3B1D     		adds	r3, r7, #4
 4418 0038 0022     		movs	r2, #0
 4419 003a 9A71     		strb	r2, [r3, #6]
1489:main.c        ****         for(i = CYBLE_GAP_BD_ADDR_SIZE; i > 0u; i--)
 4420              		.loc 1 1489 0
 4421 003c 3B1D     		adds	r3, r7, #4
 4422 003e 1800     		movs	r0, r3
 4423 0040 FFF7FEFF 		bl	CyBle_GetDeviceAddress
1490:main.c        ****         {
 4424              		.loc 1 1490 0
 4425 0044 0E23     		movs	r3, #14
 4426 0046 FB18     		adds	r3, r7, r3
 4427 0048 0622     		movs	r2, #6
 4428 004a 1A80     		strh	r2, [r3]
ARM GAS  C:\Users\13740\AppData\Local\Temp\cc1Gy8Oo.s 			page 119


 4429 004c 12E0     		b	.L205
 4430              	.L206:
1492:main.c        ****         }
 4431              		.loc 1 1492 0 discriminator 3
 4432 004e 0E23     		movs	r3, #14
 4433 0050 FB18     		adds	r3, r7, r3
 4434 0052 1B88     		ldrh	r3, [r3]
 4435 0054 013B     		subs	r3, r3, #1
 4436 0056 3A1D     		adds	r2, r7, #4
 4437 0058 D35C     		ldrb	r3, [r2, r3]
 4438 005a 1A00     		movs	r2, r3
 4439 005c 0F4B     		ldr	r3, .L208+12
 4440 005e 1100     		movs	r1, r2
 4441 0060 1800     		movs	r0, r3
 4442 0062 FFF7FEFF 		bl	printf
1490:main.c        ****         {
 4443              		.loc 1 1490 0 discriminator 3
 4444 0066 0E23     		movs	r3, #14
 4445 0068 FB18     		adds	r3, r7, r3
 4446 006a 1A88     		ldrh	r2, [r3]
 4447 006c 0E23     		movs	r3, #14
 4448 006e FB18     		adds	r3, r7, r3
 4449 0070 013A     		subs	r2, r2, #1
 4450 0072 1A80     		strh	r2, [r3]
 4451              	.L205:
1490:main.c        ****         {
 4452              		.loc 1 1490 0 is_stmt 0 discriminator 1
 4453 0074 0E23     		movs	r3, #14
 4454 0076 FB18     		adds	r3, r7, r3
 4455 0078 1B88     		ldrh	r3, [r3]
 4456 007a 002B     		cmp	r3, #0
 4457 007c E7D1     		bne	.L206
1494:main.c        ****     }
 4458              		.loc 1 1494 0 is_stmt 1
 4459 007e 084B     		ldr	r3, .L208+16
 4460 0080 1800     		movs	r0, r3
 4461 0082 FFF7FEFF 		bl	puts
 4462              	.L207:
 4463              		.loc 1 1496 0
 4464 0086 C046     		nop
 4465 0088 BD46     		mov	sp, r7
 4466 008a 04B0     		add	sp, sp, #16
 4467              		@ sp needed
 4468 008c 80BD     		pop	{r7, pc}
 4469              	.L209:
 4470 008e C046     		.align	2
 4471              	.L208:
 4472 0090 00000000 		.word	apiResult
 4473 0094 B4170000 		.word	.LC317
 4474 0098 D0170000 		.word	.LC319
 4475 009c E8170000 		.word	.LC321
 4476 00a0 F0170000 		.word	.LC323
 4477              		.cfi_endproc
 4478              	.LFE59:
 4479              		.size	StartAdvertisement, .-StartAdvertisement
 4480              		.bss
 4481              		.align	2
ARM GAS  C:\Users\13740\AppData\Local\Temp\cc1Gy8Oo.s 			page 120


 4482              	ampFifoBuffer.9604:
 4483 002c 00000000 		.space	1024
 4483      00000000 
 4483      00000000 
 4483      00000000 
 4483      00000000 
 4484              		.align	2
 4485              	dataString.9636:
 4486 042c 00000000 		.space	50
 4486      00000000 
 4486      00000000 
 4486      00000000 
 4486      00000000 
 4487              	diagStep.9646:
 4488 045e 00       		.space	1
 4489 045f 00       		.align	2
 4490              	dataString.9645:
 4491 0460 00000000 		.space	40
 4491      00000000 
 4491      00000000 
 4491      00000000 
 4491      00000000 
 4492              	testStep.9657:
 4493 0488 00       		.space	1
 4494 0489 000000   		.align	2
 4495              	tempString.9656:
 4496 048c 00000000 		.space	60
 4496      00000000 
 4496      00000000 
 4496      00000000 
 4496      00000000 
 4497              		.data
 4498              		.type	led.9674, %object
 4499              		.size	led.9674, 1
 4500              	led.9674:
 4501 0000 01       		.byte	1
 4502              		.text
 4503              	.Letext0:
 4504              		.file 2 "f:\\infineon\\psoc creator\\4.4\\psoc creator\\import\\gnu\\arm\\5.4.1\\arm-none-eabi\\in
 4505              		.file 3 "f:\\infineon\\psoc creator\\4.4\\psoc creator\\import\\gnu\\arm\\5.4.1\\arm-none-eabi\\in
 4506              		.file 4 "Generated_Source\\PSoC4/cytypes.h"
 4507              		.file 5 "Generated_Source\\PSoC4/CYBLE_Stack.h"
 4508              		.file 6 "Generated_Source\\PSoC4/CYBLE_StackGatt.h"
 4509              		.file 7 "Generated_Source\\PSoC4/CYBLE_StackGattServer.h"
 4510              		.file 8 "Generated_Source\\PSoC4/CYBLE_eventHandler.h"
 4511              		.file 9 "ad5940.h"
 4512              		.file 10 "Amperometric.h"
 4513              		.file 11 "Generated_Source\\PSoC4/CYBLE.h"
 4514              		.section	.debug_info,"",%progbits
 4515              	.Ldebug_info0:
 4516 0000 EC0F0000 		.4byte	0xfec
 4517 0004 0400     		.2byte	0x4
 4518 0006 00000000 		.4byte	.Ldebug_abbrev0
 4519 000a 04       		.byte	0x4
 4520 000b 01       		.uleb128 0x1
 4521 000c AC020000 		.4byte	.LASF306
 4522 0010 0C       		.byte	0xc
ARM GAS  C:\Users\13740\AppData\Local\Temp\cc1Gy8Oo.s 			page 121


 4523 0011 310C0000 		.4byte	.LASF307
 4524 0015 CA160000 		.4byte	.LASF308
 4525 0019 00000000 		.4byte	.Ldebug_ranges0+0
 4526 001d 00000000 		.4byte	0
 4527 0021 00000000 		.4byte	.Ldebug_line0
 4528 0025 02       		.uleb128 0x2
 4529 0026 01       		.byte	0x1
 4530 0027 06       		.byte	0x6
 4531 0028 9A160000 		.4byte	.LASF0
 4532 002c 03       		.uleb128 0x3
 4533 002d 9C120000 		.4byte	.LASF4
 4534 0031 02       		.byte	0x2
 4535 0032 1D       		.byte	0x1d
 4536 0033 37000000 		.4byte	0x37
 4537 0037 02       		.uleb128 0x2
 4538 0038 01       		.byte	0x1
 4539 0039 08       		.byte	0x8
 4540 003a D9140000 		.4byte	.LASF1
 4541 003e 02       		.uleb128 0x2
 4542 003f 02       		.byte	0x2
 4543 0040 05       		.byte	0x5
 4544 0041 51100000 		.4byte	.LASF2
 4545 0045 02       		.uleb128 0x2
 4546 0046 02       		.byte	0x2
 4547 0047 07       		.byte	0x7
 4548 0048 B7160000 		.4byte	.LASF3
 4549 004c 03       		.uleb128 0x3
 4550 004d 65020000 		.4byte	.LASF5
 4551 0051 02       		.byte	0x2
 4552 0052 3F       		.byte	0x3f
 4553 0053 57000000 		.4byte	0x57
 4554 0057 02       		.uleb128 0x2
 4555 0058 04       		.byte	0x4
 4556 0059 05       		.byte	0x5
 4557 005a 7C100000 		.4byte	.LASF6
 4558 005e 03       		.uleb128 0x3
 4559 005f E7140000 		.4byte	.LASF7
 4560 0063 02       		.byte	0x2
 4561 0064 41       		.byte	0x41
 4562 0065 69000000 		.4byte	0x69
 4563 0069 02       		.uleb128 0x2
 4564 006a 04       		.byte	0x4
 4565 006b 07       		.byte	0x7
 4566 006c 230E0000 		.4byte	.LASF8
 4567 0070 02       		.uleb128 0x2
 4568 0071 08       		.byte	0x8
 4569 0072 05       		.byte	0x5
 4570 0073 070C0000 		.4byte	.LASF9
 4571 0077 02       		.uleb128 0x2
 4572 0078 08       		.byte	0x8
 4573 0079 07       		.byte	0x7
 4574 007a 59050000 		.4byte	.LASF10
 4575 007e 04       		.uleb128 0x4
 4576 007f 04       		.byte	0x4
 4577 0080 05       		.byte	0x5
 4578 0081 696E7400 		.ascii	"int\000"
 4579 0085 02       		.uleb128 0x2
ARM GAS  C:\Users\13740\AppData\Local\Temp\cc1Gy8Oo.s 			page 122


 4580 0086 04       		.byte	0x4
 4581 0087 07       		.byte	0x7
 4582 0088 E7010000 		.4byte	.LASF11
 4583 008c 03       		.uleb128 0x3
 4584 008d 110B0000 		.4byte	.LASF12
 4585 0091 03       		.byte	0x3
 4586 0092 18       		.byte	0x18
 4587 0093 2C000000 		.4byte	0x2c
 4588 0097 03       		.uleb128 0x3
 4589 0098 FF130000 		.4byte	.LASF13
 4590 009c 03       		.byte	0x3
 4591 009d 2C       		.byte	0x2c
 4592 009e 4C000000 		.4byte	0x4c
 4593 00a2 03       		.uleb128 0x3
 4594 00a3 72040000 		.4byte	.LASF14
 4595 00a7 03       		.byte	0x3
 4596 00a8 30       		.byte	0x30
 4597 00a9 5E000000 		.4byte	0x5e
 4598 00ad 05       		.uleb128 0x5
 4599 00ae 54170000 		.4byte	.LASF15
 4600 00b2 04       		.byte	0x4
 4601 00b3 D201     		.2byte	0x1d2
 4602 00b5 37000000 		.4byte	0x37
 4603 00b9 05       		.uleb128 0x5
 4604 00ba C80A0000 		.4byte	.LASF16
 4605 00be 04       		.byte	0x4
 4606 00bf D301     		.2byte	0x1d3
 4607 00c1 45000000 		.4byte	0x45
 4608 00c5 05       		.uleb128 0x5
 4609 00c6 CF0D0000 		.4byte	.LASF17
 4610 00ca 04       		.byte	0x4
 4611 00cb D401     		.2byte	0x1d4
 4612 00cd 69000000 		.4byte	0x69
 4613 00d1 02       		.uleb128 0x2
 4614 00d2 04       		.byte	0x4
 4615 00d3 04       		.byte	0x4
 4616 00d4 B3040000 		.4byte	.LASF18
 4617 00d8 02       		.uleb128 0x2
 4618 00d9 08       		.byte	0x8
 4619 00da 04       		.byte	0x4
 4620 00db 89070000 		.4byte	.LASF19
 4621 00df 02       		.uleb128 0x2
 4622 00e0 01       		.byte	0x1
 4623 00e1 08       		.byte	0x8
 4624 00e2 090A0000 		.4byte	.LASF20
 4625 00e6 06       		.uleb128 0x6
 4626 00e7 AD000000 		.4byte	0xad
 4627 00eb 06       		.uleb128 0x6
 4628 00ec C5000000 		.4byte	0xc5
 4629 00f0 02       		.uleb128 0x2
 4630 00f1 08       		.byte	0x8
 4631 00f2 04       		.byte	0x4
 4632 00f3 070F0000 		.4byte	.LASF21
 4633 00f7 02       		.uleb128 0x2
 4634 00f8 04       		.byte	0x4
 4635 00f9 07       		.byte	0x7
 4636 00fa 04100000 		.4byte	.LASF22
ARM GAS  C:\Users\13740\AppData\Local\Temp\cc1Gy8Oo.s 			page 123


 4637 00fe 07       		.uleb128 0x7
 4638 00ff 04       		.byte	0x4
 4639 0100 08       		.uleb128 0x8
 4640 0101 01       		.byte	0x1
 4641 0102 37000000 		.4byte	0x37
 4642 0106 05       		.byte	0x5
 4643 0107 4D01     		.2byte	0x14d
 4644 0109 BE020000 		.4byte	0x2be
 4645 010d 09       		.uleb128 0x9
 4646 010e 49150000 		.4byte	.LASF23
 4647 0112 00       		.byte	0
 4648 0113 09       		.uleb128 0x9
 4649 0114 B50A0000 		.4byte	.LASF24
 4650 0118 01       		.byte	0x1
 4651 0119 09       		.uleb128 0x9
 4652 011a C60F0000 		.4byte	.LASF25
 4653 011e 02       		.byte	0x2
 4654 011f 09       		.uleb128 0x9
 4655 0120 CE010000 		.4byte	.LASF26
 4656 0124 03       		.byte	0x3
 4657 0125 09       		.uleb128 0x9
 4658 0126 DD090000 		.4byte	.LASF27
 4659 012a 04       		.byte	0x4
 4660 012b 09       		.uleb128 0x9
 4661 012c E1040000 		.4byte	.LASF28
 4662 0130 05       		.byte	0x5
 4663 0131 09       		.uleb128 0x9
 4664 0132 8A140000 		.4byte	.LASF29
 4665 0136 06       		.byte	0x6
 4666 0137 09       		.uleb128 0x9
 4667 0138 7F110000 		.4byte	.LASF30
 4668 013c 20       		.byte	0x20
 4669 013d 09       		.uleb128 0x9
 4670 013e 91000000 		.4byte	.LASF31
 4671 0142 21       		.byte	0x21
 4672 0143 09       		.uleb128 0x9
 4673 0144 55030000 		.4byte	.LASF32
 4674 0148 22       		.byte	0x22
 4675 0149 09       		.uleb128 0x9
 4676 014a 9C130000 		.4byte	.LASF33
 4677 014e 23       		.byte	0x23
 4678 014f 09       		.uleb128 0x9
 4679 0150 29070000 		.4byte	.LASF34
 4680 0154 24       		.byte	0x24
 4681 0155 09       		.uleb128 0x9
 4682 0156 70140000 		.4byte	.LASF35
 4683 015a 25       		.byte	0x25
 4684 015b 09       		.uleb128 0x9
 4685 015c 970D0000 		.4byte	.LASF36
 4686 0160 26       		.byte	0x26
 4687 0161 09       		.uleb128 0x9
 4688 0162 CC150000 		.4byte	.LASF37
 4689 0166 27       		.byte	0x27
 4690 0167 09       		.uleb128 0x9
 4691 0168 A6120000 		.4byte	.LASF38
 4692 016c 28       		.byte	0x28
 4693 016d 09       		.uleb128 0x9
ARM GAS  C:\Users\13740\AppData\Local\Temp\cc1Gy8Oo.s 			page 124


 4694 016e D80F0000 		.4byte	.LASF39
 4695 0172 29       		.byte	0x29
 4696 0173 09       		.uleb128 0x9
 4697 0174 D8030000 		.4byte	.LASF40
 4698 0178 2A       		.byte	0x2a
 4699 0179 09       		.uleb128 0x9
 4700 017a FE170000 		.4byte	.LASF41
 4701 017e 2B       		.byte	0x2b
 4702 017f 09       		.uleb128 0x9
 4703 0180 78130000 		.4byte	.LASF42
 4704 0184 2C       		.byte	0x2c
 4705 0185 09       		.uleb128 0x9
 4706 0186 2D040000 		.4byte	.LASF43
 4707 018a 2D       		.byte	0x2d
 4708 018b 09       		.uleb128 0x9
 4709 018c B5140000 		.4byte	.LASF44
 4710 0190 2E       		.byte	0x2e
 4711 0191 09       		.uleb128 0x9
 4712 0192 EE110000 		.4byte	.LASF45
 4713 0196 2F       		.byte	0x2f
 4714 0197 09       		.uleb128 0x9
 4715 0198 690B0000 		.4byte	.LASF46
 4716 019c 30       		.byte	0x30
 4717 019d 09       		.uleb128 0x9
 4718 019e BE100000 		.4byte	.LASF47
 4719 01a2 31       		.byte	0x31
 4720 01a3 09       		.uleb128 0x9
 4721 01a4 CD110000 		.4byte	.LASF48
 4722 01a8 32       		.byte	0x32
 4723 01a9 09       		.uleb128 0x9
 4724 01aa CC0E0000 		.4byte	.LASF49
 4725 01ae 33       		.byte	0x33
 4726 01af 09       		.uleb128 0x9
 4727 01b0 43160000 		.4byte	.LASF50
 4728 01b4 34       		.byte	0x34
 4729 01b5 09       		.uleb128 0x9
 4730 01b6 38010000 		.4byte	.LASF51
 4731 01ba 35       		.byte	0x35
 4732 01bb 09       		.uleb128 0x9
 4733 01bc 5B160000 		.4byte	.LASF52
 4734 01c0 36       		.byte	0x36
 4735 01c1 09       		.uleb128 0x9
 4736 01c2 76150000 		.4byte	.LASF53
 4737 01c6 37       		.byte	0x37
 4738 01c7 09       		.uleb128 0x9
 4739 01c8 5C0C0000 		.4byte	.LASF54
 4740 01cc 40       		.byte	0x40
 4741 01cd 09       		.uleb128 0x9
 4742 01ce 95100000 		.4byte	.LASF55
 4743 01d2 41       		.byte	0x41
 4744 01d3 09       		.uleb128 0x9
 4745 01d4 F0000000 		.4byte	.LASF56
 4746 01d8 42       		.byte	0x42
 4747 01d9 09       		.uleb128 0x9
 4748 01da 63010000 		.4byte	.LASF57
 4749 01de 43       		.byte	0x43
 4750 01df 09       		.uleb128 0x9
ARM GAS  C:\Users\13740\AppData\Local\Temp\cc1Gy8Oo.s 			page 125


 4751 01e0 C1070000 		.4byte	.LASF58
 4752 01e4 44       		.byte	0x44
 4753 01e5 09       		.uleb128 0x9
 4754 01e6 17120000 		.4byte	.LASF59
 4755 01ea 45       		.byte	0x45
 4756 01eb 09       		.uleb128 0x9
 4757 01ec 30100000 		.4byte	.LASF60
 4758 01f0 46       		.byte	0x46
 4759 01f1 09       		.uleb128 0x9
 4760 01f2 CF050000 		.4byte	.LASF61
 4761 01f6 47       		.byte	0x47
 4762 01f7 09       		.uleb128 0x9
 4763 01f8 2D060000 		.4byte	.LASF62
 4764 01fc 48       		.byte	0x48
 4765 01fd 09       		.uleb128 0x9
 4766 01fe 96070000 		.4byte	.LASF63
 4767 0202 49       		.byte	0x49
 4768 0203 09       		.uleb128 0x9
 4769 0204 70080000 		.4byte	.LASF64
 4770 0208 4A       		.byte	0x4a
 4771 0209 09       		.uleb128 0x9
 4772 020a E2100000 		.4byte	.LASF65
 4773 020e 4B       		.byte	0x4b
 4774 020f 09       		.uleb128 0x9
 4775 0210 70050000 		.4byte	.LASF66
 4776 0214 4C       		.byte	0x4c
 4777 0215 09       		.uleb128 0x9
 4778 0216 99040000 		.4byte	.LASF67
 4779 021a 4D       		.byte	0x4d
 4780 021b 09       		.uleb128 0x9
 4781 021c 3E020000 		.4byte	.LASF68
 4782 0220 4E       		.byte	0x4e
 4783 0221 09       		.uleb128 0x9
 4784 0222 06160000 		.4byte	.LASF69
 4785 0226 4F       		.byte	0x4f
 4786 0227 09       		.uleb128 0x9
 4787 0228 69060000 		.4byte	.LASF70
 4788 022c 50       		.byte	0x50
 4789 022d 09       		.uleb128 0x9
 4790 022e 88060000 		.4byte	.LASF71
 4791 0232 51       		.byte	0x51
 4792 0233 09       		.uleb128 0x9
 4793 0234 3A000000 		.4byte	.LASF72
 4794 0238 52       		.byte	0x52
 4795 0239 09       		.uleb128 0x9
 4796 023a 260F0000 		.4byte	.LASF73
 4797 023e 53       		.byte	0x53
 4798 023f 09       		.uleb128 0x9
 4799 0240 74170000 		.4byte	.LASF74
 4800 0244 54       		.byte	0x54
 4801 0245 09       		.uleb128 0x9
 4802 0246 8C010000 		.4byte	.LASF75
 4803 024a 55       		.byte	0x55
 4804 024b 09       		.uleb128 0x9
 4805 024c 18000000 		.4byte	.LASF76
 4806 0250 56       		.byte	0x56
 4807 0251 09       		.uleb128 0x9
ARM GAS  C:\Users\13740\AppData\Local\Temp\cc1Gy8Oo.s 			page 126


 4808 0252 00070000 		.4byte	.LASF77
 4809 0256 57       		.byte	0x57
 4810 0257 09       		.uleb128 0x9
 4811 0258 C2130000 		.4byte	.LASF78
 4812 025c 58       		.byte	0x58
 4813 025d 09       		.uleb128 0x9
 4814 025e EB0A0000 		.4byte	.LASF79
 4815 0262 70       		.byte	0x70
 4816 0263 09       		.uleb128 0x9
 4817 0264 AC080000 		.4byte	.LASF80
 4818 0268 71       		.byte	0x71
 4819 0269 09       		.uleb128 0x9
 4820 026a FD040000 		.4byte	.LASF81
 4821 026e 72       		.byte	0x72
 4822 026f 09       		.uleb128 0x9
 4823 0270 DC120000 		.4byte	.LASF82
 4824 0274 73       		.byte	0x73
 4825 0275 09       		.uleb128 0x9
 4826 0276 1B090000 		.4byte	.LASF83
 4827 027a 74       		.byte	0x74
 4828 027b 09       		.uleb128 0x9
 4829 027c 0B110000 		.4byte	.LASF84
 4830 0280 75       		.byte	0x75
 4831 0281 09       		.uleb128 0x9
 4832 0282 AB150000 		.4byte	.LASF85
 4833 0286 76       		.byte	0x76
 4834 0287 09       		.uleb128 0x9
 4835 0288 E20D0000 		.4byte	.LASF86
 4836 028c 77       		.byte	0x77
 4837 028d 09       		.uleb128 0x9
 4838 028e D2080000 		.4byte	.LASF87
 4839 0292 78       		.byte	0x78
 4840 0293 09       		.uleb128 0x9
 4841 0294 13020000 		.4byte	.LASF88
 4842 0298 79       		.byte	0x79
 4843 0299 09       		.uleb128 0x9
 4844 029a 26140000 		.4byte	.LASF89
 4845 029e 7A       		.byte	0x7a
 4846 029f 09       		.uleb128 0x9
 4847 02a0 7B040000 		.4byte	.LASF90
 4848 02a4 FA       		.byte	0xfa
 4849 02a5 09       		.uleb128 0x9
 4850 02a6 F4010000 		.4byte	.LASF91
 4851 02aa FB       		.byte	0xfb
 4852 02ab 09       		.uleb128 0x9
 4853 02ac 5C0E0000 		.4byte	.LASF92
 4854 02b0 FC       		.byte	0xfc
 4855 02b1 09       		.uleb128 0x9
 4856 02b2 EC070000 		.4byte	.LASF93
 4857 02b6 FD       		.byte	0xfd
 4858 02b7 09       		.uleb128 0x9
 4859 02b8 B0100000 		.4byte	.LASF94
 4860 02bc FF       		.byte	0xff
 4861 02bd 00       		.byte	0
 4862 02be 08       		.uleb128 0x8
 4863 02bf 02       		.byte	0x2
 4864 02c0 45000000 		.4byte	0x45
ARM GAS  C:\Users\13740\AppData\Local\Temp\cc1Gy8Oo.s 			page 127


 4865 02c4 05       		.byte	0x5
 4866 02c5 0204     		.2byte	0x402
 4867 02c7 97030000 		.4byte	0x397
 4868 02cb 09       		.uleb128 0x9
 4869 02cc 5A170000 		.4byte	.LASF95
 4870 02d0 00       		.byte	0
 4871 02d1 09       		.uleb128 0x9
 4872 02d2 61110000 		.4byte	.LASF96
 4873 02d6 01       		.byte	0x1
 4874 02d7 09       		.uleb128 0x9
 4875 02d8 B0010000 		.4byte	.LASF97
 4876 02dc 02       		.byte	0x2
 4877 02dd 09       		.uleb128 0x9
 4878 02de 7A090000 		.4byte	.LASF98
 4879 02e2 03       		.byte	0x3
 4880 02e3 09       		.uleb128 0x9
 4881 02e4 5D0A0000 		.4byte	.LASF99
 4882 02e8 04       		.byte	0x4
 4883 02e9 09       		.uleb128 0x9
 4884 02ea 8E080000 		.4byte	.LASF100
 4885 02ee 05       		.byte	0x5
 4886 02ef 09       		.uleb128 0x9
 4887 02f0 E5130000 		.4byte	.LASF101
 4888 02f4 06       		.byte	0x6
 4889 02f5 09       		.uleb128 0x9
 4890 02f6 77020000 		.4byte	.LASF102
 4891 02fa 07       		.byte	0x7
 4892 02fb 09       		.uleb128 0x9
 4893 02fc 900F0000 		.4byte	.LASF103
 4894 0300 08       		.byte	0x8
 4895 0301 09       		.uleb128 0x9
 4896 0302 BE000000 		.4byte	.LASF104
 4897 0306 09       		.byte	0x9
 4898 0307 09       		.uleb128 0x9
 4899 0308 470F0000 		.4byte	.LASF105
 4900 030c 0A       		.byte	0xa
 4901 030d 09       		.uleb128 0x9
 4902 030e 45070000 		.4byte	.LASF106
 4903 0312 0B       		.byte	0xb
 4904 0313 09       		.uleb128 0x9
 4905 0314 F2090000 		.4byte	.LASF107
 4906 0318 0C       		.byte	0xc
 4907 0319 09       		.uleb128 0x9
 4908 031a 550D0000 		.4byte	.LASF108
 4909 031e 0D       		.byte	0xd
 4910 031f 09       		.uleb128 0x9
 4911 0320 4F130000 		.4byte	.LASF109
 4912 0324 0E       		.byte	0xe
 4913 0325 09       		.uleb128 0x9
 4914 0326 810E0000 		.4byte	.LASF110
 4915 032a 0F       		.byte	0xf
 4916 032b 09       		.uleb128 0x9
 4917 032c 030D0000 		.4byte	.LASF111
 4918 0330 10       		.byte	0x10
 4919 0331 09       		.uleb128 0x9
 4920 0332 78120000 		.4byte	.LASF112
 4921 0336 11       		.byte	0x11
ARM GAS  C:\Users\13740\AppData\Local\Temp\cc1Gy8Oo.s 			page 128


 4922 0337 09       		.uleb128 0x9
 4923 0338 31170000 		.4byte	.LASF113
 4924 033c 12       		.byte	0x12
 4925 033d 09       		.uleb128 0x9
 4926 033e 820C0000 		.4byte	.LASF114
 4927 0342 13       		.byte	0x13
 4928 0343 09       		.uleb128 0x9
 4929 0344 190B0000 		.4byte	.LASF115
 4930 0348 27       		.byte	0x27
 4931 0349 09       		.uleb128 0x9
 4932 034a 300A0000 		.4byte	.LASF116
 4933 034e 28       		.byte	0x28
 4934 034f 09       		.uleb128 0x9
 4935 0350 860A0000 		.4byte	.LASF117
 4936 0354 29       		.byte	0x29
 4937 0355 09       		.uleb128 0x9
 4938 0356 D3000000 		.4byte	.LASF118
 4939 035a 2A       		.byte	0x2a
 4940 035b 09       		.uleb128 0x9
 4941 035c 9F090000 		.4byte	.LASF119
 4942 0360 2B       		.byte	0x2b
 4943 0361 09       		.uleb128 0x9
 4944 0362 AE0F0000 		.4byte	.LASF120
 4945 0366 2C       		.byte	0x2c
 4946 0367 09       		.uleb128 0x9
 4947 0368 15170000 		.4byte	.LASF121
 4948 036c FE       		.byte	0xfe
 4949 036d 09       		.uleb128 0x9
 4950 036e D60C0000 		.4byte	.LASF122
 4951 0372 FF       		.byte	0xff
 4952 0373 0A       		.uleb128 0xa
 4953 0374 B00B0000 		.4byte	.LASF123
 4954 0378 0001     		.2byte	0x100
 4955 037a 0A       		.uleb128 0xa
 4956 037b 65070000 		.4byte	.LASF124
 4957 037f 0101     		.2byte	0x101
 4958 0381 0A       		.uleb128 0xa
 4959 0382 0D100000 		.4byte	.LASF125
 4960 0386 0201     		.2byte	0x102
 4961 0388 0A       		.uleb128 0xa
 4962 0389 94030000 		.4byte	.LASF126
 4963 038d 0301     		.2byte	0x103
 4964 038f 0A       		.uleb128 0xa
 4965 0390 C90B0000 		.4byte	.LASF127
 4966 0394 0401     		.2byte	0x104
 4967 0396 00       		.byte	0
 4968 0397 05       		.uleb128 0x5
 4969 0398 6E0E0000 		.4byte	.LASF128
 4970 039c 05       		.byte	0x5
 4971 039d 7104     		.2byte	0x471
 4972 039f BE020000 		.4byte	0x2be
 4973 03a3 08       		.uleb128 0x8
 4974 03a4 01       		.byte	0x1
 4975 03a5 37000000 		.4byte	0x37
 4976 03a9 05       		.byte	0x5
 4977 03aa 7504     		.2byte	0x475
 4978 03ac CF030000 		.4byte	0x3cf
ARM GAS  C:\Users\13740\AppData\Local\Temp\cc1Gy8Oo.s 			page 129


 4979 03b0 09       		.uleb128 0x9
 4980 03b1 3E050000 		.4byte	.LASF129
 4981 03b5 01       		.byte	0x1
 4982 03b6 09       		.uleb128 0x9
 4983 03b7 9F170000 		.4byte	.LASF130
 4984 03bb 02       		.byte	0x2
 4985 03bc 09       		.uleb128 0x9
 4986 03bd AB110000 		.4byte	.LASF131
 4987 03c1 03       		.byte	0x3
 4988 03c2 09       		.uleb128 0x9
 4989 03c3 60150000 		.4byte	.LASF132
 4990 03c7 04       		.byte	0x4
 4991 03c8 09       		.uleb128 0x9
 4992 03c9 480E0000 		.4byte	.LASF133
 4993 03cd FF       		.byte	0xff
 4994 03ce 00       		.byte	0
 4995 03cf 05       		.uleb128 0x5
 4996 03d0 94020000 		.4byte	.LASF134
 4997 03d4 05       		.byte	0x5
 4998 03d5 9104     		.2byte	0x491
 4999 03d7 A3030000 		.4byte	0x3a3
 5000 03db 08       		.uleb128 0x8
 5001 03dc 01       		.byte	0x1
 5002 03dd 37000000 		.4byte	0x37
 5003 03e1 05       		.byte	0x5
 5004 03e2 9504     		.2byte	0x495
 5005 03e4 19040000 		.4byte	0x419
 5006 03e8 09       		.uleb128 0x9
 5007 03e9 C7170000 		.4byte	.LASF135
 5008 03ed 01       		.byte	0x1
 5009 03ee 09       		.uleb128 0x9
 5010 03ef E0170000 		.4byte	.LASF136
 5011 03f3 02       		.byte	0x2
 5012 03f4 09       		.uleb128 0x9
 5013 03f5 ED050000 		.4byte	.LASF137
 5014 03f9 03       		.byte	0x3
 5015 03fa 09       		.uleb128 0x9
 5016 03fb 2C110000 		.4byte	.LASF138
 5017 03ff 04       		.byte	0x4
 5018 0400 09       		.uleb128 0x9
 5019 0401 19150000 		.4byte	.LASF139
 5020 0405 05       		.byte	0x5
 5021 0406 09       		.uleb128 0x9
 5022 0407 150C0000 		.4byte	.LASF140
 5023 040b 06       		.byte	0x6
 5024 040c 09       		.uleb128 0x9
 5025 040d 48120000 		.4byte	.LASF141
 5026 0411 07       		.byte	0x7
 5027 0412 09       		.uleb128 0x9
 5028 0413 6D0F0000 		.4byte	.LASF142
 5029 0417 FF       		.byte	0xff
 5030 0418 00       		.byte	0
 5031 0419 0B       		.uleb128 0xb
 5032 041a 07       		.byte	0x7
 5033 041b 05       		.byte	0x5
 5034 041c 3F05     		.2byte	0x53f
 5035 041e 3D040000 		.4byte	0x43d
ARM GAS  C:\Users\13740\AppData\Local\Temp\cc1Gy8Oo.s 			page 130


 5036 0422 0C       		.uleb128 0xc
 5037 0423 3E130000 		.4byte	.LASF143
 5038 0427 05       		.byte	0x5
 5039 0428 4205     		.2byte	0x542
 5040 042a 3D040000 		.4byte	0x43d
 5041 042e 00       		.byte	0
 5042 042f 0C       		.uleb128 0xc
 5043 0430 B0140000 		.4byte	.LASF144
 5044 0434 05       		.byte	0x5
 5045 0435 4405     		.2byte	0x544
 5046 0437 AD000000 		.4byte	0xad
 5047 043b 06       		.byte	0x6
 5048 043c 00       		.byte	0
 5049 043d 0D       		.uleb128 0xd
 5050 043e AD000000 		.4byte	0xad
 5051 0442 4D040000 		.4byte	0x44d
 5052 0446 0E       		.uleb128 0xe
 5053 0447 F7000000 		.4byte	0xf7
 5054 044b 05       		.byte	0x5
 5055 044c 00       		.byte	0
 5056 044d 05       		.uleb128 0x5
 5057 044e 64120000 		.4byte	.LASF145
 5058 0452 05       		.byte	0x5
 5059 0453 4505     		.2byte	0x545
 5060 0455 19040000 		.4byte	0x419
 5061 0459 0F       		.uleb128 0xf
 5062 045a 04       		.byte	0x4
 5063 045b AD000000 		.4byte	0xad
 5064 045f 05       		.uleb128 0x5
 5065 0460 CF0A0000 		.4byte	.LASF146
 5066 0464 06       		.byte	0x6
 5067 0465 8901     		.2byte	0x189
 5068 0467 B9000000 		.4byte	0xb9
 5069 046b 0B       		.uleb128 0xb
 5070 046c 02       		.byte	0x2
 5071 046d 06       		.byte	0x6
 5072 046e 9301     		.2byte	0x193
 5073 0470 8F040000 		.4byte	0x48f
 5074 0474 0C       		.uleb128 0xc
 5075 0475 C60D0000 		.4byte	.LASF147
 5076 0479 06       		.byte	0x6
 5077 047a 9A01     		.2byte	0x19a
 5078 047c AD000000 		.4byte	0xad
 5079 0480 00       		.byte	0
 5080 0481 0C       		.uleb128 0xc
 5081 0482 C1170000 		.4byte	.LASF148
 5082 0486 06       		.byte	0x6
 5083 0487 A001     		.2byte	0x1a0
 5084 0489 AD000000 		.4byte	0xad
 5085 048d 01       		.byte	0x1
 5086 048e 00       		.byte	0
 5087 048f 05       		.uleb128 0x5
 5088 0490 B3060000 		.4byte	.LASF149
 5089 0494 06       		.byte	0x6
 5090 0495 A201     		.2byte	0x1a2
 5091 0497 6B040000 		.4byte	0x46b
 5092 049b 0B       		.uleb128 0xb
ARM GAS  C:\Users\13740\AppData\Local\Temp\cc1Gy8Oo.s 			page 131


 5093 049c 08       		.byte	0x8
 5094 049d 06       		.byte	0x6
 5095 049e BE01     		.2byte	0x1be
 5096 04a0 CC040000 		.4byte	0x4cc
 5097 04a4 10       		.uleb128 0x10
 5098 04a5 76616C00 		.ascii	"val\000"
 5099 04a9 06       		.byte	0x6
 5100 04aa C101     		.2byte	0x1c1
 5101 04ac 59040000 		.4byte	0x459
 5102 04b0 00       		.byte	0
 5103 04b1 10       		.uleb128 0x10
 5104 04b2 6C656E00 		.ascii	"len\000"
 5105 04b6 06       		.byte	0x6
 5106 04b7 C401     		.2byte	0x1c4
 5107 04b9 B9000000 		.4byte	0xb9
 5108 04bd 04       		.byte	0x4
 5109 04be 0C       		.uleb128 0xc
 5110 04bf 3E120000 		.4byte	.LASF150
 5111 04c3 06       		.byte	0x6
 5112 04c4 CB01     		.2byte	0x1cb
 5113 04c6 B9000000 		.4byte	0xb9
 5114 04ca 06       		.byte	0x6
 5115 04cb 00       		.byte	0
 5116 04cc 05       		.uleb128 0x5
 5117 04cd A20A0000 		.4byte	.LASF151
 5118 04d1 06       		.byte	0x6
 5119 04d2 CD01     		.2byte	0x1cd
 5120 04d4 9B040000 		.4byte	0x49b
 5121 04d8 0B       		.uleb128 0xb
 5122 04d9 0C       		.byte	0xc
 5123 04da 06       		.byte	0x6
 5124 04db D001     		.2byte	0x1d0
 5125 04dd FC040000 		.4byte	0x4fc
 5126 04e1 0C       		.uleb128 0xc
 5127 04e2 54060000 		.4byte	.LASF152
 5128 04e6 06       		.byte	0x6
 5129 04e7 D301     		.2byte	0x1d3
 5130 04e9 CC040000 		.4byte	0x4cc
 5131 04ed 00       		.byte	0
 5132 04ee 0C       		.uleb128 0xc
 5133 04ef 34080000 		.4byte	.LASF153
 5134 04f3 06       		.byte	0x6
 5135 04f4 D601     		.2byte	0x1d6
 5136 04f6 5F040000 		.4byte	0x45f
 5137 04fa 08       		.byte	0x8
 5138 04fb 00       		.byte	0
 5139 04fc 05       		.uleb128 0x5
 5140 04fd 07140000 		.4byte	.LASF154
 5141 0501 06       		.byte	0x6
 5142 0502 D801     		.2byte	0x1d8
 5143 0504 D8040000 		.4byte	0x4d8
 5144 0508 03       		.uleb128 0x3
 5145 0509 C7060000 		.4byte	.LASF155
 5146 050d 07       		.byte	0x7
 5147 050e 34       		.byte	0x34
 5148 050f FC040000 		.4byte	0x4fc
 5149 0513 08       		.uleb128 0x8
ARM GAS  C:\Users\13740\AppData\Local\Temp\cc1Gy8Oo.s 			page 132


 5150 0514 01       		.byte	0x1
 5151 0515 37000000 		.4byte	0x37
 5152 0519 08       		.byte	0x8
 5153 051a 5008     		.2byte	0x850
 5154 051c 3F050000 		.4byte	0x53f
 5155 0520 09       		.uleb128 0x9
 5156 0521 95050000 		.4byte	.LASF156
 5157 0525 00       		.byte	0
 5158 0526 09       		.uleb128 0x9
 5159 0527 B30C0000 		.4byte	.LASF157
 5160 052b 01       		.byte	0x1
 5161 052c 09       		.uleb128 0x9
 5162 052d 05060000 		.4byte	.LASF158
 5163 0531 02       		.byte	0x2
 5164 0532 09       		.uleb128 0x9
 5165 0533 32180000 		.4byte	.LASF159
 5166 0537 03       		.byte	0x3
 5167 0538 09       		.uleb128 0x9
 5168 0539 0A0E0000 		.4byte	.LASF160
 5169 053d 04       		.byte	0x4
 5170 053e 00       		.byte	0
 5171 053f 05       		.uleb128 0x5
 5172 0540 39090000 		.4byte	.LASF161
 5173 0544 08       		.byte	0x8
 5174 0545 5E08     		.2byte	0x85e
 5175 0547 13050000 		.4byte	0x513
 5176 054b 05       		.uleb128 0x5
 5177 054c 0B170000 		.4byte	.LASF162
 5178 0550 09       		.byte	0x9
 5179 0551 7110     		.2byte	0x1071
 5180 0553 97000000 		.4byte	0x97
 5181 0557 08       		.uleb128 0x8
 5182 0558 01       		.byte	0x1
 5183 0559 37000000 		.4byte	0x37
 5184 055d 09       		.byte	0x9
 5185 055e 7710     		.2byte	0x1077
 5186 0560 71050000 		.4byte	0x571
 5187 0564 09       		.uleb128 0x9
 5188 0565 BF0D0000 		.4byte	.LASF163
 5189 0569 00       		.byte	0
 5190 056a 09       		.uleb128 0x9
 5191 056b 800A0000 		.4byte	.LASF164
 5192 056f 01       		.byte	0x1
 5193 0570 00       		.byte	0
 5194 0571 05       		.uleb128 0x5
 5195 0572 A60E0000 		.4byte	.LASF165
 5196 0576 09       		.byte	0x9
 5197 0577 7910     		.2byte	0x1079
 5198 0579 57050000 		.4byte	0x557
 5199 057d 0B       		.uleb128 0xb
 5200 057e 14       		.byte	0x14
 5201 057f 09       		.byte	0x9
 5202 0580 9B11     		.2byte	0x119b
 5203 0582 C8050000 		.4byte	0x5c8
 5204 0586 0C       		.uleb128 0xc
 5205 0587 90070000 		.4byte	.LASF166
 5206 058b 09       		.byte	0x9
ARM GAS  C:\Users\13740\AppData\Local\Temp\cc1Gy8Oo.s 			page 133


 5207 058c 9D11     		.2byte	0x119d
 5208 058e A2000000 		.4byte	0xa2
 5209 0592 00       		.byte	0
 5210 0593 0C       		.uleb128 0xc
 5211 0594 8A050000 		.4byte	.LASF167
 5212 0598 09       		.byte	0x9
 5213 0599 9E11     		.2byte	0x119e
 5214 059b A2000000 		.4byte	0xa2
 5215 059f 04       		.byte	0x4
 5216 05a0 0C       		.uleb128 0xc
 5217 05a1 F30E0000 		.4byte	.LASF168
 5218 05a5 09       		.byte	0x9
 5219 05a6 9F11     		.2byte	0x119f
 5220 05a8 A2000000 		.4byte	0xa2
 5221 05ac 08       		.byte	0x8
 5222 05ad 0C       		.uleb128 0xc
 5223 05ae 57110000 		.4byte	.LASF169
 5224 05b2 09       		.byte	0x9
 5225 05b3 A011     		.2byte	0x11a0
 5226 05b5 71050000 		.4byte	0x571
 5227 05b9 0C       		.byte	0xc
 5228 05ba 0C       		.uleb128 0xc
 5229 05bb 4A180000 		.4byte	.LASF170
 5230 05bf 09       		.byte	0x9
 5231 05c0 A111     		.2byte	0x11a1
 5232 05c2 C8050000 		.4byte	0x5c8
 5233 05c6 10       		.byte	0x10
 5234 05c7 00       		.byte	0
 5235 05c8 0F       		.uleb128 0xf
 5236 05c9 04       		.byte	0x4
 5237 05ca CE050000 		.4byte	0x5ce
 5238 05ce 11       		.uleb128 0x11
 5239 05cf A2000000 		.4byte	0xa2
 5240 05d3 05       		.uleb128 0x5
 5241 05d4 4C080000 		.4byte	.LASF171
 5242 05d8 09       		.byte	0x9
 5243 05d9 A211     		.2byte	0x11a2
 5244 05db 7D050000 		.4byte	0x57d
 5245 05df 0B       		.uleb128 0xb
 5246 05e0 08       		.byte	0x8
 5247 05e1 09       		.byte	0x9
 5248 05e2 7312     		.2byte	0x1273
 5249 05e4 03060000 		.4byte	0x603
 5250 05e8 0C       		.uleb128 0xc
 5251 05e9 1F130000 		.4byte	.LASF172
 5252 05ed 09       		.byte	0x9
 5253 05ee 7512     		.2byte	0x1275
 5254 05f0 D1000000 		.4byte	0xd1
 5255 05f4 00       		.byte	0
 5256 05f5 0C       		.uleb128 0xc
 5257 05f6 6C040000 		.4byte	.LASF173
 5258 05fa 09       		.byte	0x9
 5259 05fb 7612     		.2byte	0x1276
 5260 05fd D1000000 		.4byte	0xd1
 5261 0601 04       		.byte	0x4
 5262 0602 00       		.byte	0
 5263 0603 05       		.uleb128 0x5
ARM GAS  C:\Users\13740\AppData\Local\Temp\cc1Gy8Oo.s 			page 134


 5264 0604 490B0000 		.4byte	.LASF174
 5265 0608 09       		.byte	0x9
 5266 0609 7712     		.2byte	0x1277
 5267 060b DF050000 		.4byte	0x5df
 5268 060f 12       		.uleb128 0x12
 5269 0610 A0       		.byte	0xa0
 5270 0611 0A       		.byte	0xa
 5271 0612 1F       		.byte	0x1f
 5272 0613 98070000 		.4byte	0x798
 5273 0617 13       		.uleb128 0x13
 5274 0618 19050000 		.4byte	.LASF175
 5275 061c 0A       		.byte	0xa
 5276 061d 22       		.byte	0x22
 5277 061e 71050000 		.4byte	0x571
 5278 0622 00       		.byte	0
 5279 0623 13       		.uleb128 0x13
 5280 0624 1D180000 		.4byte	.LASF176
 5281 0628 0A       		.byte	0xa
 5282 0629 23       		.byte	0x23
 5283 062a A2000000 		.4byte	0xa2
 5284 062e 04       		.byte	0x4
 5285 062f 13       		.uleb128 0x13
 5286 0630 87000000 		.4byte	.LASF177
 5287 0634 0A       		.byte	0xa
 5288 0635 24       		.byte	0x24
 5289 0636 A2000000 		.4byte	0xa2
 5290 063a 08       		.byte	0x8
 5291 063b 13       		.uleb128 0x13
 5292 063c 85100000 		.4byte	.LASF178
 5293 0640 0A       		.byte	0xa
 5294 0641 25       		.byte	0x25
 5295 0642 A2000000 		.4byte	0xa2
 5296 0646 0C       		.byte	0xc
 5297 0647 13       		.uleb128 0x13
 5298 0648 6F100000 		.4byte	.LASF179
 5299 064c 0A       		.byte	0xa
 5300 064d 26       		.byte	0x26
 5301 064e A2000000 		.4byte	0xa2
 5302 0652 10       		.byte	0x10
 5303 0653 13       		.uleb128 0x13
 5304 0654 C1110000 		.4byte	.LASF180
 5305 0658 0A       		.byte	0xa
 5306 0659 29       		.byte	0x29
 5307 065a 71050000 		.4byte	0x571
 5308 065e 14       		.byte	0x14
 5309 065f 13       		.uleb128 0x13
 5310 0660 61040000 		.4byte	.LASF181
 5311 0664 0A       		.byte	0xa
 5312 0665 2A       		.byte	0x2a
 5313 0666 D1000000 		.4byte	0xd1
 5314 066a 18       		.byte	0x18
 5315 066b 13       		.uleb128 0x13
 5316 066c F70C0000 		.4byte	.LASF182
 5317 0670 0A       		.byte	0xa
 5318 0671 2B       		.byte	0x2b
 5319 0672 D1000000 		.4byte	0xd1
 5320 0676 1C       		.byte	0x1c
ARM GAS  C:\Users\13740\AppData\Local\Temp\cc1Gy8Oo.s 			page 135


 5321 0677 13       		.uleb128 0x13
 5322 0678 56040000 		.4byte	.LASF183
 5323 067c 0A       		.byte	0xa
 5324 067d 2C       		.byte	0x2c
 5325 067e D1000000 		.4byte	0xd1
 5326 0682 20       		.byte	0x20
 5327 0683 13       		.uleb128 0x13
 5328 0684 D2090000 		.4byte	.LASF184
 5329 0688 0A       		.byte	0xa
 5330 0689 2D       		.byte	0x2d
 5331 068a A2000000 		.4byte	0xa2
 5332 068e 24       		.byte	0x24
 5333 068f 13       		.uleb128 0x13
 5334 0690 47090000 		.4byte	.LASF185
 5335 0694 0A       		.byte	0xa
 5336 0695 2E       		.byte	0x2e
 5337 0696 D1000000 		.4byte	0xd1
 5338 069a 28       		.byte	0x28
 5339 069b 13       		.uleb128 0x13
 5340 069c 59080000 		.4byte	.LASF186
 5341 06a0 0A       		.byte	0xa
 5342 06a1 2F       		.byte	0x2f
 5343 06a2 97000000 		.4byte	0x97
 5344 06a6 2C       		.byte	0x2c
 5345 06a7 13       		.uleb128 0x13
 5346 06a8 51050000 		.4byte	.LASF187
 5347 06ac 0A       		.byte	0xa
 5348 06ad 30       		.byte	0x30
 5349 06ae D1000000 		.4byte	0xd1
 5350 06b2 30       		.byte	0x30
 5351 06b3 13       		.uleb128 0x13
 5352 06b4 D1120000 		.4byte	.LASF188
 5353 06b8 0A       		.byte	0xa
 5354 06b9 31       		.byte	0x31
 5355 06ba D1000000 		.4byte	0xd1
 5356 06be 34       		.byte	0x34
 5357 06bf 13       		.uleb128 0x13
 5358 06c0 AE030000 		.4byte	.LASF189
 5359 06c4 0A       		.byte	0xa
 5360 06c5 32       		.byte	0x32
 5361 06c6 A2000000 		.4byte	0xa2
 5362 06ca 38       		.byte	0x38
 5363 06cb 13       		.uleb128 0x13
 5364 06cc 89030000 		.4byte	.LASF190
 5365 06d0 0A       		.byte	0xa
 5366 06d1 33       		.byte	0x33
 5367 06d2 A2000000 		.4byte	0xa2
 5368 06d6 3C       		.byte	0x3c
 5369 06d7 13       		.uleb128 0x13
 5370 06d8 CF040000 		.4byte	.LASF191
 5371 06dc 0A       		.byte	0xa
 5372 06dd 34       		.byte	0x34
 5373 06de 8C000000 		.4byte	0x8c
 5374 06e2 40       		.byte	0x40
 5375 06e3 13       		.uleb128 0x13
 5376 06e4 610F0000 		.4byte	.LASF192
 5377 06e8 0A       		.byte	0xa
ARM GAS  C:\Users\13740\AppData\Local\Temp\cc1Gy8Oo.s 			page 136


 5378 06e9 35       		.byte	0x35
 5379 06ea 8C000000 		.4byte	0x8c
 5380 06ee 41       		.byte	0x41
 5381 06ef 13       		.uleb128 0x13
 5382 06f0 B5030000 		.4byte	.LASF193
 5383 06f4 0A       		.byte	0xa
 5384 06f5 36       		.byte	0x36
 5385 06f6 A2000000 		.4byte	0xa2
 5386 06fa 44       		.byte	0x44
 5387 06fb 13       		.uleb128 0x13
 5388 06fc 63080000 		.4byte	.LASF194
 5389 0700 0A       		.byte	0xa
 5390 0701 37       		.byte	0x37
 5391 0702 A2000000 		.4byte	0xa2
 5392 0706 48       		.byte	0x48
 5393 0707 13       		.uleb128 0x13
 5394 0708 F0060000 		.4byte	.LASF195
 5395 070c 0A       		.byte	0xa
 5396 070d 38       		.byte	0x38
 5397 070e A2000000 		.4byte	0xa2
 5398 0712 4C       		.byte	0x4c
 5399 0713 13       		.uleb128 0x13
 5400 0714 AF160000 		.4byte	.LASF196
 5401 0718 0A       		.byte	0xa
 5402 0719 39       		.byte	0x39
 5403 071a A2000000 		.4byte	0xa2
 5404 071e 50       		.byte	0x50
 5405 071f 13       		.uleb128 0x13
 5406 0720 16010000 		.4byte	.LASF197
 5407 0724 0A       		.byte	0xa
 5408 0725 3A       		.byte	0x3a
 5409 0726 03060000 		.4byte	0x603
 5410 072a 54       		.byte	0x54
 5411 072b 13       		.uleb128 0x13
 5412 072c 5B000000 		.4byte	.LASF198
 5413 0730 0A       		.byte	0xa
 5414 0731 3B       		.byte	0x3b
 5415 0732 D1000000 		.4byte	0xd1
 5416 0736 5C       		.byte	0x5c
 5417 0737 13       		.uleb128 0x13
 5418 0738 5B100000 		.4byte	.LASF199
 5419 073c 0A       		.byte	0xa
 5420 073d 3C       		.byte	0x3c
 5421 073e D1000000 		.4byte	0xd1
 5422 0742 60       		.byte	0x60
 5423 0743 13       		.uleb128 0x13
 5424 0744 8A0B0000 		.4byte	.LASF200
 5425 0748 0A       		.byte	0xa
 5426 0749 3D       		.byte	0x3d
 5427 074a 71050000 		.4byte	0x571
 5428 074e 64       		.byte	0x64
 5429 074f 13       		.uleb128 0x13
 5430 0750 B3000000 		.4byte	.LASF201
 5431 0754 0A       		.byte	0xa
 5432 0755 3E       		.byte	0x3e
 5433 0756 D1000000 		.4byte	0xd1
 5434 075a 68       		.byte	0x68
ARM GAS  C:\Users\13740\AppData\Local\Temp\cc1Gy8Oo.s 			page 137


 5435 075b 13       		.uleb128 0x13
 5436 075c 4E090000 		.4byte	.LASF202
 5437 0760 0A       		.byte	0xa
 5438 0761 3F       		.byte	0x3f
 5439 0762 71050000 		.4byte	0x571
 5440 0766 6C       		.byte	0x6c
 5441 0767 13       		.uleb128 0x13
 5442 0768 49030000 		.4byte	.LASF203
 5443 076c 0A       		.byte	0xa
 5444 076d 40       		.byte	0x40
 5445 076e D3050000 		.4byte	0x5d3
 5446 0772 70       		.byte	0x70
 5447 0773 13       		.uleb128 0x13
 5448 0774 F50F0000 		.4byte	.LASF204
 5449 0778 0A       		.byte	0xa
 5450 0779 41       		.byte	0x41
 5451 077a D3050000 		.4byte	0x5d3
 5452 077e 84       		.byte	0x84
 5453 077f 13       		.uleb128 0x13
 5454 0780 C1030000 		.4byte	.LASF205
 5455 0784 0A       		.byte	0xa
 5456 0785 42       		.byte	0x42
 5457 0786 71050000 		.4byte	0x571
 5458 078a 98       		.byte	0x98
 5459 078b 13       		.uleb128 0x13
 5460 078c 55010000 		.4byte	.LASF206
 5461 0790 0A       		.byte	0xa
 5462 0791 43       		.byte	0x43
 5463 0792 A2000000 		.4byte	0xa2
 5464 0796 9C       		.byte	0x9c
 5465 0797 00       		.byte	0
 5466 0798 03       		.uleb128 0x3
 5467 0799 3A030000 		.4byte	.LASF207
 5468 079d 0A       		.byte	0xa
 5469 079e 45       		.byte	0x45
 5470 079f 0F060000 		.4byte	0x60f
 5471 07a3 12       		.uleb128 0x12
 5472 07a4 08       		.byte	0x8
 5473 07a5 0A       		.byte	0xa
 5474 07a6 4A       		.byte	0x4a
 5475 07a7 C4070000 		.4byte	0x7c4
 5476 07ab 13       		.uleb128 0x13
 5477 07ac 36020000 		.4byte	.LASF208
 5478 07b0 0A       		.byte	0xa
 5479 07b1 4C       		.byte	0x4c
 5480 07b2 D1000000 		.4byte	0xd1
 5481 07b6 00       		.byte	0
 5482 07b7 13       		.uleb128 0x13
 5483 07b8 A9050000 		.4byte	.LASF209
 5484 07bc 0A       		.byte	0xa
 5485 07bd 4D       		.byte	0x4d
 5486 07be D1000000 		.4byte	0xd1
 5487 07c2 04       		.byte	0x4
 5488 07c3 00       		.byte	0
 5489 07c4 03       		.uleb128 0x3
 5490 07c5 B1050000 		.4byte	.LASF210
 5491 07c9 0A       		.byte	0xa
ARM GAS  C:\Users\13740\AppData\Local\Temp\cc1Gy8Oo.s 			page 138


 5492 07ca 4E       		.byte	0x4e
 5493 07cb A3070000 		.4byte	0x7a3
 5494 07cf 12       		.uleb128 0x12
 5495 07d0 20       		.byte	0x20
 5496 07d1 01       		.byte	0x1
 5497 07d2 21       		.byte	0x21
 5498 07d3 38080000 		.4byte	0x838
 5499 07d7 13       		.uleb128 0x13
 5500 07d8 58090000 		.4byte	.LASF211
 5501 07dc 01       		.byte	0x1
 5502 07dd 22       		.byte	0x22
 5503 07de D1000000 		.4byte	0xd1
 5504 07e2 00       		.byte	0
 5505 07e3 13       		.uleb128 0x13
 5506 07e4 AF070000 		.4byte	.LASF212
 5507 07e8 01       		.byte	0x1
 5508 07e9 23       		.byte	0x23
 5509 07ea D1000000 		.4byte	0xd1
 5510 07ee 04       		.byte	0x4
 5511 07ef 13       		.uleb128 0x13
 5512 07f0 0E010000 		.4byte	.LASF213
 5513 07f4 01       		.byte	0x1
 5514 07f5 24       		.byte	0x24
 5515 07f6 D1000000 		.4byte	0xd1
 5516 07fa 08       		.byte	0x8
 5517 07fb 13       		.uleb128 0x13
 5518 07fc 310D0000 		.4byte	.LASF214
 5519 0800 01       		.byte	0x1
 5520 0801 25       		.byte	0x25
 5521 0802 D1000000 		.4byte	0xd1
 5522 0806 0C       		.byte	0xc
 5523 0807 13       		.uleb128 0x13
 5524 0808 7C160000 		.4byte	.LASF215
 5525 080c 01       		.byte	0x1
 5526 080d 26       		.byte	0x26
 5527 080e C5000000 		.4byte	0xc5
 5528 0812 10       		.byte	0x10
 5529 0813 13       		.uleb128 0x13
 5530 0814 560B0000 		.4byte	.LASF216
 5531 0818 01       		.byte	0x1
 5532 0819 29       		.byte	0x29
 5533 081a D1000000 		.4byte	0xd1
 5534 081e 14       		.byte	0x14
 5535 081f 13       		.uleb128 0x13
 5536 0820 130F0000 		.4byte	.LASF217
 5537 0824 01       		.byte	0x1
 5538 0825 2A       		.byte	0x2a
 5539 0826 D1000000 		.4byte	0xd1
 5540 082a 18       		.byte	0x18
 5541 082b 13       		.uleb128 0x13
 5542 082c 4C0C0000 		.4byte	.LASF218
 5543 0830 01       		.byte	0x1
 5544 0831 2B       		.byte	0x2b
 5545 0832 D1000000 		.4byte	0xd1
 5546 0836 1C       		.byte	0x1c
 5547 0837 00       		.byte	0
 5548 0838 03       		.uleb128 0x3
ARM GAS  C:\Users\13740\AppData\Local\Temp\cc1Gy8Oo.s 			page 139


 5549 0839 0C150000 		.4byte	.LASF219
 5550 083d 01       		.byte	0x1
 5551 083e 2C       		.byte	0x2c
 5552 083f CF070000 		.4byte	0x7cf
 5553 0843 14       		.uleb128 0x14
 5554 0844 01       		.byte	0x1
 5555 0845 37000000 		.4byte	0x37
 5556 0849 01       		.byte	0x1
 5557 084a 31       		.byte	0x31
 5558 084b 68080000 		.4byte	0x868
 5559 084f 09       		.uleb128 0x9
 5560 0850 5A060000 		.4byte	.LASF220
 5561 0854 00       		.byte	0
 5562 0855 09       		.uleb128 0x9
 5563 0856 00000000 		.4byte	.LASF221
 5564 085a 01       		.byte	0x1
 5565 085b 09       		.uleb128 0x9
 5566 085c E60C0000 		.4byte	.LASF222
 5567 0860 02       		.byte	0x2
 5568 0861 09       		.uleb128 0x9
 5569 0862 A3140000 		.4byte	.LASF223
 5570 0866 03       		.byte	0x3
 5571 0867 00       		.byte	0
 5572 0868 03       		.uleb128 0x3
 5573 0869 04080000 		.4byte	.LASF224
 5574 086d 01       		.byte	0x1
 5575 086e 36       		.byte	0x36
 5576 086f 43080000 		.4byte	0x843
 5577 0873 15       		.uleb128 0x15
 5578 0874 45110000 		.4byte	.LASF230
 5579 0878 01       		.byte	0x1
 5580 0879 47       		.byte	0x47
 5581 087a 00000000 		.4byte	.LFB36
 5582 087e 24030000 		.4byte	.LFE36-.LFB36
 5583 0882 01       		.uleb128 0x1
 5584 0883 9C       		.byte	0x9c
 5585 0884 D9080000 		.4byte	0x8d9
 5586 0888 16       		.uleb128 0x16
 5587 0889 83030000 		.4byte	.LASF225
 5588 088d 01       		.byte	0x1
 5589 088e 49       		.byte	0x49
 5590 088f 4B050000 		.4byte	0x54b
 5591 0893 02       		.uleb128 0x2
 5592 0894 91       		.byte	0x91
 5593 0895 64       		.sleb128 -28
 5594 0896 16       		.uleb128 0x16
 5595 0897 920B0000 		.4byte	.LASF226
 5596 089b 01       		.byte	0x1
 5597 089c 72       		.byte	0x72
 5598 089d A2000000 		.4byte	0xa2
 5599 08a1 02       		.uleb128 0x2
 5600 08a2 91       		.byte	0x91
 5601 08a3 6C       		.sleb128 -20
 5602 08a4 16       		.uleb128 0x16
 5603 08a5 26040000 		.4byte	.LASF227
 5604 08a9 01       		.byte	0x1
 5605 08aa 73       		.byte	0x73
ARM GAS  C:\Users\13740\AppData\Local\Temp\cc1Gy8Oo.s 			page 140


 5606 08ab A2000000 		.4byte	0xa2
 5607 08af 02       		.uleb128 0x2
 5608 08b0 91       		.byte	0x91
 5609 08b1 68       		.sleb128 -24
 5610 08b2 16       		.uleb128 0x16
 5611 08b3 AA0C0000 		.4byte	.LASF228
 5612 08b7 01       		.byte	0x1
 5613 08b8 74       		.byte	0x74
 5614 08b9 8C000000 		.4byte	0x8c
 5615 08bd 02       		.uleb128 0x2
 5616 08be 91       		.byte	0x91
 5617 08bf 77       		.sleb128 -9
 5618 08c0 17       		.uleb128 0x17
 5619 08c1 84000000 		.4byte	.LBB2
 5620 08c5 98000000 		.4byte	.LBE2-.LBB2
 5621 08c9 16       		.uleb128 0x16
 5622 08ca FF0B0000 		.4byte	.LASF229
 5623 08ce 01       		.byte	0x1
 5624 08cf 77       		.byte	0x77
 5625 08d0 7E000000 		.4byte	0x7e
 5626 08d4 02       		.uleb128 0x2
 5627 08d5 91       		.byte	0x91
 5628 08d6 70       		.sleb128 -16
 5629 08d7 00       		.byte	0
 5630 08d8 00       		.byte	0
 5631 08d9 15       		.uleb128 0x15
 5632 08da 01040000 		.4byte	.LASF231
 5633 08de 01       		.byte	0x1
 5634 08df F4       		.byte	0xf4
 5635 08e0 00000000 		.4byte	.LFB37
 5636 08e4 4C020000 		.4byte	.LFE37-.LFB37
 5637 08e8 01       		.uleb128 0x1
 5638 08e9 9C       		.byte	0x9c
 5639 08ea 35090000 		.4byte	0x935
 5640 08ee 16       		.uleb128 0x16
 5641 08ef 5C020000 		.4byte	.LASF232
 5642 08f3 01       		.byte	0x1
 5643 08f4 F8       		.byte	0xf8
 5644 08f5 C5000000 		.4byte	0xc5
 5645 08f9 02       		.uleb128 0x2
 5646 08fa 91       		.byte	0x91
 5647 08fb 70       		.sleb128 -16
 5648 08fc 16       		.uleb128 0x16
 5649 08fd EB150000 		.4byte	.LASF233
 5650 0901 01       		.byte	0x1
 5651 0902 F9       		.byte	0xf9
 5652 0903 C5000000 		.4byte	0xc5
 5653 0907 02       		.uleb128 0x2
 5654 0908 91       		.byte	0x91
 5655 0909 6C       		.sleb128 -20
 5656 090a 16       		.uleb128 0x16
 5657 090b 380C0000 		.4byte	.LASF234
 5658 090f 01       		.byte	0x1
 5659 0910 FA       		.byte	0xfa
 5660 0911 C5000000 		.4byte	0xc5
 5661 0915 02       		.uleb128 0x2
 5662 0916 91       		.byte	0x91
ARM GAS  C:\Users\13740\AppData\Local\Temp\cc1Gy8Oo.s 			page 141


 5663 0917 68       		.sleb128 -24
 5664 0918 16       		.uleb128 0x16
 5665 0919 420C0000 		.4byte	.LASF235
 5666 091d 01       		.byte	0x1
 5667 091e FB       		.byte	0xfb
 5668 091f C5000000 		.4byte	0xc5
 5669 0923 02       		.uleb128 0x2
 5670 0924 91       		.byte	0x91
 5671 0925 64       		.sleb128 -28
 5672 0926 16       		.uleb128 0x16
 5673 0927 45130000 		.4byte	.LASF236
 5674 092b 01       		.byte	0x1
 5675 092c FC       		.byte	0xfc
 5676 092d 7E000000 		.4byte	0x7e
 5677 0931 02       		.uleb128 0x2
 5678 0932 91       		.byte	0x91
 5679 0933 74       		.sleb128 -12
 5680 0934 00       		.byte	0
 5681 0935 18       		.uleb128 0x18
 5682 0936 FC140000 		.4byte	.LASF237
 5683 093a 01       		.byte	0x1
 5684 093b 4401     		.2byte	0x144
 5685 093d 00000000 		.4byte	.LFB38
 5686 0941 2C010000 		.4byte	.LFE38-.LFB38
 5687 0945 01       		.uleb128 0x1
 5688 0946 9C       		.byte	0x9c
 5689 0947 5B090000 		.4byte	0x95b
 5690 094b 19       		.uleb128 0x19
 5691 094c 95170000 		.4byte	.LASF238
 5692 0950 01       		.byte	0x1
 5693 0951 4801     		.2byte	0x148
 5694 0953 C5000000 		.4byte	0xc5
 5695 0957 02       		.uleb128 0x2
 5696 0958 91       		.byte	0x91
 5697 0959 74       		.sleb128 -12
 5698 095a 00       		.byte	0
 5699 095b 1A       		.uleb128 0x1a
 5700 095c 5A140000 		.4byte	.LASF242
 5701 0960 01       		.byte	0x1
 5702 0961 7701     		.2byte	0x177
 5703 0963 00000000 		.4byte	.LFB39
 5704 0967 E4000000 		.4byte	.LFE39-.LFB39
 5705 096b 01       		.uleb128 0x1
 5706 096c 9C       		.byte	0x9c
 5707 096d 18       		.uleb128 0x18
 5708 096e 22060000 		.4byte	.LASF239
 5709 0972 01       		.byte	0x1
 5710 0973 9101     		.2byte	0x191
 5711 0975 00000000 		.4byte	.LFB40
 5712 0979 B0020000 		.4byte	.LFE40-.LFB40
 5713 097d 01       		.uleb128 0x1
 5714 097e 9C       		.byte	0x9c
 5715 097f AF090000 		.4byte	0x9af
 5716 0983 19       		.uleb128 0x19
 5717 0984 86160000 		.4byte	.LASF240
 5718 0988 01       		.byte	0x1
 5719 0989 9501     		.2byte	0x195
ARM GAS  C:\Users\13740\AppData\Local\Temp\cc1Gy8Oo.s 			page 142


 5720 098b AF090000 		.4byte	0x9af
 5721 098f 02       		.uleb128 0x2
 5722 0990 91       		.byte	0x91
 5723 0991 64       		.sleb128 -28
 5724 0992 19       		.uleb128 0x19
 5725 0993 0F000000 		.4byte	.LASF241
 5726 0997 01       		.byte	0x1
 5727 0998 9601     		.2byte	0x196
 5728 099a AF090000 		.4byte	0x9af
 5729 099e 02       		.uleb128 0x2
 5730 099f 91       		.byte	0x91
 5731 09a0 5C       		.sleb128 -36
 5732 09a1 1B       		.uleb128 0x1b
 5733 09a2 6900     		.ascii	"i\000"
 5734 09a4 01       		.byte	0x1
 5735 09a5 9701     		.2byte	0x197
 5736 09a7 7E000000 		.4byte	0x7e
 5737 09ab 02       		.uleb128 0x2
 5738 09ac 91       		.byte	0x91
 5739 09ad 6C       		.sleb128 -20
 5740 09ae 00       		.byte	0
 5741 09af 0D       		.uleb128 0xd
 5742 09b0 AD000000 		.4byte	0xad
 5743 09b4 BF090000 		.4byte	0x9bf
 5744 09b8 0E       		.uleb128 0xe
 5745 09b9 F7000000 		.4byte	0xf7
 5746 09bd 07       		.byte	0x7
 5747 09be 00       		.byte	0
 5748 09bf 1A       		.uleb128 0x1a
 5749 09c0 B1170000 		.4byte	.LASF243
 5750 09c4 01       		.byte	0x1
 5751 09c5 EF01     		.2byte	0x1ef
 5752 09c7 00000000 		.4byte	.LFB41
 5753 09cb BC000000 		.4byte	.LFE41-.LFB41
 5754 09cf 01       		.uleb128 0x1
 5755 09d0 9C       		.byte	0x9c
 5756 09d1 1C       		.uleb128 0x1c
 5757 09d2 3B0D0000 		.4byte	.LASF246
 5758 09d6 01       		.byte	0x1
 5759 09d7 1502     		.2byte	0x215
 5760 09d9 D1000000 		.4byte	0xd1
 5761 09dd 00000000 		.4byte	.LFB42
 5762 09e1 7C000000 		.4byte	.LFE42-.LFB42
 5763 09e5 01       		.uleb128 0x1
 5764 09e6 9C       		.byte	0x9c
 5765 09e7 280A0000 		.4byte	0xa28
 5766 09eb 1D       		.uleb128 0x1d
 5767 09ec E00B0000 		.4byte	.LASF248
 5768 09f0 01       		.byte	0x1
 5769 09f1 1502     		.2byte	0x215
 5770 09f3 68080000 		.4byte	0x868
 5771 09f7 02       		.uleb128 0x2
 5772 09f8 91       		.byte	0x91
 5773 09f9 67       		.sleb128 -25
 5774 09fa 19       		.uleb128 0x19
 5775 09fb 0E0A0000 		.4byte	.LASF244
 5776 09ff 01       		.byte	0x1
ARM GAS  C:\Users\13740\AppData\Local\Temp\cc1Gy8Oo.s 			page 143


 5777 0a00 1702     		.2byte	0x217
 5778 0a02 D1000000 		.4byte	0xd1
 5779 0a06 02       		.uleb128 0x2
 5780 0a07 91       		.byte	0x91
 5781 0a08 74       		.sleb128 -12
 5782 0a09 19       		.uleb128 0x19
 5783 0a0a F2140000 		.4byte	.LASF245
 5784 0a0e 01       		.byte	0x1
 5785 0a0f 1802     		.2byte	0x218
 5786 0a11 A2000000 		.4byte	0xa2
 5787 0a15 02       		.uleb128 0x2
 5788 0a16 91       		.byte	0x91
 5789 0a17 6C       		.sleb128 -20
 5790 0a18 19       		.uleb128 0x19
 5791 0a19 83030000 		.4byte	.LASF225
 5792 0a1d 01       		.byte	0x1
 5793 0a1e 1902     		.2byte	0x219
 5794 0a20 4B050000 		.4byte	0x54b
 5795 0a24 02       		.uleb128 0x2
 5796 0a25 91       		.byte	0x91
 5797 0a26 70       		.sleb128 -16
 5798 0a27 00       		.byte	0
 5799 0a28 1C       		.uleb128 0x1c
 5800 0a29 25160000 		.4byte	.LASF247
 5801 0a2d 01       		.byte	0x1
 5802 0a2e 4102     		.2byte	0x241
 5803 0a30 D1000000 		.4byte	0xd1
 5804 0a34 00000000 		.4byte	.LFB43
 5805 0a38 AC000000 		.4byte	.LFE43-.LFB43
 5806 0a3c 01       		.uleb128 0x1
 5807 0a3d 9C       		.byte	0x9c
 5808 0a3e 700A0000 		.4byte	0xa70
 5809 0a42 1D       		.uleb128 0x1d
 5810 0a43 69170000 		.4byte	.LASF249
 5811 0a47 01       		.byte	0x1
 5812 0a48 4102     		.2byte	0x241
 5813 0a4a D1000000 		.4byte	0xd1
 5814 0a4e 02       		.uleb128 0x2
 5815 0a4f 91       		.byte	0x91
 5816 0a50 64       		.sleb128 -28
 5817 0a51 1D       		.uleb128 0x1d
 5818 0a52 E00B0000 		.4byte	.LASF248
 5819 0a56 01       		.byte	0x1
 5820 0a57 4102     		.2byte	0x241
 5821 0a59 AD000000 		.4byte	0xad
 5822 0a5d 02       		.uleb128 0x2
 5823 0a5e 91       		.byte	0x91
 5824 0a5f 63       		.sleb128 -29
 5825 0a60 19       		.uleb128 0x19
 5826 0a61 3B0B0000 		.4byte	.LASF250
 5827 0a65 01       		.byte	0x1
 5828 0a66 4302     		.2byte	0x243
 5829 0a68 D1000000 		.4byte	0xd1
 5830 0a6c 02       		.uleb128 0x2
 5831 0a6d 91       		.byte	0x91
 5832 0a6e 6C       		.sleb128 -20
 5833 0a6f 00       		.byte	0
ARM GAS  C:\Users\13740\AppData\Local\Temp\cc1Gy8Oo.s 			page 144


 5834 0a70 1E       		.uleb128 0x1e
 5835 0a71 F8160000 		.4byte	.LASF251
 5836 0a75 01       		.byte	0x1
 5837 0a76 6202     		.2byte	0x262
 5838 0a78 D1000000 		.4byte	0xd1
 5839 0a7c 00000000 		.4byte	.LFB44
 5840 0a80 20000000 		.4byte	.LFE44-.LFB44
 5841 0a84 01       		.uleb128 0x1
 5842 0a85 9C       		.byte	0x9c
 5843 0a86 BE0A0000 		.4byte	0xabe
 5844 0a8a 19       		.uleb128 0x19
 5845 0a8b 58090000 		.4byte	.LASF211
 5846 0a8f 01       		.byte	0x1
 5847 0a90 6402     		.2byte	0x264
 5848 0a92 D1000000 		.4byte	0xd1
 5849 0a96 02       		.uleb128 0x2
 5850 0a97 91       		.byte	0x91
 5851 0a98 74       		.sleb128 -12
 5852 0a99 1F       		.uleb128 0x1f
 5853 0a9a 2A180000 		.4byte	.LASF252
 5854 0a9e 01       		.byte	0x1
 5855 0a9f 6502     		.2byte	0x265
 5856 0aa1 A2000000 		.4byte	0xa2
 5857 0aa5 1F       		.uleb128 0x1f
 5858 0aa6 A4020000 		.4byte	.LASF253
 5859 0aaa 01       		.byte	0x1
 5860 0aab 6602     		.2byte	0x266
 5861 0aad D1000000 		.4byte	0xd1
 5862 0ab1 1F       		.uleb128 0x1f
 5863 0ab2 8F160000 		.4byte	.LASF254
 5864 0ab6 01       		.byte	0x1
 5865 0ab7 6602     		.2byte	0x266
 5866 0ab9 D1000000 		.4byte	0xd1
 5867 0abd 00       		.byte	0
 5868 0abe 1C       		.uleb128 0x1c
 5869 0abf 64090000 		.4byte	.LASF255
 5870 0ac3 01       		.byte	0x1
 5871 0ac4 9602     		.2byte	0x296
 5872 0ac6 D1000000 		.4byte	0xd1
 5873 0aca 00000000 		.4byte	.LFB45
 5874 0ace 4C010000 		.4byte	.LFE45-.LFB45
 5875 0ad2 01       		.uleb128 0x1
 5876 0ad3 9C       		.byte	0x9c
 5877 0ad4 400B0000 		.4byte	0xb40
 5878 0ad8 1D       		.uleb128 0x1d
 5879 0ad9 E00B0000 		.4byte	.LASF248
 5880 0add 01       		.byte	0x1
 5881 0ade 9602     		.2byte	0x296
 5882 0ae0 68080000 		.4byte	0x868
 5883 0ae4 02       		.uleb128 0x2
 5884 0ae5 91       		.byte	0x91
 5885 0ae6 67       		.sleb128 -25
 5886 0ae7 19       		.uleb128 0x19
 5887 0ae8 69170000 		.4byte	.LASF249
 5888 0aec 01       		.byte	0x1
 5889 0aed 9802     		.2byte	0x298
 5890 0aef D1000000 		.4byte	0xd1
ARM GAS  C:\Users\13740\AppData\Local\Temp\cc1Gy8Oo.s 			page 145


 5891 0af3 02       		.uleb128 0x2
 5892 0af4 91       		.byte	0x91
 5893 0af5 74       		.sleb128 -12
 5894 0af6 19       		.uleb128 0x19
 5895 0af7 F2140000 		.4byte	.LASF245
 5896 0afb 01       		.byte	0x1
 5897 0afc 9902     		.2byte	0x299
 5898 0afe A2000000 		.4byte	0xa2
 5899 0b02 02       		.uleb128 0x2
 5900 0b03 91       		.byte	0x91
 5901 0b04 68       		.sleb128 -24
 5902 0b05 19       		.uleb128 0x19
 5903 0b06 83030000 		.4byte	.LASF225
 5904 0b0a 01       		.byte	0x1
 5905 0b0b 9A02     		.2byte	0x29a
 5906 0b0d 4B050000 		.4byte	0x54b
 5907 0b11 02       		.uleb128 0x2
 5908 0b12 91       		.byte	0x91
 5909 0b13 70       		.sleb128 -16
 5910 0b14 19       		.uleb128 0x19
 5911 0b15 66000000 		.4byte	.LASF256
 5912 0b19 01       		.byte	0x1
 5913 0b1a 9B02     		.2byte	0x29b
 5914 0b1c 400B0000 		.4byte	0xb40
 5915 0b20 05       		.uleb128 0x5
 5916 0b21 03       		.byte	0x3
 5917 0b22 2C000000 		.4byte	ampFifoBuffer.9604
 5918 0b26 17       		.uleb128 0x17
 5919 0b27 AC000000 		.4byte	.LBB3
 5920 0b2b 14000000 		.4byte	.LBE3-.LBB3
 5921 0b2f 19       		.uleb128 0x19
 5922 0b30 DF070000 		.4byte	.LASF257
 5923 0b34 01       		.byte	0x1
 5924 0b35 CC02     		.2byte	0x2cc
 5925 0b37 500B0000 		.4byte	0xb50
 5926 0b3b 02       		.uleb128 0x2
 5927 0b3c 91       		.byte	0x91
 5928 0b3d 6C       		.sleb128 -20
 5929 0b3e 00       		.byte	0
 5930 0b3f 00       		.byte	0
 5931 0b40 0D       		.uleb128 0xd
 5932 0b41 A2000000 		.4byte	0xa2
 5933 0b45 500B0000 		.4byte	0xb50
 5934 0b49 0E       		.uleb128 0xe
 5935 0b4a F7000000 		.4byte	0xf7
 5936 0b4e FF       		.byte	0xff
 5937 0b4f 00       		.byte	0
 5938 0b50 0F       		.uleb128 0xf
 5939 0b51 04       		.byte	0x4
 5940 0b52 D1000000 		.4byte	0xd1
 5941 0b56 1C       		.uleb128 0x1c
 5942 0b57 FA120000 		.4byte	.LASF258
 5943 0b5b 01       		.byte	0x1
 5944 0b5c 0903     		.2byte	0x309
 5945 0b5e D1000000 		.4byte	0xd1
 5946 0b62 00000000 		.4byte	.LFB46
 5947 0b66 D4000000 		.4byte	.LFE46-.LFB46
ARM GAS  C:\Users\13740\AppData\Local\Temp\cc1Gy8Oo.s 			page 146


 5948 0b6a 01       		.uleb128 0x1
 5949 0b6b 9C       		.byte	0x9c
 5950 0b6c A70B0000 		.4byte	0xba7
 5951 0b70 1D       		.uleb128 0x1d
 5952 0b71 E00B0000 		.4byte	.LASF248
 5953 0b75 01       		.byte	0x1
 5954 0b76 0903     		.2byte	0x309
 5955 0b78 68080000 		.4byte	0x868
 5956 0b7c 02       		.uleb128 0x2
 5957 0b7d 91       		.byte	0x91
 5958 0b7e 67       		.sleb128 -25
 5959 0b7f 19       		.uleb128 0x19
 5960 0b80 69170000 		.4byte	.LASF249
 5961 0b84 01       		.byte	0x1
 5962 0b85 0B03     		.2byte	0x30b
 5963 0b87 D1000000 		.4byte	0xd1
 5964 0b8b 02       		.uleb128 0x2
 5965 0b8c 91       		.byte	0x91
 5966 0b8d 6C       		.sleb128 -20
 5967 0b8e 17       		.uleb128 0x17
 5968 0b8f 20000000 		.4byte	.LBB4
 5969 0b93 9C000000 		.4byte	.LBE4-.LBB4
 5970 0b97 20       		.uleb128 0x20
 5971 0b98 61000000 		.4byte	.LASF309
 5972 0b9c 01       		.byte	0x1
 5973 0b9d 1203     		.2byte	0x312
 5974 0b9f 7E000000 		.4byte	0x7e
 5975 0ba3 21       		.uleb128 0x21
 5976 0ba4 00       		.byte	0
 5977 0ba5 00       		.byte	0
 5978 0ba6 00       		.byte	0
 5979 0ba7 18       		.uleb128 0x18
 5980 0ba8 AF0E0000 		.4byte	.LASF259
 5981 0bac 01       		.byte	0x1
 5982 0bad 3003     		.2byte	0x330
 5983 0baf 00000000 		.4byte	.LFB47
 5984 0bb3 10010000 		.4byte	.LFE47-.LFB47
 5985 0bb7 01       		.uleb128 0x1
 5986 0bb8 9C       		.byte	0x9c
 5987 0bb9 CD0B0000 		.4byte	0xbcd
 5988 0bbd 19       		.uleb128 0x19
 5989 0bbe 760C0000 		.4byte	.LASF260
 5990 0bc2 01       		.byte	0x1
 5991 0bc3 5703     		.2byte	0x357
 5992 0bc5 D1000000 		.4byte	0xd1
 5993 0bc9 02       		.uleb128 0x2
 5994 0bca 91       		.byte	0x91
 5995 0bcb 6C       		.sleb128 -20
 5996 0bcc 00       		.byte	0
 5997 0bcd 18       		.uleb128 0x18
 5998 0bce 350E0000 		.4byte	.LASF261
 5999 0bd2 01       		.byte	0x1
 6000 0bd3 6703     		.2byte	0x367
 6001 0bd5 00000000 		.4byte	.LFB48
 6002 0bd9 2A000000 		.4byte	.LFE48-.LFB48
 6003 0bdd 01       		.uleb128 0x1
 6004 0bde 9C       		.byte	0x9c
ARM GAS  C:\Users\13740\AppData\Local\Temp\cc1Gy8Oo.s 			page 147


 6005 0bdf F30B0000 		.4byte	0xbf3
 6006 0be3 1D       		.uleb128 0x1d
 6007 0be4 1B060000 		.4byte	.LASF262
 6008 0be8 01       		.byte	0x1
 6009 0be9 6703     		.2byte	0x367
 6010 0beb AD000000 		.4byte	0xad
 6011 0bef 02       		.uleb128 0x2
 6012 0bf0 91       		.byte	0x91
 6013 0bf1 77       		.sleb128 -9
 6014 0bf2 00       		.byte	0
 6015 0bf3 18       		.uleb128 0x18
 6016 0bf4 7A0D0000 		.4byte	.LASF263
 6017 0bf8 01       		.byte	0x1
 6018 0bf9 7903     		.2byte	0x379
 6019 0bfb 00000000 		.4byte	.LFB49
 6020 0bff 2A000000 		.4byte	.LFE49-.LFB49
 6021 0c03 01       		.uleb128 0x1
 6022 0c04 9C       		.byte	0x9c
 6023 0c05 190C0000 		.4byte	0xc19
 6024 0c09 1D       		.uleb128 0x1d
 6025 0c0a 1B060000 		.4byte	.LASF262
 6026 0c0e 01       		.byte	0x1
 6027 0c0f 7903     		.2byte	0x379
 6028 0c11 AD000000 		.4byte	0xad
 6029 0c15 02       		.uleb128 0x2
 6030 0c16 91       		.byte	0x91
 6031 0c17 77       		.sleb128 -9
 6032 0c18 00       		.byte	0
 6033 0c19 18       		.uleb128 0x18
 6034 0c1a F5080000 		.4byte	.LASF264
 6035 0c1e 01       		.byte	0x1
 6036 0c1f AA03     		.2byte	0x3aa
 6037 0c21 00000000 		.4byte	.LFB50
 6038 0c25 10010000 		.4byte	.LFE50-.LFB50
 6039 0c29 01       		.uleb128 0x1
 6040 0c2a 9C       		.byte	0x9c
 6041 0c2b 680C0000 		.4byte	0xc68
 6042 0c2f 19       		.uleb128 0x19
 6043 0c30 74000000 		.4byte	.LASF265
 6044 0c34 01       		.byte	0x1
 6045 0c35 AC03     		.2byte	0x3ac
 6046 0c37 08050000 		.4byte	0x508
 6047 0c3b 02       		.uleb128 0x2
 6048 0c3c 91       		.byte	0x91
 6049 0c3d 58       		.sleb128 -40
 6050 0c3e 19       		.uleb128 0x19
 6051 0c3f 81010000 		.4byte	.LASF266
 6052 0c43 01       		.byte	0x1
 6053 0c44 AD03     		.2byte	0x3ad
 6054 0c46 680C0000 		.4byte	0xc68
 6055 0c4a 05       		.uleb128 0x5
 6056 0c4b 03       		.byte	0x3
 6057 0c4c 2C040000 		.4byte	dataString.9636
 6058 0c50 17       		.uleb128 0x17
 6059 0c51 38000000 		.4byte	.LBB5
 6060 0c55 2A000000 		.4byte	.LBE5-.LBB5
 6061 0c59 1B       		.uleb128 0x1b
ARM GAS  C:\Users\13740\AppData\Local\Temp\cc1Gy8Oo.s 			page 148


 6062 0c5a 6900     		.ascii	"i\000"
 6063 0c5c 01       		.byte	0x1
 6064 0c5d B903     		.2byte	0x3b9
 6065 0c5f 7E000000 		.4byte	0x7e
 6066 0c63 02       		.uleb128 0x2
 6067 0c64 91       		.byte	0x91
 6068 0c65 64       		.sleb128 -28
 6069 0c66 00       		.byte	0
 6070 0c67 00       		.byte	0
 6071 0c68 0D       		.uleb128 0xd
 6072 0c69 DF000000 		.4byte	0xdf
 6073 0c6d 780C0000 		.4byte	0xc78
 6074 0c71 0E       		.uleb128 0xe
 6075 0c72 F7000000 		.4byte	0xf7
 6076 0c76 31       		.byte	0x31
 6077 0c77 00       		.byte	0
 6078 0c78 18       		.uleb128 0x18
 6079 0c79 10040000 		.4byte	.LASF267
 6080 0c7d 01       		.byte	0x1
 6081 0c7e CE03     		.2byte	0x3ce
 6082 0c80 00000000 		.4byte	.LFB51
 6083 0c84 D4000000 		.4byte	.LFE51-.LFB51
 6084 0c88 01       		.uleb128 0x1
 6085 0c89 9C       		.byte	0x9c
 6086 0c8a F90C0000 		.4byte	0xcf9
 6087 0c8e 19       		.uleb128 0x19
 6088 0c8f 74000000 		.4byte	.LASF265
 6089 0c93 01       		.byte	0x1
 6090 0c94 D003     		.2byte	0x3d0
 6091 0c96 08050000 		.4byte	0x508
 6092 0c9a 02       		.uleb128 0x2
 6093 0c9b 91       		.byte	0x91
 6094 0c9c 60       		.sleb128 -32
 6095 0c9d 19       		.uleb128 0x19
 6096 0c9e 81010000 		.4byte	.LASF266
 6097 0ca2 01       		.byte	0x1
 6098 0ca3 D103     		.2byte	0x3d1
 6099 0ca5 F90C0000 		.4byte	0xcf9
 6100 0ca9 05       		.uleb128 0x5
 6101 0caa 03       		.byte	0x3
 6102 0cab 60040000 		.4byte	dataString.9645
 6103 0caf 19       		.uleb128 0x19
 6104 0cb0 C8120000 		.4byte	.LASF268
 6105 0cb4 01       		.byte	0x1
 6106 0cb5 D203     		.2byte	0x3d2
 6107 0cb7 AD000000 		.4byte	0xad
 6108 0cbb 05       		.uleb128 0x5
 6109 0cbc 03       		.byte	0x3
 6110 0cbd 5E040000 		.4byte	diagStep.9646
 6111 0cc1 17       		.uleb128 0x17
 6112 0cc2 22000000 		.4byte	.LBB6
 6113 0cc6 4E000000 		.4byte	.LBE6-.LBB6
 6114 0cca 19       		.uleb128 0x19
 6115 0ccb 870F0000 		.4byte	.LASF269
 6116 0ccf 01       		.byte	0x1
 6117 0cd0 DD03     		.2byte	0x3dd
 6118 0cd2 A2000000 		.4byte	0xa2
ARM GAS  C:\Users\13740\AppData\Local\Temp\cc1Gy8Oo.s 			page 149


 6119 0cd6 02       		.uleb128 0x2
 6120 0cd7 91       		.byte	0x91
 6121 0cd8 74       		.sleb128 -12
 6122 0cd9 19       		.uleb128 0x19
 6123 0cda A3110000 		.4byte	.LASF270
 6124 0cde 01       		.byte	0x1
 6125 0cdf E103     		.2byte	0x3e1
 6126 0ce1 A2000000 		.4byte	0xa2
 6127 0ce5 02       		.uleb128 0x2
 6128 0ce6 91       		.byte	0x91
 6129 0ce7 70       		.sleb128 -16
 6130 0ce8 19       		.uleb128 0x19
 6131 0ce9 A6160000 		.4byte	.LASF271
 6132 0ced 01       		.byte	0x1
 6133 0cee E703     		.2byte	0x3e7
 6134 0cf0 A2000000 		.4byte	0xa2
 6135 0cf4 02       		.uleb128 0x2
 6136 0cf5 91       		.byte	0x91
 6137 0cf6 6C       		.sleb128 -20
 6138 0cf7 00       		.byte	0
 6139 0cf8 00       		.byte	0
 6140 0cf9 0D       		.uleb128 0xd
 6141 0cfa DF000000 		.4byte	0xdf
 6142 0cfe 090D0000 		.4byte	0xd09
 6143 0d02 0E       		.uleb128 0xe
 6144 0d03 F7000000 		.4byte	0xf7
 6145 0d07 27       		.byte	0x27
 6146 0d08 00       		.byte	0
 6147 0d09 18       		.uleb128 0x18
 6148 0d0a B9040000 		.4byte	.LASF272
 6149 0d0e 01       		.byte	0x1
 6150 0d0f 2104     		.2byte	0x421
 6151 0d11 00000000 		.4byte	.LFB52
 6152 0d15 54010000 		.4byte	.LFE52-.LFB52
 6153 0d19 01       		.uleb128 0x1
 6154 0d1a 9C       		.byte	0x9c
 6155 0d1b 6A0D0000 		.4byte	0xd6a
 6156 0d1f 19       		.uleb128 0x19
 6157 0d20 74000000 		.4byte	.LASF265
 6158 0d24 01       		.byte	0x1
 6159 0d25 2304     		.2byte	0x423
 6160 0d27 08050000 		.4byte	0x508
 6161 0d2b 02       		.uleb128 0x2
 6162 0d2c 91       		.byte	0x91
 6163 0d2d 60       		.sleb128 -32
 6164 0d2e 19       		.uleb128 0x19
 6165 0d2f 7E070000 		.4byte	.LASF273
 6166 0d33 01       		.byte	0x1
 6167 0d34 2404     		.2byte	0x424
 6168 0d36 6A0D0000 		.4byte	0xd6a
 6169 0d3a 05       		.uleb128 0x5
 6170 0d3b 03       		.byte	0x3
 6171 0d3c 8C040000 		.4byte	tempString.9656
 6172 0d40 19       		.uleb128 0x19
 6173 0d41 66100000 		.4byte	.LASF274
 6174 0d45 01       		.byte	0x1
 6175 0d46 2504     		.2byte	0x425
ARM GAS  C:\Users\13740\AppData\Local\Temp\cc1Gy8Oo.s 			page 150


 6176 0d48 AD000000 		.4byte	0xad
 6177 0d4c 05       		.uleb128 0x5
 6178 0d4d 03       		.byte	0x3
 6179 0d4e 88040000 		.4byte	testStep.9657
 6180 0d52 17       		.uleb128 0x17
 6181 0d53 94000000 		.4byte	.LBB7
 6182 0d57 2A000000 		.4byte	.LBE7-.LBB7
 6183 0d5b 1B       		.uleb128 0x1b
 6184 0d5c 6900     		.ascii	"i\000"
 6185 0d5e 01       		.byte	0x1
 6186 0d5f 4304     		.2byte	0x443
 6187 0d61 7E000000 		.4byte	0x7e
 6188 0d65 02       		.uleb128 0x2
 6189 0d66 91       		.byte	0x91
 6190 0d67 6C       		.sleb128 -20
 6191 0d68 00       		.byte	0
 6192 0d69 00       		.byte	0
 6193 0d6a 0D       		.uleb128 0xd
 6194 0d6b DF000000 		.4byte	0xdf
 6195 0d6f 7A0D0000 		.4byte	0xd7a
 6196 0d73 0E       		.uleb128 0xe
 6197 0d74 F7000000 		.4byte	0xf7
 6198 0d78 3B       		.byte	0x3b
 6199 0d79 00       		.byte	0
 6200 0d7a 1A       		.uleb128 0x1a
 6201 0d7b 26050000 		.4byte	.LASF275
 6202 0d7f 01       		.byte	0x1
 6203 0d80 6A04     		.2byte	0x46a
 6204 0d82 00000000 		.4byte	.LFB53
 6205 0d86 34000000 		.4byte	.LFE53-.LFB53
 6206 0d8a 01       		.uleb128 0x1
 6207 0d8b 9C       		.byte	0x9c
 6208 0d8c 18       		.uleb128 0x18
 6209 0d8d 4A140000 		.4byte	.LASF276
 6210 0d91 01       		.byte	0x1
 6211 0d92 8204     		.2byte	0x482
 6212 0d94 00000000 		.4byte	.LFB54
 6213 0d98 4C000000 		.4byte	.LFE54-.LFB54
 6214 0d9c 01       		.uleb128 0x1
 6215 0d9d 9C       		.byte	0x9c
 6216 0d9e B50D0000 		.4byte	0xdb5
 6217 0da2 1B       		.uleb128 0x1b
 6218 0da3 6C656400 		.ascii	"led\000"
 6219 0da7 01       		.byte	0x1
 6220 0da8 8404     		.2byte	0x484
 6221 0daa AD000000 		.4byte	0xad
 6222 0dae 05       		.uleb128 0x5
 6223 0daf 03       		.byte	0x3
 6224 0db0 00000000 		.4byte	led.9674
 6225 0db4 00       		.byte	0
 6226 0db5 18       		.uleb128 0x18
 6227 0db6 D60D0000 		.4byte	.LASF277
 6228 0dba 01       		.byte	0x1
 6229 0dbb 9604     		.2byte	0x496
 6230 0dbd 00000000 		.4byte	.LFB55
 6231 0dc1 74000000 		.4byte	.LFE55-.LFB55
 6232 0dc5 01       		.uleb128 0x1
ARM GAS  C:\Users\13740\AppData\Local\Temp\cc1Gy8Oo.s 			page 151


 6233 0dc6 9C       		.byte	0x9c
 6234 0dc7 F40D0000 		.4byte	0xdf4
 6235 0dcb 1D       		.uleb128 0x1d
 6236 0dcc DB040000 		.4byte	.LASF278
 6237 0dd0 01       		.byte	0x1
 6238 0dd1 9604     		.2byte	0x496
 6239 0dd3 C5000000 		.4byte	0xc5
 6240 0dd7 02       		.uleb128 0x2
 6241 0dd8 91       		.byte	0x91
 6242 0dd9 74       		.sleb128 -12
 6243 0dda 1D       		.uleb128 0x1d
 6244 0ddb 23010000 		.4byte	.LASF279
 6245 0ddf 01       		.byte	0x1
 6246 0de0 9604     		.2byte	0x496
 6247 0de2 FE000000 		.4byte	0xfe
 6248 0de6 02       		.uleb128 0x2
 6249 0de7 91       		.byte	0x91
 6250 0de8 70       		.sleb128 -16
 6251 0de9 22       		.uleb128 0x22
 6252 0dea 6900     		.ascii	"i\000"
 6253 0dec 01       		.byte	0x1
 6254 0ded 9804     		.2byte	0x498
 6255 0def B9000000 		.4byte	0xb9
 6256 0df3 00       		.byte	0
 6257 0df4 23       		.uleb128 0x23
 6258 0df5 190A0000 		.4byte	.LASF310
 6259 0df9 01       		.byte	0x1
 6260 0dfa C404     		.2byte	0x4c4
 6261 0dfc 00000000 		.4byte	.LFB56
 6262 0e00 74000000 		.4byte	.LFE56-.LFB56
 6263 0e04 01       		.uleb128 0x1
 6264 0e05 9C       		.byte	0x9c
 6265 0e06 290E0000 		.4byte	0xe29
 6266 0e0a 19       		.uleb128 0x19
 6267 0e0b 550A0000 		.4byte	.LASF280
 6268 0e0f 01       		.byte	0x1
 6269 0e10 C604     		.2byte	0x4c6
 6270 0e12 CF030000 		.4byte	0x3cf
 6271 0e16 02       		.uleb128 0x2
 6272 0e17 91       		.byte	0x91
 6273 0e18 6F       		.sleb128 -17
 6274 0e19 19       		.uleb128 0x19
 6275 0e1a 0B090000 		.4byte	.LASF281
 6276 0e1e 01       		.byte	0x1
 6277 0e1f C704     		.2byte	0x4c7
 6278 0e21 AD000000 		.4byte	0xad
 6279 0e25 02       		.uleb128 0x2
 6280 0e26 91       		.byte	0x91
 6281 0e27 6E       		.sleb128 -18
 6282 0e28 00       		.byte	0
 6283 0e29 1A       		.uleb128 0x1a
 6284 0e2a F5150000 		.4byte	.LASF282
 6285 0e2e 01       		.byte	0x1
 6286 0e2f E304     		.2byte	0x4e3
 6287 0e31 00000000 		.4byte	.LFB57
 6288 0e35 22000000 		.4byte	.LFE57-.LFB57
 6289 0e39 01       		.uleb128 0x1
ARM GAS  C:\Users\13740\AppData\Local\Temp\cc1Gy8Oo.s 			page 152


 6290 0e3a 9C       		.byte	0x9c
 6291 0e3b 24       		.uleb128 0x24
 6292 0e3c 39130000 		.4byte	.LASF283
 6293 0e40 01       		.byte	0x1
 6294 0e41 F104     		.2byte	0x4f1
 6295 0e43 7E000000 		.4byte	0x7e
 6296 0e47 00000000 		.4byte	.LFB58
 6297 0e4b EC030000 		.4byte	.LFE58-.LFB58
 6298 0e4f 01       		.uleb128 0x1
 6299 0e50 9C       		.byte	0x9c
 6300 0e51 DD0E0000 		.4byte	0xedd
 6301 0e55 19       		.uleb128 0x19
 6302 0e56 01110000 		.4byte	.LASF284
 6303 0e5a 01       		.byte	0x1
 6304 0e5b 1605     		.2byte	0x516
 6305 0e5d 8C000000 		.4byte	0x8c
 6306 0e61 02       		.uleb128 0x2
 6307 0e62 91       		.byte	0x91
 6308 0e63 67       		.sleb128 -25
 6309 0e64 19       		.uleb128 0x19
 6310 0e65 2E010000 		.4byte	.LASF285
 6311 0e69 01       		.byte	0x1
 6312 0e6a 1705     		.2byte	0x517
 6313 0e6c 8C000000 		.4byte	0x8c
 6314 0e70 02       		.uleb128 0x2
 6315 0e71 91       		.byte	0x91
 6316 0e72 66       		.sleb128 -26
 6317 0e73 19       		.uleb128 0x19
 6318 0e74 CC0C0000 		.4byte	.LASF286
 6319 0e78 01       		.byte	0x1
 6320 0e79 1805     		.2byte	0x518
 6321 0e7b 8C000000 		.4byte	0x8c
 6322 0e7f 02       		.uleb128 0x2
 6323 0e80 91       		.byte	0x91
 6324 0e81 65       		.sleb128 -27
 6325 0e82 19       		.uleb128 0x19
 6326 0e83 6F020000 		.4byte	.LASF287
 6327 0e87 01       		.byte	0x1
 6328 0e88 1905     		.2byte	0x519
 6329 0e8a 8C000000 		.4byte	0x8c
 6330 0e8e 02       		.uleb128 0x2
 6331 0e8f 91       		.byte	0x91
 6332 0e90 64       		.sleb128 -28
 6333 0e91 19       		.uleb128 0x19
 6334 0e92 010E0000 		.4byte	.LASF288
 6335 0e96 01       		.byte	0x1
 6336 0e97 2405     		.2byte	0x524
 6337 0e99 8C000000 		.4byte	0x8c
 6338 0e9d 02       		.uleb128 0x2
 6339 0e9e 91       		.byte	0x91
 6340 0e9f 63       		.sleb128 -29
 6341 0ea0 19       		.uleb128 0x19
 6342 0ea1 B7070000 		.4byte	.LASF289
 6343 0ea5 01       		.byte	0x1
 6344 0ea6 2805     		.2byte	0x528
 6345 0ea8 8C000000 		.4byte	0x8c
 6346 0eac 02       		.uleb128 0x2
ARM GAS  C:\Users\13740\AppData\Local\Temp\cc1Gy8Oo.s 			page 153


 6347 0ead 91       		.byte	0x91
 6348 0eae 62       		.sleb128 -30
 6349 0eaf 19       		.uleb128 0x19
 6350 0eb0 19080000 		.4byte	.LASF290
 6351 0eb4 01       		.byte	0x1
 6352 0eb5 3E05     		.2byte	0x53e
 6353 0eb7 A2000000 		.4byte	0xa2
 6354 0ebb 02       		.uleb128 0x2
 6355 0ebc 91       		.byte	0x91
 6356 0ebd 5C       		.sleb128 -36
 6357 0ebe 19       		.uleb128 0x19
 6358 0ebf 3F080000 		.4byte	.LASF291
 6359 0ec3 01       		.byte	0x1
 6360 0ec4 6005     		.2byte	0x560
 6361 0ec6 C5000000 		.4byte	0xc5
 6362 0eca 02       		.uleb128 0x2
 6363 0ecb 91       		.byte	0x91
 6364 0ecc 6C       		.sleb128 -20
 6365 0ecd 19       		.uleb128 0x19
 6366 0ece FA0E0000 		.4byte	.LASF292
 6367 0ed2 01       		.byte	0x1
 6368 0ed3 7705     		.2byte	0x577
 6369 0ed5 C5000000 		.4byte	0xc5
 6370 0ed9 02       		.uleb128 0x2
 6371 0eda 91       		.byte	0x91
 6372 0edb 68       		.sleb128 -24
 6373 0edc 00       		.byte	0
 6374 0edd 18       		.uleb128 0x18
 6375 0ede 36150000 		.4byte	.LASF293
 6376 0ee2 01       		.byte	0x1
 6377 0ee3 C305     		.2byte	0x5c3
 6378 0ee5 00000000 		.4byte	.LFB59
 6379 0ee9 A4000000 		.4byte	.LFE59-.LFB59
 6380 0eed 01       		.uleb128 0x1
 6381 0eee 9C       		.byte	0x9c
 6382 0eef 100F0000 		.4byte	0xf10
 6383 0ef3 1B       		.uleb128 0x1b
 6384 0ef4 6900     		.ascii	"i\000"
 6385 0ef6 01       		.byte	0x1
 6386 0ef7 C505     		.2byte	0x5c5
 6387 0ef9 B9000000 		.4byte	0xb9
 6388 0efd 02       		.uleb128 0x2
 6389 0efe 91       		.byte	0x91
 6390 0eff 76       		.sleb128 -10
 6391 0f00 19       		.uleb128 0x19
 6392 0f01 EB0B0000 		.4byte	.LASF294
 6393 0f05 01       		.byte	0x1
 6394 0f06 C605     		.2byte	0x5c6
 6395 0f08 4D040000 		.4byte	0x44d
 6396 0f0c 02       		.uleb128 0x2
 6397 0f0d 91       		.byte	0x91
 6398 0f0e 6C       		.sleb128 -20
 6399 0f0f 00       		.byte	0
 6400 0f10 25       		.uleb128 0x25
 6401 0f11 980B0000 		.4byte	.LASF295
 6402 0f15 0B       		.byte	0xb
 6403 0f16 C202     		.2byte	0x2c2
ARM GAS  C:\Users\13740\AppData\Local\Temp\cc1Gy8Oo.s 			page 154


 6404 0f18 AD000000 		.4byte	0xad
 6405 0f1c 25       		.uleb128 0x25
 6406 0f1d A7060000 		.4byte	.LASF296
 6407 0f21 08       		.byte	0x8
 6408 0f22 A90A     		.2byte	0xaa9
 6409 0f24 3F050000 		.4byte	0x53f
 6410 0f28 25       		.uleb128 0x25
 6411 0f29 BE050000 		.4byte	.LASF297
 6412 0f2d 08       		.byte	0x8
 6413 0f2e AA0A     		.2byte	0xaaa
 6414 0f30 8F040000 		.4byte	0x48f
 6415 0f34 26       		.uleb128 0x26
 6416 0f35 F50B0000 		.4byte	.LASF298
 6417 0f39 01       		.byte	0x1
 6418 0f3a 1E       		.byte	0x1e
 6419 0f3b 97030000 		.4byte	0x397
 6420 0f3f 05       		.uleb128 0x5
 6421 0f40 03       		.byte	0x3
 6422 0f41 00000000 		.4byte	apiResult
 6423 0f45 26       		.uleb128 0x26
 6424 0f46 CE030000 		.4byte	.LASF299
 6425 0f4a 01       		.byte	0x1
 6426 0f4b 1C       		.byte	0x1c
 6427 0f4c EB000000 		.4byte	0xeb
 6428 0f50 05       		.uleb128 0x5
 6429 0f51 03       		.byte	0x3
 6430 0f52 00000000 		.4byte	mainTimer
 6431 0f56 26       		.uleb128 0x26
 6432 0f57 24080000 		.4byte	.LASF300
 6433 0f5b 01       		.byte	0x1
 6434 0f5c 1D       		.byte	0x1d
 6435 0f5d E6000000 		.4byte	0xe6
 6436 0f61 05       		.uleb128 0x5
 6437 0f62 03       		.byte	0x3
 6438 0f63 00000000 		.4byte	measurementFlag
 6439 0f67 26       		.uleb128 0x26
 6440 0f68 FA0E0000 		.4byte	.LASF292
 6441 0f6c 01       		.byte	0x1
 6442 0f6d 16       		.byte	0x16
 6443 0f6e C5000000 		.4byte	0xc5
 6444 0f72 05       		.uleb128 0x5
 6445 0f73 03       		.byte	0x3
 6446 0f74 00000000 		.4byte	lastSendTime
 6447 0f78 26       		.uleb128 0x26
 6448 0f79 A8000000 		.4byte	.LASF301
 6449 0f7d 01       		.byte	0x1
 6450 0f7e 2F       		.byte	0x2f
 6451 0f7f 38080000 		.4byte	0x838
 6452 0f83 05       		.uleb128 0x5
 6453 0f84 03       		.byte	0x3
 6454 0f85 00000000 		.4byte	sensorData
 6455 0f89 26       		.uleb128 0x26
 6456 0f8a F8060000 		.4byte	.LASF302
 6457 0f8e 01       		.byte	0x1
 6458 0f8f 3D       		.byte	0x3d
 6459 0f90 9A0F0000 		.4byte	0xf9a
 6460 0f94 05       		.uleb128 0x5
ARM GAS  C:\Users\13740\AppData\Local\Temp\cc1Gy8Oo.s 			page 155


 6461 0f95 03       		.byte	0x3
 6462 0f96 00000000 		.4byte	pAmpCfg
 6463 0f9a 0F       		.uleb128 0xf
 6464 0f9b 04       		.byte	0x4
 6465 0f9c 98070000 		.4byte	0x798
 6466 0fa0 0D       		.uleb128 0xd
 6467 0fa1 C5000000 		.4byte	0xc5
 6468 0fa5 B10F0000 		.4byte	0xfb1
 6469 0fa9 27       		.uleb128 0x27
 6470 0faa F7000000 		.4byte	0xf7
 6471 0fae FF01     		.2byte	0x1ff
 6472 0fb0 00       		.byte	0
 6473 0fb1 26       		.uleb128 0x26
 6474 0fb2 79030000 		.4byte	.LASF303
 6475 0fb6 01       		.byte	0x1
 6476 0fb7 3E       		.byte	0x3e
 6477 0fb8 A00F0000 		.4byte	0xfa0
 6478 0fbc 05       		.uleb128 0x5
 6479 0fbd 03       		.byte	0x3
 6480 0fbe 00000000 		.4byte	ampBuffer
 6481 0fc2 26       		.uleb128 0x26
 6482 0fc3 E6060000 		.4byte	.LASF304
 6483 0fc7 01       		.byte	0x1
 6484 0fc8 3F       		.byte	0x3f
 6485 0fc9 C4070000 		.4byte	0x7c4
 6486 0fcd 05       		.uleb128 0x5
 6487 0fce 03       		.byte	0x3
 6488 0fcf 00000000 		.4byte	ampResult
 6489 0fd3 0D       		.uleb128 0xd
 6490 0fd4 8C000000 		.4byte	0x8c
 6491 0fd8 E30F0000 		.4byte	0xfe3
 6492 0fdc 0E       		.uleb128 0xe
 6493 0fdd F7000000 		.4byte	0xf7
 6494 0fe1 07       		.byte	0x7
 6495 0fe2 00       		.byte	0
 6496 0fe3 25       		.uleb128 0x25
 6497 0fe4 29130000 		.4byte	.LASF305
 6498 0fe8 01       		.byte	0x1
 6499 0fe9 A803     		.2byte	0x3a8
 6500 0feb D30F0000 		.4byte	0xfd3
 6501 0fef 00       		.byte	0
 6502              		.section	.debug_abbrev,"",%progbits
 6503              	.Ldebug_abbrev0:
 6504 0000 01       		.uleb128 0x1
 6505 0001 11       		.uleb128 0x11
 6506 0002 01       		.byte	0x1
 6507 0003 25       		.uleb128 0x25
 6508 0004 0E       		.uleb128 0xe
 6509 0005 13       		.uleb128 0x13
 6510 0006 0B       		.uleb128 0xb
 6511 0007 03       		.uleb128 0x3
 6512 0008 0E       		.uleb128 0xe
 6513 0009 1B       		.uleb128 0x1b
 6514 000a 0E       		.uleb128 0xe
 6515 000b 55       		.uleb128 0x55
 6516 000c 17       		.uleb128 0x17
 6517 000d 11       		.uleb128 0x11
ARM GAS  C:\Users\13740\AppData\Local\Temp\cc1Gy8Oo.s 			page 156


 6518 000e 01       		.uleb128 0x1
 6519 000f 10       		.uleb128 0x10
 6520 0010 17       		.uleb128 0x17
 6521 0011 00       		.byte	0
 6522 0012 00       		.byte	0
 6523 0013 02       		.uleb128 0x2
 6524 0014 24       		.uleb128 0x24
 6525 0015 00       		.byte	0
 6526 0016 0B       		.uleb128 0xb
 6527 0017 0B       		.uleb128 0xb
 6528 0018 3E       		.uleb128 0x3e
 6529 0019 0B       		.uleb128 0xb
 6530 001a 03       		.uleb128 0x3
 6531 001b 0E       		.uleb128 0xe
 6532 001c 00       		.byte	0
 6533 001d 00       		.byte	0
 6534 001e 03       		.uleb128 0x3
 6535 001f 16       		.uleb128 0x16
 6536 0020 00       		.byte	0
 6537 0021 03       		.uleb128 0x3
 6538 0022 0E       		.uleb128 0xe
 6539 0023 3A       		.uleb128 0x3a
 6540 0024 0B       		.uleb128 0xb
 6541 0025 3B       		.uleb128 0x3b
 6542 0026 0B       		.uleb128 0xb
 6543 0027 49       		.uleb128 0x49
 6544 0028 13       		.uleb128 0x13
 6545 0029 00       		.byte	0
 6546 002a 00       		.byte	0
 6547 002b 04       		.uleb128 0x4
 6548 002c 24       		.uleb128 0x24
 6549 002d 00       		.byte	0
 6550 002e 0B       		.uleb128 0xb
 6551 002f 0B       		.uleb128 0xb
 6552 0030 3E       		.uleb128 0x3e
 6553 0031 0B       		.uleb128 0xb
 6554 0032 03       		.uleb128 0x3
 6555 0033 08       		.uleb128 0x8
 6556 0034 00       		.byte	0
 6557 0035 00       		.byte	0
 6558 0036 05       		.uleb128 0x5
 6559 0037 16       		.uleb128 0x16
 6560 0038 00       		.byte	0
 6561 0039 03       		.uleb128 0x3
 6562 003a 0E       		.uleb128 0xe
 6563 003b 3A       		.uleb128 0x3a
 6564 003c 0B       		.uleb128 0xb
 6565 003d 3B       		.uleb128 0x3b
 6566 003e 05       		.uleb128 0x5
 6567 003f 49       		.uleb128 0x49
 6568 0040 13       		.uleb128 0x13
 6569 0041 00       		.byte	0
 6570 0042 00       		.byte	0
 6571 0043 06       		.uleb128 0x6
 6572 0044 35       		.uleb128 0x35
 6573 0045 00       		.byte	0
 6574 0046 49       		.uleb128 0x49
ARM GAS  C:\Users\13740\AppData\Local\Temp\cc1Gy8Oo.s 			page 157


 6575 0047 13       		.uleb128 0x13
 6576 0048 00       		.byte	0
 6577 0049 00       		.byte	0
 6578 004a 07       		.uleb128 0x7
 6579 004b 0F       		.uleb128 0xf
 6580 004c 00       		.byte	0
 6581 004d 0B       		.uleb128 0xb
 6582 004e 0B       		.uleb128 0xb
 6583 004f 00       		.byte	0
 6584 0050 00       		.byte	0
 6585 0051 08       		.uleb128 0x8
 6586 0052 04       		.uleb128 0x4
 6587 0053 01       		.byte	0x1
 6588 0054 0B       		.uleb128 0xb
 6589 0055 0B       		.uleb128 0xb
 6590 0056 49       		.uleb128 0x49
 6591 0057 13       		.uleb128 0x13
 6592 0058 3A       		.uleb128 0x3a
 6593 0059 0B       		.uleb128 0xb
 6594 005a 3B       		.uleb128 0x3b
 6595 005b 05       		.uleb128 0x5
 6596 005c 01       		.uleb128 0x1
 6597 005d 13       		.uleb128 0x13
 6598 005e 00       		.byte	0
 6599 005f 00       		.byte	0
 6600 0060 09       		.uleb128 0x9
 6601 0061 28       		.uleb128 0x28
 6602 0062 00       		.byte	0
 6603 0063 03       		.uleb128 0x3
 6604 0064 0E       		.uleb128 0xe
 6605 0065 1C       		.uleb128 0x1c
 6606 0066 0B       		.uleb128 0xb
 6607 0067 00       		.byte	0
 6608 0068 00       		.byte	0
 6609 0069 0A       		.uleb128 0xa
 6610 006a 28       		.uleb128 0x28
 6611 006b 00       		.byte	0
 6612 006c 03       		.uleb128 0x3
 6613 006d 0E       		.uleb128 0xe
 6614 006e 1C       		.uleb128 0x1c
 6615 006f 05       		.uleb128 0x5
 6616 0070 00       		.byte	0
 6617 0071 00       		.byte	0
 6618 0072 0B       		.uleb128 0xb
 6619 0073 13       		.uleb128 0x13
 6620 0074 01       		.byte	0x1
 6621 0075 0B       		.uleb128 0xb
 6622 0076 0B       		.uleb128 0xb
 6623 0077 3A       		.uleb128 0x3a
 6624 0078 0B       		.uleb128 0xb
 6625 0079 3B       		.uleb128 0x3b
 6626 007a 05       		.uleb128 0x5
 6627 007b 01       		.uleb128 0x1
 6628 007c 13       		.uleb128 0x13
 6629 007d 00       		.byte	0
 6630 007e 00       		.byte	0
 6631 007f 0C       		.uleb128 0xc
ARM GAS  C:\Users\13740\AppData\Local\Temp\cc1Gy8Oo.s 			page 158


 6632 0080 0D       		.uleb128 0xd
 6633 0081 00       		.byte	0
 6634 0082 03       		.uleb128 0x3
 6635 0083 0E       		.uleb128 0xe
 6636 0084 3A       		.uleb128 0x3a
 6637 0085 0B       		.uleb128 0xb
 6638 0086 3B       		.uleb128 0x3b
 6639 0087 05       		.uleb128 0x5
 6640 0088 49       		.uleb128 0x49
 6641 0089 13       		.uleb128 0x13
 6642 008a 38       		.uleb128 0x38
 6643 008b 0B       		.uleb128 0xb
 6644 008c 00       		.byte	0
 6645 008d 00       		.byte	0
 6646 008e 0D       		.uleb128 0xd
 6647 008f 01       		.uleb128 0x1
 6648 0090 01       		.byte	0x1
 6649 0091 49       		.uleb128 0x49
 6650 0092 13       		.uleb128 0x13
 6651 0093 01       		.uleb128 0x1
 6652 0094 13       		.uleb128 0x13
 6653 0095 00       		.byte	0
 6654 0096 00       		.byte	0
 6655 0097 0E       		.uleb128 0xe
 6656 0098 21       		.uleb128 0x21
 6657 0099 00       		.byte	0
 6658 009a 49       		.uleb128 0x49
 6659 009b 13       		.uleb128 0x13
 6660 009c 2F       		.uleb128 0x2f
 6661 009d 0B       		.uleb128 0xb
 6662 009e 00       		.byte	0
 6663 009f 00       		.byte	0
 6664 00a0 0F       		.uleb128 0xf
 6665 00a1 0F       		.uleb128 0xf
 6666 00a2 00       		.byte	0
 6667 00a3 0B       		.uleb128 0xb
 6668 00a4 0B       		.uleb128 0xb
 6669 00a5 49       		.uleb128 0x49
 6670 00a6 13       		.uleb128 0x13
 6671 00a7 00       		.byte	0
 6672 00a8 00       		.byte	0
 6673 00a9 10       		.uleb128 0x10
 6674 00aa 0D       		.uleb128 0xd
 6675 00ab 00       		.byte	0
 6676 00ac 03       		.uleb128 0x3
 6677 00ad 08       		.uleb128 0x8
 6678 00ae 3A       		.uleb128 0x3a
 6679 00af 0B       		.uleb128 0xb
 6680 00b0 3B       		.uleb128 0x3b
 6681 00b1 05       		.uleb128 0x5
 6682 00b2 49       		.uleb128 0x49
 6683 00b3 13       		.uleb128 0x13
 6684 00b4 38       		.uleb128 0x38
 6685 00b5 0B       		.uleb128 0xb
 6686 00b6 00       		.byte	0
 6687 00b7 00       		.byte	0
 6688 00b8 11       		.uleb128 0x11
ARM GAS  C:\Users\13740\AppData\Local\Temp\cc1Gy8Oo.s 			page 159


 6689 00b9 26       		.uleb128 0x26
 6690 00ba 00       		.byte	0
 6691 00bb 49       		.uleb128 0x49
 6692 00bc 13       		.uleb128 0x13
 6693 00bd 00       		.byte	0
 6694 00be 00       		.byte	0
 6695 00bf 12       		.uleb128 0x12
 6696 00c0 13       		.uleb128 0x13
 6697 00c1 01       		.byte	0x1
 6698 00c2 0B       		.uleb128 0xb
 6699 00c3 0B       		.uleb128 0xb
 6700 00c4 3A       		.uleb128 0x3a
 6701 00c5 0B       		.uleb128 0xb
 6702 00c6 3B       		.uleb128 0x3b
 6703 00c7 0B       		.uleb128 0xb
 6704 00c8 01       		.uleb128 0x1
 6705 00c9 13       		.uleb128 0x13
 6706 00ca 00       		.byte	0
 6707 00cb 00       		.byte	0
 6708 00cc 13       		.uleb128 0x13
 6709 00cd 0D       		.uleb128 0xd
 6710 00ce 00       		.byte	0
 6711 00cf 03       		.uleb128 0x3
 6712 00d0 0E       		.uleb128 0xe
 6713 00d1 3A       		.uleb128 0x3a
 6714 00d2 0B       		.uleb128 0xb
 6715 00d3 3B       		.uleb128 0x3b
 6716 00d4 0B       		.uleb128 0xb
 6717 00d5 49       		.uleb128 0x49
 6718 00d6 13       		.uleb128 0x13
 6719 00d7 38       		.uleb128 0x38
 6720 00d8 0B       		.uleb128 0xb
 6721 00d9 00       		.byte	0
 6722 00da 00       		.byte	0
 6723 00db 14       		.uleb128 0x14
 6724 00dc 04       		.uleb128 0x4
 6725 00dd 01       		.byte	0x1
 6726 00de 0B       		.uleb128 0xb
 6727 00df 0B       		.uleb128 0xb
 6728 00e0 49       		.uleb128 0x49
 6729 00e1 13       		.uleb128 0x13
 6730 00e2 3A       		.uleb128 0x3a
 6731 00e3 0B       		.uleb128 0xb
 6732 00e4 3B       		.uleb128 0x3b
 6733 00e5 0B       		.uleb128 0xb
 6734 00e6 01       		.uleb128 0x1
 6735 00e7 13       		.uleb128 0x13
 6736 00e8 00       		.byte	0
 6737 00e9 00       		.byte	0
 6738 00ea 15       		.uleb128 0x15
 6739 00eb 2E       		.uleb128 0x2e
 6740 00ec 01       		.byte	0x1
 6741 00ed 3F       		.uleb128 0x3f
 6742 00ee 19       		.uleb128 0x19
 6743 00ef 03       		.uleb128 0x3
 6744 00f0 0E       		.uleb128 0xe
 6745 00f1 3A       		.uleb128 0x3a
ARM GAS  C:\Users\13740\AppData\Local\Temp\cc1Gy8Oo.s 			page 160


 6746 00f2 0B       		.uleb128 0xb
 6747 00f3 3B       		.uleb128 0x3b
 6748 00f4 0B       		.uleb128 0xb
 6749 00f5 27       		.uleb128 0x27
 6750 00f6 19       		.uleb128 0x19
 6751 00f7 11       		.uleb128 0x11
 6752 00f8 01       		.uleb128 0x1
 6753 00f9 12       		.uleb128 0x12
 6754 00fa 06       		.uleb128 0x6
 6755 00fb 40       		.uleb128 0x40
 6756 00fc 18       		.uleb128 0x18
 6757 00fd 9642     		.uleb128 0x2116
 6758 00ff 19       		.uleb128 0x19
 6759 0100 01       		.uleb128 0x1
 6760 0101 13       		.uleb128 0x13
 6761 0102 00       		.byte	0
 6762 0103 00       		.byte	0
 6763 0104 16       		.uleb128 0x16
 6764 0105 34       		.uleb128 0x34
 6765 0106 00       		.byte	0
 6766 0107 03       		.uleb128 0x3
 6767 0108 0E       		.uleb128 0xe
 6768 0109 3A       		.uleb128 0x3a
 6769 010a 0B       		.uleb128 0xb
 6770 010b 3B       		.uleb128 0x3b
 6771 010c 0B       		.uleb128 0xb
 6772 010d 49       		.uleb128 0x49
 6773 010e 13       		.uleb128 0x13
 6774 010f 02       		.uleb128 0x2
 6775 0110 18       		.uleb128 0x18
 6776 0111 00       		.byte	0
 6777 0112 00       		.byte	0
 6778 0113 17       		.uleb128 0x17
 6779 0114 0B       		.uleb128 0xb
 6780 0115 01       		.byte	0x1
 6781 0116 11       		.uleb128 0x11
 6782 0117 01       		.uleb128 0x1
 6783 0118 12       		.uleb128 0x12
 6784 0119 06       		.uleb128 0x6
 6785 011a 00       		.byte	0
 6786 011b 00       		.byte	0
 6787 011c 18       		.uleb128 0x18
 6788 011d 2E       		.uleb128 0x2e
 6789 011e 01       		.byte	0x1
 6790 011f 3F       		.uleb128 0x3f
 6791 0120 19       		.uleb128 0x19
 6792 0121 03       		.uleb128 0x3
 6793 0122 0E       		.uleb128 0xe
 6794 0123 3A       		.uleb128 0x3a
 6795 0124 0B       		.uleb128 0xb
 6796 0125 3B       		.uleb128 0x3b
 6797 0126 05       		.uleb128 0x5
 6798 0127 27       		.uleb128 0x27
 6799 0128 19       		.uleb128 0x19
 6800 0129 11       		.uleb128 0x11
 6801 012a 01       		.uleb128 0x1
 6802 012b 12       		.uleb128 0x12
ARM GAS  C:\Users\13740\AppData\Local\Temp\cc1Gy8Oo.s 			page 161


 6803 012c 06       		.uleb128 0x6
 6804 012d 40       		.uleb128 0x40
 6805 012e 18       		.uleb128 0x18
 6806 012f 9642     		.uleb128 0x2116
 6807 0131 19       		.uleb128 0x19
 6808 0132 01       		.uleb128 0x1
 6809 0133 13       		.uleb128 0x13
 6810 0134 00       		.byte	0
 6811 0135 00       		.byte	0
 6812 0136 19       		.uleb128 0x19
 6813 0137 34       		.uleb128 0x34
 6814 0138 00       		.byte	0
 6815 0139 03       		.uleb128 0x3
 6816 013a 0E       		.uleb128 0xe
 6817 013b 3A       		.uleb128 0x3a
 6818 013c 0B       		.uleb128 0xb
 6819 013d 3B       		.uleb128 0x3b
 6820 013e 05       		.uleb128 0x5
 6821 013f 49       		.uleb128 0x49
 6822 0140 13       		.uleb128 0x13
 6823 0141 02       		.uleb128 0x2
 6824 0142 18       		.uleb128 0x18
 6825 0143 00       		.byte	0
 6826 0144 00       		.byte	0
 6827 0145 1A       		.uleb128 0x1a
 6828 0146 2E       		.uleb128 0x2e
 6829 0147 00       		.byte	0
 6830 0148 3F       		.uleb128 0x3f
 6831 0149 19       		.uleb128 0x19
 6832 014a 03       		.uleb128 0x3
 6833 014b 0E       		.uleb128 0xe
 6834 014c 3A       		.uleb128 0x3a
 6835 014d 0B       		.uleb128 0xb
 6836 014e 3B       		.uleb128 0x3b
 6837 014f 05       		.uleb128 0x5
 6838 0150 27       		.uleb128 0x27
 6839 0151 19       		.uleb128 0x19
 6840 0152 11       		.uleb128 0x11
 6841 0153 01       		.uleb128 0x1
 6842 0154 12       		.uleb128 0x12
 6843 0155 06       		.uleb128 0x6
 6844 0156 40       		.uleb128 0x40
 6845 0157 18       		.uleb128 0x18
 6846 0158 9642     		.uleb128 0x2116
 6847 015a 19       		.uleb128 0x19
 6848 015b 00       		.byte	0
 6849 015c 00       		.byte	0
 6850 015d 1B       		.uleb128 0x1b
 6851 015e 34       		.uleb128 0x34
 6852 015f 00       		.byte	0
 6853 0160 03       		.uleb128 0x3
 6854 0161 08       		.uleb128 0x8
 6855 0162 3A       		.uleb128 0x3a
 6856 0163 0B       		.uleb128 0xb
 6857 0164 3B       		.uleb128 0x3b
 6858 0165 05       		.uleb128 0x5
 6859 0166 49       		.uleb128 0x49
ARM GAS  C:\Users\13740\AppData\Local\Temp\cc1Gy8Oo.s 			page 162


 6860 0167 13       		.uleb128 0x13
 6861 0168 02       		.uleb128 0x2
 6862 0169 18       		.uleb128 0x18
 6863 016a 00       		.byte	0
 6864 016b 00       		.byte	0
 6865 016c 1C       		.uleb128 0x1c
 6866 016d 2E       		.uleb128 0x2e
 6867 016e 01       		.byte	0x1
 6868 016f 3F       		.uleb128 0x3f
 6869 0170 19       		.uleb128 0x19
 6870 0171 03       		.uleb128 0x3
 6871 0172 0E       		.uleb128 0xe
 6872 0173 3A       		.uleb128 0x3a
 6873 0174 0B       		.uleb128 0xb
 6874 0175 3B       		.uleb128 0x3b
 6875 0176 05       		.uleb128 0x5
 6876 0177 27       		.uleb128 0x27
 6877 0178 19       		.uleb128 0x19
 6878 0179 49       		.uleb128 0x49
 6879 017a 13       		.uleb128 0x13
 6880 017b 11       		.uleb128 0x11
 6881 017c 01       		.uleb128 0x1
 6882 017d 12       		.uleb128 0x12
 6883 017e 06       		.uleb128 0x6
 6884 017f 40       		.uleb128 0x40
 6885 0180 18       		.uleb128 0x18
 6886 0181 9642     		.uleb128 0x2116
 6887 0183 19       		.uleb128 0x19
 6888 0184 01       		.uleb128 0x1
 6889 0185 13       		.uleb128 0x13
 6890 0186 00       		.byte	0
 6891 0187 00       		.byte	0
 6892 0188 1D       		.uleb128 0x1d
 6893 0189 05       		.uleb128 0x5
 6894 018a 00       		.byte	0
 6895 018b 03       		.uleb128 0x3
 6896 018c 0E       		.uleb128 0xe
 6897 018d 3A       		.uleb128 0x3a
 6898 018e 0B       		.uleb128 0xb
 6899 018f 3B       		.uleb128 0x3b
 6900 0190 05       		.uleb128 0x5
 6901 0191 49       		.uleb128 0x49
 6902 0192 13       		.uleb128 0x13
 6903 0193 02       		.uleb128 0x2
 6904 0194 18       		.uleb128 0x18
 6905 0195 00       		.byte	0
 6906 0196 00       		.byte	0
 6907 0197 1E       		.uleb128 0x1e
 6908 0198 2E       		.uleb128 0x2e
 6909 0199 01       		.byte	0x1
 6910 019a 3F       		.uleb128 0x3f
 6911 019b 19       		.uleb128 0x19
 6912 019c 03       		.uleb128 0x3
 6913 019d 0E       		.uleb128 0xe
 6914 019e 3A       		.uleb128 0x3a
 6915 019f 0B       		.uleb128 0xb
 6916 01a0 3B       		.uleb128 0x3b
ARM GAS  C:\Users\13740\AppData\Local\Temp\cc1Gy8Oo.s 			page 163


 6917 01a1 05       		.uleb128 0x5
 6918 01a2 27       		.uleb128 0x27
 6919 01a3 19       		.uleb128 0x19
 6920 01a4 49       		.uleb128 0x49
 6921 01a5 13       		.uleb128 0x13
 6922 01a6 11       		.uleb128 0x11
 6923 01a7 01       		.uleb128 0x1
 6924 01a8 12       		.uleb128 0x12
 6925 01a9 06       		.uleb128 0x6
 6926 01aa 40       		.uleb128 0x40
 6927 01ab 18       		.uleb128 0x18
 6928 01ac 9742     		.uleb128 0x2117
 6929 01ae 19       		.uleb128 0x19
 6930 01af 01       		.uleb128 0x1
 6931 01b0 13       		.uleb128 0x13
 6932 01b1 00       		.byte	0
 6933 01b2 00       		.byte	0
 6934 01b3 1F       		.uleb128 0x1f
 6935 01b4 34       		.uleb128 0x34
 6936 01b5 00       		.byte	0
 6937 01b6 03       		.uleb128 0x3
 6938 01b7 0E       		.uleb128 0xe
 6939 01b8 3A       		.uleb128 0x3a
 6940 01b9 0B       		.uleb128 0xb
 6941 01ba 3B       		.uleb128 0x3b
 6942 01bb 05       		.uleb128 0x5
 6943 01bc 49       		.uleb128 0x49
 6944 01bd 13       		.uleb128 0x13
 6945 01be 00       		.byte	0
 6946 01bf 00       		.byte	0
 6947 01c0 20       		.uleb128 0x20
 6948 01c1 2E       		.uleb128 0x2e
 6949 01c2 01       		.byte	0x1
 6950 01c3 3F       		.uleb128 0x3f
 6951 01c4 19       		.uleb128 0x19
 6952 01c5 03       		.uleb128 0x3
 6953 01c6 0E       		.uleb128 0xe
 6954 01c7 3A       		.uleb128 0x3a
 6955 01c8 0B       		.uleb128 0xb
 6956 01c9 3B       		.uleb128 0x3b
 6957 01ca 05       		.uleb128 0x5
 6958 01cb 49       		.uleb128 0x49
 6959 01cc 13       		.uleb128 0x13
 6960 01cd 3C       		.uleb128 0x3c
 6961 01ce 19       		.uleb128 0x19
 6962 01cf 00       		.byte	0
 6963 01d0 00       		.byte	0
 6964 01d1 21       		.uleb128 0x21
 6965 01d2 18       		.uleb128 0x18
 6966 01d3 00       		.byte	0
 6967 01d4 00       		.byte	0
 6968 01d5 00       		.byte	0
 6969 01d6 22       		.uleb128 0x22
 6970 01d7 34       		.uleb128 0x34
 6971 01d8 00       		.byte	0
 6972 01d9 03       		.uleb128 0x3
 6973 01da 08       		.uleb128 0x8
ARM GAS  C:\Users\13740\AppData\Local\Temp\cc1Gy8Oo.s 			page 164


 6974 01db 3A       		.uleb128 0x3a
 6975 01dc 0B       		.uleb128 0xb
 6976 01dd 3B       		.uleb128 0x3b
 6977 01de 05       		.uleb128 0x5
 6978 01df 49       		.uleb128 0x49
 6979 01e0 13       		.uleb128 0x13
 6980 01e1 00       		.byte	0
 6981 01e2 00       		.byte	0
 6982 01e3 23       		.uleb128 0x23
 6983 01e4 2E       		.uleb128 0x2e
 6984 01e5 01       		.byte	0x1
 6985 01e6 03       		.uleb128 0x3
 6986 01e7 0E       		.uleb128 0xe
 6987 01e8 3A       		.uleb128 0x3a
 6988 01e9 0B       		.uleb128 0xb
 6989 01ea 3B       		.uleb128 0x3b
 6990 01eb 05       		.uleb128 0x5
 6991 01ec 27       		.uleb128 0x27
 6992 01ed 19       		.uleb128 0x19
 6993 01ee 11       		.uleb128 0x11
 6994 01ef 01       		.uleb128 0x1
 6995 01f0 12       		.uleb128 0x12
 6996 01f1 06       		.uleb128 0x6
 6997 01f2 40       		.uleb128 0x40
 6998 01f3 18       		.uleb128 0x18
 6999 01f4 9642     		.uleb128 0x2116
 7000 01f6 19       		.uleb128 0x19
 7001 01f7 01       		.uleb128 0x1
 7002 01f8 13       		.uleb128 0x13
 7003 01f9 00       		.byte	0
 7004 01fa 00       		.byte	0
 7005 01fb 24       		.uleb128 0x24
 7006 01fc 2E       		.uleb128 0x2e
 7007 01fd 01       		.byte	0x1
 7008 01fe 3F       		.uleb128 0x3f
 7009 01ff 19       		.uleb128 0x19
 7010 0200 03       		.uleb128 0x3
 7011 0201 0E       		.uleb128 0xe
 7012 0202 3A       		.uleb128 0x3a
 7013 0203 0B       		.uleb128 0xb
 7014 0204 3B       		.uleb128 0x3b
 7015 0205 05       		.uleb128 0x5
 7016 0206 49       		.uleb128 0x49
 7017 0207 13       		.uleb128 0x13
 7018 0208 11       		.uleb128 0x11
 7019 0209 01       		.uleb128 0x1
 7020 020a 12       		.uleb128 0x12
 7021 020b 06       		.uleb128 0x6
 7022 020c 40       		.uleb128 0x40
 7023 020d 18       		.uleb128 0x18
 7024 020e 9642     		.uleb128 0x2116
 7025 0210 19       		.uleb128 0x19
 7026 0211 01       		.uleb128 0x1
 7027 0212 13       		.uleb128 0x13
 7028 0213 00       		.byte	0
 7029 0214 00       		.byte	0
 7030 0215 25       		.uleb128 0x25
ARM GAS  C:\Users\13740\AppData\Local\Temp\cc1Gy8Oo.s 			page 165


 7031 0216 34       		.uleb128 0x34
 7032 0217 00       		.byte	0
 7033 0218 03       		.uleb128 0x3
 7034 0219 0E       		.uleb128 0xe
 7035 021a 3A       		.uleb128 0x3a
 7036 021b 0B       		.uleb128 0xb
 7037 021c 3B       		.uleb128 0x3b
 7038 021d 05       		.uleb128 0x5
 7039 021e 49       		.uleb128 0x49
 7040 021f 13       		.uleb128 0x13
 7041 0220 3F       		.uleb128 0x3f
 7042 0221 19       		.uleb128 0x19
 7043 0222 3C       		.uleb128 0x3c
 7044 0223 19       		.uleb128 0x19
 7045 0224 00       		.byte	0
 7046 0225 00       		.byte	0
 7047 0226 26       		.uleb128 0x26
 7048 0227 34       		.uleb128 0x34
 7049 0228 00       		.byte	0
 7050 0229 03       		.uleb128 0x3
 7051 022a 0E       		.uleb128 0xe
 7052 022b 3A       		.uleb128 0x3a
 7053 022c 0B       		.uleb128 0xb
 7054 022d 3B       		.uleb128 0x3b
 7055 022e 0B       		.uleb128 0xb
 7056 022f 49       		.uleb128 0x49
 7057 0230 13       		.uleb128 0x13
 7058 0231 3F       		.uleb128 0x3f
 7059 0232 19       		.uleb128 0x19
 7060 0233 02       		.uleb128 0x2
 7061 0234 18       		.uleb128 0x18
 7062 0235 00       		.byte	0
 7063 0236 00       		.byte	0
 7064 0237 27       		.uleb128 0x27
 7065 0238 21       		.uleb128 0x21
 7066 0239 00       		.byte	0
 7067 023a 49       		.uleb128 0x49
 7068 023b 13       		.uleb128 0x13
 7069 023c 2F       		.uleb128 0x2f
 7070 023d 05       		.uleb128 0x5
 7071 023e 00       		.byte	0
 7072 023f 00       		.byte	0
 7073 0240 00       		.byte	0
 7074              		.section	.debug_aranges,"",%progbits
 7075 0000 D4000000 		.4byte	0xd4
 7076 0004 0200     		.2byte	0x2
 7077 0006 00000000 		.4byte	.Ldebug_info0
 7078 000a 04       		.byte	0x4
 7079 000b 00       		.byte	0
 7080 000c 0000     		.2byte	0
 7081 000e 0000     		.2byte	0
 7082 0010 00000000 		.4byte	.LFB36
 7083 0014 24030000 		.4byte	.LFE36-.LFB36
 7084 0018 00000000 		.4byte	.LFB37
 7085 001c 4C020000 		.4byte	.LFE37-.LFB37
 7086 0020 00000000 		.4byte	.LFB38
 7087 0024 2C010000 		.4byte	.LFE38-.LFB38
ARM GAS  C:\Users\13740\AppData\Local\Temp\cc1Gy8Oo.s 			page 166


 7088 0028 00000000 		.4byte	.LFB39
 7089 002c E4000000 		.4byte	.LFE39-.LFB39
 7090 0030 00000000 		.4byte	.LFB40
 7091 0034 B0020000 		.4byte	.LFE40-.LFB40
 7092 0038 00000000 		.4byte	.LFB41
 7093 003c BC000000 		.4byte	.LFE41-.LFB41
 7094 0040 00000000 		.4byte	.LFB42
 7095 0044 7C000000 		.4byte	.LFE42-.LFB42
 7096 0048 00000000 		.4byte	.LFB43
 7097 004c AC000000 		.4byte	.LFE43-.LFB43
 7098 0050 00000000 		.4byte	.LFB44
 7099 0054 20000000 		.4byte	.LFE44-.LFB44
 7100 0058 00000000 		.4byte	.LFB45
 7101 005c 4C010000 		.4byte	.LFE45-.LFB45
 7102 0060 00000000 		.4byte	.LFB46
 7103 0064 D4000000 		.4byte	.LFE46-.LFB46
 7104 0068 00000000 		.4byte	.LFB47
 7105 006c 10010000 		.4byte	.LFE47-.LFB47
 7106 0070 00000000 		.4byte	.LFB48
 7107 0074 2A000000 		.4byte	.LFE48-.LFB48
 7108 0078 00000000 		.4byte	.LFB49
 7109 007c 2A000000 		.4byte	.LFE49-.LFB49
 7110 0080 00000000 		.4byte	.LFB50
 7111 0084 10010000 		.4byte	.LFE50-.LFB50
 7112 0088 00000000 		.4byte	.LFB51
 7113 008c D4000000 		.4byte	.LFE51-.LFB51
 7114 0090 00000000 		.4byte	.LFB52
 7115 0094 54010000 		.4byte	.LFE52-.LFB52
 7116 0098 00000000 		.4byte	.LFB53
 7117 009c 34000000 		.4byte	.LFE53-.LFB53
 7118 00a0 00000000 		.4byte	.LFB54
 7119 00a4 4C000000 		.4byte	.LFE54-.LFB54
 7120 00a8 00000000 		.4byte	.LFB55
 7121 00ac 74000000 		.4byte	.LFE55-.LFB55
 7122 00b0 00000000 		.4byte	.LFB56
 7123 00b4 74000000 		.4byte	.LFE56-.LFB56
 7124 00b8 00000000 		.4byte	.LFB57
 7125 00bc 22000000 		.4byte	.LFE57-.LFB57
 7126 00c0 00000000 		.4byte	.LFB58
 7127 00c4 EC030000 		.4byte	.LFE58-.LFB58
 7128 00c8 00000000 		.4byte	.LFB59
 7129 00cc A4000000 		.4byte	.LFE59-.LFB59
 7130 00d0 00000000 		.4byte	0
 7131 00d4 00000000 		.4byte	0
 7132              		.section	.debug_ranges,"",%progbits
 7133              	.Ldebug_ranges0:
 7134 0000 00000000 		.4byte	.LFB36
 7135 0004 24030000 		.4byte	.LFE36
 7136 0008 00000000 		.4byte	.LFB37
 7137 000c 4C020000 		.4byte	.LFE37
 7138 0010 00000000 		.4byte	.LFB38
 7139 0014 2C010000 		.4byte	.LFE38
 7140 0018 00000000 		.4byte	.LFB39
 7141 001c E4000000 		.4byte	.LFE39
 7142 0020 00000000 		.4byte	.LFB40
 7143 0024 B0020000 		.4byte	.LFE40
 7144 0028 00000000 		.4byte	.LFB41
ARM GAS  C:\Users\13740\AppData\Local\Temp\cc1Gy8Oo.s 			page 167


 7145 002c BC000000 		.4byte	.LFE41
 7146 0030 00000000 		.4byte	.LFB42
 7147 0034 7C000000 		.4byte	.LFE42
 7148 0038 00000000 		.4byte	.LFB43
 7149 003c AC000000 		.4byte	.LFE43
 7150 0040 00000000 		.4byte	.LFB44
 7151 0044 20000000 		.4byte	.LFE44
 7152 0048 00000000 		.4byte	.LFB45
 7153 004c 4C010000 		.4byte	.LFE45
 7154 0050 00000000 		.4byte	.LFB46
 7155 0054 D4000000 		.4byte	.LFE46
 7156 0058 00000000 		.4byte	.LFB47
 7157 005c 10010000 		.4byte	.LFE47
 7158 0060 00000000 		.4byte	.LFB48
 7159 0064 2A000000 		.4byte	.LFE48
 7160 0068 00000000 		.4byte	.LFB49
 7161 006c 2A000000 		.4byte	.LFE49
 7162 0070 00000000 		.4byte	.LFB50
 7163 0074 10010000 		.4byte	.LFE50
 7164 0078 00000000 		.4byte	.LFB51
 7165 007c D4000000 		.4byte	.LFE51
 7166 0080 00000000 		.4byte	.LFB52
 7167 0084 54010000 		.4byte	.LFE52
 7168 0088 00000000 		.4byte	.LFB53
 7169 008c 34000000 		.4byte	.LFE53
 7170 0090 00000000 		.4byte	.LFB54
 7171 0094 4C000000 		.4byte	.LFE54
 7172 0098 00000000 		.4byte	.LFB55
 7173 009c 74000000 		.4byte	.LFE55
 7174 00a0 00000000 		.4byte	.LFB56
 7175 00a4 74000000 		.4byte	.LFE56
 7176 00a8 00000000 		.4byte	.LFB57
 7177 00ac 22000000 		.4byte	.LFE57
 7178 00b0 00000000 		.4byte	.LFB58
 7179 00b4 EC030000 		.4byte	.LFE58
 7180 00b8 00000000 		.4byte	.LFB59
 7181 00bc A4000000 		.4byte	.LFE59
 7182 00c0 00000000 		.4byte	0
 7183 00c4 00000000 		.4byte	0
 7184              		.section	.debug_line,"",%progbits
 7185              	.Ldebug_line0:
 7186 0000 B1060000 		.section	.debug_str,"MS",%progbits,1
 7186      02009A01 
 7186      00000201 
 7186      FB0E0D00 
 7186      01010101 
 7187              	.LASF221:
 7188 0000 53454E53 		.ascii	"SENSOR_LACTATE\000"
 7188      4F525F4C 
 7188      41435441 
 7188      544500
 7189              	.LASF241:
 7190 000f 72784275 		.ascii	"rxBuffer\000"
 7190      66666572 
 7190      00
 7191              	.LASF76:
 7192 0018 4359424C 		.ascii	"CYBLE_EVT_GATTC_STOP_CMD_COMPLETE\000"
ARM GAS  C:\Users\13740\AppData\Local\Temp\cc1Gy8Oo.s 			page 168


 7192      455F4556 
 7192      545F4741 
 7192      5454435F 
 7192      53544F50 
 7193              	.LASF72:
 7194 003a 4359424C 		.ascii	"CYBLE_EVT_GATTC_HANDLE_VALUE_NTF\000"
 7194      455F4556 
 7194      545F4741 
 7194      5454435F 
 7194      48414E44 
 7195              	.LASF198:
 7196 005b 567A6572 		.ascii	"Vzero\000"
 7196      6F00
 7197              	.LASF309:
 7198 0061 72616E64 		.ascii	"rand\000"
 7198      00
 7199              	.LASF256:
 7200 0066 616D7046 		.ascii	"ampFifoBuffer\000"
 7200      69666F42 
 7200      75666665 
 7200      7200
 7201              	.LASF265:
 7202 0074 6E6F7469 		.ascii	"notificationHandle\000"
 7202      66696361 
 7202      74696F6E 
 7202      48616E64 
 7202      6C6500
 7203              	.LASF177:
 7204 0087 4D617853 		.ascii	"MaxSeqLen\000"
 7204      65714C65 
 7204      6E00
 7205              	.LASF31:
 7206 0091 4359424C 		.ascii	"CYBLE_EVT_GAP_AUTH_REQ\000"
 7206      455F4556 
 7206      545F4741 
 7206      505F4155 
 7206      54485F52 
 7207              	.LASF301:
 7208 00a8 73656E73 		.ascii	"sensorData\000"
 7208      6F724461 
 7208      746100
 7209              	.LASF201:
 7210 00b3 45787452 		.ascii	"ExtRtiaVal\000"
 7210      74696156 
 7210      616C00
 7211              	.LASF104:
 7212 00be 4359424C 		.ascii	"CYBLE_ERROR_GAP_ROLE\000"
 7212      455F4552 
 7212      524F525F 
 7212      4741505F 
 7212      524F4C45 
 7213              	.LASF118:
 7214 00d3 4359424C 		.ascii	"CYBLE_ERROR_HARDWARE_FAILURE\000"
 7214      455F4552 
 7214      524F525F 
 7214      48415244 
 7214      57415245 
ARM GAS  C:\Users\13740\AppData\Local\Temp\cc1Gy8Oo.s 			page 169


 7215              	.LASF56:
 7216 00f0 4359424C 		.ascii	"CYBLE_EVT_GATT_DISCONNECT_IND\000"
 7216      455F4556 
 7216      545F4741 
 7216      54545F44 
 7216      4953434F 
 7217              	.LASF213:
 7218 010e 6C616374 		.ascii	"lactate\000"
 7218      61746500 
 7219              	.LASF197:
 7220 0116 52746961 		.ascii	"RtiaCalValue\000"
 7220      43616C56 
 7220      616C7565 
 7220      00
 7221              	.LASF279:
 7222 0123 6576656E 		.ascii	"eventParam\000"
 7222      74506172 
 7222      616D00
 7223              	.LASF285:
 7224 012e 6D6F7369 		.ascii	"mosi_data\000"
 7224      5F646174 
 7224      6100
 7225              	.LASF51:
 7226 0138 4359424C 		.ascii	"CYBLE_EVT_GAP_SCAN_REQ_RECVD\000"
 7226      455F4556 
 7226      545F4741 
 7226      505F5343 
 7226      414E5F52 
 7227              	.LASF206:
 7228 0155 4669666F 		.ascii	"FifoDataCount\000"
 7228      44617461 
 7228      436F756E 
 7228      7400
 7229              	.LASF57:
 7230 0163 4359424C 		.ascii	"CYBLE_EVT_GATTS_XCNHG_MTU_REQ\000"
 7230      455F4556 
 7230      545F4741 
 7230      5454535F 
 7230      58434E48 
 7231              	.LASF266:
 7232 0181 64617461 		.ascii	"dataString\000"
 7232      53747269 
 7232      6E6700
 7233              	.LASF75:
 7234 018c 4359424C 		.ascii	"CYBLE_EVT_GATTS_DATA_SIGNED_CMD_REQ\000"
 7234      455F4556 
 7234      545F4741 
 7234      5454535F 
 7234      44415441 
 7235              	.LASF97:
 7236 01b0 4359424C 		.ascii	"CYBLE_ERROR_INVALID_OPERATION\000"
 7236      455F4552 
 7236      524F525F 
 7236      494E5641 
 7236      4C49445F 
 7237              	.LASF26:
 7238 01ce 4359424C 		.ascii	"CYBLE_EVT_HARDWARE_ERROR\000"
ARM GAS  C:\Users\13740\AppData\Local\Temp\cc1Gy8Oo.s 			page 170


 7238      455F4556 
 7238      545F4841 
 7238      52445741 
 7238      52455F45 
 7239              	.LASF11:
 7240 01e7 756E7369 		.ascii	"unsigned int\000"
 7240      676E6564 
 7240      20696E74 
 7240      00
 7241              	.LASF91:
 7242 01f4 4359424C 		.ascii	"CYBLE_EVT_LE_PING_AUTH_TIMEOUT\000"
 7242      455F4556 
 7242      545F4C45 
 7242      5F50494E 
 7242      475F4155 
 7243              	.LASF88:
 7244 0213 4359424C 		.ascii	"CYBLE_EVT_L2CAP_CBFC_TX_CREDIT_IND\000"
 7244      455F4556 
 7244      545F4C32 
 7244      4341505F 
 7244      43424643 
 7245              	.LASF208:
 7246 0236 43757272 		.ascii	"Current\000"
 7246      656E7400 
 7247              	.LASF68:
 7248 023e 4359424C 		.ascii	"CYBLE_EVT_GATTS_WRITE_CMD_REQ\000"
 7248      455F4556 
 7248      545F4741 
 7248      5454535F 
 7248      57524954 
 7249              	.LASF232:
 7250 025c 72656756 		.ascii	"regValue\000"
 7250      616C7565 
 7250      00
 7251              	.LASF5:
 7252 0265 5F5F696E 		.ascii	"__int32_t\000"
 7252      7433325F 
 7252      7400
 7253              	.LASF287:
 7254 026f 63735F64 		.ascii	"cs_data\000"
 7254      61746100 
 7255              	.LASF102:
 7256 0277 4359424C 		.ascii	"CYBLE_ERROR_NO_DEVICE_ENTITY\000"
 7256      455F4552 
 7256      524F525F 
 7256      4E4F5F44 
 7256      45564943 
 7257              	.LASF134:
 7258 0294 4359424C 		.ascii	"CYBLE_LP_MODE_T\000"
 7258      455F4C50 
 7258      5F4D4F44 
 7258      455F5400 
 7259              	.LASF253:
 7260 02a4 766F6C74 		.ascii	"voltage\000"
 7260      61676500 
 7261              	.LASF306:
 7262 02ac 474E5520 		.ascii	"GNU C11 5.4.1 20160609 (release) [ARM/embedded-5-br"
ARM GAS  C:\Users\13740\AppData\Local\Temp\cc1Gy8Oo.s 			page 171


 7262      43313120 
 7262      352E342E 
 7262      31203230 
 7262      31363036 
 7263 02df 616E6368 		.ascii	"anch revision 237715] -mcpu=cortex-m0 -mthumb -g -O"
 7263      20726576 
 7263      6973696F 
 7263      6E203233 
 7263      37373135 
 7264 0312 30202D66 		.ascii	"0 -ffunction-sections -ffat-lto-objects\000"
 7264      66756E63 
 7264      74696F6E 
 7264      2D736563 
 7264      74696F6E 
 7265              	.LASF207:
 7266 033a 41707041 		.ascii	"AppAMPCfg_Type\000"
 7266      4D504366 
 7266      675F5479 
 7266      706500
 7267              	.LASF203:
 7268 0349 496E6974 		.ascii	"InitSeqInfo\000"
 7268      53657149 
 7268      6E666F00 
 7269              	.LASF32:
 7270 0355 4359424C 		.ascii	"CYBLE_EVT_GAP_PASSKEY_ENTRY_REQUEST\000"
 7270      455F4556 
 7270      545F4741 
 7270      505F5041 
 7270      53534B45 
 7271              	.LASF303:
 7272 0379 616D7042 		.ascii	"ampBuffer\000"
 7272      75666665 
 7272      7200
 7273              	.LASF225:
 7274 0383 6572726F 		.ascii	"error\000"
 7274      7200
 7275              	.LASF190:
 7276 0389 41444350 		.ascii	"ADCPgaGain\000"
 7276      67614761 
 7276      696E00
 7277              	.LASF126:
 7278 0394 4359424C 		.ascii	"CYBLE_ERROR_INVALID_STATE\000"
 7278      455F4552 
 7278      524F525F 
 7278      494E5641 
 7278      4C49445F 
 7279              	.LASF189:
 7280 03ae 5077724D 		.ascii	"PwrMod\000"
 7280      6F6400
 7281              	.LASF193:
 7282 03b5 44617461 		.ascii	"DataFifoSrc\000"
 7282      4669666F 
 7282      53726300 
 7283              	.LASF205:
 7284 03c1 53746F70 		.ascii	"StopRequired\000"
 7284      52657175 
 7284      69726564 
ARM GAS  C:\Users\13740\AppData\Local\Temp\cc1Gy8Oo.s 			page 172


 7284      00
 7285              	.LASF299:
 7286 03ce 6D61696E 		.ascii	"mainTimer\000"
 7286      54696D65 
 7286      7200
 7287              	.LASF40:
 7288 03d8 4359424C 		.ascii	"CYBLE_EVT_GAP_CONNECTION_UPDATE_COMPLETE\000"
 7288      455F4556 
 7288      545F4741 
 7288      505F434F 
 7288      4E4E4543 
 7289              	.LASF231:
 7290 0401 44696167 		.ascii	"DiagnosticsSPI\000"
 7290      6E6F7374 
 7290      69637353 
 7290      504900
 7291              	.LASF267:
 7292 0410 53656E64 		.ascii	"SendLactateDataViaBLE\000"
 7292      4C616374 
 7292      61746544 
 7292      61746156 
 7292      6961424C 
 7293              	.LASF227:
 7294 0426 63686970 		.ascii	"chipid\000"
 7294      696400
 7295              	.LASF43:
 7296 042d 4359424C 		.ascii	"CYBLE_EVT_GAP_NUMERIC_COMPARISON_REQUEST\000"
 7296      455F4556 
 7296      545F4741 
 7296      505F4E55 
 7296      4D455249 
 7297              	.LASF183:
 7298 0456 41646343 		.ascii	"AdcClkFreq\000"
 7298      6C6B4672 
 7298      657100
 7299              	.LASF181:
 7300 0461 53797343 		.ascii	"SysClkFreq\000"
 7300      6C6B4672 
 7300      657100
 7301              	.LASF173:
 7302 046c 50686173 		.ascii	"Phase\000"
 7302      6500
 7303              	.LASF14:
 7304 0472 75696E74 		.ascii	"uint32_t\000"
 7304      33325F74 
 7304      00
 7305              	.LASF90:
 7306 047b 4359424C 		.ascii	"CYBLE_EVT_PENDING_FLASH_WRITE\000"
 7306      455F4556 
 7306      545F5045 
 7306      4E44494E 
 7306      475F464C 
 7307              	.LASF67:
 7308 0499 4359424C 		.ascii	"CYBLE_EVT_GATTC_WRITE_RSP\000"
 7308      455F4556 
 7308      545F4741 
 7308      5454435F 
ARM GAS  C:\Users\13740\AppData\Local\Temp\cc1Gy8Oo.s 			page 173


 7308      57524954 
 7309              	.LASF18:
 7310 04b3 666C6F61 		.ascii	"float\000"
 7310      7400
 7311              	.LASF272:
 7312 04b9 53656E64 		.ascii	"SendTemperatureViaBLE\000"
 7312      54656D70 
 7312      65726174 
 7312      75726556 
 7312      6961424C 
 7313              	.LASF191:
 7314 04cf 41444353 		.ascii	"ADCSinc3Osr\000"
 7314      696E6333 
 7314      4F737200 
 7315              	.LASF278:
 7316 04db 6576656E 		.ascii	"event\000"
 7316      7400
 7317              	.LASF28:
 7318 04e1 4359424C 		.ascii	"CYBLE_EVT_STACK_BUSY_STATUS\000"
 7318      455F4556 
 7318      545F5354 
 7318      41434B5F 
 7318      42555359 
 7319              	.LASF81:
 7320 04fd 4359424C 		.ascii	"CYBLE_EVT_L2CAP_COMMAND_REJ\000"
 7320      455F4556 
 7320      545F4C32 
 7320      4341505F 
 7320      434F4D4D 
 7321              	.LASF175:
 7322 0519 62506172 		.ascii	"bParaChanged\000"
 7322      61436861 
 7322      6E676564 
 7322      00
 7323              	.LASF275:
 7324 0526 53656E64 		.ascii	"SendAllSensorDataViaBLE\000"
 7324      416C6C53 
 7324      656E736F 
 7324      72446174 
 7324      61566961 
 7325              	.LASF129:
 7326 053e 4359424C 		.ascii	"CYBLE_BLESS_ACTIVE\000"
 7326      455F424C 
 7326      4553535F 
 7326      41435449 
 7326      564500
 7327              	.LASF187:
 7328 0551 5263616C 		.ascii	"RcalVal\000"
 7328      56616C00 
 7329              	.LASF10:
 7330 0559 6C6F6E67 		.ascii	"long long unsigned int\000"
 7330      206C6F6E 
 7330      6720756E 
 7330      7369676E 
 7330      65642069 
 7331              	.LASF66:
 7332 0570 4359424C 		.ascii	"CYBLE_EVT_GATTS_WRITE_REQ\000"
ARM GAS  C:\Users\13740\AppData\Local\Temp\cc1Gy8Oo.s 			page 174


 7332      455F4556 
 7332      545F4741 
 7332      5454535F 
 7332      57524954 
 7333              	.LASF167:
 7334 058a 53657152 		.ascii	"SeqRamAddr\000"
 7334      616D4164 
 7334      647200
 7335              	.LASF156:
 7336 0595 4359424C 		.ascii	"CYBLE_STATE_STOPPED\000"
 7336      455F5354 
 7336      4154455F 
 7336      53544F50 
 7336      50454400 
 7337              	.LASF209:
 7338 05a9 566F6C74 		.ascii	"Voltage\000"
 7338      61676500 
 7339              	.LASF210:
 7340 05b1 66416D70 		.ascii	"fAmpRes_Type\000"
 7340      5265735F 
 7340      54797065 
 7340      00
 7341              	.LASF297:
 7342 05be 6379426C 		.ascii	"cyBle_connHandle\000"
 7342      655F636F 
 7342      6E6E4861 
 7342      6E646C65 
 7342      00
 7343              	.LASF61:
 7344 05cf 4359424C 		.ascii	"CYBLE_EVT_GATTC_FIND_INFO_RSP\000"
 7344      455F4556 
 7344      545F4741 
 7344      5454435F 
 7344      46494E44 
 7345              	.LASF137:
 7346 05ed 4359424C 		.ascii	"CYBLE_BLESS_STATE_SLEEP\000"
 7346      455F424C 
 7346      4553535F 
 7346      53544154 
 7346      455F534C 
 7347              	.LASF158:
 7348 0605 4359424C 		.ascii	"CYBLE_STATE_CONNECTED\000"
 7348      455F5354 
 7348      4154455F 
 7348      434F4E4E 
 7348      45435445 
 7349              	.LASF262:
 7350 061b 656E6162 		.ascii	"enable\000"
 7350      6C6500
 7351              	.LASF239:
 7352 0622 54657374 		.ascii	"TestRawSPI\000"
 7352      52617753 
 7352      504900
 7353              	.LASF62:
 7354 062d 4359424C 		.ascii	"CYBLE_EVT_GATTC_FIND_BY_TYPE_VALUE_RSP\000"
 7354      455F4556 
 7354      545F4741 
ARM GAS  C:\Users\13740\AppData\Local\Temp\cc1Gy8Oo.s 			page 175


 7354      5454435F 
 7354      46494E44 
 7355              	.LASF152:
 7356 0654 76616C75 		.ascii	"value\000"
 7356      6500
 7357              	.LASF220:
 7358 065a 53454E53 		.ascii	"SENSOR_GLUCOSE\000"
 7358      4F525F47 
 7358      4C55434F 
 7358      534500
 7359              	.LASF70:
 7360 0669 4359424C 		.ascii	"CYBLE_EVT_GATTS_EXEC_WRITE_REQ\000"
 7360      455F4556 
 7360      545F4741 
 7360      5454535F 
 7360      45584543 
 7361              	.LASF71:
 7362 0688 4359424C 		.ascii	"CYBLE_EVT_GATTC_EXEC_WRITE_RSP\000"
 7362      455F4556 
 7362      545F4741 
 7362      5454435F 
 7362      45584543 
 7363              	.LASF296:
 7364 06a7 6379426C 		.ascii	"cyBle_state\000"
 7364      655F7374 
 7364      61746500 
 7365              	.LASF149:
 7366 06b3 4359424C 		.ascii	"CYBLE_CONN_HANDLE_T\000"
 7366      455F434F 
 7366      4E4E5F48 
 7366      414E444C 
 7366      455F5400 
 7367              	.LASF155:
 7368 06c7 4359424C 		.ascii	"CYBLE_GATTS_HANDLE_VALUE_NTF_T\000"
 7368      455F4741 
 7368      5454535F 
 7368      48414E44 
 7368      4C455F56 
 7369              	.LASF304:
 7370 06e6 616D7052 		.ascii	"ampResult\000"
 7370      6573756C 
 7370      7400
 7371              	.LASF195:
 7372 06f0 4C705469 		.ascii	"LpTiaRf\000"
 7372      61526600 
 7373              	.LASF302:
 7374 06f8 70416D70 		.ascii	"pAmpCfg\000"
 7374      43666700 
 7375              	.LASF77:
 7376 0700 4359424C 		.ascii	"CYBLE_EVT_GATTS_READ_CHAR_VAL_ACCESS_REQ\000"
 7376      455F4556 
 7376      545F4741 
 7376      5454535F 
 7376      52454144 
 7377              	.LASF34:
 7378 0729 4359424C 		.ascii	"CYBLE_EVT_GAP_AUTH_COMPLETE\000"
 7378      455F4556 
ARM GAS  C:\Users\13740\AppData\Local\Temp\cc1Gy8Oo.s 			page 176


 7378      545F4741 
 7378      505F4155 
 7378      54485F43 
 7379              	.LASF106:
 7380 0745 4359424C 		.ascii	"CYBLE_ERROR_BT_ON_NOT_COMPLETED\000"
 7380      455F4552 
 7380      524F525F 
 7380      42545F4F 
 7380      4E5F4E4F 
 7381              	.LASF124:
 7382 0765 4359424C 		.ascii	"CYBLE_ERROR_IND_DISABLED\000"
 7382      455F4552 
 7382      524F525F 
 7382      494E445F 
 7382      44495341 
 7383              	.LASF273:
 7384 077e 74656D70 		.ascii	"tempString\000"
 7384      53747269 
 7384      6E6700
 7385              	.LASF19:
 7386 0789 646F7562 		.ascii	"double\000"
 7386      6C6500
 7387              	.LASF166:
 7388 0790 53657149 		.ascii	"SeqId\000"
 7388      6400
 7389              	.LASF63:
 7390 0796 4359424C 		.ascii	"CYBLE_EVT_GATTC_READ_RSP\000"
 7390      455F4556 
 7390      545F4741 
 7390      5454435F 
 7390      52454144 
 7391              	.LASF212:
 7392 07af 676C7563 		.ascii	"glucose\000"
 7392      6F736500 
 7393              	.LASF289:
 7394 07b7 73636C6B 		.ascii	"sclk_high\000"
 7394      5F686967 
 7394      6800
 7395              	.LASF58:
 7396 07c1 4359424C 		.ascii	"CYBLE_EVT_GATTC_XCHNG_MTU_RSP\000"
 7396      455F4556 
 7396      545F4741 
 7396      5454435F 
 7396      5843484E 
 7397              	.LASF257:
 7398 07df 70437572 		.ascii	"pCurrentData\000"
 7398      72656E74 
 7398      44617461 
 7398      00
 7399              	.LASF93:
 7400 07ec 4359424C 		.ascii	"CYBLE_EVT_FLASH_CORRUPT\000"
 7400      455F4556 
 7400      545F464C 
 7400      4153485F 
 7400      434F5252 
 7401              	.LASF224:
 7402 0804 416D7065 		.ascii	"AmperometricSensor_t\000"
ARM GAS  C:\Users\13740\AppData\Local\Temp\cc1Gy8Oo.s 			page 177


 7402      726F6D65 
 7402      74726963 
 7402      53656E73 
 7402      6F725F74 
 7403              	.LASF290:
 7404 0819 74657374 		.ascii	"testChipID\000"
 7404      43686970 
 7404      494400
 7405              	.LASF300:
 7406 0824 6D656173 		.ascii	"measurementFlag\000"
 7406      7572656D 
 7406      656E7446 
 7406      6C616700 
 7407              	.LASF153:
 7408 0834 61747472 		.ascii	"attrHandle\000"
 7408      48616E64 
 7408      6C6500
 7409              	.LASF291:
 7410 083f 696E6974 		.ascii	"initWaitTime\000"
 7410      57616974 
 7410      54696D65 
 7410      00
 7411              	.LASF171:
 7412 084c 53455149 		.ascii	"SEQInfo_Type\000"
 7412      6E666F5F 
 7412      54797065 
 7412      00
 7413              	.LASF186:
 7414 0859 4E756D4F 		.ascii	"NumOfData\000"
 7414      66446174 
 7414      6100
 7415              	.LASF194:
 7416 0863 4C707469 		.ascii	"LptiaRtiaSel\000"
 7416      61527469 
 7416      6153656C 
 7416      00
 7417              	.LASF64:
 7418 0870 4359424C 		.ascii	"CYBLE_EVT_GATTC_READ_BLOB_RSP\000"
 7418      455F4556 
 7418      545F4741 
 7418      5454435F 
 7418      52454144 
 7419              	.LASF100:
 7420 088e 4359424C 		.ascii	"CYBLE_ERROR_OOB_NOT_AVAILABLE\000"
 7420      455F4552 
 7420      524F525F 
 7420      4F4F425F 
 7420      4E4F545F 
 7421              	.LASF80:
 7422 08ac 4359424C 		.ascii	"CYBLE_EVT_L2CAP_CONN_PARAM_UPDATE_RSP\000"
 7422      455F4556 
 7422      545F4C32 
 7422      4341505F 
 7422      434F4E4E 
 7423              	.LASF87:
 7424 08d2 4359424C 		.ascii	"CYBLE_EVT_L2CAP_CBFC_RX_CREDIT_IND\000"
 7424      455F4556 
ARM GAS  C:\Users\13740\AppData\Local\Temp\cc1Gy8Oo.s 			page 178


 7424      545F4C32 
 7424      4341505F 
 7424      43424643 
 7425              	.LASF264:
 7426 08f5 53656E64 		.ascii	"SendGlucoseDataViaBLE\000"
 7426      476C7563 
 7426      6F736544 
 7426      61746156 
 7426      6961424C 
 7427              	.LASF281:
 7428 090b 696E7465 		.ascii	"interruptStatus\000"
 7428      72727570 
 7428      74537461 
 7428      74757300 
 7429              	.LASF83:
 7430 091b 4359424C 		.ascii	"CYBLE_EVT_L2CAP_CBFC_CONN_CNF\000"
 7430      455F4556 
 7430      545F4C32 
 7430      4341505F 
 7430      43424643 
 7431              	.LASF161:
 7432 0939 4359424C 		.ascii	"CYBLE_STATE_T\000"
 7432      455F5354 
 7432      4154455F 
 7432      5400
 7433              	.LASF185:
 7434 0947 416D704F 		.ascii	"AmpODR\000"
 7434      445200
 7435              	.LASF202:
 7436 094e 414D5049 		.ascii	"AMPInited\000"
 7436      6E697465 
 7436      6400
 7437              	.LASF211:
 7438 0958 74656D70 		.ascii	"temperature\000"
 7438      65726174 
 7438      75726500 
 7439              	.LASF255:
 7440 0964 52656164 		.ascii	"ReadCurrentFromAD5940\000"
 7440      43757272 
 7440      656E7446 
 7440      726F6D41 
 7440      44353934 
 7441              	.LASF98:
 7442 097a 4359424C 		.ascii	"CYBLE_ERROR_MEMORY_ALLOCATION_FAILED\000"
 7442      455F4552 
 7442      524F525F 
 7442      4D454D4F 
 7442      52595F41 
 7443              	.LASF119:
 7444 099f 4359424C 		.ascii	"CYBLE_ERROR_UNSUPPORTED_FEATURE_OR_PARAMETER_VALUE\000"
 7444      455F4552 
 7444      524F525F 
 7444      554E5355 
 7444      50504F52 
 7445              	.LASF184:
 7446 09d2 4669666F 		.ascii	"FifoThresh\000"
 7446      54687265 
ARM GAS  C:\Users\13740\AppData\Local\Temp\cc1Gy8Oo.s 			page 179


 7446      736800
 7447              	.LASF27:
 7448 09dd 4359424C 		.ascii	"CYBLE_EVT_HCI_STATUS\000"
 7448      455F4556 
 7448      545F4843 
 7448      495F5354 
 7448      41545553 
 7449              	.LASF107:
 7450 09f2 4359424C 		.ascii	"CYBLE_ERROR_SEC_FAILED\000"
 7450      455F4552 
 7450      524F525F 
 7450      5345435F 
 7450      4641494C 
 7451              	.LASF20:
 7452 0a09 63686172 		.ascii	"char\000"
 7452      00
 7453              	.LASF244:
 7454 0a0e 63757272 		.ascii	"current_uA\000"
 7454      656E745F 
 7454      754100
 7455              	.LASF310:
 7456 0a19 4C6F7750 		.ascii	"LowPowerImplementation\000"
 7456      6F776572 
 7456      496D706C 
 7456      656D656E 
 7456      74617469 
 7457              	.LASF116:
 7458 0a30 4359424C 		.ascii	"CYBLE_ERROR_FLASH_WRITE_NOT_PERMITED\000"
 7458      455F4552 
 7458      524F525F 
 7458      464C4153 
 7458      485F5752 
 7459              	.LASF280:
 7460 0a55 626C654D 		.ascii	"bleMode\000"
 7460      6F646500 
 7461              	.LASF99:
 7462 0a5d 4359424C 		.ascii	"CYBLE_ERROR_INSUFFICIENT_RESOURCES\000"
 7462      455F4552 
 7462      524F525F 
 7462      494E5355 
 7462      46464943 
 7463              	.LASF164:
 7464 0a80 62545255 		.ascii	"bTRUE\000"
 7464      4500
 7465              	.LASF117:
 7466 0a86 4359424C 		.ascii	"CYBLE_ERROR_MIC_AUTH_FAILED\000"
 7466      455F4552 
 7466      524F525F 
 7466      4D49435F 
 7466      41555448 
 7467              	.LASF151:
 7468 0aa2 4359424C 		.ascii	"CYBLE_GATT_VALUE_T\000"
 7468      455F4741 
 7468      54545F56 
 7468      414C5545 
 7468      5F5400
 7469              	.LASF24:
ARM GAS  C:\Users\13740\AppData\Local\Temp\cc1Gy8Oo.s 			page 180


 7470 0ab5 4359424C 		.ascii	"CYBLE_EVT_STACK_ON\000"
 7470      455F4556 
 7470      545F5354 
 7470      41434B5F 
 7470      4F4E00
 7471              	.LASF16:
 7472 0ac8 75696E74 		.ascii	"uint16\000"
 7472      313600
 7473              	.LASF146:
 7474 0acf 4359424C 		.ascii	"CYBLE_GATT_DB_ATTR_HANDLE_T\000"
 7474      455F4741 
 7474      54545F44 
 7474      425F4154 
 7474      54525F48 
 7475              	.LASF79:
 7476 0aeb 4359424C 		.ascii	"CYBLE_EVT_L2CAP_CONN_PARAM_UPDATE_REQ\000"
 7476      455F4556 
 7476      545F4C32 
 7476      4341505F 
 7476      434F4E4E 
 7477              	.LASF12:
 7478 0b11 75696E74 		.ascii	"uint8_t\000"
 7478      385F7400 
 7479              	.LASF115:
 7480 0b19 4359424C 		.ascii	"CYBLE_ERROR_DEVICE_ALREADY_EXISTS\000"
 7480      455F4552 
 7480      524F525F 
 7480      44455649 
 7480      43455F41 
 7481              	.LASF250:
 7482 0b3b 636F6E63 		.ascii	"concentration\000"
 7482      656E7472 
 7482      6174696F 
 7482      6E00
 7483              	.LASF174:
 7484 0b49 66496D70 		.ascii	"fImpPol_Type\000"
 7484      506F6C5F 
 7484      54797065 
 7484      00
 7485              	.LASF216:
 7486 0b56 63757272 		.ascii	"current_glucose_nA\000"
 7486      656E745F 
 7486      676C7563 
 7486      6F73655F 
 7486      6E4100
 7487              	.LASF46:
 7488 0b69 4359424C 		.ascii	"CYBLE_EVT_GAP_DATA_LENGTH_CHANGE\000"
 7488      455F4556 
 7488      545F4741 
 7488      505F4441 
 7488      54415F4C 
 7489              	.LASF200:
 7490 0b8a 45787452 		.ascii	"ExtRtia\000"
 7490      74696100 
 7491              	.LASF226:
 7492 0b92 61646969 		.ascii	"adiid\000"
 7492      6400
ARM GAS  C:\Users\13740\AppData\Local\Temp\cc1Gy8Oo.s 			page 181


 7493              	.LASF295:
 7494 0b98 6379426C 		.ascii	"cyBle_pendingFlashWrite\000"
 7494      655F7065 
 7494      6E64696E 
 7494      67466C61 
 7494      73685772 
 7495              	.LASF123:
 7496 0bb0 4359424C 		.ascii	"CYBLE_ERROR_NTF_DISABLED\000"
 7496      455F4552 
 7496      524F525F 
 7496      4E54465F 
 7496      44495341 
 7497              	.LASF127:
 7498 0bc9 4359424C 		.ascii	"CYBLE_ERROR_STACK_BUSY\000"
 7498      455F4552 
 7498      524F525F 
 7498      53544143 
 7498      4B5F4255 
 7499              	.LASF248:
 7500 0be0 73656E73 		.ascii	"sensorType\000"
 7500      6F725479 
 7500      706500
 7501              	.LASF294:
 7502 0beb 6C6F6361 		.ascii	"localAddr\000"
 7502      6C416464 
 7502      7200
 7503              	.LASF298:
 7504 0bf5 61706952 		.ascii	"apiResult\000"
 7504      6573756C 
 7504      7400
 7505              	.LASF229:
 7506 0bff 61747465 		.ascii	"attempt\000"
 7506      6D707400 
 7507              	.LASF9:
 7508 0c07 6C6F6E67 		.ascii	"long long int\000"
 7508      206C6F6E 
 7508      6720696E 
 7508      7400
 7509              	.LASF140:
 7510 0c15 4359424C 		.ascii	"CYBLE_BLESS_STATE_DEEPSLEEP\000"
 7510      455F424C 
 7510      4553535F 
 7510      53544154 
 7510      455F4445 
 7511              	.LASF307:
 7512 0c31 6D61696E 		.ascii	"main.c\000"
 7512      2E6300
 7513              	.LASF234:
 7514 0c38 72656756 		.ascii	"regValue3\000"
 7514      616C7565 
 7514      3300
 7515              	.LASF235:
 7516 0c42 72656756 		.ascii	"regValue4\000"
 7516      616C7565 
 7516      3400
 7517              	.LASF218:
 7518 0c4c 63757272 		.ascii	"current_uric_nA\000"
ARM GAS  C:\Users\13740\AppData\Local\Temp\cc1Gy8Oo.s 			page 182


 7518      656E745F 
 7518      75726963 
 7518      5F6E4100 
 7519              	.LASF54:
 7520 0c5c 4359424C 		.ascii	"CYBLE_EVT_GATTC_ERROR_RSP\000"
 7520      455F4556 
 7520      545F4741 
 7520      5454435F 
 7520      4552524F 
 7521              	.LASF260:
 7522 0c76 74656D70 		.ascii	"temp_factor\000"
 7522      5F666163 
 7522      746F7200 
 7523              	.LASF114:
 7524 0c82 4359424C 		.ascii	"CYBLE_ERROR_GATT_DB_INVALID_ATTR_HANDLE\000"
 7524      455F4552 
 7524      524F525F 
 7524      47415454 
 7524      5F44425F 
 7525              	.LASF228:
 7526 0caa 69645F76 		.ascii	"id_valid\000"
 7526      616C6964 
 7526      00
 7527              	.LASF157:
 7528 0cb3 4359424C 		.ascii	"CYBLE_STATE_INITIALIZING\000"
 7528      455F5354 
 7528      4154455F 
 7528      494E4954 
 7528      49414C49 
 7529              	.LASF286:
 7530 0ccc 6D69736F 		.ascii	"miso_data\000"
 7530      5F646174 
 7530      6100
 7531              	.LASF122:
 7532 0cd6 4359424C 		.ascii	"CYBLE_ERROR_MAX\000"
 7532      455F4552 
 7532      524F525F 
 7532      4D415800 
 7533              	.LASF222:
 7534 0ce6 53454E53 		.ascii	"SENSOR_URIC_ACID\000"
 7534      4F525F55 
 7534      5249435F 
 7534      41434944 
 7534      00
 7535              	.LASF182:
 7536 0cf7 57757074 		.ascii	"WuptClkFreq\000"
 7536      436C6B46 
 7536      72657100 
 7537              	.LASF111:
 7538 0d03 4359424C 		.ascii	"CYBLE_ERROR_L2CAP_CONNECTION_ENTITY_NOT_FOUND\000"
 7538      455F4552 
 7538      524F525F 
 7538      4C324341 
 7538      505F434F 
 7539              	.LASF214:
 7540 0d31 75726963 		.ascii	"uric_acid\000"
 7540      5F616369 
ARM GAS  C:\Users\13740\AppData\Local\Temp\cc1Gy8Oo.s 			page 183


 7540      6400
 7541              	.LASF246:
 7542 0d3b 4D656173 		.ascii	"MeasureAmperometricSensor\000"
 7542      75726541 
 7542      6D706572 
 7542      6F6D6574 
 7542      72696353 
 7543              	.LASF108:
 7544 0d55 4359424C 		.ascii	"CYBLE_ERROR_L2CAP_PSM_WRONG_ENCODING\000"
 7544      455F4552 
 7544      524F525F 
 7544      4C324341 
 7544      505F5053 
 7545              	.LASF263:
 7546 0d7a 436F6E74 		.ascii	"ControlElectricalStimulation\000"
 7546      726F6C45 
 7546      6C656374 
 7546      72696361 
 7546      6C537469 
 7547              	.LASF36:
 7548 0d97 4359424C 		.ascii	"CYBLE_EVT_GAPP_ADVERTISEMENT_START_STOP\000"
 7548      455F4556 
 7548      545F4741 
 7548      50505F41 
 7548      44564552 
 7549              	.LASF163:
 7550 0dbf 6246414C 		.ascii	"bFALSE\000"
 7550      534500
 7551              	.LASF147:
 7552 0dc6 62644861 		.ascii	"bdHandle\000"
 7552      6E646C65 
 7552      00
 7553              	.LASF17:
 7554 0dcf 75696E74 		.ascii	"uint32\000"
 7554      333200
 7555              	.LASF277:
 7556 0dd6 41707043 		.ascii	"AppCallBack\000"
 7556      616C6C42 
 7556      61636B00 
 7557              	.LASF86:
 7558 0de2 4359424C 		.ascii	"CYBLE_EVT_L2CAP_CBFC_DATA_READ\000"
 7558      455F4556 
 7558      545F4C32 
 7558      4341505F 
 7558      43424643 
 7559              	.LASF288:
 7560 0e01 73636C6B 		.ascii	"sclk_low\000"
 7560      5F6C6F77 
 7560      00
 7561              	.LASF160:
 7562 0e0a 4359424C 		.ascii	"CYBLE_STATE_DISCONNECTED\000"
 7562      455F5354 
 7562      4154455F 
 7562      44495343 
 7562      4F4E4E45 
 7563              	.LASF8:
 7564 0e23 6C6F6E67 		.ascii	"long unsigned int\000"
ARM GAS  C:\Users\13740\AppData\Local\Temp\cc1Gy8Oo.s 			page 184


 7564      20756E73 
 7564      69676E65 
 7564      6420696E 
 7564      7400
 7565              	.LASF261:
 7566 0e35 436F6E74 		.ascii	"ControlDrugRelease\000"
 7566      726F6C44 
 7566      72756752 
 7566      656C6561 
 7566      736500
 7567              	.LASF133:
 7568 0e48 4359424C 		.ascii	"CYBLE_BLESS_INVALID\000"
 7568      455F424C 
 7568      4553535F 
 7568      494E5641 
 7568      4C494400 
 7569              	.LASF92:
 7570 0e5c 4359424C 		.ascii	"CYBLE_EVT_HCI_PKT\000"
 7570      455F4556 
 7570      545F4843 
 7570      495F504B 
 7570      5400
 7571              	.LASF128:
 7572 0e6e 4359424C 		.ascii	"CYBLE_API_RESULT_T\000"
 7572      455F4150 
 7572      495F5245 
 7572      53554C54 
 7572      5F5400
 7573              	.LASF110:
 7574 0e81 4359424C 		.ascii	"CYBLE_ERROR_L2CAP_PSM_NOT_REGISTERED\000"
 7574      455F4552 
 7574      524F525F 
 7574      4C324341 
 7574      505F5053 
 7575              	.LASF165:
 7576 0ea6 426F6F6C 		.ascii	"BoolFlag\000"
 7576      466C6167 
 7576      00
 7577              	.LASF259:
 7578 0eaf 4D656173 		.ascii	"MeasureAllSensorsWithCurrent\000"
 7578      75726541 
 7578      6C6C5365 
 7578      6E736F72 
 7578      73576974 
 7579              	.LASF49:
 7580 0ecc 4359424C 		.ascii	"CYBLE_EVT_GAP_SMP_NEGOTIATED_AUTH_INFO\000"
 7580      455F4556 
 7580      545F4741 
 7580      505F534D 
 7580      505F4E45 
 7581              	.LASF168:
 7582 0ef3 5365714C 		.ascii	"SeqLen\000"
 7582      656E00
 7583              	.LASF292:
 7584 0efa 6C617374 		.ascii	"lastSendTime\000"
 7584      53656E64 
 7584      54696D65 
ARM GAS  C:\Users\13740\AppData\Local\Temp\cc1Gy8Oo.s 			page 185


 7584      00
 7585              	.LASF21:
 7586 0f07 6C6F6E67 		.ascii	"long double\000"
 7586      20646F75 
 7586      626C6500 
 7587              	.LASF217:
 7588 0f13 63757272 		.ascii	"current_lactate_nA\000"
 7588      656E745F 
 7588      6C616374 
 7588      6174655F 
 7588      6E4100
 7589              	.LASF73:
 7590 0f26 4359424C 		.ascii	"CYBLE_EVT_GATTC_HANDLE_VALUE_IND\000"
 7590      455F4556 
 7590      545F4741 
 7590      5454435F 
 7590      48414E44 
 7591              	.LASF105:
 7592 0f47 4359424C 		.ascii	"CYBLE_ERROR_TX_POWER_READ\000"
 7592      455F4552 
 7592      524F525F 
 7592      54585F50 
 7592      4F574552 
 7593              	.LASF192:
 7594 0f61 41444353 		.ascii	"ADCSinc2Osr\000"
 7594      696E6332 
 7594      4F737200 
 7595              	.LASF142:
 7596 0f6d 4359424C 		.ascii	"CYBLE_BLESS_STATE_INVALID\000"
 7596      455F424C 
 7596      4553535F 
 7596      53544154 
 7596      455F494E 
 7597              	.LASF269:
 7598 0f87 6F726967 		.ascii	"original\000"
 7598      696E616C 
 7598      00
 7599              	.LASF103:
 7600 0f90 4359424C 		.ascii	"CYBLE_ERROR_REPEATED_ATTEMPTS\000"
 7600      455F4552 
 7600      524F525F 
 7600      52455045 
 7600      41544544 
 7601              	.LASF120:
 7602 0fae 4359424C 		.ascii	"CYBLE_ERROR_FLASH_WRITE\000"
 7602      455F4552 
 7602      524F525F 
 7602      464C4153 
 7602      485F5752 
 7603              	.LASF25:
 7604 0fc6 4359424C 		.ascii	"CYBLE_EVT_TIMEOUT\000"
 7604      455F4556 
 7604      545F5449 
 7604      4D454F55 
 7604      5400
 7605              	.LASF39:
 7606 0fd8 4359424C 		.ascii	"CYBLE_EVT_GAP_ENCRYPT_CHANGE\000"
ARM GAS  C:\Users\13740\AppData\Local\Temp\cc1Gy8Oo.s 			page 186


 7606      455F4556 
 7606      545F4741 
 7606      505F454E 
 7606      43525950 
 7607              	.LASF204:
 7608 0ff5 4D656173 		.ascii	"MeasureSeqInfo\000"
 7608      75726553 
 7608      6571496E 
 7608      666F00
 7609              	.LASF22:
 7610 1004 73697A65 		.ascii	"sizetype\000"
 7610      74797065 
 7610      00
 7611              	.LASF125:
 7612 100d 4359424C 		.ascii	"CYBLE_ERROR_CHAR_IS_NOT_DISCOVERED\000"
 7612      455F4552 
 7612      524F525F 
 7612      43484152 
 7612      5F49535F 
 7613              	.LASF60:
 7614 1030 4359424C 		.ascii	"CYBLE_EVT_GATTC_READ_BY_TYPE_RSP\000"
 7614      455F4556 
 7614      545F4741 
 7614      5454435F 
 7614      52454144 
 7615              	.LASF2:
 7616 1051 73686F72 		.ascii	"short int\000"
 7616      7420696E 
 7616      7400
 7617              	.LASF199:
 7618 105b 53656E73 		.ascii	"SensorBias\000"
 7618      6F724269 
 7618      617300
 7619              	.LASF274:
 7620 1066 74657374 		.ascii	"testStep\000"
 7620      53746570 
 7620      00
 7621              	.LASF179:
 7622 106f 4D617853 		.ascii	"MaxSeqLenCal\000"
 7622      65714C65 
 7622      6E43616C 
 7622      00
 7623              	.LASF6:
 7624 107c 6C6F6E67 		.ascii	"long int\000"
 7624      20696E74 
 7624      00
 7625              	.LASF178:
 7626 1085 53657153 		.ascii	"SeqStartAddrCal\000"
 7626      74617274 
 7626      41646472 
 7626      43616C00 
 7627              	.LASF55:
 7628 1095 4359424C 		.ascii	"CYBLE_EVT_GATT_CONNECT_IND\000"
 7628      455F4556 
 7628      545F4741 
 7628      54545F43 
 7628      4F4E4E45 
ARM GAS  C:\Users\13740\AppData\Local\Temp\cc1Gy8Oo.s 			page 187


 7629              	.LASF94:
 7630 10b0 4359424C 		.ascii	"CYBLE_EVT_MAX\000"
 7630      455F4556 
 7630      545F4D41 
 7630      5800
 7631              	.LASF47:
 7632 10be 4359424C 		.ascii	"CYBLE_EVT_GAP_ENHANCE_CONN_COMPLETE\000"
 7632      455F4556 
 7632      545F4741 
 7632      505F454E 
 7632      48414E43 
 7633              	.LASF65:
 7634 10e2 4359424C 		.ascii	"CYBLE_EVT_GATTC_READ_MULTI_RSP\000"
 7634      455F4556 
 7634      545F4741 
 7634      5454435F 
 7634      52454144 
 7635              	.LASF284:
 7636 1101 73636C6B 		.ascii	"sclk_data\000"
 7636      5F646174 
 7636      6100
 7637              	.LASF84:
 7638 110b 4359424C 		.ascii	"CYBLE_EVT_L2CAP_CBFC_DISCONN_IND\000"
 7638      455F4556 
 7638      545F4C32 
 7638      4341505F 
 7638      43424643 
 7639              	.LASF138:
 7640 112c 4359424C 		.ascii	"CYBLE_BLESS_STATE_ECO_ON\000"
 7640      455F424C 
 7640      4553535F 
 7640      53544154 
 7640      455F4543 
 7641              	.LASF230:
 7642 1145 41443539 		.ascii	"AD5941_Initialize\000"
 7642      34315F49 
 7642      6E697469 
 7642      616C697A 
 7642      6500
 7643              	.LASF169:
 7644 1157 57726974 		.ascii	"WriteSRAM\000"
 7644      65535241 
 7644      4D00
 7645              	.LASF96:
 7646 1161 4359424C 		.ascii	"CYBLE_ERROR_INVALID_PARAMETER\000"
 7646      455F4552 
 7646      524F525F 
 7646      494E5641 
 7646      4C49445F 
 7647              	.LASF30:
 7648 117f 4359424C 		.ascii	"CYBLE_EVT_GAPC_SCAN_PROGRESS_RESULT\000"
 7648      455F4556 
 7648      545F4741 
 7648      50435F53 
 7648      43414E5F 
 7649              	.LASF270:
 7650 11a3 74657374 		.ascii	"testVal\000"
ARM GAS  C:\Users\13740\AppData\Local\Temp\cc1Gy8Oo.s 			page 188


 7650      56616C00 
 7651              	.LASF131:
 7652 11ab 4359424C 		.ascii	"CYBLE_BLESS_DEEPSLEEP\000"
 7652      455F424C 
 7652      4553535F 
 7652      44454550 
 7652      534C4545 
 7653              	.LASF180:
 7654 11c1 5265446F 		.ascii	"ReDoRtiaCal\000"
 7654      52746961 
 7654      43616C00 
 7655              	.LASF48:
 7656 11cd 4359424C 		.ascii	"CYBLE_EVT_GAPC_DIRECT_ADV_REPORT\000"
 7656      455F4556 
 7656      545F4741 
 7656      50435F44 
 7656      49524543 
 7657              	.LASF45:
 7658 11ee 4359424C 		.ascii	"CYBLE_EVT_GAP_OOB_GENERATED_NOTIFICATION\000"
 7658      455F4556 
 7658      545F4741 
 7658      505F4F4F 
 7658      425F4745 
 7659              	.LASF59:
 7660 1217 4359424C 		.ascii	"CYBLE_EVT_GATTC_READ_BY_GROUP_TYPE_RSP\000"
 7660      455F4556 
 7660      545F4741 
 7660      5454435F 
 7660      52454144 
 7661              	.LASF150:
 7662 123e 61637475 		.ascii	"actualLen\000"
 7662      616C4C65 
 7662      6E00
 7663              	.LASF141:
 7664 1248 4359424C 		.ascii	"CYBLE_BLESS_STATE_HIBERNATE\000"
 7664      455F424C 
 7664      4553535F 
 7664      53544154 
 7664      455F4849 
 7665              	.LASF145:
 7666 1264 4359424C 		.ascii	"CYBLE_GAP_BD_ADDR_T\000"
 7666      455F4741 
 7666      505F4244 
 7666      5F414444 
 7666      525F5400 
 7667              	.LASF112:
 7668 1278 4359424C 		.ascii	"CYBLE_ERROR_L2CAP_CHANNEL_NOT_FOUND\000"
 7668      455F4552 
 7668      524F525F 
 7668      4C324341 
 7668      505F4348 
 7669              	.LASF4:
 7670 129c 5F5F7569 		.ascii	"__uint8_t\000"
 7670      6E74385F 
 7670      7400
 7671              	.LASF38:
 7672 12a6 4359424C 		.ascii	"CYBLE_EVT_GAP_DEVICE_DISCONNECTED\000"
ARM GAS  C:\Users\13740\AppData\Local\Temp\cc1Gy8Oo.s 			page 189


 7672      455F4556 
 7672      545F4741 
 7672      505F4445 
 7672      56494345 
 7673              	.LASF268:
 7674 12c8 64696167 		.ascii	"diagStep\000"
 7674      53746570 
 7674      00
 7675              	.LASF188:
 7676 12d1 41444352 		.ascii	"ADCRefVolt\000"
 7676      6566566F 
 7676      6C7400
 7677              	.LASF82:
 7678 12dc 4359424C 		.ascii	"CYBLE_EVT_L2CAP_CBFC_CONN_IND\000"
 7678      455F4556 
 7678      545F4C32 
 7678      4341505F 
 7678      43424643 
 7679              	.LASF258:
 7680 12fa 52656164 		.ascii	"ReadCurrentFromSourceMeter_Simulated\000"
 7680      43757272 
 7680      656E7446 
 7680      726F6D53 
 7680      6F757263 
 7681              	.LASF172:
 7682 131f 4D61676E 		.ascii	"Magnitude\000"
 7682      69747564 
 7682      6500
 7683              	.LASF305:
 7684 1329 675F5350 		.ascii	"g_SPI_Debug_Buf\000"
 7684      495F4465 
 7684      6275675F 
 7684      42756600 
 7685              	.LASF283:
 7686 1339 6D61696E 		.ascii	"main\000"
 7686      00
 7687              	.LASF143:
 7688 133e 62644164 		.ascii	"bdAddr\000"
 7688      647200
 7689              	.LASF236:
 7690 1345 74657374 		.ascii	"testCount\000"
 7690      436F756E 
 7690      7400
 7691              	.LASF109:
 7692 134f 4359424C 		.ascii	"CYBLE_ERROR_L2CAP_PSM_ALREADY_REGISTERED\000"
 7692      455F4552 
 7692      524F525F 
 7692      4C324341 
 7692      505F5053 
 7693              	.LASF42:
 7694 1378 4359424C 		.ascii	"CYBLE_EVT_GAP_KEYINFO_EXCHNGE_CMPLT\000"
 7694      455F4556 
 7694      545F4741 
 7694      505F4B45 
 7694      59494E46 
 7695              	.LASF33:
 7696 139c 4359424C 		.ascii	"CYBLE_EVT_GAP_PASSKEY_DISPLAY_REQUEST\000"
ARM GAS  C:\Users\13740\AppData\Local\Temp\cc1Gy8Oo.s 			page 190


 7696      455F4556 
 7696      545F4741 
 7696      505F5041 
 7696      53534B45 
 7697              	.LASF78:
 7698 13c2 4359424C 		.ascii	"CYBLE_EVT_GATTC_LONG_PROCEDURE_END\000"
 7698      455F4556 
 7698      545F4741 
 7698      5454435F 
 7698      4C4F4E47 
 7699              	.LASF101:
 7700 13e5 4359424C 		.ascii	"CYBLE_ERROR_NO_CONNECTION\000"
 7700      455F4552 
 7700      524F525F 
 7700      4E4F5F43 
 7700      4F4E4E45 
 7701              	.LASF13:
 7702 13ff 696E7433 		.ascii	"int32_t\000"
 7702      325F7400 
 7703              	.LASF154:
 7704 1407 4359424C 		.ascii	"CYBLE_GATT_HANDLE_VALUE_PAIR_T\000"
 7704      455F4741 
 7704      54545F48 
 7704      414E444C 
 7704      455F5641 
 7705              	.LASF89:
 7706 1426 4359424C 		.ascii	"CYBLE_EVT_L2CAP_CBFC_DATA_WRITE_IND\000"
 7706      455F4556 
 7706      545F4C32 
 7706      4341505F 
 7706      43424643 
 7707              	.LASF276:
 7708 144a 54696D65 		.ascii	"Timer_Interrupt\000"
 7708      725F496E 
 7708      74657272 
 7708      75707400 
 7709              	.LASF242:
 7710 145a 44696167 		.ascii	"DiagnosticsElectrodes\000"
 7710      6E6F7374 
 7710      69637345 
 7710      6C656374 
 7710      726F6465 
 7711              	.LASF35:
 7712 1470 4359424C 		.ascii	"CYBLE_EVT_GAP_AUTH_FAILED\000"
 7712      455F4556 
 7712      545F4741 
 7712      505F4155 
 7712      54485F46 
 7713              	.LASF29:
 7714 148a 4359424C 		.ascii	"CYBLE_EVT_MEMORY_REQUEST\000"
 7714      455F4556 
 7714      545F4D45 
 7714      4D4F5259 
 7714      5F524551 
 7715              	.LASF223:
 7716 14a3 53454E53 		.ascii	"SENSOR_COUNT\000"
 7716      4F525F43 
ARM GAS  C:\Users\13740\AppData\Local\Temp\cc1Gy8Oo.s 			page 191


 7716      4F554E54 
 7716      00
 7717              	.LASF144:
 7718 14b0 74797065 		.ascii	"type\000"
 7718      00
 7719              	.LASF44:
 7720 14b5 4359424C 		.ascii	"CYBLE_EVT_GAP_KEYPRESS_NOTIFICATION\000"
 7720      455F4556 
 7720      545F4741 
 7720      505F4B45 
 7720      59505245 
 7721              	.LASF1:
 7722 14d9 756E7369 		.ascii	"unsigned char\000"
 7722      676E6564 
 7722      20636861 
 7722      7200
 7723              	.LASF7:
 7724 14e7 5F5F7569 		.ascii	"__uint32_t\000"
 7724      6E743332 
 7724      5F7400
 7725              	.LASF245:
 7726 14f2 64617461 		.ascii	"dataCount\000"
 7726      436F756E 
 7726      7400
 7727              	.LASF237:
 7728 14fc 44696167 		.ascii	"DiagnosticsFIFO\000"
 7728      6E6F7374 
 7728      69637346 
 7728      49464F00 
 7729              	.LASF219:
 7730 150c 53656E73 		.ascii	"SensorData_t\000"
 7730      6F724461 
 7730      74615F74 
 7730      00
 7731              	.LASF139:
 7732 1519 4359424C 		.ascii	"CYBLE_BLESS_STATE_ECO_STABLE\000"
 7732      455F424C 
 7732      4553535F 
 7732      53544154 
 7732      455F4543 
 7733              	.LASF293:
 7734 1536 53746172 		.ascii	"StartAdvertisement\000"
 7734      74416476 
 7734      65727469 
 7734      73656D65 
 7734      6E7400
 7735              	.LASF23:
 7736 1549 4359424C 		.ascii	"CYBLE_EVT_HOST_INVALID\000"
 7736      455F4556 
 7736      545F484F 
 7736      53545F49 
 7736      4E56414C 
 7737              	.LASF132:
 7738 1560 4359424C 		.ascii	"CYBLE_BLESS_HIBERNATE\000"
 7738      455F424C 
 7738      4553535F 
 7738      48494245 
ARM GAS  C:\Users\13740\AppData\Local\Temp\cc1Gy8Oo.s 			page 192


 7738      524E4154 
 7739              	.LASF53:
 7740 1576 4359424C 		.ascii	"CYBLE_EVT_GAP_SMP_LOC_P256_KEYS_GEN_AND_SET_COMPLET"
 7740      455F4556 
 7740      545F4741 
 7740      505F534D 
 7740      505F4C4F 
 7741 15a9 4500     		.ascii	"E\000"
 7742              	.LASF85:
 7743 15ab 4359424C 		.ascii	"CYBLE_EVT_L2CAP_CBFC_DISCONN_CNF\000"
 7743      455F4556 
 7743      545F4C32 
 7743      4341505F 
 7743      43424643 
 7744              	.LASF37:
 7745 15cc 4359424C 		.ascii	"CYBLE_EVT_GAP_DEVICE_CONNECTED\000"
 7745      455F4556 
 7745      545F4741 
 7745      505F4445 
 7745      56494345 
 7746              	.LASF233:
 7747 15eb 72656756 		.ascii	"regValue2\000"
 7747      616C7565 
 7747      3200
 7748              	.LASF282:
 7749 15f5 41443539 		.ascii	"AD5941_HardReset\000"
 7749      34315F48 
 7749      61726452 
 7749      65736574 
 7749      00
 7750              	.LASF69:
 7751 1606 4359424C 		.ascii	"CYBLE_EVT_GATTS_PREP_WRITE_REQ\000"
 7751      455F4556 
 7751      545F4741 
 7751      5454535F 
 7751      50524550 
 7752              	.LASF247:
 7753 1625 436F6E76 		.ascii	"ConvertCurrentToConcentration\000"
 7753      65727443 
 7753      75727265 
 7753      6E74546F 
 7753      436F6E63 
 7754              	.LASF50:
 7755 1643 4359424C 		.ascii	"CYBLE_EVT_GAP_CONN_ESTB\000"
 7755      455F4556 
 7755      545F4741 
 7755      505F434F 
 7755      4E4E5F45 
 7756              	.LASF52:
 7757 165b 4359424C 		.ascii	"CYBLE_EVT_GAP_AUTH_REQ_REPLY_ERR\000"
 7757      455F4556 
 7757      545F4741 
 7757      505F4155 
 7757      54485F52 
 7758              	.LASF215:
 7759 167c 74696D65 		.ascii	"timestamp\000"
 7759      7374616D 
ARM GAS  C:\Users\13740\AppData\Local\Temp\cc1Gy8Oo.s 			page 193


 7759      7000
 7760              	.LASF240:
 7761 1686 74784275 		.ascii	"txBuffer\000"
 7761      66666572 
 7761      00
 7762              	.LASF254:
 7763 168f 72657369 		.ascii	"resistance\000"
 7763      7374616E 
 7763      636500
 7764              	.LASF0:
 7765 169a 7369676E 		.ascii	"signed char\000"
 7765      65642063 
 7765      68617200 
 7766              	.LASF271:
 7767 16a6 72656164 		.ascii	"readback\000"
 7767      6261636B 
 7767      00
 7768              	.LASF196:
 7769 16af 4C705469 		.ascii	"LpTiaRl\000"
 7769      61526C00 
 7770              	.LASF3:
 7771 16b7 73686F72 		.ascii	"short unsigned int\000"
 7771      7420756E 
 7771      7369676E 
 7771      65642069 
 7771      6E7400
 7772              	.LASF308:
 7773 16ca 453A5C64 		.ascii	"E:\\desktop\\bu\\eda\\Transistor\\Transistor.cydsn\000"
 7773      65736B74 
 7773      6F705C62 
 7773      755C6564 
 7773      615C5472 
 7774              	.LASF251:
 7775 16f8 4D656173 		.ascii	"MeasureTemperature\000"
 7775      75726554 
 7775      656D7065 
 7775      72617475 
 7775      726500
 7776              	.LASF162:
 7777 170b 41443539 		.ascii	"AD5940Err\000"
 7777      34304572 
 7777      7200
 7778              	.LASF121:
 7779 1715 4359424C 		.ascii	"CYBLE_ERROR_CONTROLLER_BUSY\000"
 7779      455F4552 
 7779      524F525F 
 7779      434F4E54 
 7779      524F4C4C 
 7780              	.LASF113:
 7781 1731 4359424C 		.ascii	"CYBLE_ERROR_L2CAP_PSM_NOT_IN_RANGE\000"
 7781      455F4552 
 7781      524F525F 
 7781      4C324341 
 7781      505F5053 
 7782              	.LASF15:
 7783 1754 75696E74 		.ascii	"uint8\000"
 7783      3800
ARM GAS  C:\Users\13740\AppData\Local\Temp\cc1Gy8Oo.s 			page 194


 7784              	.LASF95:
 7785 175a 4359424C 		.ascii	"CYBLE_ERROR_OK\000"
 7785      455F4552 
 7785      524F525F 
 7785      4F4B00
 7786              	.LASF249:
 7787 1769 63757272 		.ascii	"current_nA\000"
 7787      656E745F 
 7787      6E4100
 7788              	.LASF74:
 7789 1774 4359424C 		.ascii	"CYBLE_EVT_GATTS_HANDLE_VALUE_CNF\000"
 7789      455F4556 
 7789      545F4741 
 7789      5454535F 
 7789      48414E44 
 7790              	.LASF238:
 7791 1795 6669666F 		.ascii	"fifoCount\000"
 7791      436F756E 
 7791      7400
 7792              	.LASF130:
 7793 179f 4359424C 		.ascii	"CYBLE_BLESS_SLEEP\000"
 7793      455F424C 
 7793      4553535F 
 7793      534C4545 
 7793      5000
 7794              	.LASF243:
 7795 17b1 46756C6C 		.ascii	"FullDiagnostics\000"
 7795      44696167 
 7795      6E6F7374 
 7795      69637300 
 7796              	.LASF148:
 7797 17c1 61747449 		.ascii	"attId\000"
 7797      6400
 7798              	.LASF135:
 7799 17c7 4359424C 		.ascii	"CYBLE_BLESS_STATE_ACTIVE\000"
 7799      455F424C 
 7799      4553535F 
 7799      53544154 
 7799      455F4143 
 7800              	.LASF136:
 7801 17e0 4359424C 		.ascii	"CYBLE_BLESS_STATE_EVENT_CLOSE\000"
 7801      455F424C 
 7801      4553535F 
 7801      53544154 
 7801      455F4556 
 7802              	.LASF41:
 7803 17fe 4359424C 		.ascii	"CYBLE_EVT_GAPC_SCAN_START_STOP\000"
 7803      455F4556 
 7803      545F4741 
 7803      50435F53 
 7803      43414E5F 
 7804              	.LASF176:
 7805 181d 53657153 		.ascii	"SeqStartAddr\000"
 7805      74617274 
 7805      41646472 
 7805      00
 7806              	.LASF252:
ARM GAS  C:\Users\13740\AppData\Local\Temp\cc1Gy8Oo.s 			page 195


 7807 182a 61646343 		.ascii	"adcCode\000"
 7807      6F646500 
 7808              	.LASF159:
 7809 1832 4359424C 		.ascii	"CYBLE_STATE_ADVERTISING\000"
 7809      455F5354 
 7809      4154455F 
 7809      41445645 
 7809      52544953 
 7810              	.LASF170:
 7811 184a 70536571 		.ascii	"pSeqCmd\000"
 7811      436D6400 
 7812              		.ident	"GCC: (GNU Tools for ARM Embedded Processors) 5.4.1 20160609 (release) [ARM/embedded-5-bran
