ARM GAS  C:\Users\13740\AppData\Local\Temp\ccgojbJm.s 			page 1


   1              		.syntax unified
   2              		.cpu cortex-m0
   3              		.fpu softvfp
   4              		.eabi_attribute 20, 1
   5              		.eabi_attribute 21, 1
   6              		.eabi_attribute 23, 3
   7              		.eabi_attribute 24, 1
   8              		.eabi_attribute 25, 1
   9              		.eabi_attribute 26, 1
  10              		.eabi_attribute 30, 6
  11              		.eabi_attribute 34, 0
  12              		.eabi_attribute 18, 4
  13              		.thumb
  14              		.syntax unified
  15              		.file	"main.c"
  16              		.text
  17              	.Ltext0:
  18              		.cfi_sections	.debug_frame
  19              		.global	mainTimer
  20              		.bss
  21              		.align	2
  22              		.type	mainTimer, %object
  23              		.size	mainTimer, 4
  24              	mainTimer:
  25 0000 00000000 		.space	4
  26              		.global	measurementFlag
  27              		.type	measurementFlag, %object
  28              		.size	measurementFlag, 1
  29              	measurementFlag:
  30 0004 00       		.space	1
  31              		.comm	apiResult,2,2
  32              		.global	sensorData
  33 0005 000000   		.align	2
  34              		.type	sensorData, %object
  35              		.size	sensorData, 20
  36              	sensorData:
  37 0008 00000000 		.space	20
  37      00000000 
  37      00000000 
  37      00000000 
  37      00000000 
  38              		.comm	pAmpCfg,4,4
  39              		.comm	ampBuffer,2048,4
  40              		.comm	ampResult,8,4
  41              		.section	.rodata
  42              		.align	2
  43              	.LC2:
  44 0000 41443539 		.ascii	"AD5941\345\210\235\345\247\213\345\214\226\346\210\220"
  44      3431E588 
  44      9DE5A78B 
  44      E58C96E6 
  44      8890
  45 0012 E58A9F0D 		.ascii	"\345\212\237\015\000"
  45      00
  46 0017 00       		.align	2
  47              	.LC4:
  48 0018 41443539 		.ascii	"AD5941\345\210\235\345\247\213\345\214\226\345\244\261"
ARM GAS  C:\Users\13740\AppData\Local\Temp\ccgojbJm.s 			page 2


  48      3431E588 
  48      9DE5A78B 
  48      E58C96E5 
  48      A4B1
  49 002a E8B4A53A 		.ascii	"\350\264\245: %d\015\012\000"
  49      2025640D 
  49      0A00
  50              		.section	.text.AD5941_Initialize,"ax",%progbits
  51              		.align	2
  52              		.global	AD5941_Initialize
  53              		.code	16
  54              		.thumb_func
  55              		.type	AD5941_Initialize, %function
  56              	AD5941_Initialize:
  57              	.LFB36:
  58              		.file 1 "main.c"
   1:main.c        **** 
   2:main.c        **** /*******************************************************************************
   3:main.c        **** * File Name: main.c
   4:main.c        **** *
   5:main.c        **** * Version 2.0
   6:main.c        **** *
   7:main.c        **** * Description:
   8:main.c        **** *  多路生物传感器系统 - 修复后的完整版本
   9:main.c        **** *  使用AD5940内置ADC，不依赖PSoC ADC模块
  10:main.c        **** *
  11:main.c        **** ********************************************************************************/
  12:main.c        **** 
  13:main.c        **** // /* 链接数学库（GCC编译器） */
  14:main.c        **** // #pragma comment(lib, "libm.a")
  15:main.c        **** 
  16:main.c        **** #include "main.h"
  17:main.c        **** #include "ad5940.h"
  18:main.c        **** #include "Amperometric.h"
  19:main.c        **** 
  20:main.c        **** /*******************************************************************************
  21:main.c        **** * 全局变量
  22:main.c        **** *******************************************************************************/
  23:main.c        **** volatile uint32 mainTimer = 0;
  24:main.c        **** volatile uint8 measurementFlag = 0;
  25:main.c        **** CYBLE_API_RESULT_T apiResult;
  26:main.c        **** 
  27:main.c        **** // 传感器数据结构
  28:main.c        **** typedef struct {
  29:main.c        ****     float temperature;      // 温度 (°C) - 从AD5940读取
  30:main.c        ****     float glucose;         // 葡萄糖 (mM)
  31:main.c        ****     float lactate;         // 乳酸 (mM)
  32:main.c        ****     float uric_acid;       // 尿酸 (μM)
  33:main.c        ****     uint32 timestamp;      // 时间戳
  34:main.c        **** } SensorData_t;
  35:main.c        **** 
  36:main.c        **** // 传感器数据全局变量（定义在main.h中的SensorData_t结构）
  37:main.c        **** SensorData_t sensorData = {0};
  38:main.c        **** 
  39:main.c        **** typedef enum {
  40:main.c        ****     SENSOR_GLUCOSE = 0,
  41:main.c        ****     SENSOR_LACTATE = 1,
ARM GAS  C:\Users\13740\AppData\Local\Temp\ccgojbJm.s 			page 3


  42:main.c        ****     SENSOR_URIC_ACID = 2,
  43:main.c        ****     SENSOR_COUNT = 3
  44:main.c        **** } AmperometricSensor_t;
  45:main.c        **** 
  46:main.c        **** 
  47:main.c        **** 
  48:main.c        **** 
  49:main.c        **** 
  50:main.c        **** // AD5941相关变量
  51:main.c        **** AppAMPCfg_Type *pAmpCfg;
  52:main.c        **** uint32 ampBuffer[512];  // 用于AppAMPInit的缓冲区
  53:main.c        **** fAmpRes_Type ampResult;
  54:main.c        **** 
  55:main.c        **** /*******************************************************************************
  56:main.c        **** * Function Name: AD5941_Initialize
  57:main.c        **** ********************************************************************************
  58:main.c        **** * Summary:
  59:main.c        **** *   初始化AD5941电化学前端芯片 - 修复后的版本
  60:main.c        **** *******************************************************************************/
  61:main.c        **** void AD5941_Initialize(void)
  62:main.c        **** {
  59              		.loc 1 62 0
  60              		.cfi_startproc
  61              		@ args = 0, pretend = 0, frame = 8
  62              		@ frame_needed = 1, uses_anonymous_args = 0
  63 0000 80B5     		push	{r7, lr}
  64              		.cfi_def_cfa_offset 8
  65              		.cfi_offset 7, -8
  66              		.cfi_offset 14, -4
  67 0002 82B0     		sub	sp, sp, #8
  68              		.cfi_def_cfa_offset 16
  69 0004 00AF     		add	r7, sp, #0
  70              		.cfi_def_cfa_register 7
  63:main.c        ****     AD5940Err error;
  64:main.c        ****     
  65:main.c        ****     // 步骤1: 复位AD5940
  66:main.c        ****     AD5940_RST_Write(0);
  71              		.loc 1 66 0
  72 0006 0020     		movs	r0, #0
  73 0008 FFF7FEFF 		bl	AD5940_RST_Write
  67:main.c        ****     CyDelay(10);
  74              		.loc 1 67 0
  75 000c 0A20     		movs	r0, #10
  76 000e FFF7FEFF 		bl	CyDelay
  68:main.c        ****     AD5940_RST_Write(1);
  77              		.loc 1 68 0
  78 0012 0120     		movs	r0, #1
  79 0014 FFF7FEFF 		bl	AD5940_RST_Write
  69:main.c        ****     CyDelay(100);
  80              		.loc 1 69 0
  81 0018 6420     		movs	r0, #100
  82 001a FFF7FEFF 		bl	CyDelay
  70:main.c        ****     
  71:main.c        ****     // 步骤2: 初始化MCU资源（SPI通信）
  72:main.c        ****     AD5940_MCUResourceInit(NULL);
  83              		.loc 1 72 0
  84 001e 0020     		movs	r0, #0
ARM GAS  C:\Users\13740\AppData\Local\Temp\ccgojbJm.s 			page 4


  85 0020 FFF7FEFF 		bl	AD5940_MCUResourceInit
  73:main.c        ****     
  74:main.c        ****     // 步骤3: 获取配置指针
  75:main.c        ****     AppAMPGetCfg(&pAmpCfg);
  86              		.loc 1 75 0
  87 0024 4D4B     		ldr	r3, .L5
  88 0026 1800     		movs	r0, r3
  89 0028 FFF7FEFF 		bl	AppAMPGetCfg
  76:main.c        ****     
  77:main.c        ****     // 步骤4: 配置安培法测量参数（根据Amperometric.h结构体）
  78:main.c        ****     pAmpCfg->bParaChanged = bTRUE;
  90              		.loc 1 78 0
  91 002c 4B4B     		ldr	r3, .L5
  92 002e 1B68     		ldr	r3, [r3]
  93 0030 0122     		movs	r2, #1
  94 0032 1A70     		strb	r2, [r3]
  79:main.c        ****     pAmpCfg->SeqStartAddr = 0;
  95              		.loc 1 79 0
  96 0034 494B     		ldr	r3, .L5
  97 0036 1B68     		ldr	r3, [r3]
  98 0038 0022     		movs	r2, #0
  99 003a 5A60     		str	r2, [r3, #4]
  80:main.c        ****     pAmpCfg->MaxSeqLen = 512;
 100              		.loc 1 80 0
 101 003c 474B     		ldr	r3, .L5
 102 003e 1B68     		ldr	r3, [r3]
 103 0040 8022     		movs	r2, #128
 104 0042 9200     		lsls	r2, r2, #2
 105 0044 9A60     		str	r2, [r3, #8]
  81:main.c        ****     pAmpCfg->SeqStartAddrCal = 0;
 106              		.loc 1 81 0
 107 0046 454B     		ldr	r3, .L5
 108 0048 1B68     		ldr	r3, [r3]
 109 004a 0022     		movs	r2, #0
 110 004c DA60     		str	r2, [r3, #12]
  82:main.c        ****     pAmpCfg->MaxSeqLenCal = 512;
 111              		.loc 1 82 0
 112 004e 434B     		ldr	r3, .L5
 113 0050 1B68     		ldr	r3, [r3]
 114 0052 8022     		movs	r2, #128
 115 0054 9200     		lsls	r2, r2, #2
 116 0056 1A61     		str	r2, [r3, #16]
  83:main.c        ****     
  84:main.c        ****     pAmpCfg->ReDoRtiaCal = bFALSE;
 117              		.loc 1 84 0
 118 0058 404B     		ldr	r3, .L5
 119 005a 1B68     		ldr	r3, [r3]
 120 005c 0022     		movs	r2, #0
 121 005e 1A75     		strb	r2, [r3, #20]
  85:main.c        ****     pAmpCfg->SysClkFreq = 16000000.0;   // 16MHz系统时钟
 122              		.loc 1 85 0
 123 0060 3E4B     		ldr	r3, .L5
 124 0062 1B68     		ldr	r3, [r3]
 125 0064 3E4A     		ldr	r2, .L5+4
 126 0066 9A61     		str	r2, [r3, #24]
  86:main.c        ****     pAmpCfg->WuptClkFreq = 32000.0;     // 32kHz唤醒时钟
 127              		.loc 1 86 0
ARM GAS  C:\Users\13740\AppData\Local\Temp\ccgojbJm.s 			page 5


 128 0068 3C4B     		ldr	r3, .L5
 129 006a 1B68     		ldr	r3, [r3]
 130 006c 3D4A     		ldr	r2, .L5+8
 131 006e DA61     		str	r2, [r3, #28]
  87:main.c        ****     pAmpCfg->AdcClkFreq = 16000000.0;   // 16MHz ADC时钟
 132              		.loc 1 87 0
 133 0070 3A4B     		ldr	r3, .L5
 134 0072 1B68     		ldr	r3, [r3]
 135 0074 3A4A     		ldr	r2, .L5+4
 136 0076 1A62     		str	r2, [r3, #32]
  88:main.c        ****     pAmpCfg->FifoThresh = 4;            // FIFO阈值
 137              		.loc 1 88 0
 138 0078 384B     		ldr	r3, .L5
 139 007a 1B68     		ldr	r3, [r3]
 140 007c 0422     		movs	r2, #4
 141 007e 5A62     		str	r2, [r3, #36]
  89:main.c        ****     pAmpCfg->AmpODR = 10.0;             // 10Hz采样率
 142              		.loc 1 89 0
 143 0080 364B     		ldr	r3, .L5
 144 0082 1B68     		ldr	r3, [r3]
 145 0084 384A     		ldr	r2, .L5+12
 146 0086 9A62     		str	r2, [r3, #40]
  90:main.c        ****     pAmpCfg->NumOfData = -1;            // 连续测量
 147              		.loc 1 90 0
 148 0088 344B     		ldr	r3, .L5
 149 008a 1B68     		ldr	r3, [r3]
 150 008c 0122     		movs	r2, #1
 151 008e 5242     		rsbs	r2, r2, #0
 152 0090 DA62     		str	r2, [r3, #44]
  91:main.c        ****     
  92:main.c        ****     // 电化学参数
  93:main.c        ****     pAmpCfg->RcalVal = 10000.0;         // 10kΩ校准电阻
 153              		.loc 1 93 0
 154 0092 324B     		ldr	r3, .L5
 155 0094 1B68     		ldr	r3, [r3]
 156 0096 354A     		ldr	r2, .L5+16
 157 0098 1A63     		str	r2, [r3, #48]
  94:main.c        ****     pAmpCfg->ADCRefVolt = 1.82;         // ADC参考电压1.82V
 158              		.loc 1 94 0
 159 009a 304B     		ldr	r3, .L5
 160 009c 1B68     		ldr	r3, [r3]
 161 009e 344A     		ldr	r2, .L5+20
 162 00a0 5A63     		str	r2, [r3, #52]
  95:main.c        ****     pAmpCfg->PwrMod = AFEPWR_LP;        // 低功耗模式
 163              		.loc 1 95 0
 164 00a2 2E4B     		ldr	r3, .L5
 165 00a4 1B68     		ldr	r3, [r3]
 166 00a6 0022     		movs	r2, #0
 167 00a8 9A63     		str	r2, [r3, #56]
  96:main.c        ****     
  97:main.c        ****     // ADC配置
  98:main.c        ****     pAmpCfg->ADCPgaGain = ADCPGA_1P5;   // PGA增益1.5
 168              		.loc 1 98 0
 169 00aa 2C4B     		ldr	r3, .L5
 170 00ac 1B68     		ldr	r3, [r3]
 171 00ae 0122     		movs	r2, #1
 172 00b0 DA63     		str	r2, [r3, #60]
ARM GAS  C:\Users\13740\AppData\Local\Temp\ccgojbJm.s 			page 6


  99:main.c        ****     pAmpCfg->ADCSinc3Osr = ADCSINC3OSR_4;
 173              		.loc 1 99 0
 174 00b2 2A4B     		ldr	r3, .L5
 175 00b4 1B68     		ldr	r3, [r3]
 176 00b6 4022     		movs	r2, #64
 177 00b8 0121     		movs	r1, #1
 178 00ba 9954     		strb	r1, [r3, r2]
 100:main.c        ****     pAmpCfg->ADCSinc2Osr = ADCSINC2OSR_178;
 179              		.loc 1 100 0
 180 00bc 274B     		ldr	r3, .L5
 181 00be 1B68     		ldr	r3, [r3]
 182 00c0 4122     		movs	r2, #65
 183 00c2 0321     		movs	r1, #3
 184 00c4 9954     		strb	r1, [r3, r2]
 101:main.c        ****     pAmpCfg->DataFifoSrc = FIFOSRC_SINC3;
 185              		.loc 1 101 0
 186 00c6 254B     		ldr	r3, .L5
 187 00c8 1B68     		ldr	r3, [r3]
 188 00ca 0022     		movs	r2, #0
 189 00cc 5A64     		str	r2, [r3, #68]
 102:main.c        ****     
 103:main.c        ****     // LPTIA配置（跨阻放大器）
 104:main.c        ****     pAmpCfg->LptiaRtiaSel = LPTIARTIA_10K;  // 10kΩ内部RTIA
 190              		.loc 1 104 0
 191 00ce 234B     		ldr	r3, .L5
 192 00d0 1B68     		ldr	r3, [r3]
 193 00d2 0822     		movs	r2, #8
 194 00d4 9A64     		str	r2, [r3, #72]
 105:main.c        ****     pAmpCfg->LpTiaRf = LPTIARF_1M;          // 1MΩ滤波电阻
 195              		.loc 1 105 0
 196 00d6 214B     		ldr	r3, .L5
 197 00d8 1B68     		ldr	r3, [r3]
 198 00da 0722     		movs	r2, #7
 199 00dc DA64     		str	r2, [r3, #76]
 106:main.c        ****     pAmpCfg->LpTiaRl = LPTIARLOAD_100R;     // 100Ω负载电阻
 200              		.loc 1 106 0
 201 00de 1F4B     		ldr	r3, .L5
 202 00e0 1B68     		ldr	r3, [r3]
 203 00e2 0422     		movs	r2, #4
 204 00e4 1A65     		str	r2, [r3, #80]
 107:main.c        ****     
 108:main.c        ****     // 偏置电压
 109:main.c        ****     pAmpCfg->Vzero = 1100.0;            // SE0偏置电压1.1V
 205              		.loc 1 109 0
 206 00e6 1D4B     		ldr	r3, .L5
 207 00e8 1B68     		ldr	r3, [r3]
 208 00ea 224A     		ldr	r2, .L5+24
 209 00ec DA65     		str	r2, [r3, #92]
 110:main.c        ****     pAmpCfg->SensorBias = 0.0;          // 传感器偏置0V（普鲁士蓝介体）
 210              		.loc 1 110 0
 211 00ee 1B4B     		ldr	r3, .L5
 212 00f0 1B68     		ldr	r3, [r3]
 213 00f2 0022     		movs	r2, #0
 214 00f4 1A66     		str	r2, [r3, #96]
 111:main.c        ****     
 112:main.c        ****     // 外部RTIA（不使用）
 113:main.c        ****     pAmpCfg->ExtRtia = bFALSE;
ARM GAS  C:\Users\13740\AppData\Local\Temp\ccgojbJm.s 			page 7


 215              		.loc 1 113 0
 216 00f6 194B     		ldr	r3, .L5
 217 00f8 1B68     		ldr	r3, [r3]
 218 00fa 6422     		movs	r2, #100
 219 00fc 0021     		movs	r1, #0
 220 00fe 9954     		strb	r1, [r3, r2]
 114:main.c        ****     pAmpCfg->ExtRtiaVal = 0.0;
 221              		.loc 1 114 0
 222 0100 164B     		ldr	r3, .L5
 223 0102 1B68     		ldr	r3, [r3]
 224 0104 0022     		movs	r2, #0
 225 0106 9A66     		str	r2, [r3, #104]
 115:main.c        ****     
 116:main.c        ****     pAmpCfg->AMPInited = bFALSE;
 226              		.loc 1 116 0
 227 0108 144B     		ldr	r3, .L5
 228 010a 1B68     		ldr	r3, [r3]
 229 010c 6C22     		movs	r2, #108
 230 010e 0021     		movs	r1, #0
 231 0110 9954     		strb	r1, [r3, r2]
 117:main.c        ****     pAmpCfg->StopRequired = bFALSE;
 232              		.loc 1 117 0
 233 0112 124B     		ldr	r3, .L5
 234 0114 1B68     		ldr	r3, [r3]
 235 0116 9822     		movs	r2, #152
 236 0118 0021     		movs	r1, #0
 237 011a 9954     		strb	r1, [r3, r2]
 118:main.c        ****     pAmpCfg->FifoDataCount = 0;
 238              		.loc 1 118 0
 239 011c 0F4B     		ldr	r3, .L5
 240 011e 1B68     		ldr	r3, [r3]
 241 0120 9C22     		movs	r2, #156
 242 0122 0021     		movs	r1, #0
 243 0124 9950     		str	r1, [r3, r2]
 119:main.c        ****     
 120:main.c        ****     // 步骤5: 初始化应用（使用缓冲区）
 121:main.c        ****     error = AppAMPInit(ampBuffer, 512);
 244              		.loc 1 121 0
 245 0126 8023     		movs	r3, #128
 246 0128 9A00     		lsls	r2, r3, #2
 247 012a 134B     		ldr	r3, .L5+28
 248 012c 1100     		movs	r1, r2
 249 012e 1800     		movs	r0, r3
 250 0130 FFF7FEFF 		bl	AppAMPInit
 251 0134 0300     		movs	r3, r0
 252 0136 7B60     		str	r3, [r7, #4]
 122:main.c        ****     
 123:main.c        ****     if(error == AD5940ERR_OK)
 253              		.loc 1 123 0
 254 0138 7B68     		ldr	r3, [r7, #4]
 255 013a 002B     		cmp	r3, #0
 256 013c 04D1     		bne	.L2
 124:main.c        ****     {
 125:main.c        ****         DBG_PRINTF("AD5941初始化成功\r\n");
 257              		.loc 1 125 0
 258 013e 0F4B     		ldr	r3, .L5+32
 259 0140 1800     		movs	r0, r3
ARM GAS  C:\Users\13740\AppData\Local\Temp\ccgojbJm.s 			page 8


 260 0142 FFF7FEFF 		bl	puts
 126:main.c        ****     }
 127:main.c        ****     else
 128:main.c        ****     {
 129:main.c        ****         DBG_PRINTF("AD5941初始化失败: %d\r\n", error);
 130:main.c        ****     }
 131:main.c        **** }
 261              		.loc 1 131 0
 262 0146 05E0     		b	.L4
 263              	.L2:
 129:main.c        ****     }
 264              		.loc 1 129 0
 265 0148 7A68     		ldr	r2, [r7, #4]
 266 014a 0D4B     		ldr	r3, .L5+36
 267 014c 1100     		movs	r1, r2
 268 014e 1800     		movs	r0, r3
 269 0150 FFF7FEFF 		bl	printf
 270              	.L4:
 271              		.loc 1 131 0
 272 0154 C046     		nop
 273 0156 BD46     		mov	sp, r7
 274 0158 02B0     		add	sp, sp, #8
 275              		@ sp needed
 276 015a 80BD     		pop	{r7, pc}
 277              	.L6:
 278              		.align	2
 279              	.L5:
 280 015c 00000000 		.word	pAmpCfg
 281 0160 0024744B 		.word	1265902592
 282 0164 0000FA46 		.word	1190789120
 283 0168 00002041 		.word	1092616192
 284 016c 00401C46 		.word	1176256512
 285 0170 C3F5E83F 		.word	1072231875
 286 0174 00808944 		.word	1149861888
 287 0178 00000000 		.word	ampBuffer
 288 017c 00000000 		.word	.LC2
 289 0180 18000000 		.word	.LC4
 290              		.cfi_endproc
 291              	.LFE36:
 292              		.size	AD5941_Initialize, .-AD5941_Initialize
 293              		.section	.rodata
 294              		.align	2
 295              	.LC6:
 296 0034 E6B58BE9 		.ascii	"\346\265\213\351\207\217\344\274\240\346\204\237\345"
 296      878FE4BC 
 296      A0E6849F 
 296      E5
 297 0041 99A82025 		.ascii	"\231\250 %d...\015\012\000"
 297      642E2E2E 
 297      0D0A00
 298              		.align	2
 299              	.LC8:
 300 004c 2020E590 		.ascii	"  \345\220\257\345\212\250\346\265\213\351\207\217\345"
 300      AFE58AA8 
 300      E6B58BE9 
 300      878FE5
 301 005b A4B1E8B4 		.ascii	"\244\261\350\264\245: %d\015\012\000"
ARM GAS  C:\Users\13740\AppData\Local\Temp\ccgojbJm.s 			page 9


 301      A53A2025 
 301      640D0A00 
 302              		.global	__aeabi_fmul
 303              		.global	__aeabi_f2d
 304 0067 00       		.align	2
 305              	.LC11:
 306 0068 2020E794 		.ascii	"  \347\224\265\346\265\201\345\200\274: %.2f nA\015"
 306      B5E6B581 
 306      E580BC3A 
 306      20252E32 
 306      66206E41 
 307 007d 0A00     		.ascii	"\012\000"
 308 007f 00       		.align	2
 309              	.LC13:
 310 0080 2020E6B5 		.ascii	"  \346\265\213\351\207\217\345\244\261\350\264\245\346"
 310      8BE9878F 
 310      E5A4B1E8 
 310      B4A5E6
 311 008f 8896E697 		.ascii	"\210\226\346\227\240\346\225\260\346\215\256: error"
 311      A0E695B0 
 311      E68DAE3A 
 311      20657272 
 311      6F72
 312 00a1 3D25642C 		.ascii	"=%d, count=%d\015\012\000"
 312      20636F75 
 312      6E743D25 
 312      640D0A00 
 313              		.section	.text.MeasureAmperometricSensor,"ax",%progbits
 314              		.align	2
 315              		.global	MeasureAmperometricSensor
 316              		.code	16
 317              		.thumb_func
 318              		.type	MeasureAmperometricSensor, %function
 319              	MeasureAmperometricSensor:
 320              	.LFB37:
 132:main.c        **** 
 133:main.c        **** /*******************************************************************************
 134:main.c        **** * Function Name: MeasureAmperometricSensor
 135:main.c        **** ********************************************************************************
 136:main.c        **** * Summary:
 137:main.c        **** *   测量安培法传感器 - 修复后版本
 138:main.c        **** *   不使用AMux，直接使用AD5941的WE0/WE1/WE2通道
 139:main.c        **** *******************************************************************************/
 140:main.c        **** float MeasureAmperometricSensor(AmperometricSensor_t sensorType)
 141:main.c        **** {
 321              		.loc 1 141 0
 322              		.cfi_startproc
 323              		@ args = 0, pretend = 0, frame = 24
 324              		@ frame_needed = 1, uses_anonymous_args = 0
 325 0000 90B5     		push	{r4, r7, lr}
 326              		.cfi_def_cfa_offset 12
 327              		.cfi_offset 4, -12
 328              		.cfi_offset 7, -8
 329              		.cfi_offset 14, -4
 330 0002 87B0     		sub	sp, sp, #28
 331              		.cfi_def_cfa_offset 40
 332 0004 00AF     		add	r7, sp, #0
ARM GAS  C:\Users\13740\AppData\Local\Temp\ccgojbJm.s 			page 10


 333              		.cfi_def_cfa_register 7
 334 0006 0200     		movs	r2, r0
 335 0008 FB1D     		adds	r3, r7, #7
 336 000a 1A70     		strb	r2, [r3]
 142:main.c        ****     float current_uA = 0;
 337              		.loc 1 142 0
 338 000c 0023     		movs	r3, #0
 339 000e 7B61     		str	r3, [r7, #20]
 143:main.c        ****     uint32_t dataCount = 0;
 340              		.loc 1 143 0
 341 0010 0023     		movs	r3, #0
 342 0012 FB60     		str	r3, [r7, #12]
 144:main.c        ****     AD5940Err error;
 145:main.c        ****     
 146:main.c        ****     DBG_PRINTF("测量传感器 %d...\r\n", sensorType);
 343              		.loc 1 146 0
 344 0014 FB1D     		adds	r3, r7, #7
 345 0016 1A78     		ldrb	r2, [r3]
 346 0018 264B     		ldr	r3, .L13
 347 001a 1100     		movs	r1, r2
 348 001c 1800     		movs	r0, r3
 349 001e FFF7FEFF 		bl	printf
 147:main.c        ****     
 148:main.c        ****     // 注意：如果不使用AMux，AD5941会使用默认的WE0通道
 149:main.c        ****     // 如果需要切换WE通道，需要在配置中修改
 150:main.c        ****     
 151:main.c        ****     // 启动测量
 152:main.c        ****     error = AppAMPCtrl(AMPCTRL_START, NULL);
 350              		.loc 1 152 0
 351 0022 0021     		movs	r1, #0
 352 0024 0020     		movs	r0, #0
 353 0026 FFF7FEFF 		bl	AppAMPCtrl
 354 002a 0300     		movs	r3, r0
 355 002c 3B61     		str	r3, [r7, #16]
 153:main.c        ****     if(error != AD5940ERR_OK)
 356              		.loc 1 153 0
 357 002e 3B69     		ldr	r3, [r7, #16]
 358 0030 002B     		cmp	r3, #0
 359 0032 07D0     		beq	.L8
 154:main.c        ****     {
 155:main.c        ****         DBG_PRINTF("  启动测量失败: %d\r\n", error);
 360              		.loc 1 155 0
 361 0034 3A69     		ldr	r2, [r7, #16]
 362 0036 204B     		ldr	r3, .L13+4
 363 0038 1100     		movs	r1, r2
 364 003a 1800     		movs	r0, r3
 365 003c FFF7FEFF 		bl	printf
 156:main.c        ****         return 0;
 366              		.loc 1 156 0
 367 0040 0023     		movs	r3, #0
 368 0042 32E0     		b	.L12
 369              	.L8:
 157:main.c        ****     }
 158:main.c        ****     
 159:main.c        ****     // 等待测量稳定（安培法需要500ms）
 160:main.c        ****     CyDelay(500);
 370              		.loc 1 160 0
ARM GAS  C:\Users\13740\AppData\Local\Temp\ccgojbJm.s 			page 11


 371 0044 FA23     		movs	r3, #250
 372 0046 5B00     		lsls	r3, r3, #1
 373 0048 1800     		movs	r0, r3
 374 004a FFF7FEFF 		bl	CyDelay
 161:main.c        ****     
 162:main.c        ****     // 读取FIFO数据
 163:main.c        ****     error = AppAMPISR(&ampResult, &dataCount);
 375              		.loc 1 163 0
 376 004e 0C23     		movs	r3, #12
 377 0050 FA18     		adds	r2, r7, r3
 378 0052 1A4B     		ldr	r3, .L13+8
 379 0054 1100     		movs	r1, r2
 380 0056 1800     		movs	r0, r3
 381 0058 FFF7FEFF 		bl	AppAMPISR
 382 005c 0300     		movs	r3, r0
 383 005e 3B61     		str	r3, [r7, #16]
 164:main.c        ****     
 165:main.c        ****     if(error == AD5940ERR_OK && dataCount > 0)
 384              		.loc 1 165 0
 385 0060 3B69     		ldr	r3, [r7, #16]
 386 0062 002B     		cmp	r3, #0
 387 0064 16D1     		bne	.L10
 388              		.loc 1 165 0 is_stmt 0 discriminator 1
 389 0066 FB68     		ldr	r3, [r7, #12]
 390 0068 002B     		cmp	r3, #0
 391 006a 13D0     		beq	.L10
 166:main.c        ****     {
 167:main.c        ****         // 获取电流值（fAmpRes_Type结构体中的Current成员）
 168:main.c        ****         current_uA = ampResult.Current * 1000.0;  // 转换为nA
 392              		.loc 1 168 0 is_stmt 1
 393 006c 134B     		ldr	r3, .L13+8
 394 006e 1B68     		ldr	r3, [r3]
 395 0070 1349     		ldr	r1, .L13+12
 396 0072 181C     		adds	r0, r3, #0
 397 0074 FFF7FEFF 		bl	__aeabi_fmul
 398 0078 031C     		adds	r3, r0, #0
 399 007a 7B61     		str	r3, [r7, #20]
 169:main.c        ****         DBG_PRINTF("  电流值: %.2f nA\r\n", current_uA);
 400              		.loc 1 169 0
 401 007c 7869     		ldr	r0, [r7, #20]
 402 007e FFF7FEFF 		bl	__aeabi_f2d
 403 0082 0300     		movs	r3, r0
 404 0084 0C00     		movs	r4, r1
 405 0086 0F49     		ldr	r1, .L13+16
 406 0088 1A00     		movs	r2, r3
 407 008a 2300     		movs	r3, r4
 408 008c 0800     		movs	r0, r1
 409 008e FFF7FEFF 		bl	printf
 410 0092 05E0     		b	.L11
 411              	.L10:
 170:main.c        ****     }
 171:main.c        ****     else
 172:main.c        ****     {
 173:main.c        ****         DBG_PRINTF("  测量失败或无数据: error=%d, count=%d\r\n", error, dataCount);
 412              		.loc 1 173 0
 413 0094 FA68     		ldr	r2, [r7, #12]
 414 0096 3969     		ldr	r1, [r7, #16]
ARM GAS  C:\Users\13740\AppData\Local\Temp\ccgojbJm.s 			page 12


 415 0098 0B4B     		ldr	r3, .L13+20
 416 009a 1800     		movs	r0, r3
 417 009c FFF7FEFF 		bl	printf
 418              	.L11:
 174:main.c        ****     }
 175:main.c        ****     
 176:main.c        ****     // 停止测量
 177:main.c        ****     AppAMPCtrl(AMPCTRL_STOPNOW, NULL);
 419              		.loc 1 177 0
 420 00a0 0021     		movs	r1, #0
 421 00a2 0120     		movs	r0, #1
 422 00a4 FFF7FEFF 		bl	AppAMPCtrl
 178:main.c        ****     
 179:main.c        ****     return current_uA;
 423              		.loc 1 179 0
 424 00a8 7B69     		ldr	r3, [r7, #20]
 425              	.L12:
 180:main.c        **** }
 426              		.loc 1 180 0 discriminator 1
 427 00aa 181C     		adds	r0, r3, #0
 428 00ac BD46     		mov	sp, r7
 429 00ae 07B0     		add	sp, sp, #28
 430              		@ sp needed
 431 00b0 90BD     		pop	{r4, r7, pc}
 432              	.L14:
 433 00b2 C046     		.align	2
 434              	.L13:
 435 00b4 34000000 		.word	.LC6
 436 00b8 4C000000 		.word	.LC8
 437 00bc 00000000 		.word	ampResult
 438 00c0 00007A44 		.word	1148846080
 439 00c4 68000000 		.word	.LC11
 440 00c8 80000000 		.word	.LC13
 441              		.cfi_endproc
 442              	.LFE37:
 443              		.size	MeasureAmperometricSensor, .-MeasureAmperometricSensor
 444              		.global	__aeabi_ddiv
 445              		.global	__aeabi_d2f
 446              		.section	.text.ConvertCurrentToConcentration,"ax",%progbits
 447              		.align	2
 448              		.global	ConvertCurrentToConcentration
 449              		.code	16
 450              		.thumb_func
 451              		.type	ConvertCurrentToConcentration, %function
 452              	ConvertCurrentToConcentration:
 453              	.LFB38:
 181:main.c        **** 
 182:main.c        **** /*******************************************************************************
 183:main.c        **** * Function Name: ConvertCurrentToConcentration
 184:main.c        **** ********************************************************************************
 185:main.c        **** * Summary:
 186:main.c        **** *   将电流值转换为浓度（根据论文校准系数）
 187:main.c        **** *******************************************************************************/
 188:main.c        **** float ConvertCurrentToConcentration(float current_nA, AmperometricSensor_t sensorType)
 189:main.c        **** {
 454              		.loc 1 189 0
 455              		.cfi_startproc
ARM GAS  C:\Users\13740\AppData\Local\Temp\ccgojbJm.s 			page 13


 456              		@ args = 0, pretend = 0, frame = 16
 457              		@ frame_needed = 1, uses_anonymous_args = 0
 458 0000 90B5     		push	{r4, r7, lr}
 459              		.cfi_def_cfa_offset 12
 460              		.cfi_offset 4, -12
 461              		.cfi_offset 7, -8
 462              		.cfi_offset 14, -4
 463 0002 85B0     		sub	sp, sp, #20
 464              		.cfi_def_cfa_offset 32
 465 0004 00AF     		add	r7, sp, #0
 466              		.cfi_def_cfa_register 7
 467 0006 7860     		str	r0, [r7, #4]
 468 0008 0A00     		movs	r2, r1
 469 000a FB1C     		adds	r3, r7, #3
 470 000c 1A70     		strb	r2, [r3]
 190:main.c        ****     float concentration = 0;
 471              		.loc 1 190 0
 472 000e 0023     		movs	r3, #0
 473 0010 FB60     		str	r3, [r7, #12]
 191:main.c        ****     
 192:main.c        ****     switch(sensorType)
 474              		.loc 1 192 0
 475 0012 FB1C     		adds	r3, r7, #3
 476 0014 1B78     		ldrb	r3, [r3]
 477 0016 012B     		cmp	r3, #1
 478 0018 13D0     		beq	.L17
 479 001a 022B     		cmp	r3, #2
 480 001c 21D0     		beq	.L18
 481 001e 002B     		cmp	r3, #0
 482 0020 2FD1     		bne	.L22
 193:main.c        ****     {
 194:main.c        ****         case SENSOR_GLUCOSE:
 195:main.c        ****             concentration = current_nA / 16.34;  // 16.34 nA/mM
 483              		.loc 1 195 0
 484 0022 7868     		ldr	r0, [r7, #4]
 485 0024 FFF7FEFF 		bl	__aeabi_f2d
 486 0028 1A4A     		ldr	r2, .L23
 487 002a 1B4B     		ldr	r3, .L23+4
 488 002c FFF7FEFF 		bl	__aeabi_ddiv
 489 0030 0300     		movs	r3, r0
 490 0032 0C00     		movs	r4, r1
 491 0034 1800     		movs	r0, r3
 492 0036 2100     		movs	r1, r4
 493 0038 FFF7FEFF 		bl	__aeabi_d2f
 494 003c 031C     		adds	r3, r0, #0
 495 003e FB60     		str	r3, [r7, #12]
 196:main.c        ****             break;
 496              		.loc 1 196 0
 497 0040 22E0     		b	.L20
 498              	.L17:
 197:main.c        ****             
 198:main.c        ****         case SENSOR_LACTATE:
 199:main.c        ****             concentration = current_nA / 41.44;  // 41.44 nA/mM
 499              		.loc 1 199 0
 500 0042 7868     		ldr	r0, [r7, #4]
 501 0044 FFF7FEFF 		bl	__aeabi_f2d
 502 0048 144A     		ldr	r2, .L23+8
ARM GAS  C:\Users\13740\AppData\Local\Temp\ccgojbJm.s 			page 14


 503 004a 154B     		ldr	r3, .L23+12
 504 004c FFF7FEFF 		bl	__aeabi_ddiv
 505 0050 0300     		movs	r3, r0
 506 0052 0C00     		movs	r4, r1
 507 0054 1800     		movs	r0, r3
 508 0056 2100     		movs	r1, r4
 509 0058 FFF7FEFF 		bl	__aeabi_d2f
 510 005c 031C     		adds	r3, r0, #0
 511 005e FB60     		str	r3, [r7, #12]
 200:main.c        ****             break;
 512              		.loc 1 200 0
 513 0060 12E0     		b	.L20
 514              	.L18:
 201:main.c        ****             
 202:main.c        ****         case SENSOR_URIC_ACID:
 203:main.c        ****             concentration = current_nA / 189.60; // 189.60 nA/μM
 515              		.loc 1 203 0
 516 0062 7868     		ldr	r0, [r7, #4]
 517 0064 FFF7FEFF 		bl	__aeabi_f2d
 518 0068 0E4A     		ldr	r2, .L23+16
 519 006a 0F4B     		ldr	r3, .L23+20
 520 006c FFF7FEFF 		bl	__aeabi_ddiv
 521 0070 0300     		movs	r3, r0
 522 0072 0C00     		movs	r4, r1
 523 0074 1800     		movs	r0, r3
 524 0076 2100     		movs	r1, r4
 525 0078 FFF7FEFF 		bl	__aeabi_d2f
 526 007c 031C     		adds	r3, r0, #0
 527 007e FB60     		str	r3, [r7, #12]
 204:main.c        ****             break;
 528              		.loc 1 204 0
 529 0080 02E0     		b	.L20
 530              	.L22:
 205:main.c        ****             
 206:main.c        ****         default:
 207:main.c        ****             concentration = 0;
 531              		.loc 1 207 0
 532 0082 0023     		movs	r3, #0
 533 0084 FB60     		str	r3, [r7, #12]
 208:main.c        ****             break;
 534              		.loc 1 208 0
 535 0086 C046     		nop
 536              	.L20:
 209:main.c        ****     }
 210:main.c        ****     
 211:main.c        ****     return concentration;
 537              		.loc 1 211 0
 538 0088 FB68     		ldr	r3, [r7, #12]
 212:main.c        **** }
 539              		.loc 1 212 0
 540 008a 181C     		adds	r0, r3, #0
 541 008c BD46     		mov	sp, r7
 542 008e 05B0     		add	sp, sp, #20
 543              		@ sp needed
 544 0090 90BD     		pop	{r4, r7, pc}
 545              	.L24:
 546 0092 C046     		.align	2
ARM GAS  C:\Users\13740\AppData\Local\Temp\ccgojbJm.s 			page 15


 547              	.L23:
 548 0094 D7A3703D 		.word	1030792151
 549 0098 0A573040 		.word	1076909834
 550 009c B81E85EB 		.word	-343597384
 551 00a0 51B84440 		.word	1078245457
 552 00a4 33333333 		.word	858993459
 553 00a8 33B36740 		.word	1080537907
 554              		.cfi_endproc
 555              	.LFE38:
 556              		.size	ConvertCurrentToConcentration, .-ConvertCurrentToConcentration
 557              		.section	.rodata
 558 00b1 000000   		.align	2
 559              	.LC15:
 560 00b4 E6B58BE9 		.ascii	"\346\265\213\351\207\217\346\270\251\345\272\246..."
 560      878FE6B8 
 560      A9E5BAA6 
 560      2E2E2E
 561 00c3 0D00     		.ascii	"\015\000"
 562 00c5 000000   		.align	2
 563              	.LC17:
 564 00c8 2020E6B8 		.ascii	"  \346\270\251\345\272\246: %.2f \302\260C\015\012\000"
 564      A9E5BAA6 
 564      3A20252E 
 564      326620C2 
 564      B0430D0A 
 565              		.section	.text.MeasureTemperature,"ax",%progbits
 566              		.align	2
 567              		.global	MeasureTemperature
 568              		.code	16
 569              		.thumb_func
 570              		.type	MeasureTemperature, %function
 571              	MeasureTemperature:
 572              	.LFB39:
 213:main.c        **** 
 214:main.c        **** /*******************************************************************************
 215:main.c        **** * Function Name: MeasureTemperature
 216:main.c        **** ********************************************************************************
 217:main.c        **** * Summary:
 218:main.c        **** *   使用AD5940的ADC测量温度传感器
 219:main.c        **** *   替代PSoC的ADC模块
 220:main.c        **** *******************************************************************************/
 221:main.c        **** float MeasureTemperature(void)
 222:main.c        **** {
 573              		.loc 1 222 0
 574              		.cfi_startproc
 575              		@ args = 0, pretend = 0, frame = 8
 576              		@ frame_needed = 1, uses_anonymous_args = 0
 577 0000 90B5     		push	{r4, r7, lr}
 578              		.cfi_def_cfa_offset 12
 579              		.cfi_offset 4, -12
 580              		.cfi_offset 7, -8
 581              		.cfi_offset 14, -4
 582 0002 83B0     		sub	sp, sp, #12
 583              		.cfi_def_cfa_offset 24
 584 0004 00AF     		add	r7, sp, #0
 585              		.cfi_def_cfa_register 7
 223:main.c        ****     float temperature = 25.0;  // 默认室温
ARM GAS  C:\Users\13740\AppData\Local\Temp\ccgojbJm.s 			page 16


 586              		.loc 1 223 0
 587 0006 0C4B     		ldr	r3, .L27
 588 0008 7B60     		str	r3, [r7, #4]
 224:main.c        ****     uint32_t adcCode;
 225:main.c        ****     float voltage, resistance;
 226:main.c        ****     
 227:main.c        ****     DBG_PRINTF("测量温度...\r\n");
 589              		.loc 1 227 0
 590 000a 0C4B     		ldr	r3, .L27+4
 591 000c 1800     		movs	r0, r3
 592 000e FFF7FEFF 		bl	puts
 228:main.c        ****     
 229:main.c        ****     // 方法1: 使用AD5940的辅助ADC（AUX ADC）测量温度传感器
 230:main.c        ****     // 注意：需要配置AD5940的GPIO或者AUX输入来连接温度传感器
 231:main.c        ****     
 232:main.c        ****     // 这里提供一个简化的实现
 233:main.c        ****     // 实际应用中，你需要：
 234:main.c        ****     // 1. 配置AD5940的GPIO/AUX为ADC输入
 235:main.c        ****     // 2. 读取ADC值
 236:main.c        ****     // 3. 转换为温度
 237:main.c        ****     
 238:main.c        ****     // 示例代码（需要根据实际硬件调整）:
 239:main.c        ****     /*
 240:main.c        ****     AD5940_StructInit(&ADCInit, sizeof(ADCInit));
 241:main.c        ****     ADCInit.ADCMuxP = ADCMUXP_AIN2;  // 假设温度传感器连接到AIN2
 242:main.c        ****     ADCInit.ADCMuxN = ADCMUXN_VSET1P1;
 243:main.c        ****     AD5940_ADCInit(&ADCInit);
 244:main.c        ****     
 245:main.c        ****     AD5940_ADCStart();
 246:main.c        ****     CyDelay(10);
 247:main.c        ****     adcCode = AD5940_ReadADC();
 248:main.c        ****     
 249:main.c        ****     voltage = (adcCode * 1.82) / 32768.0;  // 转换为电压
 250:main.c        ****     resistance = 1000.0 * voltage / (3.3 - voltage);  // 假设分压电路
 251:main.c        ****     temperature = 25.0 + (resistance - 1000.0) / (1000.0 * 0.0021);
 252:main.c        ****     */
 253:main.c        ****     
 254:main.c        ****     // 临时方案：从系统读取或使用固定值
 255:main.c        ****     temperature = 37.0;  // 假设体温
 593              		.loc 1 255 0
 594 0012 0B4B     		ldr	r3, .L27+8
 595 0014 7B60     		str	r3, [r7, #4]
 256:main.c        ****     
 257:main.c        ****     DBG_PRINTF("  温度: %.2f °C\r\n", temperature);
 596              		.loc 1 257 0
 597 0016 7868     		ldr	r0, [r7, #4]
 598 0018 FFF7FEFF 		bl	__aeabi_f2d
 599 001c 0300     		movs	r3, r0
 600 001e 0C00     		movs	r4, r1
 601 0020 0849     		ldr	r1, .L27+12
 602 0022 1A00     		movs	r2, r3
 603 0024 2300     		movs	r3, r4
 604 0026 0800     		movs	r0, r1
 605 0028 FFF7FEFF 		bl	printf
 258:main.c        ****     
 259:main.c        ****     return temperature;
 606              		.loc 1 259 0
ARM GAS  C:\Users\13740\AppData\Local\Temp\ccgojbJm.s 			page 17


 607 002c 7B68     		ldr	r3, [r7, #4]
 260:main.c        **** }
 608              		.loc 1 260 0
 609 002e 181C     		adds	r0, r3, #0
 610 0030 BD46     		mov	sp, r7
 611 0032 03B0     		add	sp, sp, #12
 612              		@ sp needed
 613 0034 90BD     		pop	{r4, r7, pc}
 614              	.L28:
 615 0036 C046     		.align	2
 616              	.L27:
 617 0038 0000C841 		.word	1103626240
 618 003c B4000000 		.word	.LC15
 619 0040 00001442 		.word	1108606976
 620 0044 C8000000 		.word	.LC17
 621              		.cfi_endproc
 622              	.LFE39:
 623              		.size	MeasureTemperature, .-MeasureTemperature
 624              		.section	.rodata
 625 00dd 000000   		.align	2
 626              	.LC19:
 627 00e0 0D0A3D3D 		.ascii	"\015\012========== \345\274\200\345\247\213\344\274"
 627      3D3D3D3D 
 627      3D3D3D3D 
 627      20E5BC80 
 627      E5A78BE4 
 628 00f5 A0E6849F 		.ascii	"\240\346\204\237\345\231\250\346\265\213\351\207\217"
 628      E599A8E6 
 628      B58BE987 
 628      8F
 629 0102 203D3D3D 		.ascii	" ==========\015\000"
 629      3D3D3D3D 
 629      3D3D3D0D 
 629      00
 630 010f 00       		.align	2
 631              	.LC22:
 632 0110 2020E891 		.ascii	"  \350\221\241\350\220\204\347\263\226: %.2f mM\015"
 632      A1E89084 
 632      E7B3963A 
 632      20252E32 
 632      66206D4D 
 633 0125 0A00     		.ascii	"\012\000"
 634 0127 00       		.align	2
 635              	.LC24:
 636 0128 2020E4B9 		.ascii	"  \344\271\263\351\205\270: %.2f mM\015\012\000"
 636      B3E985B8 
 636      3A20252E 
 636      3266206D 
 636      4D0D0A00 
 637              		.align	2
 638              	.LC26:
 639 013c 2020E5B0 		.ascii	"  \345\260\277\351\205\270: %.2f \316\274M\015\012\000"
 639      BFE985B8 
 639      3A20252E 
 639      326620CE 
 639      BC4D0D0A 
 640              		.global	__aeabi_dsub
ARM GAS  C:\Users\13740\AppData\Local\Temp\ccgojbJm.s 			page 18


 641              		.global	__aeabi_dmul
 642              		.global	__aeabi_dadd
 643 0151 000000   		.align	2
 644              	.LC29:
 645 0154 3D3D3D3D 		.ascii	"========== \346\265\213\351\207\217\345\256\214\346"
 645      3D3D3D3D 
 645      3D3D20E6 
 645      B58BE987 
 645      8FE5AE8C 
 646 0169 8890203D 		.ascii	"\210\220 ==========\015\012\015\000"
 646      3D3D3D3D 
 646      3D3D3D3D 
 646      3D0D0A0D 
 646      00
 647              		.section	.text.MeasureAllSensors,"ax",%progbits
 648              		.align	2
 649              		.global	MeasureAllSensors
 650              		.code	16
 651              		.thumb_func
 652              		.type	MeasureAllSensors, %function
 653              	MeasureAllSensors:
 654              	.LFB40:
 261:main.c        **** 
 262:main.c        **** /*******************************************************************************
 263:main.c        **** * Function Name: MeasureAllSensors
 264:main.c        **** ********************************************************************************
 265:main.c        **** * Summary:
 266:main.c        **** *   测量所有传感器（4路：温度 + 3个安培法）
 267:main.c        **** *******************************************************************************/
 268:main.c        **** void MeasureAllSensors(void)
 269:main.c        **** {
 655              		.loc 1 269 0
 656              		.cfi_startproc
 657              		@ args = 0, pretend = 0, frame = 8
 658              		@ frame_needed = 1, uses_anonymous_args = 0
 659 0000 90B5     		push	{r4, r7, lr}
 660              		.cfi_def_cfa_offset 12
 661              		.cfi_offset 4, -12
 662              		.cfi_offset 7, -8
 663              		.cfi_offset 14, -4
 664 0002 83B0     		sub	sp, sp, #12
 665              		.cfi_def_cfa_offset 24
 666 0004 00AF     		add	r7, sp, #0
 667              		.cfi_def_cfa_register 7
 270:main.c        ****     float current_nA;
 271:main.c        ****     
 272:main.c        ****     DBG_PRINTF("\r\n========== 开始传感器测量 ==========\r\n");
 668              		.loc 1 272 0
 669 0006 514B     		ldr	r3, .L30
 670 0008 1800     		movs	r0, r3
 671 000a FFF7FEFF 		bl	puts
 273:main.c        ****     
 274:main.c        ****     // 1. 温度测量
 275:main.c        ****     sensorData.temperature = MeasureTemperature();
 672              		.loc 1 275 0
 673 000e FFF7FEFF 		bl	MeasureTemperature
 674 0012 021C     		adds	r2, r0, #0
ARM GAS  C:\Users\13740\AppData\Local\Temp\ccgojbJm.s 			page 19


 675 0014 4E4B     		ldr	r3, .L30+4
 676 0016 1A60     		str	r2, [r3]
 276:main.c        ****     
 277:main.c        ****     // 2. 葡萄糖测量
 278:main.c        ****     current_nA = MeasureAmperometricSensor(SENSOR_GLUCOSE);
 677              		.loc 1 278 0
 678 0018 0020     		movs	r0, #0
 679 001a FFF7FEFF 		bl	MeasureAmperometricSensor
 680 001e 031C     		adds	r3, r0, #0
 681 0020 7B60     		str	r3, [r7, #4]
 279:main.c        ****     sensorData.glucose = ConvertCurrentToConcentration(current_nA, SENSOR_GLUCOSE);
 682              		.loc 1 279 0
 683 0022 7B68     		ldr	r3, [r7, #4]
 684 0024 0021     		movs	r1, #0
 685 0026 181C     		adds	r0, r3, #0
 686 0028 FFF7FEFF 		bl	ConvertCurrentToConcentration
 687 002c 021C     		adds	r2, r0, #0
 688 002e 484B     		ldr	r3, .L30+4
 689 0030 5A60     		str	r2, [r3, #4]
 280:main.c        ****     DBG_PRINTF("  葡萄糖: %.2f mM\r\n", sensorData.glucose);
 690              		.loc 1 280 0
 691 0032 474B     		ldr	r3, .L30+4
 692 0034 5B68     		ldr	r3, [r3, #4]
 693 0036 181C     		adds	r0, r3, #0
 694 0038 FFF7FEFF 		bl	__aeabi_f2d
 695 003c 0300     		movs	r3, r0
 696 003e 0C00     		movs	r4, r1
 697 0040 4449     		ldr	r1, .L30+8
 698 0042 1A00     		movs	r2, r3
 699 0044 2300     		movs	r3, r4
 700 0046 0800     		movs	r0, r1
 701 0048 FFF7FEFF 		bl	printf
 281:main.c        ****     
 282:main.c        ****     // 3. 乳酸测量
 283:main.c        ****     current_nA = MeasureAmperometricSensor(SENSOR_LACTATE);
 702              		.loc 1 283 0
 703 004c 0120     		movs	r0, #1
 704 004e FFF7FEFF 		bl	MeasureAmperometricSensor
 705 0052 031C     		adds	r3, r0, #0
 706 0054 7B60     		str	r3, [r7, #4]
 284:main.c        ****     sensorData.lactate = ConvertCurrentToConcentration(current_nA, SENSOR_LACTATE);
 707              		.loc 1 284 0
 708 0056 7B68     		ldr	r3, [r7, #4]
 709 0058 0121     		movs	r1, #1
 710 005a 181C     		adds	r0, r3, #0
 711 005c FFF7FEFF 		bl	ConvertCurrentToConcentration
 712 0060 021C     		adds	r2, r0, #0
 713 0062 3B4B     		ldr	r3, .L30+4
 714 0064 9A60     		str	r2, [r3, #8]
 285:main.c        ****     DBG_PRINTF("  乳酸: %.2f mM\r\n", sensorData.lactate);
 715              		.loc 1 285 0
 716 0066 3A4B     		ldr	r3, .L30+4
 717 0068 9B68     		ldr	r3, [r3, #8]
 718 006a 181C     		adds	r0, r3, #0
 719 006c FFF7FEFF 		bl	__aeabi_f2d
 720 0070 0300     		movs	r3, r0
 721 0072 0C00     		movs	r4, r1
ARM GAS  C:\Users\13740\AppData\Local\Temp\ccgojbJm.s 			page 20


 722 0074 3849     		ldr	r1, .L30+12
 723 0076 1A00     		movs	r2, r3
 724 0078 2300     		movs	r3, r4
 725 007a 0800     		movs	r0, r1
 726 007c FFF7FEFF 		bl	printf
 286:main.c        ****     
 287:main.c        ****     // 4. 尿酸测量
 288:main.c        ****     current_nA = MeasureAmperometricSensor(SENSOR_URIC_ACID);
 727              		.loc 1 288 0
 728 0080 0220     		movs	r0, #2
 729 0082 FFF7FEFF 		bl	MeasureAmperometricSensor
 730 0086 031C     		adds	r3, r0, #0
 731 0088 7B60     		str	r3, [r7, #4]
 289:main.c        ****     sensorData.uric_acid = ConvertCurrentToConcentration(current_nA, SENSOR_URIC_ACID);
 732              		.loc 1 289 0
 733 008a 7B68     		ldr	r3, [r7, #4]
 734 008c 0221     		movs	r1, #2
 735 008e 181C     		adds	r0, r3, #0
 736 0090 FFF7FEFF 		bl	ConvertCurrentToConcentration
 737 0094 021C     		adds	r2, r0, #0
 738 0096 2E4B     		ldr	r3, .L30+4
 739 0098 DA60     		str	r2, [r3, #12]
 290:main.c        ****     DBG_PRINTF("  尿酸: %.2f μM\r\n", sensorData.uric_acid);
 740              		.loc 1 290 0
 741 009a 2D4B     		ldr	r3, .L30+4
 742 009c DB68     		ldr	r3, [r3, #12]
 743 009e 181C     		adds	r0, r3, #0
 744 00a0 FFF7FEFF 		bl	__aeabi_f2d
 745 00a4 0300     		movs	r3, r0
 746 00a6 0C00     		movs	r4, r1
 747 00a8 2C49     		ldr	r1, .L30+16
 748 00aa 1A00     		movs	r2, r3
 749 00ac 2300     		movs	r3, r4
 750 00ae 0800     		movs	r0, r1
 751 00b0 FFF7FEFF 		bl	printf
 291:main.c        ****     
 292:main.c        ****     // 温度校准（论文中的温度补偿算法）
 293:main.c        ****     float temp_factor = 1.0 + 0.03 * (sensorData.temperature - 37.0);
 752              		.loc 1 293 0
 753 00b4 264B     		ldr	r3, .L30+4
 754 00b6 1B68     		ldr	r3, [r3]
 755 00b8 181C     		adds	r0, r3, #0
 756 00ba FFF7FEFF 		bl	__aeabi_f2d
 757 00be 0022     		movs	r2, #0
 758 00c0 274B     		ldr	r3, .L30+20
 759 00c2 FFF7FEFF 		bl	__aeabi_dsub
 760 00c6 0300     		movs	r3, r0
 761 00c8 0C00     		movs	r4, r1
 762 00ca 1800     		movs	r0, r3
 763 00cc 2100     		movs	r1, r4
 764 00ce 254A     		ldr	r2, .L30+24
 765 00d0 254B     		ldr	r3, .L30+28
 766 00d2 FFF7FEFF 		bl	__aeabi_dmul
 767 00d6 0300     		movs	r3, r0
 768 00d8 0C00     		movs	r4, r1
 769 00da 1800     		movs	r0, r3
 770 00dc 2100     		movs	r1, r4
ARM GAS  C:\Users\13740\AppData\Local\Temp\ccgojbJm.s 			page 21


 771 00de 0022     		movs	r2, #0
 772 00e0 224B     		ldr	r3, .L30+32
 773 00e2 FFF7FEFF 		bl	__aeabi_dadd
 774 00e6 0300     		movs	r3, r0
 775 00e8 0C00     		movs	r4, r1
 776 00ea 1800     		movs	r0, r3
 777 00ec 2100     		movs	r1, r4
 778 00ee FFF7FEFF 		bl	__aeabi_d2f
 779 00f2 031C     		adds	r3, r0, #0
 780 00f4 3B60     		str	r3, [r7]
 294:main.c        ****     sensorData.glucose *= temp_factor;
 781              		.loc 1 294 0
 782 00f6 164B     		ldr	r3, .L30+4
 783 00f8 5B68     		ldr	r3, [r3, #4]
 784 00fa 3968     		ldr	r1, [r7]
 785 00fc 181C     		adds	r0, r3, #0
 786 00fe FFF7FEFF 		bl	__aeabi_fmul
 787 0102 031C     		adds	r3, r0, #0
 788 0104 1A1C     		adds	r2, r3, #0
 789 0106 124B     		ldr	r3, .L30+4
 790 0108 5A60     		str	r2, [r3, #4]
 295:main.c        ****     sensorData.lactate *= temp_factor;
 791              		.loc 1 295 0
 792 010a 114B     		ldr	r3, .L30+4
 793 010c 9B68     		ldr	r3, [r3, #8]
 794 010e 3968     		ldr	r1, [r7]
 795 0110 181C     		adds	r0, r3, #0
 796 0112 FFF7FEFF 		bl	__aeabi_fmul
 797 0116 031C     		adds	r3, r0, #0
 798 0118 1A1C     		adds	r2, r3, #0
 799 011a 0D4B     		ldr	r3, .L30+4
 800 011c 9A60     		str	r2, [r3, #8]
 296:main.c        ****     sensorData.uric_acid *= temp_factor;
 801              		.loc 1 296 0
 802 011e 0C4B     		ldr	r3, .L30+4
 803 0120 DB68     		ldr	r3, [r3, #12]
 804 0122 3968     		ldr	r1, [r7]
 805 0124 181C     		adds	r0, r3, #0
 806 0126 FFF7FEFF 		bl	__aeabi_fmul
 807 012a 031C     		adds	r3, r0, #0
 808 012c 1A1C     		adds	r2, r3, #0
 809 012e 084B     		ldr	r3, .L30+4
 810 0130 DA60     		str	r2, [r3, #12]
 297:main.c        ****     
 298:main.c        ****     sensorData.timestamp = mainTimer;
 811              		.loc 1 298 0
 812 0132 0F4B     		ldr	r3, .L30+36
 813 0134 1A68     		ldr	r2, [r3]
 814 0136 064B     		ldr	r3, .L30+4
 815 0138 1A61     		str	r2, [r3, #16]
 299:main.c        ****     
 300:main.c        ****     DBG_PRINTF("========== 测量完成 ==========\r\n\r\n");
 816              		.loc 1 300 0
 817 013a 0E4B     		ldr	r3, .L30+40
 818 013c 1800     		movs	r0, r3
 819 013e FFF7FEFF 		bl	puts
 301:main.c        **** }
ARM GAS  C:\Users\13740\AppData\Local\Temp\ccgojbJm.s 			page 22


 820              		.loc 1 301 0
 821 0142 C046     		nop
 822 0144 BD46     		mov	sp, r7
 823 0146 03B0     		add	sp, sp, #12
 824              		@ sp needed
 825 0148 90BD     		pop	{r4, r7, pc}
 826              	.L31:
 827 014a C046     		.align	2
 828              	.L30:
 829 014c E0000000 		.word	.LC19
 830 0150 00000000 		.word	sensorData
 831 0154 10010000 		.word	.LC22
 832 0158 28010000 		.word	.LC24
 833 015c 3C010000 		.word	.LC26
 834 0160 00804240 		.word	1078099968
 835 0164 B81E85EB 		.word	-343597384
 836 0168 51B89E3F 		.word	1067366481
 837 016c 0000F03F 		.word	1072693248
 838 0170 00000000 		.word	mainTimer
 839 0174 54010000 		.word	.LC29
 840              		.cfi_endproc
 841              	.LFE40:
 842              		.size	MeasureAllSensors, .-MeasureAllSensors
 843              		.section	.rodata
 844 017a 0000     		.align	2
 845              	.LC31:
 846 017c E590AFE5 		.ascii	"\345\220\257\345\212\250\350\215\257\347\211\251\351"
 846      8AA8E88D 
 846      AFE789A9 
 846      E9
 847 0189 878AE694 		.ascii	"\207\212\346\224\276\015\000"
 847      BE0D00
 848              		.align	2
 849              	.LC33:
 850 0190 E5819CE6 		.ascii	"\345\201\234\346\255\242\350\215\257\347\211\251\351"
 850      ADA2E88D 
 850      AFE789A9 
 850      E9
 851 019d 878AE694 		.ascii	"\207\212\346\224\276\015\000"
 851      BE0D00
 852              		.section	.text.ControlDrugRelease,"ax",%progbits
 853              		.align	2
 854              		.global	ControlDrugRelease
 855              		.code	16
 856              		.thumb_func
 857              		.type	ControlDrugRelease, %function
 858              	ControlDrugRelease:
 859              	.LFB41:
 302:main.c        **** 
 303:main.c        **** /*******************************************************************************
 304:main.c        **** * Function Name: ControlDrugRelease
 305:main.c        **** ********************************************************************************
 306:main.c        **** * Summary:
 307:main.c        **** *   控制药物释放（电控水凝胶）
 308:main.c        **** *******************************************************************************/
 309:main.c        **** void ControlDrugRelease(uint8 enable)
 310:main.c        **** {
ARM GAS  C:\Users\13740\AppData\Local\Temp\ccgojbJm.s 			page 23


 860              		.loc 1 310 0
 861              		.cfi_startproc
 862              		@ args = 0, pretend = 0, frame = 8
 863              		@ frame_needed = 1, uses_anonymous_args = 0
 864 0000 80B5     		push	{r7, lr}
 865              		.cfi_def_cfa_offset 8
 866              		.cfi_offset 7, -8
 867              		.cfi_offset 14, -4
 868 0002 82B0     		sub	sp, sp, #8
 869              		.cfi_def_cfa_offset 16
 870 0004 00AF     		add	r7, sp, #0
 871              		.cfi_def_cfa_register 7
 872 0006 0200     		movs	r2, r0
 873 0008 FB1D     		adds	r3, r7, #7
 874 000a 1A70     		strb	r2, [r3]
 311:main.c        ****     if(enable)
 875              		.loc 1 311 0
 876 000c FB1D     		adds	r3, r7, #7
 877 000e 1B78     		ldrb	r3, [r3]
 878 0010 002B     		cmp	r3, #0
 879 0012 07D0     		beq	.L33
 312:main.c        ****     {
 313:main.c        ****         DBG_PRINTF("启动药物释放\r\n");
 880              		.loc 1 313 0
 881 0014 094B     		ldr	r3, .L36
 882 0016 1800     		movs	r0, r3
 883 0018 FFF7FEFF 		bl	puts
 314:main.c        ****         DRUG_EN_1_Write(1);
 884              		.loc 1 314 0
 885 001c 0120     		movs	r0, #1
 886 001e FFF7FEFF 		bl	DRUG_EN_1_Write
 315:main.c        ****     }
 316:main.c        ****     else
 317:main.c        ****     {
 318:main.c        ****         DBG_PRINTF("停止药物释放\r\n");
 319:main.c        ****         DRUG_EN_1_Write(0);
 320:main.c        ****     }
 321:main.c        **** }
 887              		.loc 1 321 0
 888 0022 06E0     		b	.L35
 889              	.L33:
 318:main.c        ****         DRUG_EN_1_Write(0);
 890              		.loc 1 318 0
 891 0024 064B     		ldr	r3, .L36+4
 892 0026 1800     		movs	r0, r3
 893 0028 FFF7FEFF 		bl	puts
 319:main.c        ****     }
 894              		.loc 1 319 0
 895 002c 0020     		movs	r0, #0
 896 002e FFF7FEFF 		bl	DRUG_EN_1_Write
 897              	.L35:
 898              		.loc 1 321 0
 899 0032 C046     		nop
 900 0034 BD46     		mov	sp, r7
 901 0036 02B0     		add	sp, sp, #8
 902              		@ sp needed
 903 0038 80BD     		pop	{r7, pc}
ARM GAS  C:\Users\13740\AppData\Local\Temp\ccgojbJm.s 			page 24


 904              	.L37:
 905 003a C046     		.align	2
 906              	.L36:
 907 003c 7C010000 		.word	.LC31
 908 0040 90010000 		.word	.LC33
 909              		.cfi_endproc
 910              	.LFE41:
 911              		.size	ControlDrugRelease, .-ControlDrugRelease
 912              		.section	.rodata
 913              		.align	2
 914              	.LC35:
 915 01a4 E590AFE5 		.ascii	"\345\220\257\345\212\250\347\224\265\345\210\272\346"
 915      8AA8E794 
 915      B5E588BA 
 915      E6
 916 01b1 BF800D00 		.ascii	"\277\200\015\000"
 917 01b5 000000   		.align	2
 918              	.LC37:
 919 01b8 E5819CE6 		.ascii	"\345\201\234\346\255\242\347\224\265\345\210\272\346"
 919      ADA2E794 
 919      B5E588BA 
 919      E6
 920 01c5 BF800D00 		.ascii	"\277\200\015\000"
 921              		.section	.text.ControlElectricalStimulation,"ax",%progbits
 922              		.align	2
 923              		.global	ControlElectricalStimulation
 924              		.code	16
 925              		.thumb_func
 926              		.type	ControlElectricalStimulation, %function
 927              	ControlElectricalStimulation:
 928              	.LFB42:
 322:main.c        **** 
 323:main.c        **** /*******************************************************************************
 324:main.c        **** * Function Name: ControlElectricalStimulation
 325:main.c        **** ********************************************************************************
 326:main.c        **** * Summary:
 327:main.c        **** *   控制电刺激治疗
 328:main.c        **** *******************************************************************************/
 329:main.c        **** void ControlElectricalStimulation(uint8 enable)
 330:main.c        **** {
 929              		.loc 1 330 0
 930              		.cfi_startproc
 931              		@ args = 0, pretend = 0, frame = 8
 932              		@ frame_needed = 1, uses_anonymous_args = 0
 933 0000 80B5     		push	{r7, lr}
 934              		.cfi_def_cfa_offset 8
 935              		.cfi_offset 7, -8
 936              		.cfi_offset 14, -4
 937 0002 82B0     		sub	sp, sp, #8
 938              		.cfi_def_cfa_offset 16
 939 0004 00AF     		add	r7, sp, #0
 940              		.cfi_def_cfa_register 7
 941 0006 0200     		movs	r2, r0
 942 0008 FB1D     		adds	r3, r7, #7
 943 000a 1A70     		strb	r2, [r3]
 331:main.c        ****     if(enable)
 944              		.loc 1 331 0
ARM GAS  C:\Users\13740\AppData\Local\Temp\ccgojbJm.s 			page 25


 945 000c FB1D     		adds	r3, r7, #7
 946 000e 1B78     		ldrb	r3, [r3]
 947 0010 002B     		cmp	r3, #0
 948 0012 07D0     		beq	.L39
 332:main.c        ****     {
 333:main.c        ****         DBG_PRINTF("启动电刺激\r\n");
 949              		.loc 1 333 0
 950 0014 094B     		ldr	r3, .L42
 951 0016 1800     		movs	r0, r3
 952 0018 FFF7FEFF 		bl	puts
 334:main.c        ****         STIM_EN_A_Write(1);
 953              		.loc 1 334 0
 954 001c 0120     		movs	r0, #1
 955 001e FFF7FEFF 		bl	STIM_EN_A_Write
 335:main.c        ****     }
 336:main.c        ****     else
 337:main.c        ****     {
 338:main.c        ****         DBG_PRINTF("停止电刺激\r\n");
 339:main.c        ****         STIM_EN_A_Write(0);
 340:main.c        ****     }
 341:main.c        **** }
 956              		.loc 1 341 0
 957 0022 06E0     		b	.L41
 958              	.L39:
 338:main.c        ****         STIM_EN_A_Write(0);
 959              		.loc 1 338 0
 960 0024 064B     		ldr	r3, .L42+4
 961 0026 1800     		movs	r0, r3
 962 0028 FFF7FEFF 		bl	puts
 339:main.c        ****     }
 963              		.loc 1 339 0
 964 002c 0020     		movs	r0, #0
 965 002e FFF7FEFF 		bl	STIM_EN_A_Write
 966              	.L41:
 967              		.loc 1 341 0
 968 0032 C046     		nop
 969 0034 BD46     		mov	sp, r7
 970 0036 02B0     		add	sp, sp, #8
 971              		@ sp needed
 972 0038 80BD     		pop	{r7, pc}
 973              	.L43:
 974 003a C046     		.align	2
 975              	.L42:
 976 003c A4010000 		.word	.LC35
 977 0040 B8010000 		.word	.LC37
 978              		.cfi_endproc
 979              	.LFE42:
 980              		.size	ControlElectricalStimulation, .-ControlElectricalStimulation
 981              		.section	.rodata
 982 01c9 000000   		.align	2
 983              	.LC46:
 984 01cc E695B0E6 		.ascii	"\346\225\260\346\215\256\345\267\262\345\217\221\351"
 984      8DAEE5B7 
 984      B2E58F91 
 984      E9
 985 01d9 80810D00 		.ascii	"\200\201\015\000"
 986              		.section	.text.SendDataViaBLE,"ax",%progbits
ARM GAS  C:\Users\13740\AppData\Local\Temp\ccgojbJm.s 			page 26


 987              		.align	2
 988              		.global	SendDataViaBLE
 989              		.code	16
 990              		.thumb_func
 991              		.type	SendDataViaBLE, %function
 992              	SendDataViaBLE:
 993              	.LFB43:
 342:main.c        **** 
 343:main.c        **** /*******************************************************************************
 344:main.c        **** * Function Name: SendDataViaBLE
 345:main.c        **** ********************************************************************************
 346:main.c        **** * Summary:
 347:main.c        **** *   通过BLE发送传感器数据
 348:main.c        **** *   数据包：[温度(4B)][葡萄糖(4B)][乳酸(4B)][尿酸(4B)] = 16字节
 349:main.c        **** *******************************************************************************/
 350:main.c        **** void SendDataViaBLE(void)
 351:main.c        **** {
 994              		.loc 1 351 0
 995              		.cfi_startproc
 996              		@ args = 0, pretend = 0, frame = 32
 997              		@ frame_needed = 1, uses_anonymous_args = 0
 998 0000 80B5     		push	{r7, lr}
 999              		.cfi_def_cfa_offset 8
 1000              		.cfi_offset 7, -8
 1001              		.cfi_offset 14, -4
 1002 0002 88B0     		sub	sp, sp, #32
 1003              		.cfi_def_cfa_offset 40
 1004 0004 00AF     		add	r7, sp, #0
 1005              		.cfi_def_cfa_register 7
 352:main.c        ****     CYBLE_GATTS_HANDLE_VALUE_NTF_T notificationHandle;
 353:main.c        ****     uint8 dataPacket[16];
 354:main.c        ****     
 355:main.c        ****     if(CyBle_GetState() == CYBLE_STATE_CONNECTED)
 1006              		.loc 1 355 0
 1007 0006 254B     		ldr	r3, .L47
 1008 0008 1B78     		ldrb	r3, [r3]
 1009 000a 022B     		cmp	r3, #2
 1010 000c 42D1     		bne	.L46
 356:main.c        ****     {
 357:main.c        ****         // 打包数据
 358:main.c        ****         memcpy(&dataPacket[0], &sensorData.temperature, 4);
 1011              		.loc 1 358 0
 1012 000e 2449     		ldr	r1, .L47+4
 1013 0010 3B1D     		adds	r3, r7, #4
 1014 0012 0422     		movs	r2, #4
 1015 0014 1800     		movs	r0, r3
 1016 0016 FFF7FEFF 		bl	memcpy
 359:main.c        ****         memcpy(&dataPacket[4], &sensorData.glucose, 4);
 1017              		.loc 1 359 0
 1018 001a 2249     		ldr	r1, .L47+8
 1019 001c 3B1D     		adds	r3, r7, #4
 1020 001e 0433     		adds	r3, r3, #4
 1021 0020 0422     		movs	r2, #4
 1022 0022 1800     		movs	r0, r3
 1023 0024 FFF7FEFF 		bl	memcpy
 360:main.c        ****         memcpy(&dataPacket[8], &sensorData.lactate, 4);
 1024              		.loc 1 360 0
ARM GAS  C:\Users\13740\AppData\Local\Temp\ccgojbJm.s 			page 27


 1025 0028 1F49     		ldr	r1, .L47+12
 1026 002a 3B1D     		adds	r3, r7, #4
 1027 002c 0833     		adds	r3, r3, #8
 1028 002e 0422     		movs	r2, #4
 1029 0030 1800     		movs	r0, r3
 1030 0032 FFF7FEFF 		bl	memcpy
 361:main.c        ****         memcpy(&dataPacket[12], &sensorData.uric_acid, 4);
 1031              		.loc 1 361 0
 1032 0036 1D49     		ldr	r1, .L47+16
 1033 0038 3B1D     		adds	r3, r7, #4
 1034 003a 0C33     		adds	r3, r3, #12
 1035 003c 0422     		movs	r2, #4
 1036 003e 1800     		movs	r0, r3
 1037 0040 FFF7FEFF 		bl	memcpy
 362:main.c        ****         
 363:main.c        ****         // 发送通知 - 使用自定义服务的葡萄糖测量特征句柄
 364:main.c        ****         notificationHandle.attrHandle = CYBLE_CUSTOM_SERVICE_GLUCOSE_MEASUREMENT_CHAR_HANDLE;
 1038              		.loc 1 364 0
 1039 0044 1423     		movs	r3, #20
 1040 0046 FB18     		adds	r3, r7, r3
 1041 0048 1622     		movs	r2, #22
 1042 004a 1A81     		strh	r2, [r3, #8]
 365:main.c        ****         notificationHandle.value.val = dataPacket;
 1043              		.loc 1 365 0
 1044 004c 1423     		movs	r3, #20
 1045 004e FB18     		adds	r3, r7, r3
 1046 0050 3A1D     		adds	r2, r7, #4
 1047 0052 1A60     		str	r2, [r3]
 366:main.c        ****         notificationHandle.value.len = 16;
 1048              		.loc 1 366 0
 1049 0054 1423     		movs	r3, #20
 1050 0056 FB18     		adds	r3, r7, r3
 1051 0058 1022     		movs	r2, #16
 1052 005a 9A80     		strh	r2, [r3, #4]
 367:main.c        ****         
 368:main.c        ****         apiResult = CyBle_GattsNotification(cyBle_connHandle, &notificationHandle);
 1053              		.loc 1 368 0
 1054 005c 1423     		movs	r3, #20
 1055 005e F918     		adds	r1, r7, r3
 1056 0060 134B     		ldr	r3, .L47+20
 1057 0062 1A78     		ldrb	r2, [r3]
 1058 0064 5B78     		ldrb	r3, [r3, #1]
 1059 0066 1B02     		lsls	r3, r3, #8
 1060 0068 1A43     		orrs	r2, r3
 1061 006a 0023     		movs	r3, #0
 1062 006c 1204     		lsls	r2, r2, #16
 1063 006e 120C     		lsrs	r2, r2, #16
 1064 0070 1B0C     		lsrs	r3, r3, #16
 1065 0072 1B04     		lsls	r3, r3, #16
 1066 0074 1343     		orrs	r3, r2
 1067 0076 1800     		movs	r0, r3
 1068 0078 FFF7FEFF 		bl	CyBle_GattsNotification
 1069 007c 0300     		movs	r3, r0
 1070 007e 1A00     		movs	r2, r3
 1071 0080 0C4B     		ldr	r3, .L47+24
 1072 0082 1A80     		strh	r2, [r3]
 369:main.c        ****         
ARM GAS  C:\Users\13740\AppData\Local\Temp\ccgojbJm.s 			page 28


 370:main.c        ****         if(apiResult == CYBLE_ERROR_OK)
 1073              		.loc 1 370 0
 1074 0084 0B4B     		ldr	r3, .L47+24
 1075 0086 1B88     		ldrh	r3, [r3]
 1076 0088 002B     		cmp	r3, #0
 1077 008a 03D1     		bne	.L46
 371:main.c        ****         {
 372:main.c        ****             DBG_PRINTF("数据已发送\r\n");
 1078              		.loc 1 372 0
 1079 008c 0A4B     		ldr	r3, .L47+28
 1080 008e 1800     		movs	r0, r3
 1081 0090 FFF7FEFF 		bl	puts
 1082              	.L46:
 373:main.c        ****         }
 374:main.c        ****     }
 375:main.c        **** }
 1083              		.loc 1 375 0
 1084 0094 C046     		nop
 1085 0096 BD46     		mov	sp, r7
 1086 0098 08B0     		add	sp, sp, #32
 1087              		@ sp needed
 1088 009a 80BD     		pop	{r7, pc}
 1089              	.L48:
 1090              		.align	2
 1091              	.L47:
 1092 009c 00000000 		.word	cyBle_state
 1093 00a0 00000000 		.word	sensorData
 1094 00a4 04000000 		.word	sensorData+4
 1095 00a8 08000000 		.word	sensorData+8
 1096 00ac 0C000000 		.word	sensorData+12
 1097 00b0 00000000 		.word	cyBle_connHandle
 1098 00b4 00000000 		.word	apiResult
 1099 00b8 CC010000 		.word	.LC46
 1100              		.cfi_endproc
 1101              	.LFE43:
 1102              		.size	SendDataViaBLE, .-SendDataViaBLE
 1103              		.section	.text.Timer_Interrupt,"ax",%progbits
 1104              		.align	2
 1105              		.global	Timer_Interrupt
 1106              		.code	16
 1107              		.thumb_func
 1108              		.type	Timer_Interrupt, %function
 1109              	Timer_Interrupt:
 1110              	.LFB44:
 376:main.c        **** /*******************************************************************************
 377:main.c        **** * Function Name: Timer_Interrupt
 378:main.c        **** ********************************************************************************
 379:main.c        **** * Summary:
 380:main.c        **** *   定时器中断 - 每秒触发一次
 381:main.c        **** *******************************************************************************/
 382:main.c        **** CY_ISR(Timer_Interrupt)
 383:main.c        **** {
 1111              		.loc 1 383 0
 1112              		.cfi_startproc
 1113              		@ args = 0, pretend = 0, frame = 0
 1114              		@ frame_needed = 1, uses_anonymous_args = 0
 1115 0000 80B5     		push	{r7, lr}
ARM GAS  C:\Users\13740\AppData\Local\Temp\ccgojbJm.s 			page 29


 1116              		.cfi_def_cfa_offset 8
 1117              		.cfi_offset 7, -8
 1118              		.cfi_offset 14, -4
 1119 0002 00AF     		add	r7, sp, #0
 1120              		.cfi_def_cfa_register 7
 384:main.c        ****     static uint8 led = LED_OFF;
 385:main.c        ****     
 386:main.c        ****     if(CYBLE_STATE_ADVERTISING == CyBle_GetState())
 1121              		.loc 1 386 0
 1122 0004 0D4B     		ldr	r3, .L51
 1123 0006 1B78     		ldrb	r3, [r3]
 1124 0008 032B     		cmp	r3, #3
 1125 000a 0BD1     		bne	.L50
 387:main.c        ****     {
 388:main.c        ****         led ^= LED_OFF;
 1126              		.loc 1 388 0
 1127 000c 0C4B     		ldr	r3, .L51+4
 1128 000e 1B78     		ldrb	r3, [r3]
 1129 0010 0122     		movs	r2, #1
 1130 0012 5340     		eors	r3, r2
 1131 0014 DAB2     		uxtb	r2, r3
 1132 0016 0A4B     		ldr	r3, .L51+4
 1133 0018 1A70     		strb	r2, [r3]
 389:main.c        ****         Advertising_LED_Write(led);
 1134              		.loc 1 389 0
 1135 001a 094B     		ldr	r3, .L51+4
 1136 001c 1B78     		ldrb	r3, [r3]
 1137 001e 1800     		movs	r0, r3
 1138 0020 FFF7FEFF 		bl	Advertising_LED_Write
 1139              	.L50:
 390:main.c        ****     }
 391:main.c        ****     
 392:main.c        ****     mainTimer++;
 1140              		.loc 1 392 0
 1141 0024 074B     		ldr	r3, .L51+8
 1142 0026 1B68     		ldr	r3, [r3]
 1143 0028 5A1C     		adds	r2, r3, #1
 1144 002a 064B     		ldr	r3, .L51+8
 1145 002c 1A60     		str	r2, [r3]
 393:main.c        ****     measurementFlag = 1;  // 每秒设置测量标志
 1146              		.loc 1 393 0
 1147 002e 064B     		ldr	r3, .L51+12
 1148 0030 0122     		movs	r2, #1
 1149 0032 1A70     		strb	r2, [r3]
 394:main.c        **** }
 1150              		.loc 1 394 0
 1151 0034 C046     		nop
 1152 0036 BD46     		mov	sp, r7
 1153              		@ sp needed
 1154 0038 80BD     		pop	{r7, pc}
 1155              	.L52:
 1156 003a C046     		.align	2
 1157              	.L51:
 1158 003c 00000000 		.word	cyBle_state
 1159 0040 00000000 		.word	led.9696
 1160 0044 00000000 		.word	mainTimer
 1161 0048 00000000 		.word	measurementFlag
ARM GAS  C:\Users\13740\AppData\Local\Temp\ccgojbJm.s 			page 30


 1162              		.cfi_endproc
 1163              	.LFE44:
 1164              		.size	Timer_Interrupt, .-Timer_Interrupt
 1165              		.section	.rodata
 1166 01dd 000000   		.align	2
 1167              	.LC52:
 1168 01e0 424C45E5 		.ascii	"BLE\345\215\217\350\256\256\346\240\210\345\220\257"
 1168      8D8FE8AE 
 1168      AEE6A088 
 1168      E590AF
 1169 01ef E58AA80D 		.ascii	"\345\212\250\015\000"
 1169      00
 1170              		.align	2
 1171              	.LC54:
 1172 01f4 E8AEBEE5 		.ascii	"\350\256\276\345\244\207\345\267\262\350\277\236\346"
 1172      A487E5B7 
 1172      B2E8BF9E 
 1172      E6
 1173 0201 8EA50D00 		.ascii	"\216\245\015\000"
 1174 0205 000000   		.align	2
 1175              	.LC56:
 1176 0208 E8AEBEE5 		.ascii	"\350\256\276\345\244\207\345\267\262\346\226\255\345"
 1176      A487E5B7 
 1176      B2E696AD 
 1176      E5
 1177 0215 BC800D00 		.ascii	"\274\200\015\000"
 1178 0219 000000   		.align	2
 1179              	.LC59:
 1180 021c E7AD89E5 		.ascii	"\347\255\211\345\276\205Flash\345\206\231\345\205\245"
 1180      BE85466C 
 1180      617368E5 
 1180      8699E585 
 1180      A5
 1181 022d 0D00     		.ascii	"\015\000"
 1182              		.section	.text.AppCallBack,"ax",%progbits
 1183              		.align	2
 1184              		.global	AppCallBack
 1185              		.code	16
 1186              		.thumb_func
 1187              		.type	AppCallBack, %function
 1188              	AppCallBack:
 1189              	.LFB45:
 395:main.c        **** 
 396:main.c        **** /*******************************************************************************
 397:main.c        **** * Function Name: AppCallBack
 398:main.c        **** ********************************************************************************
 399:main.c        **** * Summary:
 400:main.c        **** *   BLE事件回调函数
 401:main.c        **** *******************************************************************************/
 402:main.c        **** void AppCallBack(uint32 event, void* eventParam)
 403:main.c        **** {
 1190              		.loc 1 403 0
 1191              		.cfi_startproc
 1192              		@ args = 0, pretend = 0, frame = 8
 1193              		@ frame_needed = 1, uses_anonymous_args = 0
 1194 0000 80B5     		push	{r7, lr}
 1195              		.cfi_def_cfa_offset 8
ARM GAS  C:\Users\13740\AppData\Local\Temp\ccgojbJm.s 			page 31


 1196              		.cfi_offset 7, -8
 1197              		.cfi_offset 14, -4
 1198 0002 82B0     		sub	sp, sp, #8
 1199              		.cfi_def_cfa_offset 16
 1200 0004 00AF     		add	r7, sp, #0
 1201              		.cfi_def_cfa_register 7
 1202 0006 7860     		str	r0, [r7, #4]
 1203 0008 3960     		str	r1, [r7]
 404:main.c        ****     uint16 i;
 405:main.c        ****     
 406:main.c        ****     switch(event)
 1204              		.loc 1 406 0
 1205 000a 7B68     		ldr	r3, [r7, #4]
 1206 000c 272B     		cmp	r3, #39
 1207 000e 11D0     		beq	.L55
 1208 0010 04D8     		bhi	.L56
 1209 0012 012B     		cmp	r3, #1
 1210 0014 07D0     		beq	.L57
 1211 0016 262B     		cmp	r3, #38
 1212 0018 1ED0     		beq	.L58
 407:main.c        ****     {
 408:main.c        ****         case CYBLE_EVT_STACK_ON:
 409:main.c        ****             DBG_PRINTF("BLE协议栈启动\r\n");
 410:main.c        ****             StartAdvertisement();
 411:main.c        ****             break;
 412:main.c        **** 
 413:main.c        ****         case CYBLE_EVT_GAP_DEVICE_CONNECTED:
 414:main.c        ****             DBG_PRINTF("设备已连接\r\n");
 415:main.c        ****             Advertising_LED_Write(LED_OFF);
 416:main.c        ****             break;
 417:main.c        **** 
 418:main.c        ****         case CYBLE_EVT_GAP_DEVICE_DISCONNECTED:
 419:main.c        ****             DBG_PRINTF("设备已断开\r\n");
 420:main.c        ****             StartAdvertisement();
 421:main.c        ****             LowPower_LED_Write(LED_OFF);
 422:main.c        ****             break;
 423:main.c        ****             
 424:main.c        ****         case CYBLE_EVT_GAPP_ADVERTISEMENT_START_STOP:
 425:main.c        ****             if(CYBLE_STATE_DISCONNECTED == CyBle_GetState())
 426:main.c        ****             {
 427:main.c        ****                 Advertising_LED_Write(LED_OFF);
 428:main.c        ****                 Disconnect_LED_Write(LED_ON);
 429:main.c        ****                 LowPower_LED_Write(LED_OFF);
 430:main.c        ****                 
 431:main.c        ****                 // 清除中断并进入休眠
 432:main.c        ****                 AD5940_EXTI_ClearInterrupt();
 433:main.c        ****                 AD5940_Interrupt_ClearPending();
 434:main.c        ****                 AD5940_Interrupt_Start();
 435:main.c        ****                 CySysPmHibernate();
 436:main.c        ****             }
 437:main.c        ****             break;
 438:main.c        **** 
 439:main.c        ****         case CYBLE_EVT_PENDING_FLASH_WRITE:
 440:main.c        ****             DBG_PRINTF("等待Flash写入\r\n");
 441:main.c        ****             break;
 442:main.c        **** 
 443:main.c        ****         default:
ARM GAS  C:\Users\13740\AppData\Local\Temp\ccgojbJm.s 			page 32


 444:main.c        ****             break;
 1213              		.loc 1 444 0
 1214 001a 39E0     		b	.L61
 1215              	.L56:
 406:main.c        ****     {
 1216              		.loc 1 406 0
 1217 001c 282B     		cmp	r3, #40
 1218 001e 11D0     		beq	.L59
 1219 0020 FA2B     		cmp	r3, #250
 1220 0022 2FD0     		beq	.L60
 1221              		.loc 1 444 0
 1222 0024 34E0     		b	.L61
 1223              	.L57:
 409:main.c        ****             StartAdvertisement();
 1224              		.loc 1 409 0
 1225 0026 1C4B     		ldr	r3, .L64
 1226 0028 1800     		movs	r0, r3
 1227 002a FFF7FEFF 		bl	puts
 410:main.c        ****             break;
 1228              		.loc 1 410 0
 1229 002e FFF7FEFF 		bl	StartAdvertisement
 411:main.c        **** 
 1230              		.loc 1 411 0
 1231 0032 2DE0     		b	.L61
 1232              	.L55:
 414:main.c        ****             Advertising_LED_Write(LED_OFF);
 1233              		.loc 1 414 0
 1234 0034 194B     		ldr	r3, .L64+4
 1235 0036 1800     		movs	r0, r3
 1236 0038 FFF7FEFF 		bl	puts
 415:main.c        ****             break;
 1237              		.loc 1 415 0
 1238 003c 0120     		movs	r0, #1
 1239 003e FFF7FEFF 		bl	Advertising_LED_Write
 416:main.c        **** 
 1240              		.loc 1 416 0
 1241 0042 25E0     		b	.L61
 1242              	.L59:
 419:main.c        ****             StartAdvertisement();
 1243              		.loc 1 419 0
 1244 0044 164B     		ldr	r3, .L64+8
 1245 0046 1800     		movs	r0, r3
 1246 0048 FFF7FEFF 		bl	puts
 420:main.c        ****             LowPower_LED_Write(LED_OFF);
 1247              		.loc 1 420 0
 1248 004c FFF7FEFF 		bl	StartAdvertisement
 421:main.c        ****             break;
 1249              		.loc 1 421 0
 1250 0050 0120     		movs	r0, #1
 1251 0052 FFF7FEFF 		bl	LowPower_LED_Write
 422:main.c        ****             
 1252              		.loc 1 422 0
 1253 0056 1BE0     		b	.L61
 1254              	.L58:
 425:main.c        ****             {
 1255              		.loc 1 425 0
 1256 0058 124B     		ldr	r3, .L64+12
ARM GAS  C:\Users\13740\AppData\Local\Temp\ccgojbJm.s 			page 33


 1257 005a 1B78     		ldrb	r3, [r3]
 1258 005c 042B     		cmp	r3, #4
 1259 005e 16D1     		bne	.L63
 427:main.c        ****                 Disconnect_LED_Write(LED_ON);
 1260              		.loc 1 427 0
 1261 0060 0120     		movs	r0, #1
 1262 0062 FFF7FEFF 		bl	Advertising_LED_Write
 428:main.c        ****                 LowPower_LED_Write(LED_OFF);
 1263              		.loc 1 428 0
 1264 0066 0020     		movs	r0, #0
 1265 0068 FFF7FEFF 		bl	Disconnect_LED_Write
 429:main.c        ****                 
 1266              		.loc 1 429 0
 1267 006c 0120     		movs	r0, #1
 1268 006e FFF7FEFF 		bl	LowPower_LED_Write
 432:main.c        ****                 AD5940_Interrupt_ClearPending();
 1269              		.loc 1 432 0
 1270 0072 FFF7FEFF 		bl	AD5940_EXTI_ClearInterrupt
 433:main.c        ****                 AD5940_Interrupt_Start();
 1271              		.loc 1 433 0
 1272 0076 FFF7FEFF 		bl	AD5940_Interrupt_ClearPending
 434:main.c        ****                 CySysPmHibernate();
 1273              		.loc 1 434 0
 1274 007a FFF7FEFF 		bl	AD5940_Interrupt_Start
 435:main.c        ****             }
 1275              		.loc 1 435 0
 1276 007e FFF7FEFF 		bl	CySysPmHibernate
 437:main.c        **** 
 1277              		.loc 1 437 0
 1278 0082 04E0     		b	.L63
 1279              	.L60:
 440:main.c        ****             break;
 1280              		.loc 1 440 0
 1281 0084 084B     		ldr	r3, .L64+16
 1282 0086 1800     		movs	r0, r3
 1283 0088 FFF7FEFF 		bl	puts
 441:main.c        **** 
 1284              		.loc 1 441 0
 1285 008c 00E0     		b	.L61
 1286              	.L63:
 437:main.c        **** 
 1287              		.loc 1 437 0
 1288 008e C046     		nop
 1289              	.L61:
 445:main.c        ****     }
 446:main.c        **** }
 1290              		.loc 1 446 0
 1291 0090 C046     		nop
 1292 0092 BD46     		mov	sp, r7
 1293 0094 02B0     		add	sp, sp, #8
 1294              		@ sp needed
 1295 0096 80BD     		pop	{r7, pc}
 1296              	.L65:
 1297              		.align	2
 1298              	.L64:
 1299 0098 E0010000 		.word	.LC52
 1300 009c F4010000 		.word	.LC54
ARM GAS  C:\Users\13740\AppData\Local\Temp\ccgojbJm.s 			page 34


 1301 00a0 08020000 		.word	.LC56
 1302 00a4 00000000 		.word	cyBle_state
 1303 00a8 1C020000 		.word	.LC59
 1304              		.cfi_endproc
 1305              	.LFE45:
 1306              		.size	AppCallBack, .-AppCallBack
 1307              		.section	.text.LowPowerImplementation,"ax",%progbits
 1308              		.align	2
 1309              		.code	16
 1310              		.thumb_func
 1311              		.type	LowPowerImplementation, %function
 1312              	LowPowerImplementation:
 1313              	.LFB46:
 447:main.c        **** 
 448:main.c        **** /*******************************************************************************
 449:main.c        **** * Function Name: LowPowerImplementation
 450:main.c        **** ********************************************************************************
 451:main.c        **** * Summary:
 452:main.c        **** *   低功耗实现
 453:main.c        **** *******************************************************************************/
 454:main.c        **** static void LowPowerImplementation(void)
 455:main.c        **** {
 1314              		.loc 1 455 0
 1315              		.cfi_startproc
 1316              		@ args = 0, pretend = 0, frame = 8
 1317              		@ frame_needed = 1, uses_anonymous_args = 0
 1318 0000 90B5     		push	{r4, r7, lr}
 1319              		.cfi_def_cfa_offset 12
 1320              		.cfi_offset 4, -12
 1321              		.cfi_offset 7, -8
 1322              		.cfi_offset 14, -4
 1323 0002 83B0     		sub	sp, sp, #12
 1324              		.cfi_def_cfa_offset 24
 1325 0004 00AF     		add	r7, sp, #0
 1326              		.cfi_def_cfa_register 7
 456:main.c        ****     CYBLE_LP_MODE_T bleMode;
 457:main.c        ****     uint8 interruptStatus;
 458:main.c        ****     
 459:main.c        ****     if((CyBle_GetState() == CYBLE_STATE_ADVERTISING) || 
 1327              		.loc 1 459 0
 1328 0006 1A4B     		ldr	r3, .L74
 1329 0008 1B78     		ldrb	r3, [r3]
 1330 000a 032B     		cmp	r3, #3
 1331 000c 03D0     		beq	.L67
 460:main.c        ****        (CyBle_GetState() == CYBLE_STATE_CONNECTED))
 1332              		.loc 1 460 0 discriminator 1
 1333 000e 184B     		ldr	r3, .L74
 1334 0010 1B78     		ldrb	r3, [r3]
 459:main.c        ****        (CyBle_GetState() == CYBLE_STATE_CONNECTED))
 1335              		.loc 1 459 0 discriminator 1
 1336 0012 022B     		cmp	r3, #2
 1337 0014 27D1     		bne	.L73
 1338              	.L67:
 461:main.c        ****     {
 462:main.c        ****         bleMode = CyBle_EnterLPM(CYBLE_BLESS_DEEPSLEEP);
 1339              		.loc 1 462 0
 1340 0016 FC1D     		adds	r4, r7, #7
ARM GAS  C:\Users\13740\AppData\Local\Temp\ccgojbJm.s 			page 35


 1341 0018 0320     		movs	r0, #3
 1342 001a FFF7FEFF 		bl	CyBle_EnterLPM
 1343 001e 0300     		movs	r3, r0
 1344 0020 2370     		strb	r3, [r4]
 463:main.c        ****         interruptStatus = CyEnterCriticalSection();
 1345              		.loc 1 463 0
 1346 0022 BC1D     		adds	r4, r7, #6
 1347 0024 FFF7FEFF 		bl	CyEnterCriticalSection
 1348 0028 0300     		movs	r3, r0
 1349 002a 2370     		strb	r3, [r4]
 464:main.c        ****         
 465:main.c        ****         if(bleMode == CYBLE_BLESS_DEEPSLEEP)
 1350              		.loc 1 465 0
 1351 002c FB1D     		adds	r3, r7, #7
 1352 002e 1B78     		ldrb	r3, [r3]
 1353 0030 032B     		cmp	r3, #3
 1354 0032 0CD1     		bne	.L69
 466:main.c        ****         {
 467:main.c        ****             if((CyBle_GetBleSsState() == CYBLE_BLESS_STATE_ECO_ON) || 
 1355              		.loc 1 467 0
 1356 0034 FFF7FEFF 		bl	CyBle_GetBleSsState
 1357 0038 0300     		movs	r3, r0
 1358 003a 042B     		cmp	r3, #4
 1359 003c 04D0     		beq	.L70
 468:main.c        ****                (CyBle_GetBleSsState() == CYBLE_BLESS_STATE_DEEPSLEEP))
 1360              		.loc 1 468 0 discriminator 1
 1361 003e FFF7FEFF 		bl	CyBle_GetBleSsState
 1362 0042 0300     		movs	r3, r0
 467:main.c        ****                (CyBle_GetBleSsState() == CYBLE_BLESS_STATE_DEEPSLEEP))
 1363              		.loc 1 467 0 discriminator 1
 1364 0044 062B     		cmp	r3, #6
 1365 0046 09D1     		bne	.L72
 1366              	.L70:
 469:main.c        ****             {
 470:main.c        ****                 CySysPmDeepSleep();
 1367              		.loc 1 470 0
 1368 0048 FFF7FEFF 		bl	CySysPmDeepSleep
 1369 004c 06E0     		b	.L72
 1370              	.L69:
 471:main.c        ****             }
 472:main.c        ****         }
 473:main.c        ****         else
 474:main.c        ****         {
 475:main.c        ****             if(CyBle_GetBleSsState() != CYBLE_BLESS_STATE_EVENT_CLOSE)
 1371              		.loc 1 475 0
 1372 004e FFF7FEFF 		bl	CyBle_GetBleSsState
 1373 0052 0300     		movs	r3, r0
 1374 0054 022B     		cmp	r3, #2
 1375 0056 01D0     		beq	.L72
 476:main.c        ****             {
 477:main.c        ****                 CySysPmSleep();
 1376              		.loc 1 477 0
 1377 0058 FFF7FEFF 		bl	CySysPmSleep
 1378              	.L72:
 478:main.c        ****             }
 479:main.c        ****         }
 480:main.c        ****         
ARM GAS  C:\Users\13740\AppData\Local\Temp\ccgojbJm.s 			page 36


 481:main.c        ****         CyExitCriticalSection(interruptStatus);
 1379              		.loc 1 481 0
 1380 005c BB1D     		adds	r3, r7, #6
 1381 005e 1B78     		ldrb	r3, [r3]
 1382 0060 1800     		movs	r0, r3
 1383 0062 FFF7FEFF 		bl	CyExitCriticalSection
 1384              	.L73:
 482:main.c        ****     }
 483:main.c        **** }
 1385              		.loc 1 483 0
 1386 0066 C046     		nop
 1387 0068 BD46     		mov	sp, r7
 1388 006a 03B0     		add	sp, sp, #12
 1389              		@ sp needed
 1390 006c 90BD     		pop	{r4, r7, pc}
 1391              	.L75:
 1392 006e C046     		.align	2
 1393              	.L74:
 1394 0070 00000000 		.word	cyBle_state
 1395              		.cfi_endproc
 1396              	.LFE46:
 1397              		.size	LowPowerImplementation, .-LowPowerImplementation
 1398              		.section	.rodata
 1399 022f 00       		.align	2
 1400              	.LC62:
 1401 0230 E590AFE5 		.ascii	"\345\220\257\345\212\250BLE...\015\000"
 1401      8AA8424C 
 1401      452E2E2E 
 1401      0D00
 1402 023e 0000     		.align	2
 1403              	.LC66:
 1404 0240 424C45E5 		.ascii	"BLE\345\220\257\345\212\250\345\244\261\350\264\245"
 1404      90AFE58A 
 1404      A8E5A4B1 
 1404      E8B4A5
 1405 024f 3A202564 		.ascii	": %d\015\012\000"
 1405      0D0A00
 1406 0256 0000     		.align	2
 1407              	.LC68:
 1408 0258 E5889DE5 		.ascii	"\345\210\235\345\247\213\345\214\226AD5941...\015\000"
 1408      A78BE58C 
 1408      96414435 
 1408      3934312E 
 1408      2E2E0D00 
 1409              		.align	2
 1410              	.LC71:
 1411 026c E7B3BBE7 		.ascii	"\347\263\273\347\273\237\345\210\235\345\247\213\345"
 1411      BB9FE588 
 1411      9DE5A78B 
 1411      E5
 1412 0279 8C96E5AE 		.ascii	"\214\226\345\256\214\346\210\220\015\012\015\000"
 1412      8CE68890 
 1412      0D0A0D00 
 1413              		.global	__aeabi_fcmpgt
 1414 0285 000000   		.align	2
 1415              	.LC76:
 1416 0288 5BE8ADA6 		.ascii	"[\350\255\246\345\221\212] \346\243\200\346\265\213"
ARM GAS  C:\Users\13740\AppData\Local\Temp\ccgojbJm.s 			page 37


 1416      E5918A5D 
 1416      20E6A380 
 1416      E6B58B
 1417 0297 E588B0E5 		.ascii	"\345\210\260\345\274\202\345\270\270\357\274\214\345"
 1417      BC82E5B8 
 1417      B8EFBC8C 
 1417      E5
 1418 02a4 90AFE58A 		.ascii	"\220\257\345\212\250\350\215\257\347\211\251\351\207"
 1418      A8E88DAF 
 1418      E789A9E9 
 1418      87
 1419 02b1 8AE694BE 		.ascii	"\212\346\224\276\015\000"
 1419      0D00
 1420              		.section	.text.main,"ax",%progbits
 1421              		.align	2
 1422              		.global	main
 1423              		.code	16
 1424              		.thumb_func
 1425              		.type	main, %function
 1426              	main:
 1427              	.LFB47:
 484:main.c        **** 
 485:main.c        **** /*******************************************************************************
 486:main.c        **** * Function Name: main
 487:main.c        **** ********************************************************************************
 488:main.c        **** * Summary:
 489:main.c        **** *   主函数
 490:main.c        **** *******************************************************************************/
 491:main.c        **** int main()
 492:main.c        **** {
 1428              		.loc 1 492 0
 1429              		.cfi_startproc
 1430              		@ args = 0, pretend = 0, frame = 0
 1431              		@ frame_needed = 1, uses_anonymous_args = 0
 1432 0000 80B5     		push	{r7, lr}
 1433              		.cfi_def_cfa_offset 8
 1434              		.cfi_offset 7, -8
 1435              		.cfi_offset 14, -4
 1436 0002 00AF     		add	r7, sp, #0
 1437              		.cfi_def_cfa_register 7
 493:main.c        ****     CyGlobalIntEnable;
 1438              		.loc 1 493 0
 1439              		.syntax divided
 1440              	@ 493 "main.c" 1
 1441 0004 62B6     		CPSIE   i
 1442              	@ 0 "" 2
 494:main.c        ****     
 495:main.c        ****     // 初始化LED
 496:main.c        ****     Disconnect_LED_Write(LED_OFF);
 1443              		.loc 1 496 0
 1444              		.thumb
 1445              		.syntax unified
 1446 0006 0120     		movs	r0, #1
 1447 0008 FFF7FEFF 		bl	Disconnect_LED_Write
 497:main.c        ****     Advertising_LED_Write(LED_OFF);
 1448              		.loc 1 497 0
 1449 000c 0120     		movs	r0, #1
ARM GAS  C:\Users\13740\AppData\Local\Temp\ccgojbJm.s 			page 38


 1450 000e FFF7FEFF 		bl	Advertising_LED_Write
 498:main.c        ****     LowPower_LED_Write(LED_OFF);
 1451              		.loc 1 498 0
 1452 0012 0120     		movs	r0, #1
 1453 0014 FFF7FEFF 		bl	LowPower_LED_Write
 499:main.c        ****     
 500:main.c        ****     // 初始化BLE
 501:main.c        ****     DBG_PRINTF("启动BLE...\r\n");
 1454              		.loc 1 501 0
 1455 0018 454B     		ldr	r3, .L89
 1456 001a 1800     		movs	r0, r3
 1457 001c FFF7FEFF 		bl	puts
 502:main.c        ****     apiResult = CyBle_Start(AppCallBack);
 1458              		.loc 1 502 0
 1459 0020 444B     		ldr	r3, .L89+4
 1460 0022 1800     		movs	r0, r3
 1461 0024 FFF7FEFF 		bl	CyBle_Start
 1462 0028 0300     		movs	r3, r0
 1463 002a 1A00     		movs	r2, r3
 1464 002c 424B     		ldr	r3, .L89+8
 1465 002e 1A80     		strh	r2, [r3]
 503:main.c        ****     if(apiResult != CYBLE_ERROR_OK)
 1466              		.loc 1 503 0
 1467 0030 414B     		ldr	r3, .L89+8
 1468 0032 1B88     		ldrh	r3, [r3]
 1469 0034 002B     		cmp	r3, #0
 1470 0036 07D0     		beq	.L77
 504:main.c        ****     {
 505:main.c        ****         DBG_PRINTF("BLE启动失败: %d\r\n", apiResult);
 1471              		.loc 1 505 0
 1472 0038 3F4B     		ldr	r3, .L89+8
 1473 003a 1B88     		ldrh	r3, [r3]
 1474 003c 1A00     		movs	r2, r3
 1475 003e 3F4B     		ldr	r3, .L89+12
 1476 0040 1100     		movs	r1, r2
 1477 0042 1800     		movs	r0, r3
 1478 0044 FFF7FEFF 		bl	printf
 1479              	.L77:
 506:main.c        ****     }
 507:main.c        ****     
 508:main.c        ****     // 初始化SPI
 509:main.c        ****     SPI_1_Start();
 1480              		.loc 1 509 0
 1481 0048 FFF7FEFF 		bl	SPI_1_Start
 510:main.c        ****     CyDelay(10);
 1482              		.loc 1 510 0
 1483 004c 0A20     		movs	r0, #10
 1484 004e FFF7FEFF 		bl	CyDelay
 511:main.c        ****     
 512:main.c        ****     // 初始化AD5941
 513:main.c        ****     DBG_PRINTF("初始化AD5941...\r\n");
 1485              		.loc 1 513 0
 1486 0052 3B4B     		ldr	r3, .L89+16
 1487 0054 1800     		movs	r0, r3
 1488 0056 FFF7FEFF 		bl	puts
 514:main.c        ****     AD5941_Initialize();
 1489              		.loc 1 514 0
ARM GAS  C:\Users\13740\AppData\Local\Temp\ccgojbJm.s 			page 39


 1490 005a FFF7FEFF 		bl	AD5941_Initialize
 515:main.c        ****     
 516:main.c        ****     // 初始化控制引脚
 517:main.c        ****     DRUG_EN_1_Write(0);
 1491              		.loc 1 517 0
 1492 005e 0020     		movs	r0, #0
 1493 0060 FFF7FEFF 		bl	DRUG_EN_1_Write
 518:main.c        ****     STIM_EN_A_Write(0);
 1494              		.loc 1 518 0
 1495 0064 0020     		movs	r0, #0
 1496 0066 FFF7FEFF 		bl	STIM_EN_A_Write
 519:main.c        ****     AMP1_EN_Write(1);
 1497              		.loc 1 519 0
 1498 006a 0120     		movs	r0, #1
 1499 006c FFF7FEFF 		bl	AMP1_EN_Write
 520:main.c        ****     AMP2_EN_Write(1);
 1500              		.loc 1 520 0
 1501 0070 0120     		movs	r0, #1
 1502 0072 FFF7FEFF 		bl	AMP2_EN_Write
 521:main.c        ****     AMP3_EN_Write(1);
 1503              		.loc 1 521 0
 1504 0076 0120     		movs	r0, #1
 1505 0078 FFF7FEFF 		bl	AMP3_EN_Write
 522:main.c        ****     
 523:main.c        ****     // 启动定时器中断
 524:main.c        ****     CySysWdtSetInterruptCallback(CY_SYS_WDT_COUNTER2, Timer_Interrupt);
 1506              		.loc 1 524 0
 1507 007c 314B     		ldr	r3, .L89+20
 1508 007e 1900     		movs	r1, r3
 1509 0080 0220     		movs	r0, #2
 1510 0082 FFF7FEFF 		bl	CySysWdtSetInterruptCallback
 525:main.c        ****     CySysWdtEnableCounterIsr(CY_SYS_WDT_COUNTER2);
 1511              		.loc 1 525 0
 1512 0086 0220     		movs	r0, #2
 1513 0088 FFF7FEFF 		bl	CySysWdtEnableCounterIsr
 526:main.c        ****     
 527:main.c        ****     DBG_PRINTF("系统初始化完成\r\n\r\n");
 1514              		.loc 1 527 0
 1515 008c 2E4B     		ldr	r3, .L89+24
 1516 008e 1800     		movs	r0, r3
 1517 0090 FFF7FEFF 		bl	puts
 1518              	.L86:
 528:main.c        ****     
 529:main.c        ****     /***************************************************************************
 530:main.c        ****     * 主循环
 531:main.c        ****     ***************************************************************************/
 532:main.c        ****     while(1)
 533:main.c        ****     {
 534:main.c        ****         // 处理BLE事件
 535:main.c        ****         CyBle_ProcessEvents();
 1519              		.loc 1 535 0
 1520 0094 FFF7FEFF 		bl	CyBle_ProcessEvents
 536:main.c        ****         
 537:main.c        ****         // 低功耗管理
 538:main.c        ****         LowPowerImplementation();
 1521              		.loc 1 538 0
 1522 0098 FFF7FEFF 		bl	LowPowerImplementation
ARM GAS  C:\Users\13740\AppData\Local\Temp\ccgojbJm.s 			page 40


 539:main.c        ****         
 540:main.c        ****         // 每秒执行一次传感器测量
 541:main.c        ****         if(measurementFlag)
 1523              		.loc 1 541 0
 1524 009c 2B4B     		ldr	r3, .L89+28
 1525 009e 1B78     		ldrb	r3, [r3]
 1526 00a0 DBB2     		uxtb	r3, r3
 1527 00a2 002B     		cmp	r3, #0
 1528 00a4 37D0     		beq	.L78
 542:main.c        ****         {
 543:main.c        ****             measurementFlag = 0;
 1529              		.loc 1 543 0
 1530 00a6 294B     		ldr	r3, .L89+28
 1531 00a8 0022     		movs	r2, #0
 1532 00aa 1A70     		strb	r2, [r3]
 544:main.c        ****             
 545:main.c        ****             // 测量所有传感器
 546:main.c        ****             MeasureAllSensors();
 1533              		.loc 1 546 0
 1534 00ac FFF7FEFF 		bl	MeasureAllSensors
 547:main.c        ****             
 548:main.c        ****             // 如果已连接，发送数据
 549:main.c        ****             if(CyBle_GetState() == CYBLE_STATE_CONNECTED)
 1535              		.loc 1 549 0
 1536 00b0 274B     		ldr	r3, .L89+32
 1537 00b2 1B78     		ldrb	r3, [r3]
 1538 00b4 022B     		cmp	r3, #2
 1539 00b6 01D1     		bne	.L79
 550:main.c        ****             {
 551:main.c        ****                 SendDataViaBLE();
 1540              		.loc 1 551 0
 1541 00b8 FFF7FEFF 		bl	SendDataViaBLE
 1542              	.L79:
 552:main.c        ****             }
 553:main.c        ****             
 554:main.c        ****             // 智能治疗决策
 555:main.c        ****             // 1. 检测感染（温度升高或乳酸升高）
 556:main.c        ****             if(sensorData.temperature > 38.5 || sensorData.lactate > 5.0)
 1543              		.loc 1 556 0
 1544 00bc 254B     		ldr	r3, .L89+36
 1545 00be 1B68     		ldr	r3, [r3]
 1546 00c0 2549     		ldr	r1, .L89+40
 1547 00c2 181C     		adds	r0, r3, #0
 1548 00c4 FFF7FEFF 		bl	__aeabi_fcmpgt
 1549 00c8 031E     		subs	r3, r0, #0
 1550 00ca 07D1     		bne	.L80
 1551              		.loc 1 556 0 is_stmt 0 discriminator 1
 1552 00cc 214B     		ldr	r3, .L89+36
 1553 00ce 9B68     		ldr	r3, [r3, #8]
 1554 00d0 2249     		ldr	r1, .L89+44
 1555 00d2 181C     		adds	r0, r3, #0
 1556 00d4 FFF7FEFF 		bl	__aeabi_fcmpgt
 1557 00d8 031E     		subs	r3, r0, #0
 1558 00da 0DD0     		beq	.L81
 1559              	.L80:
 557:main.c        ****             {
 558:main.c        ****                 DBG_PRINTF("[警告] 检测到异常，启动药物释放\r\n");
ARM GAS  C:\Users\13740\AppData\Local\Temp\ccgojbJm.s 			page 41


 1560              		.loc 1 558 0 is_stmt 1
 1561 00dc 204B     		ldr	r3, .L89+48
 1562 00de 1800     		movs	r0, r3
 1563 00e0 FFF7FEFF 		bl	puts
 559:main.c        ****                 ControlDrugRelease(1);
 1564              		.loc 1 559 0
 1565 00e4 0120     		movs	r0, #1
 1566 00e6 FFF7FEFF 		bl	ControlDrugRelease
 560:main.c        ****                 CyDelay(10000);  // 释放10秒（实际应该是10分钟，这里缩短用于测
 1567              		.loc 1 560 0
 1568 00ea 1E4B     		ldr	r3, .L89+52
 1569 00ec 1800     		movs	r0, r3
 1570 00ee FFF7FEFF 		bl	CyDelay
 561:main.c        ****                 ControlDrugRelease(0);
 1571              		.loc 1 561 0
 1572 00f2 0020     		movs	r0, #0
 1573 00f4 FFF7FEFF 		bl	ControlDrugRelease
 1574              	.L81:
 562:main.c        ****             }
 563:main.c        ****             
 564:main.c        ****             // 2. 促进愈合（电刺激）
 565:main.c        ****             if(sensorData.glucose > 10.0)
 1575              		.loc 1 565 0
 1576 00f8 164B     		ldr	r3, .L89+36
 1577 00fa 5B68     		ldr	r3, [r3, #4]
 1578 00fc 1A49     		ldr	r1, .L89+56
 1579 00fe 181C     		adds	r0, r3, #0
 1580 0100 FFF7FEFF 		bl	__aeabi_fcmpgt
 1581 0104 031E     		subs	r3, r0, #0
 1582 0106 03D0     		beq	.L88
 566:main.c        ****             {
 567:main.c        ****                 ControlElectricalStimulation(1);
 1583              		.loc 1 567 0
 1584 0108 0120     		movs	r0, #1
 1585 010a FFF7FEFF 		bl	ControlElectricalStimulation
 1586 010e 02E0     		b	.L78
 1587              	.L88:
 568:main.c        ****             }
 569:main.c        ****             else
 570:main.c        ****             {
 571:main.c        ****                 ControlElectricalStimulation(0);
 1588              		.loc 1 571 0
 1589 0110 0020     		movs	r0, #0
 1590 0112 FFF7FEFF 		bl	ControlElectricalStimulation
 1591              	.L78:
 572:main.c        ****             }
 573:main.c        ****         }
 574:main.c        ****         
 575:main.c        ****         // Flash写入
 576:main.c        ****         if(cyBle_pendingFlashWrite != 0u)
 1592              		.loc 1 576 0
 1593 0116 154B     		ldr	r3, .L89+60
 1594 0118 1B78     		ldrb	r3, [r3]
 1595 011a 002B     		cmp	r3, #0
 1596 011c BAD0     		beq	.L86
 577:main.c        ****         {
 578:main.c        ****             apiResult = CyBle_StoreBondingData(0u);
ARM GAS  C:\Users\13740\AppData\Local\Temp\ccgojbJm.s 			page 42


 1597              		.loc 1 578 0
 1598 011e 0020     		movs	r0, #0
 1599 0120 FFF7FEFF 		bl	CyBle_StoreBondingData
 1600 0124 0300     		movs	r3, r0
 1601 0126 1A00     		movs	r2, r3
 1602 0128 034B     		ldr	r3, .L89+8
 1603 012a 1A80     		strh	r2, [r3]
 579:main.c        ****         }
 580:main.c        ****     }
 1604              		.loc 1 580 0
 1605 012c B2E7     		b	.L86
 1606              	.L90:
 1607 012e C046     		.align	2
 1608              	.L89:
 1609 0130 30020000 		.word	.LC62
 1610 0134 00000000 		.word	AppCallBack
 1611 0138 00000000 		.word	apiResult
 1612 013c 40020000 		.word	.LC66
 1613 0140 58020000 		.word	.LC68
 1614 0144 00000000 		.word	Timer_Interrupt
 1615 0148 6C020000 		.word	.LC71
 1616 014c 00000000 		.word	measurementFlag
 1617 0150 00000000 		.word	cyBle_state
 1618 0154 00000000 		.word	sensorData
 1619 0158 00001A42 		.word	1109000192
 1620 015c 0000A040 		.word	1084227584
 1621 0160 88020000 		.word	.LC76
 1622 0164 10270000 		.word	10000
 1623 0168 00002041 		.word	1092616192
 1624 016c 00000000 		.word	cyBle_pendingFlashWrite
 1625              		.cfi_endproc
 1626              	.LFE47:
 1627              		.size	main, .-main
 1628              		.section	.rodata
 1629 02b7 00       		.align	2
 1630              	.LC80:
 1631 02b8 E5B9BFE6 		.ascii	"\345\271\277\346\222\255\345\220\257\345\212\250\345"
 1631      92ADE590 
 1631      AFE58AA8 
 1631      E5
 1632 02c5 A4B1E8B4 		.ascii	"\244\261\350\264\245: %d\015\012\000"
 1632      A53A2025 
 1632      640D0A00 
 1633 02d1 000000   		.align	2
 1634              	.LC82:
 1635 02d4 E5BC80E5 		.ascii	"\345\274\200\345\247\213\345\271\277\346\222\255, \345"
 1635      A78BE5B9 
 1635      BFE692AD 
 1635      2C20E5
 1636 02e3 9CB0E59D 		.ascii	"\234\260\345\235\200: \000"
 1636      803A2000 
 1637 02eb 00       		.align	2
 1638              	.LC84:
 1639 02ec 25322E32 		.ascii	"%2.2x\000"
 1639      7800
 1640 02f2 0000     		.align	2
 1641              	.LC86:
ARM GAS  C:\Users\13740\AppData\Local\Temp\ccgojbJm.s 			page 43


 1642 02f4 0D00     		.ascii	"\015\000"
 1643              		.section	.text.StartAdvertisement,"ax",%progbits
 1644              		.align	2
 1645              		.global	StartAdvertisement
 1646              		.code	16
 1647              		.thumb_func
 1648              		.type	StartAdvertisement, %function
 1649              	StartAdvertisement:
 1650              	.LFB48:
 581:main.c        **** }
 582:main.c        **** 
 583:main.c        **** /*******************************************************************************
 584:main.c        **** * Function Name: StartAdvertisement
 585:main.c        **** ********************************************************************************
 586:main.c        **** * Summary:
 587:main.c        **** *   启动BLE广播
 588:main.c        **** *******************************************************************************/
 589:main.c        **** void StartAdvertisement(void)
 590:main.c        **** {
 1651              		.loc 1 590 0
 1652              		.cfi_startproc
 1653              		@ args = 0, pretend = 0, frame = 16
 1654              		@ frame_needed = 1, uses_anonymous_args = 0
 1655 0000 80B5     		push	{r7, lr}
 1656              		.cfi_def_cfa_offset 8
 1657              		.cfi_offset 7, -8
 1658              		.cfi_offset 14, -4
 1659 0002 84B0     		sub	sp, sp, #16
 1660              		.cfi_def_cfa_offset 24
 1661 0004 00AF     		add	r7, sp, #0
 1662              		.cfi_def_cfa_register 7
 591:main.c        ****     uint16 i;
 592:main.c        ****     CYBLE_GAP_BD_ADDR_T localAddr;
 593:main.c        ****     
 594:main.c        ****     apiResult = CyBle_GappStartAdvertisement(CYBLE_ADVERTISING_FAST);
 1663              		.loc 1 594 0
 1664 0006 0020     		movs	r0, #0
 1665 0008 FFF7FEFF 		bl	CyBle_GappStartAdvertisement
 1666 000c 0300     		movs	r3, r0
 1667 000e 1A00     		movs	r2, r3
 1668 0010 1F4B     		ldr	r3, .L97
 1669 0012 1A80     		strh	r2, [r3]
 595:main.c        ****     if(apiResult != CYBLE_ERROR_OK)
 1670              		.loc 1 595 0
 1671 0014 1E4B     		ldr	r3, .L97
 1672 0016 1B88     		ldrh	r3, [r3]
 1673 0018 002B     		cmp	r3, #0
 1674 001a 08D0     		beq	.L92
 596:main.c        ****     {
 597:main.c        ****         DBG_PRINTF("广播启动失败: %d\r\n", apiResult);
 1675              		.loc 1 597 0
 1676 001c 1C4B     		ldr	r3, .L97
 1677 001e 1B88     		ldrh	r3, [r3]
 1678 0020 1A00     		movs	r2, r3
 1679 0022 1C4B     		ldr	r3, .L97+4
 1680 0024 1100     		movs	r1, r2
 1681 0026 1800     		movs	r0, r3
ARM GAS  C:\Users\13740\AppData\Local\Temp\ccgojbJm.s 			page 44


 1682 0028 FFF7FEFF 		bl	printf
 598:main.c        ****     }
 599:main.c        ****     else
 600:main.c        ****     {
 601:main.c        ****         DBG_PRINTF("开始广播, 地址: ");
 602:main.c        ****         localAddr.type = 0u;
 603:main.c        ****         CyBle_GetDeviceAddress(&localAddr);
 604:main.c        ****         for(i = CYBLE_GAP_BD_ADDR_SIZE; i > 0u; i--)
 605:main.c        ****         {
 606:main.c        ****             DBG_PRINTF("%2.2x", localAddr.bdAddr[i-1]);
 607:main.c        ****         }
 608:main.c        ****         DBG_PRINTF("\r\n");
 609:main.c        ****     }
 610:main.c        **** }
 1683              		.loc 1 610 0
 1684 002c 2BE0     		b	.L96
 1685              	.L92:
 601:main.c        ****         localAddr.type = 0u;
 1686              		.loc 1 601 0
 1687 002e 1A4B     		ldr	r3, .L97+8
 1688 0030 1800     		movs	r0, r3
 1689 0032 FFF7FEFF 		bl	printf
 602:main.c        ****         CyBle_GetDeviceAddress(&localAddr);
 1690              		.loc 1 602 0
 1691 0036 3B1D     		adds	r3, r7, #4
 1692 0038 0022     		movs	r2, #0
 1693 003a 9A71     		strb	r2, [r3, #6]
 603:main.c        ****         for(i = CYBLE_GAP_BD_ADDR_SIZE; i > 0u; i--)
 1694              		.loc 1 603 0
 1695 003c 3B1D     		adds	r3, r7, #4
 1696 003e 1800     		movs	r0, r3
 1697 0040 FFF7FEFF 		bl	CyBle_GetDeviceAddress
 604:main.c        ****         {
 1698              		.loc 1 604 0
 1699 0044 0E23     		movs	r3, #14
 1700 0046 FB18     		adds	r3, r7, r3
 1701 0048 0622     		movs	r2, #6
 1702 004a 1A80     		strh	r2, [r3]
 1703 004c 12E0     		b	.L94
 1704              	.L95:
 606:main.c        ****         }
 1705              		.loc 1 606 0 discriminator 3
 1706 004e 0E23     		movs	r3, #14
 1707 0050 FB18     		adds	r3, r7, r3
 1708 0052 1B88     		ldrh	r3, [r3]
 1709 0054 013B     		subs	r3, r3, #1
 1710 0056 3A1D     		adds	r2, r7, #4
 1711 0058 D35C     		ldrb	r3, [r2, r3]
 1712 005a 1A00     		movs	r2, r3
 1713 005c 0F4B     		ldr	r3, .L97+12
 1714 005e 1100     		movs	r1, r2
 1715 0060 1800     		movs	r0, r3
 1716 0062 FFF7FEFF 		bl	printf
 604:main.c        ****         {
 1717              		.loc 1 604 0 discriminator 3
 1718 0066 0E23     		movs	r3, #14
 1719 0068 FB18     		adds	r3, r7, r3
ARM GAS  C:\Users\13740\AppData\Local\Temp\ccgojbJm.s 			page 45


 1720 006a 1A88     		ldrh	r2, [r3]
 1721 006c 0E23     		movs	r3, #14
 1722 006e FB18     		adds	r3, r7, r3
 1723 0070 013A     		subs	r2, r2, #1
 1724 0072 1A80     		strh	r2, [r3]
 1725              	.L94:
 604:main.c        ****         {
 1726              		.loc 1 604 0 is_stmt 0 discriminator 1
 1727 0074 0E23     		movs	r3, #14
 1728 0076 FB18     		adds	r3, r7, r3
 1729 0078 1B88     		ldrh	r3, [r3]
 1730 007a 002B     		cmp	r3, #0
 1731 007c E7D1     		bne	.L95
 608:main.c        ****     }
 1732              		.loc 1 608 0 is_stmt 1
 1733 007e 084B     		ldr	r3, .L97+16
 1734 0080 1800     		movs	r0, r3
 1735 0082 FFF7FEFF 		bl	puts
 1736              	.L96:
 1737              		.loc 1 610 0
 1738 0086 C046     		nop
 1739 0088 BD46     		mov	sp, r7
 1740 008a 04B0     		add	sp, sp, #16
 1741              		@ sp needed
 1742 008c 80BD     		pop	{r7, pc}
 1743              	.L98:
 1744 008e C046     		.align	2
 1745              	.L97:
 1746 0090 00000000 		.word	apiResult
 1747 0094 B8020000 		.word	.LC80
 1748 0098 D4020000 		.word	.LC82
 1749 009c EC020000 		.word	.LC84
 1750 00a0 F4020000 		.word	.LC86
 1751              		.cfi_endproc
 1752              	.LFE48:
 1753              		.size	StartAdvertisement, .-StartAdvertisement
 1754              		.data
 1755              		.type	led.9696, %object
 1756              		.size	led.9696, 1
 1757              	led.9696:
 1758 0000 01       		.byte	1
 1759              		.text
 1760              	.Letext0:
 1761              		.file 2 "f:\\infineon\\psoc creator\\4.4\\psoc creator\\import\\gnu\\arm\\5.4.1\\arm-none-eabi\\in
 1762              		.file 3 "f:\\infineon\\psoc creator\\4.4\\psoc creator\\import\\gnu\\arm\\5.4.1\\arm-none-eabi\\in
 1763              		.file 4 "Generated_Source\\PSoC4/cytypes.h"
 1764              		.file 5 "Generated_Source\\PSoC4/CYBLE_Stack.h"
 1765              		.file 6 "Generated_Source\\PSoC4/CYBLE_StackGatt.h"
 1766              		.file 7 "Generated_Source\\PSoC4/CYBLE_StackGattServer.h"
 1767              		.file 8 "Generated_Source\\PSoC4/CYBLE_eventHandler.h"
 1768              		.file 9 "ad5940.h"
 1769              		.file 10 "Amperometric.h"
 1770              		.file 11 "Generated_Source\\PSoC4/CYBLE.h"
 1771              		.section	.debug_info,"",%progbits
 1772              	.Ldebug_info0:
 1773 0000 AD0B0000 		.4byte	0xbad
 1774 0004 0400     		.2byte	0x4
ARM GAS  C:\Users\13740\AppData\Local\Temp\ccgojbJm.s 			page 46


 1775 0006 00000000 		.4byte	.Ldebug_abbrev0
 1776 000a 04       		.byte	0x4
 1777 000b 01       		.uleb128 0x1
 1778 000c 5C020000 		.4byte	.LASF261
 1779 0010 0C       		.byte	0xc
 1780 0011 58000000 		.4byte	.LASF262
 1781 0015 81140000 		.4byte	.LASF263
 1782 0019 00000000 		.4byte	.Ldebug_ranges0+0
 1783 001d 00000000 		.4byte	0
 1784 0021 00000000 		.4byte	.Ldebug_line0
 1785 0025 02       		.uleb128 0x2
 1786 0026 01       		.byte	0x1
 1787 0027 06       		.byte	0x6
 1788 0028 5A140000 		.4byte	.LASF0
 1789 002c 03       		.uleb128 0x3
 1790 002d C2100000 		.4byte	.LASF4
 1791 0031 02       		.byte	0x2
 1792 0032 1D       		.byte	0x1d
 1793 0033 37000000 		.4byte	0x37
 1794 0037 02       		.uleb128 0x2
 1795 0038 01       		.byte	0x1
 1796 0039 08       		.byte	0x8
 1797 003a C2120000 		.4byte	.LASF1
 1798 003e 02       		.uleb128 0x2
 1799 003f 02       		.byte	0x2
 1800 0040 05       		.byte	0x5
 1801 0041 BB0E0000 		.4byte	.LASF2
 1802 0045 02       		.uleb128 0x2
 1803 0046 02       		.byte	0x2
 1804 0047 07       		.byte	0x7
 1805 0048 6E140000 		.4byte	.LASF3
 1806 004c 03       		.uleb128 0x3
 1807 004d 1D020000 		.4byte	.LASF5
 1808 0051 02       		.byte	0x2
 1809 0052 3F       		.byte	0x3f
 1810 0053 57000000 		.4byte	0x57
 1811 0057 02       		.uleb128 0x2
 1812 0058 04       		.byte	0x4
 1813 0059 05       		.byte	0x5
 1814 005a DD0E0000 		.4byte	.LASF6
 1815 005e 03       		.uleb128 0x3
 1816 005f D0120000 		.4byte	.LASF7
 1817 0063 02       		.byte	0x2
 1818 0064 41       		.byte	0x41
 1819 0065 69000000 		.4byte	0x69
 1820 0069 02       		.uleb128 0x2
 1821 006a 04       		.byte	0x4
 1822 006b 07       		.byte	0x7
 1823 006c 2D110000 		.4byte	.LASF8
 1824 0070 02       		.uleb128 0x2
 1825 0071 08       		.byte	0x8
 1826 0072 05       		.byte	0x5
 1827 0073 E70A0000 		.4byte	.LASF9
 1828 0077 02       		.uleb128 0x2
 1829 0078 08       		.byte	0x8
 1830 0079 07       		.byte	0x7
 1831 007a AF040000 		.4byte	.LASF10
ARM GAS  C:\Users\13740\AppData\Local\Temp\ccgojbJm.s 			page 47


 1832 007e 04       		.uleb128 0x4
 1833 007f 04       		.byte	0x4
 1834 0080 05       		.byte	0x5
 1835 0081 696E7400 		.ascii	"int\000"
 1836 0085 02       		.uleb128 0x2
 1837 0086 04       		.byte	0x4
 1838 0087 07       		.byte	0x7
 1839 0088 A8010000 		.4byte	.LASF11
 1840 008c 03       		.uleb128 0x3
 1841 008d 120A0000 		.4byte	.LASF12
 1842 0091 03       		.byte	0x3
 1843 0092 18       		.byte	0x18
 1844 0093 2C000000 		.4byte	0x2c
 1845 0097 03       		.uleb128 0x3
 1846 0098 EF110000 		.4byte	.LASF13
 1847 009c 03       		.byte	0x3
 1848 009d 2C       		.byte	0x2c
 1849 009e 4C000000 		.4byte	0x4c
 1850 00a2 03       		.uleb128 0x3
 1851 00a3 F6030000 		.4byte	.LASF14
 1852 00a7 03       		.byte	0x3
 1853 00a8 30       		.byte	0x30
 1854 00a9 5E000000 		.4byte	0x5e
 1855 00ad 05       		.uleb128 0x5
 1856 00ae 0B150000 		.4byte	.LASF15
 1857 00b2 04       		.byte	0x4
 1858 00b3 D201     		.2byte	0x1d2
 1859 00b5 37000000 		.4byte	0x37
 1860 00b9 05       		.uleb128 0x5
 1861 00ba C9090000 		.4byte	.LASF16
 1862 00be 04       		.byte	0x4
 1863 00bf D301     		.2byte	0x1d3
 1864 00c1 45000000 		.4byte	0x45
 1865 00c5 05       		.uleb128 0x5
 1866 00c6 710C0000 		.4byte	.LASF17
 1867 00ca 04       		.byte	0x4
 1868 00cb D401     		.2byte	0x1d4
 1869 00cd 69000000 		.4byte	0x69
 1870 00d1 02       		.uleb128 0x2
 1871 00d2 04       		.byte	0x4
 1872 00d3 04       		.byte	0x4
 1873 00d4 37040000 		.4byte	.LASF18
 1874 00d8 02       		.uleb128 0x2
 1875 00d9 08       		.byte	0x8
 1876 00da 04       		.byte	0x4
 1877 00db DB060000 		.4byte	.LASF19
 1878 00df 02       		.uleb128 0x2
 1879 00e0 01       		.byte	0x1
 1880 00e1 08       		.byte	0x8
 1881 00e2 0A090000 		.4byte	.LASF20
 1882 00e6 06       		.uleb128 0x6
 1883 00e7 AD000000 		.4byte	0xad
 1884 00eb 06       		.uleb128 0x6
 1885 00ec C5000000 		.4byte	0xc5
 1886 00f0 02       		.uleb128 0x2
 1887 00f1 08       		.byte	0x8
 1888 00f2 04       		.byte	0x4
ARM GAS  C:\Users\13740\AppData\Local\Temp\ccgojbJm.s 			page 48


 1889 00f3 8D0D0000 		.4byte	.LASF21
 1890 00f7 02       		.uleb128 0x2
 1891 00f8 04       		.byte	0x4
 1892 00f9 07       		.byte	0x7
 1893 00fa 6E0E0000 		.4byte	.LASF22
 1894 00fe 07       		.uleb128 0x7
 1895 00ff 04       		.byte	0x4
 1896 0100 08       		.uleb128 0x8
 1897 0101 01       		.byte	0x1
 1898 0102 37000000 		.4byte	0x37
 1899 0106 05       		.byte	0x5
 1900 0107 4D01     		.2byte	0x14d
 1901 0109 BE020000 		.4byte	0x2be
 1902 010d 09       		.uleb128 0x9
 1903 010e 22130000 		.4byte	.LASF23
 1904 0112 00       		.byte	0
 1905 0113 09       		.uleb128 0x9
 1906 0114 B6090000 		.4byte	.LASF24
 1907 0118 01       		.byte	0x1
 1908 0119 09       		.uleb128 0x9
 1909 011a 300E0000 		.4byte	.LASF25
 1910 011e 02       		.byte	0x2
 1911 011f 09       		.uleb128 0x9
 1912 0120 8F010000 		.4byte	.LASF26
 1913 0124 03       		.byte	0x3
 1914 0125 09       		.uleb128 0x9
 1915 0126 DE080000 		.4byte	.LASF27
 1916 012a 04       		.byte	0x4
 1917 012b 09       		.uleb128 0x9
 1918 012c 4F040000 		.4byte	.LASF28
 1919 0130 05       		.byte	0x5
 1920 0131 09       		.uleb128 0x9
 1921 0132 64120000 		.4byte	.LASF29
 1922 0136 06       		.byte	0x6
 1923 0137 09       		.uleb128 0x9
 1924 0138 D60F0000 		.4byte	.LASF30
 1925 013c 20       		.byte	0x20
 1926 013d 09       		.uleb128 0x9
 1927 013e 72000000 		.4byte	.LASF31
 1928 0142 21       		.byte	0x21
 1929 0143 09       		.uleb128 0x9
 1930 0144 05030000 		.4byte	.LASF32
 1931 0148 22       		.byte	0x22
 1932 0149 09       		.uleb128 0x9
 1933 014a 8C110000 		.4byte	.LASF33
 1934 014e 23       		.byte	0x23
 1935 014f 09       		.uleb128 0x9
 1936 0150 86060000 		.4byte	.LASF34
 1937 0154 24       		.byte	0x24
 1938 0155 09       		.uleb128 0x9
 1939 0156 4A120000 		.4byte	.LASF35
 1940 015a 25       		.byte	0x25
 1941 015b 09       		.uleb128 0x9
 1942 015c 390C0000 		.4byte	.LASF36
 1943 0160 26       		.byte	0x26
 1944 0161 09       		.uleb128 0x9
 1945 0162 A5130000 		.4byte	.LASF37
ARM GAS  C:\Users\13740\AppData\Local\Temp\ccgojbJm.s 			page 49


 1946 0166 27       		.byte	0x27
 1947 0167 09       		.uleb128 0x9
 1948 0168 CC100000 		.4byte	.LASF38
 1949 016c 28       		.byte	0x28
 1950 016d 09       		.uleb128 0x9
 1951 016e 420E0000 		.4byte	.LASF39
 1952 0172 29       		.byte	0x29
 1953 0173 09       		.uleb128 0x9
 1954 0174 88030000 		.4byte	.LASF40
 1955 0178 2A       		.byte	0x2a
 1956 0179 09       		.uleb128 0x9
 1957 017a A6150000 		.4byte	.LASF41
 1958 017e 2B       		.byte	0x2b
 1959 017f 09       		.uleb128 0x9
 1960 0180 68110000 		.4byte	.LASF42
 1961 0184 2C       		.byte	0x2c
 1962 0185 09       		.uleb128 0x9
 1963 0186 B1030000 		.4byte	.LASF43
 1964 018a 2D       		.byte	0x2d
 1965 018b 09       		.uleb128 0x9
 1966 018c 8F120000 		.4byte	.LASF44
 1967 0190 2E       		.byte	0x2e
 1968 0191 09       		.uleb128 0x9
 1969 0192 BC0C0000 		.4byte	.LASF45
 1970 0196 2F       		.byte	0x2f
 1971 0197 09       		.uleb128 0x9
 1972 0198 570A0000 		.4byte	.LASF46
 1973 019c 30       		.byte	0x30
 1974 019d 09       		.uleb128 0x9
 1975 019e 1F0F0000 		.4byte	.LASF47
 1976 01a2 31       		.byte	0x31
 1977 01a3 09       		.uleb128 0x9
 1978 01a4 1C100000 		.4byte	.LASF48
 1979 01a8 32       		.byte	0x32
 1980 01a9 09       		.uleb128 0x9
 1981 01aa 5F0D0000 		.4byte	.LASF49
 1982 01ae 33       		.byte	0x33
 1983 01af 09       		.uleb128 0x9
 1984 01b0 0C140000 		.4byte	.LASF50
 1985 01b4 34       		.byte	0x34
 1986 01b5 09       		.uleb128 0x9
 1987 01b6 04010000 		.4byte	.LASF51
 1988 01ba 35       		.byte	0x35
 1989 01bb 09       		.uleb128 0x9
 1990 01bc 24140000 		.4byte	.LASF52
 1991 01c0 36       		.byte	0x36
 1992 01c1 09       		.uleb128 0x9
 1993 01c2 4F130000 		.4byte	.LASF53
 1994 01c6 37       		.byte	0x37
 1995 01c7 09       		.uleb128 0x9
 1996 01c8 110B0000 		.4byte	.LASF54
 1997 01cc 40       		.byte	0x40
 1998 01cd 09       		.uleb128 0x9
 1999 01ce F60E0000 		.4byte	.LASF55
 2000 01d2 41       		.byte	0x41
 2001 01d3 09       		.uleb128 0x9
 2002 01d4 C6000000 		.4byte	.LASF56
ARM GAS  C:\Users\13740\AppData\Local\Temp\ccgojbJm.s 			page 50


 2003 01d8 42       		.byte	0x42
 2004 01d9 09       		.uleb128 0x9
 2005 01da 2F010000 		.4byte	.LASF57
 2006 01de 43       		.byte	0x43
 2007 01df 09       		.uleb128 0x9
 2008 01e0 13070000 		.4byte	.LASF58
 2009 01e4 44       		.byte	0x44
 2010 01e5 09       		.uleb128 0x9
 2011 01e6 3D100000 		.4byte	.LASF59
 2012 01ea 45       		.byte	0x45
 2013 01eb 09       		.uleb128 0x9
 2014 01ec 9A0E0000 		.4byte	.LASF60
 2015 01f0 46       		.byte	0x46
 2016 01f1 09       		.uleb128 0x9
 2017 01f2 25050000 		.4byte	.LASF61
 2018 01f6 47       		.byte	0x47
 2019 01f7 09       		.uleb128 0x9
 2020 01f8 8A050000 		.4byte	.LASF62
 2021 01fc 48       		.byte	0x48
 2022 01fd 09       		.uleb128 0x9
 2023 01fe E8060000 		.4byte	.LASF63
 2024 0202 49       		.byte	0x49
 2025 0203 09       		.uleb128 0x9
 2026 0204 9D070000 		.4byte	.LASF64
 2027 0208 4A       		.byte	0x4a
 2028 0209 09       		.uleb128 0x9
 2029 020a 430F0000 		.4byte	.LASF65
 2030 020e 4B       		.byte	0x4b
 2031 020f 09       		.uleb128 0x9
 2032 0210 C6040000 		.4byte	.LASF66
 2033 0214 4C       		.byte	0x4c
 2034 0215 09       		.uleb128 0x9
 2035 0216 1D040000 		.4byte	.LASF67
 2036 021a 4D       		.byte	0x4d
 2037 021b 09       		.uleb128 0x9
 2038 021c FF010000 		.4byte	.LASF68
 2039 0220 4E       		.byte	0x4e
 2040 0221 09       		.uleb128 0x9
 2041 0222 CF130000 		.4byte	.LASF69
 2042 0226 4F       		.byte	0x4f
 2043 0227 09       		.uleb128 0x9
 2044 0228 C6050000 		.4byte	.LASF70
 2045 022c 50       		.byte	0x50
 2046 022d 09       		.uleb128 0x9
 2047 022e E5050000 		.4byte	.LASF71
 2048 0232 51       		.byte	0x51
 2049 0233 09       		.uleb128 0x9
 2050 0234 31000000 		.4byte	.LASF72
 2051 0238 52       		.byte	0x52
 2052 0239 09       		.uleb128 0x9
 2053 023a 990D0000 		.4byte	.LASF73
 2054 023e 53       		.byte	0x53
 2055 023f 09       		.uleb128 0x9
 2056 0240 2B150000 		.4byte	.LASF74
 2057 0244 54       		.byte	0x54
 2058 0245 09       		.uleb128 0x9
 2059 0246 4D010000 		.4byte	.LASF75
ARM GAS  C:\Users\13740\AppData\Local\Temp\ccgojbJm.s 			page 51


 2060 024a 55       		.byte	0x55
 2061 024b 09       		.uleb128 0x9
 2062 024c 0F000000 		.4byte	.LASF76
 2063 0250 56       		.byte	0x56
 2064 0251 09       		.uleb128 0x9
 2065 0252 5D060000 		.4byte	.LASF77
 2066 0256 57       		.byte	0x57
 2067 0257 09       		.uleb128 0x9
 2068 0258 B2110000 		.4byte	.LASF78
 2069 025c 58       		.byte	0x58
 2070 025d 09       		.uleb128 0x9
 2071 025e EC090000 		.4byte	.LASF79
 2072 0262 70       		.byte	0x70
 2073 0263 09       		.uleb128 0x9
 2074 0264 D9070000 		.4byte	.LASF80
 2075 0268 71       		.byte	0x71
 2076 0269 09       		.uleb128 0x9
 2077 026a 6B040000 		.4byte	.LASF81
 2078 026e 72       		.byte	0x72
 2079 026f 09       		.uleb128 0x9
 2080 0270 F9100000 		.4byte	.LASF82
 2081 0274 73       		.byte	0x73
 2082 0275 09       		.uleb128 0x9
 2083 0276 32080000 		.4byte	.LASF83
 2084 027a 74       		.byte	0x74
 2085 027b 09       		.uleb128 0x9
 2086 027c 620F0000 		.4byte	.LASF84
 2087 0280 75       		.byte	0x75
 2088 0281 09       		.uleb128 0x9
 2089 0282 84130000 		.4byte	.LASF85
 2090 0286 76       		.byte	0x76
 2091 0287 09       		.uleb128 0x9
 2092 0288 840C0000 		.4byte	.LASF86
 2093 028c 77       		.byte	0x77
 2094 028d 09       		.uleb128 0x9
 2095 028e FF070000 		.4byte	.LASF87
 2096 0292 78       		.byte	0x78
 2097 0293 09       		.uleb128 0x9
 2098 0294 D4010000 		.4byte	.LASF88
 2099 0298 79       		.byte	0x79
 2100 0299 09       		.uleb128 0x9
 2101 029a 16120000 		.4byte	.LASF89
 2102 029e 7A       		.byte	0x7a
 2103 029f 09       		.uleb128 0x9
 2104 02a0 FF030000 		.4byte	.LASF90
 2105 02a4 FA       		.byte	0xfa
 2106 02a5 09       		.uleb128 0x9
 2107 02a6 B5010000 		.4byte	.LASF91
 2108 02aa FB       		.byte	0xfb
 2109 02ab 09       		.uleb128 0x9
 2110 02ac 0C0D0000 		.4byte	.LASF92
 2111 02b0 FC       		.byte	0xfc
 2112 02b1 09       		.uleb128 0x9
 2113 02b2 31070000 		.4byte	.LASF93
 2114 02b6 FD       		.byte	0xfd
 2115 02b7 09       		.uleb128 0x9
 2116 02b8 110F0000 		.4byte	.LASF94
ARM GAS  C:\Users\13740\AppData\Local\Temp\ccgojbJm.s 			page 52


 2117 02bc FF       		.byte	0xff
 2118 02bd 00       		.byte	0
 2119 02be 08       		.uleb128 0x8
 2120 02bf 02       		.byte	0x2
 2121 02c0 45000000 		.4byte	0x45
 2122 02c4 05       		.byte	0x5
 2123 02c5 0204     		.2byte	0x402
 2124 02c7 97030000 		.4byte	0x397
 2125 02cb 09       		.uleb128 0x9
 2126 02cc 11150000 		.4byte	.LASF95
 2127 02d0 00       		.byte	0
 2128 02d1 09       		.uleb128 0x9
 2129 02d2 B80F0000 		.4byte	.LASF96
 2130 02d6 01       		.byte	0x1
 2131 02d7 09       		.uleb128 0x9
 2132 02d8 71010000 		.4byte	.LASF97
 2133 02dc 02       		.byte	0x2
 2134 02dd 09       		.uleb128 0x9
 2135 02de 7B080000 		.4byte	.LASF98
 2136 02e2 03       		.byte	0x3
 2137 02e3 09       		.uleb128 0x9
 2138 02e4 5E090000 		.4byte	.LASF99
 2139 02e8 04       		.byte	0x4
 2140 02e9 09       		.uleb128 0x9
 2141 02ea BB070000 		.4byte	.LASF100
 2142 02ee 05       		.byte	0x5
 2143 02ef 09       		.uleb128 0x9
 2144 02f0 D5110000 		.4byte	.LASF101
 2145 02f4 06       		.byte	0x6
 2146 02f5 09       		.uleb128 0x9
 2147 02f6 27020000 		.4byte	.LASF102
 2148 02fa 07       		.byte	0x7
 2149 02fb 09       		.uleb128 0x9
 2150 02fc FA0D0000 		.4byte	.LASF103
 2151 0300 08       		.byte	0x8
 2152 0301 09       		.uleb128 0x9
 2153 0302 94000000 		.4byte	.LASF104
 2154 0306 09       		.byte	0x9
 2155 0307 09       		.uleb128 0x9
 2156 0308 BA0D0000 		.4byte	.LASF105
 2157 030c 0A       		.byte	0xa
 2158 030d 09       		.uleb128 0x9
 2159 030e A2060000 		.4byte	.LASF106
 2160 0312 0B       		.byte	0xb
 2161 0313 09       		.uleb128 0x9
 2162 0314 F3080000 		.4byte	.LASF107
 2163 0318 0C       		.byte	0xc
 2164 0319 09       		.uleb128 0x9
 2165 031a F70B0000 		.4byte	.LASF108
 2166 031e 0D       		.byte	0xd
 2167 031f 09       		.uleb128 0x9
 2168 0320 3F110000 		.4byte	.LASF109
 2169 0324 0E       		.byte	0xe
 2170 0325 09       		.uleb128 0x9
 2171 0326 310D0000 		.4byte	.LASF110
 2172 032a 0F       		.byte	0xf
 2173 032b 09       		.uleb128 0x9
ARM GAS  C:\Users\13740\AppData\Local\Temp\ccgojbJm.s 			page 53


 2174 032c A50B0000 		.4byte	.LASF111
 2175 0330 10       		.byte	0x10
 2176 0331 09       		.uleb128 0x9
 2177 0332 9E100000 		.4byte	.LASF112
 2178 0336 11       		.byte	0x11
 2179 0337 09       		.uleb128 0x9
 2180 0338 E8140000 		.4byte	.LASF113
 2181 033c 12       		.byte	0x12
 2182 033d 09       		.uleb128 0x9
 2183 033e 370B0000 		.4byte	.LASF114
 2184 0342 13       		.byte	0x13
 2185 0343 09       		.uleb128 0x9
 2186 0344 1A0A0000 		.4byte	.LASF115
 2187 0348 27       		.byte	0x27
 2188 0349 09       		.uleb128 0x9
 2189 034a 31090000 		.4byte	.LASF116
 2190 034e 28       		.byte	0x28
 2191 034f 09       		.uleb128 0x9
 2192 0350 87090000 		.4byte	.LASF117
 2193 0354 29       		.byte	0x29
 2194 0355 09       		.uleb128 0x9
 2195 0356 A9000000 		.4byte	.LASF118
 2196 035a 2A       		.byte	0x2a
 2197 035b 09       		.uleb128 0x9
 2198 035c A0080000 		.4byte	.LASF119
 2199 0360 2B       		.byte	0x2b
 2200 0361 09       		.uleb128 0x9
 2201 0362 180E0000 		.4byte	.LASF120
 2202 0366 2C       		.byte	0x2c
 2203 0367 09       		.uleb128 0x9
 2204 0368 CC140000 		.4byte	.LASF121
 2205 036c FE       		.byte	0xfe
 2206 036d 09       		.uleb128 0x9
 2207 036e 780B0000 		.4byte	.LASF122
 2208 0372 FF       		.byte	0xff
 2209 0373 0A       		.uleb128 0xa
 2210 0374 A30A0000 		.4byte	.LASF123
 2211 0378 0001     		.2byte	0x100
 2212 037a 0A       		.uleb128 0xa
 2213 037b C2060000 		.4byte	.LASF124
 2214 037f 0101     		.2byte	0x101
 2215 0381 0A       		.uleb128 0xa
 2216 0382 770E0000 		.4byte	.LASF125
 2217 0386 0201     		.2byte	0x102
 2218 0388 0A       		.uleb128 0xa
 2219 0389 44030000 		.4byte	.LASF126
 2220 038d 0301     		.2byte	0x103
 2221 038f 0A       		.uleb128 0xa
 2222 0390 BC0A0000 		.4byte	.LASF127
 2223 0394 0401     		.2byte	0x104
 2224 0396 00       		.byte	0
 2225 0397 05       		.uleb128 0x5
 2226 0398 1E0D0000 		.4byte	.LASF128
 2227 039c 05       		.byte	0x5
 2228 039d 7104     		.2byte	0x471
 2229 039f BE020000 		.4byte	0x2be
 2230 03a3 08       		.uleb128 0x8
ARM GAS  C:\Users\13740\AppData\Local\Temp\ccgojbJm.s 			page 54


 2231 03a4 01       		.byte	0x1
 2232 03a5 37000000 		.4byte	0x37
 2233 03a9 05       		.byte	0x5
 2234 03aa 7504     		.2byte	0x475
 2235 03ac CF030000 		.4byte	0x3cf
 2236 03b0 09       		.uleb128 0x9
 2237 03b1 94040000 		.4byte	.LASF129
 2238 03b5 01       		.byte	0x1
 2239 03b6 09       		.uleb128 0x9
 2240 03b7 4C150000 		.4byte	.LASF130
 2241 03bb 02       		.byte	0x2
 2242 03bc 09       		.uleb128 0x9
 2243 03bd FA0F0000 		.4byte	.LASF131
 2244 03c1 03       		.byte	0x3
 2245 03c2 09       		.uleb128 0x9
 2246 03c3 39130000 		.4byte	.LASF132
 2247 03c7 04       		.byte	0x4
 2248 03c8 09       		.uleb128 0x9
 2249 03c9 F80C0000 		.4byte	.LASF133
 2250 03cd FF       		.byte	0xff
 2251 03ce 00       		.byte	0
 2252 03cf 05       		.uleb128 0x5
 2253 03d0 44020000 		.4byte	.LASF134
 2254 03d4 05       		.byte	0x5
 2255 03d5 9104     		.2byte	0x491
 2256 03d7 A3030000 		.4byte	0x3a3
 2257 03db 08       		.uleb128 0x8
 2258 03dc 01       		.byte	0x1
 2259 03dd 37000000 		.4byte	0x37
 2260 03e1 05       		.byte	0x5
 2261 03e2 9504     		.2byte	0x495
 2262 03e4 19040000 		.4byte	0x419
 2263 03e8 09       		.uleb128 0x9
 2264 03e9 6F150000 		.4byte	.LASF135
 2265 03ed 01       		.byte	0x1
 2266 03ee 09       		.uleb128 0x9
 2267 03ef 88150000 		.4byte	.LASF136
 2268 03f3 02       		.byte	0x2
 2269 03f4 09       		.uleb128 0x9
 2270 03f5 43050000 		.4byte	.LASF137
 2271 03f9 03       		.byte	0x3
 2272 03fa 09       		.uleb128 0x9
 2273 03fb 830F0000 		.4byte	.LASF138
 2274 03ff 04       		.byte	0x4
 2275 0400 09       		.uleb128 0x9
 2276 0401 F2120000 		.4byte	.LASF139
 2277 0405 05       		.byte	0x5
 2278 0406 09       		.uleb128 0x9
 2279 0407 F50A0000 		.4byte	.LASF140
 2280 040b 06       		.byte	0x6
 2281 040c 09       		.uleb128 0x9
 2282 040d 6E100000 		.4byte	.LASF141
 2283 0411 07       		.byte	0x7
 2284 0412 09       		.uleb128 0x9
 2285 0413 E00D0000 		.4byte	.LASF142
 2286 0417 FF       		.byte	0xff
 2287 0418 00       		.byte	0
ARM GAS  C:\Users\13740\AppData\Local\Temp\ccgojbJm.s 			page 55


 2288 0419 0B       		.uleb128 0xb
 2289 041a 07       		.byte	0x7
 2290 041b 05       		.byte	0x5
 2291 041c 3F05     		.2byte	0x53f
 2292 041e 3D040000 		.4byte	0x43d
 2293 0422 0C       		.uleb128 0xc
 2294 0423 26110000 		.4byte	.LASF143
 2295 0427 05       		.byte	0x5
 2296 0428 4205     		.2byte	0x542
 2297 042a 3D040000 		.4byte	0x43d
 2298 042e 00       		.byte	0
 2299 042f 0C       		.uleb128 0xc
 2300 0430 8A120000 		.4byte	.LASF144
 2301 0434 05       		.byte	0x5
 2302 0435 4405     		.2byte	0x544
 2303 0437 AD000000 		.4byte	0xad
 2304 043b 06       		.byte	0x6
 2305 043c 00       		.byte	0
 2306 043d 0D       		.uleb128 0xd
 2307 043e AD000000 		.4byte	0xad
 2308 0442 4D040000 		.4byte	0x44d
 2309 0446 0E       		.uleb128 0xe
 2310 0447 F7000000 		.4byte	0xf7
 2311 044b 05       		.byte	0x5
 2312 044c 00       		.byte	0
 2313 044d 05       		.uleb128 0x5
 2314 044e 8A100000 		.4byte	.LASF145
 2315 0452 05       		.byte	0x5
 2316 0453 4505     		.2byte	0x545
 2317 0455 19040000 		.4byte	0x419
 2318 0459 0F       		.uleb128 0xf
 2319 045a 04       		.byte	0x4
 2320 045b AD000000 		.4byte	0xad
 2321 045f 0D       		.uleb128 0xd
 2322 0460 AD000000 		.4byte	0xad
 2323 0464 6F040000 		.4byte	0x46f
 2324 0468 0E       		.uleb128 0xe
 2325 0469 F7000000 		.4byte	0xf7
 2326 046d 0F       		.byte	0xf
 2327 046e 00       		.byte	0
 2328 046f 05       		.uleb128 0x5
 2329 0470 D0090000 		.4byte	.LASF146
 2330 0474 06       		.byte	0x6
 2331 0475 8901     		.2byte	0x189
 2332 0477 B9000000 		.4byte	0xb9
 2333 047b 0B       		.uleb128 0xb
 2334 047c 02       		.byte	0x2
 2335 047d 06       		.byte	0x6
 2336 047e 9301     		.2byte	0x193
 2337 0480 9F040000 		.4byte	0x49f
 2338 0484 0C       		.uleb128 0xc
 2339 0485 680C0000 		.4byte	.LASF147
 2340 0489 06       		.byte	0x6
 2341 048a 9A01     		.2byte	0x19a
 2342 048c AD000000 		.4byte	0xad
 2343 0490 00       		.byte	0
 2344 0491 0C       		.uleb128 0xc
ARM GAS  C:\Users\13740\AppData\Local\Temp\ccgojbJm.s 			page 56


 2345 0492 69150000 		.4byte	.LASF148
 2346 0496 06       		.byte	0x6
 2347 0497 A001     		.2byte	0x1a0
 2348 0499 AD000000 		.4byte	0xad
 2349 049d 01       		.byte	0x1
 2350 049e 00       		.byte	0
 2351 049f 05       		.uleb128 0x5
 2352 04a0 10060000 		.4byte	.LASF149
 2353 04a4 06       		.byte	0x6
 2354 04a5 A201     		.2byte	0x1a2
 2355 04a7 7B040000 		.4byte	0x47b
 2356 04ab 0B       		.uleb128 0xb
 2357 04ac 08       		.byte	0x8
 2358 04ad 06       		.byte	0x6
 2359 04ae BE01     		.2byte	0x1be
 2360 04b0 DC040000 		.4byte	0x4dc
 2361 04b4 10       		.uleb128 0x10
 2362 04b5 76616C00 		.ascii	"val\000"
 2363 04b9 06       		.byte	0x6
 2364 04ba C101     		.2byte	0x1c1
 2365 04bc 59040000 		.4byte	0x459
 2366 04c0 00       		.byte	0
 2367 04c1 10       		.uleb128 0x10
 2368 04c2 6C656E00 		.ascii	"len\000"
 2369 04c6 06       		.byte	0x6
 2370 04c7 C401     		.2byte	0x1c4
 2371 04c9 B9000000 		.4byte	0xb9
 2372 04cd 04       		.byte	0x4
 2373 04ce 0C       		.uleb128 0xc
 2374 04cf 64100000 		.4byte	.LASF150
 2375 04d3 06       		.byte	0x6
 2376 04d4 CB01     		.2byte	0x1cb
 2377 04d6 B9000000 		.4byte	0xb9
 2378 04da 06       		.byte	0x6
 2379 04db 00       		.byte	0
 2380 04dc 05       		.uleb128 0x5
 2381 04dd A3090000 		.4byte	.LASF151
 2382 04e1 06       		.byte	0x6
 2383 04e2 CD01     		.2byte	0x1cd
 2384 04e4 AB040000 		.4byte	0x4ab
 2385 04e8 0B       		.uleb128 0xb
 2386 04e9 0C       		.byte	0xc
 2387 04ea 06       		.byte	0x6
 2388 04eb D001     		.2byte	0x1d0
 2389 04ed 0C050000 		.4byte	0x50c
 2390 04f1 0C       		.uleb128 0xc
 2391 04f2 B1050000 		.4byte	.LASF152
 2392 04f6 06       		.byte	0x6
 2393 04f7 D301     		.2byte	0x1d3
 2394 04f9 DC040000 		.4byte	0x4dc
 2395 04fd 00       		.byte	0
 2396 04fe 0C       		.uleb128 0xc
 2397 04ff 6E070000 		.4byte	.LASF153
 2398 0503 06       		.byte	0x6
 2399 0504 D601     		.2byte	0x1d6
 2400 0506 6F040000 		.4byte	0x46f
 2401 050a 08       		.byte	0x8
ARM GAS  C:\Users\13740\AppData\Local\Temp\ccgojbJm.s 			page 57


 2402 050b 00       		.byte	0
 2403 050c 05       		.uleb128 0x5
 2404 050d F7110000 		.4byte	.LASF154
 2405 0511 06       		.byte	0x6
 2406 0512 D801     		.2byte	0x1d8
 2407 0514 E8040000 		.4byte	0x4e8
 2408 0518 03       		.uleb128 0x3
 2409 0519 24060000 		.4byte	.LASF155
 2410 051d 07       		.byte	0x7
 2411 051e 34       		.byte	0x34
 2412 051f 0C050000 		.4byte	0x50c
 2413 0523 08       		.uleb128 0x8
 2414 0524 01       		.byte	0x1
 2415 0525 37000000 		.4byte	0x37
 2416 0529 08       		.byte	0x8
 2417 052a 5008     		.2byte	0x850
 2418 052c 4F050000 		.4byte	0x54f
 2419 0530 09       		.uleb128 0x9
 2420 0531 EB040000 		.4byte	.LASF156
 2421 0535 00       		.byte	0
 2422 0536 09       		.uleb128 0x9
 2423 0537 5F0B0000 		.4byte	.LASF157
 2424 053b 01       		.byte	0x1
 2425 053c 09       		.uleb128 0x9
 2426 053d 5B050000 		.4byte	.LASF158
 2427 0541 02       		.byte	0x2
 2428 0542 09       		.uleb128 0x9
 2429 0543 DA150000 		.4byte	.LASF159
 2430 0547 03       		.byte	0x3
 2431 0548 09       		.uleb128 0x9
 2432 0549 A30C0000 		.4byte	.LASF160
 2433 054d 04       		.byte	0x4
 2434 054e 00       		.byte	0
 2435 054f 05       		.uleb128 0x5
 2436 0550 50080000 		.4byte	.LASF161
 2437 0554 08       		.byte	0x8
 2438 0555 5E08     		.2byte	0x85e
 2439 0557 23050000 		.4byte	0x523
 2440 055b 05       		.uleb128 0x5
 2441 055c C2140000 		.4byte	.LASF162
 2442 0560 09       		.byte	0x9
 2443 0561 7110     		.2byte	0x1071
 2444 0563 97000000 		.4byte	0x97
 2445 0567 08       		.uleb128 0x8
 2446 0568 01       		.byte	0x1
 2447 0569 37000000 		.4byte	0x37
 2448 056d 09       		.byte	0x9
 2449 056e 7710     		.2byte	0x1077
 2450 0570 81050000 		.4byte	0x581
 2451 0574 09       		.uleb128 0x9
 2452 0575 610C0000 		.4byte	.LASF163
 2453 0579 00       		.byte	0
 2454 057a 09       		.uleb128 0x9
 2455 057b 81090000 		.4byte	.LASF164
 2456 057f 01       		.byte	0x1
 2457 0580 00       		.byte	0
 2458 0581 05       		.uleb128 0x5
ARM GAS  C:\Users\13740\AppData\Local\Temp\ccgojbJm.s 			page 58


 2459 0582 560D0000 		.4byte	.LASF165
 2460 0586 09       		.byte	0x9
 2461 0587 7910     		.2byte	0x1079
 2462 0589 67050000 		.4byte	0x567
 2463 058d 0B       		.uleb128 0xb
 2464 058e 14       		.byte	0x14
 2465 058f 09       		.byte	0x9
 2466 0590 9B11     		.2byte	0x119b
 2467 0592 D8050000 		.4byte	0x5d8
 2468 0596 0C       		.uleb128 0xc
 2469 0597 E2060000 		.4byte	.LASF166
 2470 059b 09       		.byte	0x9
 2471 059c 9D11     		.2byte	0x119d
 2472 059e A2000000 		.4byte	0xa2
 2473 05a2 00       		.byte	0
 2474 05a3 0C       		.uleb128 0xc
 2475 05a4 E0040000 		.4byte	.LASF167
 2476 05a8 09       		.byte	0x9
 2477 05a9 9E11     		.2byte	0x119e
 2478 05ab A2000000 		.4byte	0xa2
 2479 05af 04       		.byte	0x4
 2480 05b0 0C       		.uleb128 0xc
 2481 05b1 860D0000 		.4byte	.LASF168
 2482 05b5 09       		.byte	0x9
 2483 05b6 9F11     		.2byte	0x119f
 2484 05b8 A2000000 		.4byte	0xa2
 2485 05bc 08       		.byte	0x8
 2486 05bd 0C       		.uleb128 0xc
 2487 05be AE0F0000 		.4byte	.LASF169
 2488 05c2 09       		.byte	0x9
 2489 05c3 A011     		.2byte	0x11a0
 2490 05c5 81050000 		.4byte	0x581
 2491 05c9 0C       		.byte	0xc
 2492 05ca 0C       		.uleb128 0xc
 2493 05cb F2150000 		.4byte	.LASF170
 2494 05cf 09       		.byte	0x9
 2495 05d0 A111     		.2byte	0x11a1
 2496 05d2 D8050000 		.4byte	0x5d8
 2497 05d6 10       		.byte	0x10
 2498 05d7 00       		.byte	0
 2499 05d8 0F       		.uleb128 0xf
 2500 05d9 04       		.byte	0x4
 2501 05da DE050000 		.4byte	0x5de
 2502 05de 11       		.uleb128 0x11
 2503 05df A2000000 		.4byte	0xa2
 2504 05e3 05       		.uleb128 0x5
 2505 05e4 79070000 		.4byte	.LASF171
 2506 05e8 09       		.byte	0x9
 2507 05e9 A211     		.2byte	0x11a2
 2508 05eb 8D050000 		.4byte	0x58d
 2509 05ef 0B       		.uleb128 0xb
 2510 05f0 08       		.byte	0x8
 2511 05f1 09       		.byte	0x9
 2512 05f2 7312     		.2byte	0x1273
 2513 05f4 13060000 		.4byte	0x613
 2514 05f8 0C       		.uleb128 0xc
 2515 05f9 17110000 		.4byte	.LASF172
ARM GAS  C:\Users\13740\AppData\Local\Temp\ccgojbJm.s 			page 59


 2516 05fd 09       		.byte	0x9
 2517 05fe 7512     		.2byte	0x1275
 2518 0600 D1000000 		.4byte	0xd1
 2519 0604 00       		.byte	0
 2520 0605 0C       		.uleb128 0xc
 2521 0606 F0030000 		.4byte	.LASF173
 2522 060a 09       		.byte	0x9
 2523 060b 7612     		.2byte	0x1276
 2524 060d D1000000 		.4byte	0xd1
 2525 0611 04       		.byte	0x4
 2526 0612 00       		.byte	0
 2527 0613 05       		.uleb128 0x5
 2528 0614 4A0A0000 		.4byte	.LASF174
 2529 0618 09       		.byte	0x9
 2530 0619 7712     		.2byte	0x1277
 2531 061b EF050000 		.4byte	0x5ef
 2532 061f 12       		.uleb128 0x12
 2533 0620 A0       		.byte	0xa0
 2534 0621 0A       		.byte	0xa
 2535 0622 1F       		.byte	0x1f
 2536 0623 A8070000 		.4byte	0x7a8
 2537 0627 13       		.uleb128 0x13
 2538 0628 87040000 		.4byte	.LASF175
 2539 062c 0A       		.byte	0xa
 2540 062d 22       		.byte	0x22
 2541 062e 81050000 		.4byte	0x581
 2542 0632 00       		.byte	0
 2543 0633 13       		.uleb128 0x13
 2544 0634 C5150000 		.4byte	.LASF176
 2545 0638 0A       		.byte	0xa
 2546 0639 23       		.byte	0x23
 2547 063a A2000000 		.4byte	0xa2
 2548 063e 04       		.byte	0x4
 2549 063f 13       		.uleb128 0x13
 2550 0640 09070000 		.4byte	.LASF177
 2551 0644 0A       		.byte	0xa
 2552 0645 24       		.byte	0x24
 2553 0646 A2000000 		.4byte	0xa2
 2554 064a 08       		.byte	0x8
 2555 064b 13       		.uleb128 0x13
 2556 064c E60E0000 		.4byte	.LASF178
 2557 0650 0A       		.byte	0xa
 2558 0651 25       		.byte	0x25
 2559 0652 A2000000 		.4byte	0xa2
 2560 0656 0C       		.byte	0xc
 2561 0657 13       		.uleb128 0x13
 2562 0658 D00E0000 		.4byte	.LASF179
 2563 065c 0A       		.byte	0xa
 2564 065d 26       		.byte	0x26
 2565 065e A2000000 		.4byte	0xa2
 2566 0662 10       		.byte	0x10
 2567 0663 13       		.uleb128 0x13
 2568 0664 10100000 		.4byte	.LASF180
 2569 0668 0A       		.byte	0xa
 2570 0669 29       		.byte	0x29
 2571 066a 81050000 		.4byte	0x581
 2572 066e 14       		.byte	0x14
ARM GAS  C:\Users\13740\AppData\Local\Temp\ccgojbJm.s 			page 60


 2573 066f 13       		.uleb128 0x13
 2574 0670 E5030000 		.4byte	.LASF181
 2575 0674 0A       		.byte	0xa
 2576 0675 2A       		.byte	0x2a
 2577 0676 D1000000 		.4byte	0xd1
 2578 067a 18       		.byte	0x18
 2579 067b 13       		.uleb128 0x13
 2580 067c 990B0000 		.4byte	.LASF182
 2581 0680 0A       		.byte	0xa
 2582 0681 2B       		.byte	0x2b
 2583 0682 D1000000 		.4byte	0xd1
 2584 0686 1C       		.byte	0x1c
 2585 0687 13       		.uleb128 0x13
 2586 0688 DA030000 		.4byte	.LASF183
 2587 068c 0A       		.byte	0xa
 2588 068d 2C       		.byte	0x2c
 2589 068e D1000000 		.4byte	0xd1
 2590 0692 20       		.byte	0x20
 2591 0693 13       		.uleb128 0x13
 2592 0694 D3080000 		.4byte	.LASF184
 2593 0698 0A       		.byte	0xa
 2594 0699 2D       		.byte	0x2d
 2595 069a A2000000 		.4byte	0xa2
 2596 069e 24       		.byte	0x24
 2597 069f 13       		.uleb128 0x13
 2598 06a0 5E080000 		.4byte	.LASF185
 2599 06a4 0A       		.byte	0xa
 2600 06a5 2E       		.byte	0x2e
 2601 06a6 D1000000 		.4byte	0xd1
 2602 06aa 28       		.byte	0x28
 2603 06ab 13       		.uleb128 0x13
 2604 06ac 86070000 		.4byte	.LASF186
 2605 06b0 0A       		.byte	0xa
 2606 06b1 2F       		.byte	0x2f
 2607 06b2 97000000 		.4byte	0x97
 2608 06b6 2C       		.byte	0x2c
 2609 06b7 13       		.uleb128 0x13
 2610 06b8 A7040000 		.4byte	.LASF187
 2611 06bc 0A       		.byte	0xa
 2612 06bd 30       		.byte	0x30
 2613 06be D1000000 		.4byte	0xd1
 2614 06c2 30       		.byte	0x30
 2615 06c3 13       		.uleb128 0x13
 2616 06c4 EE100000 		.4byte	.LASF188
 2617 06c8 0A       		.byte	0xa
 2618 06c9 31       		.byte	0x31
 2619 06ca D1000000 		.4byte	0xd1
 2620 06ce 34       		.byte	0x34
 2621 06cf 13       		.uleb128 0x13
 2622 06d0 5E030000 		.4byte	.LASF189
 2623 06d4 0A       		.byte	0xa
 2624 06d5 32       		.byte	0x32
 2625 06d6 A2000000 		.4byte	0xa2
 2626 06da 38       		.byte	0x38
 2627 06db 13       		.uleb128 0x13
 2628 06dc 39030000 		.4byte	.LASF190
 2629 06e0 0A       		.byte	0xa
ARM GAS  C:\Users\13740\AppData\Local\Temp\ccgojbJm.s 			page 61


 2630 06e1 33       		.byte	0x33
 2631 06e2 A2000000 		.4byte	0xa2
 2632 06e6 3C       		.byte	0x3c
 2633 06e7 13       		.uleb128 0x13
 2634 06e8 3D040000 		.4byte	.LASF191
 2635 06ec 0A       		.byte	0xa
 2636 06ed 34       		.byte	0x34
 2637 06ee 8C000000 		.4byte	0x8c
 2638 06f2 40       		.byte	0x40
 2639 06f3 13       		.uleb128 0x13
 2640 06f4 D40D0000 		.4byte	.LASF192
 2641 06f8 0A       		.byte	0xa
 2642 06f9 35       		.byte	0x35
 2643 06fa 8C000000 		.4byte	0x8c
 2644 06fe 41       		.byte	0x41
 2645 06ff 13       		.uleb128 0x13
 2646 0700 65030000 		.4byte	.LASF193
 2647 0704 0A       		.byte	0xa
 2648 0705 36       		.byte	0x36
 2649 0706 A2000000 		.4byte	0xa2
 2650 070a 44       		.byte	0x44
 2651 070b 13       		.uleb128 0x13
 2652 070c 90070000 		.4byte	.LASF194
 2653 0710 0A       		.byte	0xa
 2654 0711 37       		.byte	0x37
 2655 0712 A2000000 		.4byte	0xa2
 2656 0716 48       		.byte	0x48
 2657 0717 13       		.uleb128 0x13
 2658 0718 4D060000 		.4byte	.LASF195
 2659 071c 0A       		.byte	0xa
 2660 071d 38       		.byte	0x38
 2661 071e A2000000 		.4byte	0xa2
 2662 0722 4C       		.byte	0x4c
 2663 0723 13       		.uleb128 0x13
 2664 0724 66140000 		.4byte	.LASF196
 2665 0728 0A       		.byte	0xa
 2666 0729 39       		.byte	0x39
 2667 072a A2000000 		.4byte	0xa2
 2668 072e 50       		.byte	0x50
 2669 072f 13       		.uleb128 0x13
 2670 0730 EC000000 		.4byte	.LASF197
 2671 0734 0A       		.byte	0xa
 2672 0735 3A       		.byte	0x3a
 2673 0736 13060000 		.4byte	0x613
 2674 073a 54       		.byte	0x54
 2675 073b 13       		.uleb128 0x13
 2676 073c 52000000 		.4byte	.LASF198
 2677 0740 0A       		.byte	0xa
 2678 0741 3B       		.byte	0x3b
 2679 0742 D1000000 		.4byte	0xd1
 2680 0746 5C       		.byte	0x5c
 2681 0747 13       		.uleb128 0x13
 2682 0748 C50E0000 		.4byte	.LASF199
 2683 074c 0A       		.byte	0xa
 2684 074d 3C       		.byte	0x3c
 2685 074e D1000000 		.4byte	0xd1
 2686 0752 60       		.byte	0x60
ARM GAS  C:\Users\13740\AppData\Local\Temp\ccgojbJm.s 			page 62


 2687 0753 13       		.uleb128 0x13
 2688 0754 780A0000 		.4byte	.LASF200
 2689 0758 0A       		.byte	0xa
 2690 0759 3D       		.byte	0x3d
 2691 075a 81050000 		.4byte	0x581
 2692 075e 64       		.byte	0x64
 2693 075f 13       		.uleb128 0x13
 2694 0760 89000000 		.4byte	.LASF201
 2695 0764 0A       		.byte	0xa
 2696 0765 3E       		.byte	0x3e
 2697 0766 D1000000 		.4byte	0xd1
 2698 076a 68       		.byte	0x68
 2699 076b 13       		.uleb128 0x13
 2700 076c 65080000 		.4byte	.LASF202
 2701 0770 0A       		.byte	0xa
 2702 0771 3F       		.byte	0x3f
 2703 0772 81050000 		.4byte	0x581
 2704 0776 6C       		.byte	0x6c
 2705 0777 13       		.uleb128 0x13
 2706 0778 F9020000 		.4byte	.LASF203
 2707 077c 0A       		.byte	0xa
 2708 077d 40       		.byte	0x40
 2709 077e E3050000 		.4byte	0x5e3
 2710 0782 70       		.byte	0x70
 2711 0783 13       		.uleb128 0x13
 2712 0784 5F0E0000 		.4byte	.LASF204
 2713 0788 0A       		.byte	0xa
 2714 0789 41       		.byte	0x41
 2715 078a E3050000 		.4byte	0x5e3
 2716 078e 84       		.byte	0x84
 2717 078f 13       		.uleb128 0x13
 2718 0790 71030000 		.4byte	.LASF205
 2719 0794 0A       		.byte	0xa
 2720 0795 42       		.byte	0x42
 2721 0796 81050000 		.4byte	0x581
 2722 079a 98       		.byte	0x98
 2723 079b 13       		.uleb128 0x13
 2724 079c 21010000 		.4byte	.LASF206
 2725 07a0 0A       		.byte	0xa
 2726 07a1 43       		.byte	0x43
 2727 07a2 A2000000 		.4byte	0xa2
 2728 07a6 9C       		.byte	0x9c
 2729 07a7 00       		.byte	0
 2730 07a8 03       		.uleb128 0x3
 2731 07a9 EA020000 		.4byte	.LASF207
 2732 07ad 0A       		.byte	0xa
 2733 07ae 45       		.byte	0x45
 2734 07af 1F060000 		.4byte	0x61f
 2735 07b3 12       		.uleb128 0x12
 2736 07b4 08       		.byte	0x8
 2737 07b5 0A       		.byte	0xa
 2738 07b6 4A       		.byte	0x4a
 2739 07b7 D4070000 		.4byte	0x7d4
 2740 07bb 13       		.uleb128 0x13
 2741 07bc F7010000 		.4byte	.LASF208
 2742 07c0 0A       		.byte	0xa
 2743 07c1 4C       		.byte	0x4c
ARM GAS  C:\Users\13740\AppData\Local\Temp\ccgojbJm.s 			page 63


 2744 07c2 D1000000 		.4byte	0xd1
 2745 07c6 00       		.byte	0
 2746 07c7 13       		.uleb128 0x13
 2747 07c8 FF040000 		.4byte	.LASF209
 2748 07cc 0A       		.byte	0xa
 2749 07cd 4D       		.byte	0x4d
 2750 07ce D1000000 		.4byte	0xd1
 2751 07d2 04       		.byte	0x4
 2752 07d3 00       		.byte	0
 2753 07d4 03       		.uleb128 0x3
 2754 07d5 07050000 		.4byte	.LASF210
 2755 07d9 0A       		.byte	0xa
 2756 07da 4E       		.byte	0x4e
 2757 07db B3070000 		.4byte	0x7b3
 2758 07df 12       		.uleb128 0x12
 2759 07e0 14       		.byte	0x14
 2760 07e1 01       		.byte	0x1
 2761 07e2 1C       		.byte	0x1c
 2762 07e3 24080000 		.4byte	0x824
 2763 07e7 13       		.uleb128 0x13
 2764 07e8 6F080000 		.4byte	.LASF211
 2765 07ec 01       		.byte	0x1
 2766 07ed 1D       		.byte	0x1d
 2767 07ee D1000000 		.4byte	0xd1
 2768 07f2 00       		.byte	0
 2769 07f3 13       		.uleb128 0x13
 2770 07f4 01070000 		.4byte	.LASF212
 2771 07f8 01       		.byte	0x1
 2772 07f9 1E       		.byte	0x1e
 2773 07fa D1000000 		.4byte	0xd1
 2774 07fe 04       		.byte	0x4
 2775 07ff 13       		.uleb128 0x13
 2776 0800 E4000000 		.4byte	.LASF213
 2777 0804 01       		.byte	0x1
 2778 0805 1F       		.byte	0x1f
 2779 0806 D1000000 		.4byte	0xd1
 2780 080a 08       		.byte	0x8
 2781 080b 13       		.uleb128 0x13
 2782 080c D30B0000 		.4byte	.LASF214
 2783 0810 01       		.byte	0x1
 2784 0811 20       		.byte	0x20
 2785 0812 D1000000 		.4byte	0xd1
 2786 0816 0C       		.byte	0xc
 2787 0817 13       		.uleb128 0x13
 2788 0818 45140000 		.4byte	.LASF215
 2789 081c 01       		.byte	0x1
 2790 081d 21       		.byte	0x21
 2791 081e C5000000 		.4byte	0xc5
 2792 0822 10       		.byte	0x10
 2793 0823 00       		.byte	0
 2794 0824 03       		.uleb128 0x3
 2795 0825 E5120000 		.4byte	.LASF216
 2796 0829 01       		.byte	0x1
 2797 082a 22       		.byte	0x22
 2798 082b DF070000 		.4byte	0x7df
 2799 082f 14       		.uleb128 0x14
 2800 0830 01       		.byte	0x1
ARM GAS  C:\Users\13740\AppData\Local\Temp\ccgojbJm.s 			page 64


 2801 0831 37000000 		.4byte	0x37
 2802 0835 01       		.byte	0x1
 2803 0836 27       		.byte	0x27
 2804 0837 54080000 		.4byte	0x854
 2805 083b 09       		.uleb128 0x9
 2806 083c B7050000 		.4byte	.LASF217
 2807 0840 00       		.byte	0
 2808 0841 09       		.uleb128 0x9
 2809 0842 00000000 		.4byte	.LASF218
 2810 0846 01       		.byte	0x1
 2811 0847 09       		.uleb128 0x9
 2812 0848 880B0000 		.4byte	.LASF219
 2813 084c 02       		.byte	0x2
 2814 084d 09       		.uleb128 0x9
 2815 084e 7D120000 		.4byte	.LASF220
 2816 0852 03       		.byte	0x3
 2817 0853 00       		.byte	0
 2818 0854 03       		.uleb128 0x3
 2819 0855 49070000 		.4byte	.LASF221
 2820 0859 01       		.byte	0x1
 2821 085a 2C       		.byte	0x2c
 2822 085b 2F080000 		.4byte	0x82f
 2823 085f 15       		.uleb128 0x15
 2824 0860 9C0F0000 		.4byte	.LASF234
 2825 0864 01       		.byte	0x1
 2826 0865 3D       		.byte	0x3d
 2827 0866 00000000 		.4byte	.LFB36
 2828 086a 84010000 		.4byte	.LFE36-.LFB36
 2829 086e 01       		.uleb128 0x1
 2830 086f 9C       		.byte	0x9c
 2831 0870 83080000 		.4byte	0x883
 2832 0874 16       		.uleb128 0x16
 2833 0875 33030000 		.4byte	.LASF222
 2834 0879 01       		.byte	0x1
 2835 087a 3F       		.byte	0x3f
 2836 087b 5B050000 		.4byte	0x55b
 2837 087f 02       		.uleb128 0x2
 2838 0880 91       		.byte	0x91
 2839 0881 74       		.sleb128 -12
 2840 0882 00       		.byte	0
 2841 0883 17       		.uleb128 0x17
 2842 0884 DD0B0000 		.4byte	.LASF225
 2843 0888 01       		.byte	0x1
 2844 0889 8C       		.byte	0x8c
 2845 088a D1000000 		.4byte	0xd1
 2846 088e 00000000 		.4byte	.LFB37
 2847 0892 CC000000 		.4byte	.LFE37-.LFB37
 2848 0896 01       		.uleb128 0x1
 2849 0897 9C       		.byte	0x9c
 2850 0898 D5080000 		.4byte	0x8d5
 2851 089c 18       		.uleb128 0x18
 2852 089d 5E150000 		.4byte	.LASF227
 2853 08a1 01       		.byte	0x1
 2854 08a2 8C       		.byte	0x8c
 2855 08a3 54080000 		.4byte	0x854
 2856 08a7 02       		.uleb128 0x2
 2857 08a8 91       		.byte	0x91
ARM GAS  C:\Users\13740\AppData\Local\Temp\ccgojbJm.s 			page 65


 2858 08a9 5F       		.sleb128 -33
 2859 08aa 16       		.uleb128 0x16
 2860 08ab 0F090000 		.4byte	.LASF223
 2861 08af 01       		.byte	0x1
 2862 08b0 8E       		.byte	0x8e
 2863 08b1 D1000000 		.4byte	0xd1
 2864 08b5 02       		.uleb128 0x2
 2865 08b6 91       		.byte	0x91
 2866 08b7 6C       		.sleb128 -20
 2867 08b8 16       		.uleb128 0x16
 2868 08b9 DB120000 		.4byte	.LASF224
 2869 08bd 01       		.byte	0x1
 2870 08be 8F       		.byte	0x8f
 2871 08bf A2000000 		.4byte	0xa2
 2872 08c3 02       		.uleb128 0x2
 2873 08c4 91       		.byte	0x91
 2874 08c5 64       		.sleb128 -28
 2875 08c6 16       		.uleb128 0x16
 2876 08c7 33030000 		.4byte	.LASF222
 2877 08cb 01       		.byte	0x1
 2878 08cc 90       		.byte	0x90
 2879 08cd 5B050000 		.4byte	0x55b
 2880 08d1 02       		.uleb128 0x2
 2881 08d2 91       		.byte	0x91
 2882 08d3 68       		.sleb128 -24
 2883 08d4 00       		.byte	0
 2884 08d5 17       		.uleb128 0x17
 2885 08d6 EE130000 		.4byte	.LASF226
 2886 08da 01       		.byte	0x1
 2887 08db BC       		.byte	0xbc
 2888 08dc D1000000 		.4byte	0xd1
 2889 08e0 00000000 		.4byte	.LFB38
 2890 08e4 AC000000 		.4byte	.LFE38-.LFB38
 2891 08e8 01       		.uleb128 0x1
 2892 08e9 9C       		.byte	0x9c
 2893 08ea 19090000 		.4byte	0x919
 2894 08ee 18       		.uleb128 0x18
 2895 08ef 20150000 		.4byte	.LASF228
 2896 08f3 01       		.byte	0x1
 2897 08f4 BC       		.byte	0xbc
 2898 08f5 D1000000 		.4byte	0xd1
 2899 08f9 02       		.uleb128 0x2
 2900 08fa 91       		.byte	0x91
 2901 08fb 64       		.sleb128 -28
 2902 08fc 18       		.uleb128 0x18
 2903 08fd 5E150000 		.4byte	.LASF227
 2904 0901 01       		.byte	0x1
 2905 0902 BC       		.byte	0xbc
 2906 0903 54080000 		.4byte	0x854
 2907 0907 02       		.uleb128 0x2
 2908 0908 91       		.byte	0x91
 2909 0909 63       		.sleb128 -29
 2910 090a 16       		.uleb128 0x16
 2911 090b 3C0A0000 		.4byte	.LASF229
 2912 090f 01       		.byte	0x1
 2913 0910 BE       		.byte	0xbe
 2914 0911 D1000000 		.4byte	0xd1
ARM GAS  C:\Users\13740\AppData\Local\Temp\ccgojbJm.s 			page 66


 2915 0915 02       		.uleb128 0x2
 2916 0916 91       		.byte	0x91
 2917 0917 6C       		.sleb128 -20
 2918 0918 00       		.byte	0
 2919 0919 17       		.uleb128 0x17
 2920 091a AF140000 		.4byte	.LASF230
 2921 091e 01       		.byte	0x1
 2922 091f DD       		.byte	0xdd
 2923 0920 D1000000 		.4byte	0xd1
 2924 0924 00000000 		.4byte	.LFB39
 2925 0928 48000000 		.4byte	.LFE39-.LFB39
 2926 092c 01       		.uleb128 0x1
 2927 092d 9C       		.byte	0x9c
 2928 092e 62090000 		.4byte	0x962
 2929 0932 16       		.uleb128 0x16
 2930 0933 6F080000 		.4byte	.LASF211
 2931 0937 01       		.byte	0x1
 2932 0938 DF       		.byte	0xdf
 2933 0939 D1000000 		.4byte	0xd1
 2934 093d 02       		.uleb128 0x2
 2935 093e 91       		.byte	0x91
 2936 093f 6C       		.sleb128 -20
 2937 0940 19       		.uleb128 0x19
 2938 0941 D2150000 		.4byte	.LASF231
 2939 0945 01       		.byte	0x1
 2940 0946 E0       		.byte	0xe0
 2941 0947 A2000000 		.4byte	0xa2
 2942 094b 19       		.uleb128 0x19
 2943 094c 54020000 		.4byte	.LASF232
 2944 0950 01       		.byte	0x1
 2945 0951 E1       		.byte	0xe1
 2946 0952 D1000000 		.4byte	0xd1
 2947 0956 19       		.uleb128 0x19
 2948 0957 4F140000 		.4byte	.LASF233
 2949 095b 01       		.byte	0x1
 2950 095c E1       		.byte	0xe1
 2951 095d D1000000 		.4byte	0xd1
 2952 0961 00       		.byte	0
 2953 0962 1A       		.uleb128 0x1a
 2954 0963 78050000 		.4byte	.LASF235
 2955 0967 01       		.byte	0x1
 2956 0968 0C01     		.2byte	0x10c
 2957 096a 00000000 		.4byte	.LFB40
 2958 096e 78010000 		.4byte	.LFE40-.LFB40
 2959 0972 01       		.uleb128 0x1
 2960 0973 9C       		.byte	0x9c
 2961 0974 97090000 		.4byte	0x997
 2962 0978 1B       		.uleb128 0x1b
 2963 0979 20150000 		.4byte	.LASF228
 2964 097d 01       		.byte	0x1
 2965 097e 0E01     		.2byte	0x10e
 2966 0980 D1000000 		.4byte	0xd1
 2967 0984 02       		.uleb128 0x2
 2968 0985 91       		.byte	0x91
 2969 0986 6C       		.sleb128 -20
 2970 0987 1B       		.uleb128 0x1b
 2971 0988 2B0B0000 		.4byte	.LASF236
ARM GAS  C:\Users\13740\AppData\Local\Temp\ccgojbJm.s 			page 67


 2972 098c 01       		.byte	0x1
 2973 098d 2501     		.2byte	0x125
 2974 098f D1000000 		.4byte	0xd1
 2975 0993 02       		.uleb128 0x2
 2976 0994 91       		.byte	0x91
 2977 0995 68       		.sleb128 -24
 2978 0996 00       		.byte	0
 2979 0997 1A       		.uleb128 0x1a
 2980 0998 E50C0000 		.4byte	.LASF237
 2981 099c 01       		.byte	0x1
 2982 099d 3501     		.2byte	0x135
 2983 099f 00000000 		.4byte	.LFB41
 2984 09a3 44000000 		.4byte	.LFE41-.LFB41
 2985 09a7 01       		.uleb128 0x1
 2986 09a8 9C       		.byte	0x9c
 2987 09a9 BD090000 		.4byte	0x9bd
 2988 09ad 1C       		.uleb128 0x1c
 2989 09ae 71050000 		.4byte	.LASF238
 2990 09b2 01       		.byte	0x1
 2991 09b3 3501     		.2byte	0x135
 2992 09b5 AD000000 		.4byte	0xad
 2993 09b9 02       		.uleb128 0x2
 2994 09ba 91       		.byte	0x91
 2995 09bb 77       		.sleb128 -9
 2996 09bc 00       		.byte	0
 2997 09bd 1A       		.uleb128 0x1a
 2998 09be 1C0C0000 		.4byte	.LASF239
 2999 09c2 01       		.byte	0x1
 3000 09c3 4901     		.2byte	0x149
 3001 09c5 00000000 		.4byte	.LFB42
 3002 09c9 44000000 		.4byte	.LFE42-.LFB42
 3003 09cd 01       		.uleb128 0x1
 3004 09ce 9C       		.byte	0x9c
 3005 09cf E3090000 		.4byte	0x9e3
 3006 09d3 1C       		.uleb128 0x1c
 3007 09d4 71050000 		.4byte	.LASF238
 3008 09d8 01       		.byte	0x1
 3009 09d9 4901     		.2byte	0x149
 3010 09db AD000000 		.4byte	0xad
 3011 09df 02       		.uleb128 0x2
 3012 09e0 91       		.byte	0x91
 3013 09e1 77       		.sleb128 -9
 3014 09e2 00       		.byte	0
 3015 09e3 1A       		.uleb128 0x1a
 3016 09e4 B3120000 		.4byte	.LASF240
 3017 09e8 01       		.byte	0x1
 3018 09e9 5E01     		.2byte	0x15e
 3019 09eb 00000000 		.4byte	.LFB43
 3020 09ef BC000000 		.4byte	.LFE43-.LFB43
 3021 09f3 01       		.uleb128 0x1
 3022 09f4 9C       		.byte	0x9c
 3023 09f5 180A0000 		.4byte	0xa18
 3024 09f9 1B       		.uleb128 0x1b
 3025 09fa 5F000000 		.4byte	.LASF241
 3026 09fe 01       		.byte	0x1
 3027 09ff 6001     		.2byte	0x160
 3028 0a01 18050000 		.4byte	0x518
ARM GAS  C:\Users\13740\AppData\Local\Temp\ccgojbJm.s 			page 68


 3029 0a05 02       		.uleb128 0x2
 3030 0a06 91       		.byte	0x91
 3031 0a07 6C       		.sleb128 -20
 3032 0a08 1B       		.uleb128 0x1b
 3033 0a09 C4130000 		.4byte	.LASF242
 3034 0a0d 01       		.byte	0x1
 3035 0a0e 6101     		.2byte	0x161
 3036 0a10 5F040000 		.4byte	0x45f
 3037 0a14 02       		.uleb128 0x2
 3038 0a15 91       		.byte	0x91
 3039 0a16 5C       		.sleb128 -36
 3040 0a17 00       		.byte	0
 3041 0a18 1A       		.uleb128 0x1a
 3042 0a19 3A120000 		.4byte	.LASF243
 3043 0a1d 01       		.byte	0x1
 3044 0a1e 7E01     		.2byte	0x17e
 3045 0a20 00000000 		.4byte	.LFB44
 3046 0a24 4C000000 		.4byte	.LFE44-.LFB44
 3047 0a28 01       		.uleb128 0x1
 3048 0a29 9C       		.byte	0x9c
 3049 0a2a 410A0000 		.4byte	0xa41
 3050 0a2e 1D       		.uleb128 0x1d
 3051 0a2f 6C656400 		.ascii	"led\000"
 3052 0a33 01       		.byte	0x1
 3053 0a34 8001     		.2byte	0x180
 3054 0a36 AD000000 		.4byte	0xad
 3055 0a3a 05       		.uleb128 0x5
 3056 0a3b 03       		.byte	0x3
 3057 0a3c 00000000 		.4byte	led.9696
 3058 0a40 00       		.byte	0
 3059 0a41 1A       		.uleb128 0x1a
 3060 0a42 780C0000 		.4byte	.LASF244
 3061 0a46 01       		.byte	0x1
 3062 0a47 9201     		.2byte	0x192
 3063 0a49 00000000 		.4byte	.LFB45
 3064 0a4d AC000000 		.4byte	.LFE45-.LFB45
 3065 0a51 01       		.uleb128 0x1
 3066 0a52 9C       		.byte	0x9c
 3067 0a53 800A0000 		.4byte	0xa80
 3068 0a57 1C       		.uleb128 0x1c
 3069 0a58 49040000 		.4byte	.LASF245
 3070 0a5c 01       		.byte	0x1
 3071 0a5d 9201     		.2byte	0x192
 3072 0a5f C5000000 		.4byte	0xc5
 3073 0a63 02       		.uleb128 0x2
 3074 0a64 91       		.byte	0x91
 3075 0a65 74       		.sleb128 -12
 3076 0a66 1C       		.uleb128 0x1c
 3077 0a67 F9000000 		.4byte	.LASF246
 3078 0a6b 01       		.byte	0x1
 3079 0a6c 9201     		.2byte	0x192
 3080 0a6e FE000000 		.4byte	0xfe
 3081 0a72 02       		.uleb128 0x2
 3082 0a73 91       		.byte	0x91
 3083 0a74 70       		.sleb128 -16
 3084 0a75 1E       		.uleb128 0x1e
 3085 0a76 6900     		.ascii	"i\000"
ARM GAS  C:\Users\13740\AppData\Local\Temp\ccgojbJm.s 			page 69


 3086 0a78 01       		.byte	0x1
 3087 0a79 9401     		.2byte	0x194
 3088 0a7b B9000000 		.4byte	0xb9
 3089 0a7f 00       		.byte	0
 3090 0a80 1F       		.uleb128 0x1f
 3091 0a81 1A090000 		.4byte	.LASF264
 3092 0a85 01       		.byte	0x1
 3093 0a86 C601     		.2byte	0x1c6
 3094 0a88 00000000 		.4byte	.LFB46
 3095 0a8c 74000000 		.4byte	.LFE46-.LFB46
 3096 0a90 01       		.uleb128 0x1
 3097 0a91 9C       		.byte	0x9c
 3098 0a92 B50A0000 		.4byte	0xab5
 3099 0a96 1B       		.uleb128 0x1b
 3100 0a97 56090000 		.4byte	.LASF247
 3101 0a9b 01       		.byte	0x1
 3102 0a9c C801     		.2byte	0x1c8
 3103 0a9e CF030000 		.4byte	0x3cf
 3104 0aa2 02       		.uleb128 0x2
 3105 0aa3 91       		.byte	0x91
 3106 0aa4 6F       		.sleb128 -17
 3107 0aa5 1B       		.uleb128 0x1b
 3108 0aa6 22080000 		.4byte	.LASF248
 3109 0aaa 01       		.byte	0x1
 3110 0aab C901     		.2byte	0x1c9
 3111 0aad AD000000 		.4byte	0xad
 3112 0ab1 02       		.uleb128 0x2
 3113 0ab2 91       		.byte	0x91
 3114 0ab3 6E       		.sleb128 -18
 3115 0ab4 00       		.byte	0
 3116 0ab5 20       		.uleb128 0x20
 3117 0ab6 21110000 		.4byte	.LASF265
 3118 0aba 01       		.byte	0x1
 3119 0abb EB01     		.2byte	0x1eb
 3120 0abd 7E000000 		.4byte	0x7e
 3121 0ac1 00000000 		.4byte	.LFB47
 3122 0ac5 70010000 		.4byte	.LFE47-.LFB47
 3123 0ac9 01       		.uleb128 0x1
 3124 0aca 9C       		.byte	0x9c
 3125 0acb 1A       		.uleb128 0x1a
 3126 0acc 0F130000 		.4byte	.LASF249
 3127 0ad0 01       		.byte	0x1
 3128 0ad1 4D02     		.2byte	0x24d
 3129 0ad3 00000000 		.4byte	.LFB48
 3130 0ad7 A4000000 		.4byte	.LFE48-.LFB48
 3131 0adb 01       		.uleb128 0x1
 3132 0adc 9C       		.byte	0x9c
 3133 0add FE0A0000 		.4byte	0xafe
 3134 0ae1 1D       		.uleb128 0x1d
 3135 0ae2 6900     		.ascii	"i\000"
 3136 0ae4 01       		.byte	0x1
 3137 0ae5 4F02     		.2byte	0x24f
 3138 0ae7 B9000000 		.4byte	0xb9
 3139 0aeb 02       		.uleb128 0x2
 3140 0aec 91       		.byte	0x91
 3141 0aed 76       		.sleb128 -10
 3142 0aee 1B       		.uleb128 0x1b
ARM GAS  C:\Users\13740\AppData\Local\Temp\ccgojbJm.s 			page 70


 3143 0aef D30A0000 		.4byte	.LASF250
 3144 0af3 01       		.byte	0x1
 3145 0af4 5002     		.2byte	0x250
 3146 0af6 4D040000 		.4byte	0x44d
 3147 0afa 02       		.uleb128 0x2
 3148 0afb 91       		.byte	0x91
 3149 0afc 6C       		.sleb128 -20
 3150 0afd 00       		.byte	0
 3151 0afe 21       		.uleb128 0x21
 3152 0aff 8B0A0000 		.4byte	.LASF251
 3153 0b03 0B       		.byte	0xb
 3154 0b04 C202     		.2byte	0x2c2
 3155 0b06 AD000000 		.4byte	0xad
 3156 0b0a 21       		.uleb128 0x21
 3157 0b0b 04060000 		.4byte	.LASF252
 3158 0b0f 08       		.byte	0x8
 3159 0b10 A90A     		.2byte	0xaa9
 3160 0b12 4F050000 		.4byte	0x54f
 3161 0b16 21       		.uleb128 0x21
 3162 0b17 14050000 		.4byte	.LASF253
 3163 0b1b 08       		.byte	0x8
 3164 0b1c AA0A     		.2byte	0xaaa
 3165 0b1e 9F040000 		.4byte	0x49f
 3166 0b22 22       		.uleb128 0x22
 3167 0b23 DD0A0000 		.4byte	.LASF254
 3168 0b27 01       		.byte	0x1
 3169 0b28 19       		.byte	0x19
 3170 0b29 97030000 		.4byte	0x397
 3171 0b2d 05       		.uleb128 0x5
 3172 0b2e 03       		.byte	0x3
 3173 0b2f 00000000 		.4byte	apiResult
 3174 0b33 22       		.uleb128 0x22
 3175 0b34 7E030000 		.4byte	.LASF255
 3176 0b38 01       		.byte	0x1
 3177 0b39 17       		.byte	0x17
 3178 0b3a EB000000 		.4byte	0xeb
 3179 0b3e 05       		.uleb128 0x5
 3180 0b3f 03       		.byte	0x3
 3181 0b40 00000000 		.4byte	mainTimer
 3182 0b44 22       		.uleb128 0x22
 3183 0b45 5E070000 		.4byte	.LASF256
 3184 0b49 01       		.byte	0x1
 3185 0b4a 18       		.byte	0x18
 3186 0b4b E6000000 		.4byte	0xe6
 3187 0b4f 05       		.uleb128 0x5
 3188 0b50 03       		.byte	0x3
 3189 0b51 00000000 		.4byte	measurementFlag
 3190 0b55 22       		.uleb128 0x22
 3191 0b56 800A0000 		.4byte	.LASF257
 3192 0b5a 01       		.byte	0x1
 3193 0b5b 25       		.byte	0x25
 3194 0b5c 24080000 		.4byte	0x824
 3195 0b60 05       		.uleb128 0x5
 3196 0b61 03       		.byte	0x3
 3197 0b62 00000000 		.4byte	sensorData
 3198 0b66 22       		.uleb128 0x22
 3199 0b67 55060000 		.4byte	.LASF258
ARM GAS  C:\Users\13740\AppData\Local\Temp\ccgojbJm.s 			page 71


 3200 0b6b 01       		.byte	0x1
 3201 0b6c 33       		.byte	0x33
 3202 0b6d 770B0000 		.4byte	0xb77
 3203 0b71 05       		.uleb128 0x5
 3204 0b72 03       		.byte	0x3
 3205 0b73 00000000 		.4byte	pAmpCfg
 3206 0b77 0F       		.uleb128 0xf
 3207 0b78 04       		.byte	0x4
 3208 0b79 A8070000 		.4byte	0x7a8
 3209 0b7d 0D       		.uleb128 0xd
 3210 0b7e C5000000 		.4byte	0xc5
 3211 0b82 8E0B0000 		.4byte	0xb8e
 3212 0b86 23       		.uleb128 0x23
 3213 0b87 F7000000 		.4byte	0xf7
 3214 0b8b FF01     		.2byte	0x1ff
 3215 0b8d 00       		.byte	0
 3216 0b8e 22       		.uleb128 0x22
 3217 0b8f 29030000 		.4byte	.LASF259
 3218 0b93 01       		.byte	0x1
 3219 0b94 34       		.byte	0x34
 3220 0b95 7D0B0000 		.4byte	0xb7d
 3221 0b99 05       		.uleb128 0x5
 3222 0b9a 03       		.byte	0x3
 3223 0b9b 00000000 		.4byte	ampBuffer
 3224 0b9f 22       		.uleb128 0x22
 3225 0ba0 43060000 		.4byte	.LASF260
 3226 0ba4 01       		.byte	0x1
 3227 0ba5 35       		.byte	0x35
 3228 0ba6 D4070000 		.4byte	0x7d4
 3229 0baa 05       		.uleb128 0x5
 3230 0bab 03       		.byte	0x3
 3231 0bac 00000000 		.4byte	ampResult
 3232 0bb0 00       		.byte	0
 3233              		.section	.debug_abbrev,"",%progbits
 3234              	.Ldebug_abbrev0:
 3235 0000 01       		.uleb128 0x1
 3236 0001 11       		.uleb128 0x11
 3237 0002 01       		.byte	0x1
 3238 0003 25       		.uleb128 0x25
 3239 0004 0E       		.uleb128 0xe
 3240 0005 13       		.uleb128 0x13
 3241 0006 0B       		.uleb128 0xb
 3242 0007 03       		.uleb128 0x3
 3243 0008 0E       		.uleb128 0xe
 3244 0009 1B       		.uleb128 0x1b
 3245 000a 0E       		.uleb128 0xe
 3246 000b 55       		.uleb128 0x55
 3247 000c 17       		.uleb128 0x17
 3248 000d 11       		.uleb128 0x11
 3249 000e 01       		.uleb128 0x1
 3250 000f 10       		.uleb128 0x10
 3251 0010 17       		.uleb128 0x17
 3252 0011 00       		.byte	0
 3253 0012 00       		.byte	0
 3254 0013 02       		.uleb128 0x2
 3255 0014 24       		.uleb128 0x24
 3256 0015 00       		.byte	0
ARM GAS  C:\Users\13740\AppData\Local\Temp\ccgojbJm.s 			page 72


 3257 0016 0B       		.uleb128 0xb
 3258 0017 0B       		.uleb128 0xb
 3259 0018 3E       		.uleb128 0x3e
 3260 0019 0B       		.uleb128 0xb
 3261 001a 03       		.uleb128 0x3
 3262 001b 0E       		.uleb128 0xe
 3263 001c 00       		.byte	0
 3264 001d 00       		.byte	0
 3265 001e 03       		.uleb128 0x3
 3266 001f 16       		.uleb128 0x16
 3267 0020 00       		.byte	0
 3268 0021 03       		.uleb128 0x3
 3269 0022 0E       		.uleb128 0xe
 3270 0023 3A       		.uleb128 0x3a
 3271 0024 0B       		.uleb128 0xb
 3272 0025 3B       		.uleb128 0x3b
 3273 0026 0B       		.uleb128 0xb
 3274 0027 49       		.uleb128 0x49
 3275 0028 13       		.uleb128 0x13
 3276 0029 00       		.byte	0
 3277 002a 00       		.byte	0
 3278 002b 04       		.uleb128 0x4
 3279 002c 24       		.uleb128 0x24
 3280 002d 00       		.byte	0
 3281 002e 0B       		.uleb128 0xb
 3282 002f 0B       		.uleb128 0xb
 3283 0030 3E       		.uleb128 0x3e
 3284 0031 0B       		.uleb128 0xb
 3285 0032 03       		.uleb128 0x3
 3286 0033 08       		.uleb128 0x8
 3287 0034 00       		.byte	0
 3288 0035 00       		.byte	0
 3289 0036 05       		.uleb128 0x5
 3290 0037 16       		.uleb128 0x16
 3291 0038 00       		.byte	0
 3292 0039 03       		.uleb128 0x3
 3293 003a 0E       		.uleb128 0xe
 3294 003b 3A       		.uleb128 0x3a
 3295 003c 0B       		.uleb128 0xb
 3296 003d 3B       		.uleb128 0x3b
 3297 003e 05       		.uleb128 0x5
 3298 003f 49       		.uleb128 0x49
 3299 0040 13       		.uleb128 0x13
 3300 0041 00       		.byte	0
 3301 0042 00       		.byte	0
 3302 0043 06       		.uleb128 0x6
 3303 0044 35       		.uleb128 0x35
 3304 0045 00       		.byte	0
 3305 0046 49       		.uleb128 0x49
 3306 0047 13       		.uleb128 0x13
 3307 0048 00       		.byte	0
 3308 0049 00       		.byte	0
 3309 004a 07       		.uleb128 0x7
 3310 004b 0F       		.uleb128 0xf
 3311 004c 00       		.byte	0
 3312 004d 0B       		.uleb128 0xb
 3313 004e 0B       		.uleb128 0xb
ARM GAS  C:\Users\13740\AppData\Local\Temp\ccgojbJm.s 			page 73


 3314 004f 00       		.byte	0
 3315 0050 00       		.byte	0
 3316 0051 08       		.uleb128 0x8
 3317 0052 04       		.uleb128 0x4
 3318 0053 01       		.byte	0x1
 3319 0054 0B       		.uleb128 0xb
 3320 0055 0B       		.uleb128 0xb
 3321 0056 49       		.uleb128 0x49
 3322 0057 13       		.uleb128 0x13
 3323 0058 3A       		.uleb128 0x3a
 3324 0059 0B       		.uleb128 0xb
 3325 005a 3B       		.uleb128 0x3b
 3326 005b 05       		.uleb128 0x5
 3327 005c 01       		.uleb128 0x1
 3328 005d 13       		.uleb128 0x13
 3329 005e 00       		.byte	0
 3330 005f 00       		.byte	0
 3331 0060 09       		.uleb128 0x9
 3332 0061 28       		.uleb128 0x28
 3333 0062 00       		.byte	0
 3334 0063 03       		.uleb128 0x3
 3335 0064 0E       		.uleb128 0xe
 3336 0065 1C       		.uleb128 0x1c
 3337 0066 0B       		.uleb128 0xb
 3338 0067 00       		.byte	0
 3339 0068 00       		.byte	0
 3340 0069 0A       		.uleb128 0xa
 3341 006a 28       		.uleb128 0x28
 3342 006b 00       		.byte	0
 3343 006c 03       		.uleb128 0x3
 3344 006d 0E       		.uleb128 0xe
 3345 006e 1C       		.uleb128 0x1c
 3346 006f 05       		.uleb128 0x5
 3347 0070 00       		.byte	0
 3348 0071 00       		.byte	0
 3349 0072 0B       		.uleb128 0xb
 3350 0073 13       		.uleb128 0x13
 3351 0074 01       		.byte	0x1
 3352 0075 0B       		.uleb128 0xb
 3353 0076 0B       		.uleb128 0xb
 3354 0077 3A       		.uleb128 0x3a
 3355 0078 0B       		.uleb128 0xb
 3356 0079 3B       		.uleb128 0x3b
 3357 007a 05       		.uleb128 0x5
 3358 007b 01       		.uleb128 0x1
 3359 007c 13       		.uleb128 0x13
 3360 007d 00       		.byte	0
 3361 007e 00       		.byte	0
 3362 007f 0C       		.uleb128 0xc
 3363 0080 0D       		.uleb128 0xd
 3364 0081 00       		.byte	0
 3365 0082 03       		.uleb128 0x3
 3366 0083 0E       		.uleb128 0xe
 3367 0084 3A       		.uleb128 0x3a
 3368 0085 0B       		.uleb128 0xb
 3369 0086 3B       		.uleb128 0x3b
 3370 0087 05       		.uleb128 0x5
ARM GAS  C:\Users\13740\AppData\Local\Temp\ccgojbJm.s 			page 74


 3371 0088 49       		.uleb128 0x49
 3372 0089 13       		.uleb128 0x13
 3373 008a 38       		.uleb128 0x38
 3374 008b 0B       		.uleb128 0xb
 3375 008c 00       		.byte	0
 3376 008d 00       		.byte	0
 3377 008e 0D       		.uleb128 0xd
 3378 008f 01       		.uleb128 0x1
 3379 0090 01       		.byte	0x1
 3380 0091 49       		.uleb128 0x49
 3381 0092 13       		.uleb128 0x13
 3382 0093 01       		.uleb128 0x1
 3383 0094 13       		.uleb128 0x13
 3384 0095 00       		.byte	0
 3385 0096 00       		.byte	0
 3386 0097 0E       		.uleb128 0xe
 3387 0098 21       		.uleb128 0x21
 3388 0099 00       		.byte	0
 3389 009a 49       		.uleb128 0x49
 3390 009b 13       		.uleb128 0x13
 3391 009c 2F       		.uleb128 0x2f
 3392 009d 0B       		.uleb128 0xb
 3393 009e 00       		.byte	0
 3394 009f 00       		.byte	0
 3395 00a0 0F       		.uleb128 0xf
 3396 00a1 0F       		.uleb128 0xf
 3397 00a2 00       		.byte	0
 3398 00a3 0B       		.uleb128 0xb
 3399 00a4 0B       		.uleb128 0xb
 3400 00a5 49       		.uleb128 0x49
 3401 00a6 13       		.uleb128 0x13
 3402 00a7 00       		.byte	0
 3403 00a8 00       		.byte	0
 3404 00a9 10       		.uleb128 0x10
 3405 00aa 0D       		.uleb128 0xd
 3406 00ab 00       		.byte	0
 3407 00ac 03       		.uleb128 0x3
 3408 00ad 08       		.uleb128 0x8
 3409 00ae 3A       		.uleb128 0x3a
 3410 00af 0B       		.uleb128 0xb
 3411 00b0 3B       		.uleb128 0x3b
 3412 00b1 05       		.uleb128 0x5
 3413 00b2 49       		.uleb128 0x49
 3414 00b3 13       		.uleb128 0x13
 3415 00b4 38       		.uleb128 0x38
 3416 00b5 0B       		.uleb128 0xb
 3417 00b6 00       		.byte	0
 3418 00b7 00       		.byte	0
 3419 00b8 11       		.uleb128 0x11
 3420 00b9 26       		.uleb128 0x26
 3421 00ba 00       		.byte	0
 3422 00bb 49       		.uleb128 0x49
 3423 00bc 13       		.uleb128 0x13
 3424 00bd 00       		.byte	0
 3425 00be 00       		.byte	0
 3426 00bf 12       		.uleb128 0x12
 3427 00c0 13       		.uleb128 0x13
ARM GAS  C:\Users\13740\AppData\Local\Temp\ccgojbJm.s 			page 75


 3428 00c1 01       		.byte	0x1
 3429 00c2 0B       		.uleb128 0xb
 3430 00c3 0B       		.uleb128 0xb
 3431 00c4 3A       		.uleb128 0x3a
 3432 00c5 0B       		.uleb128 0xb
 3433 00c6 3B       		.uleb128 0x3b
 3434 00c7 0B       		.uleb128 0xb
 3435 00c8 01       		.uleb128 0x1
 3436 00c9 13       		.uleb128 0x13
 3437 00ca 00       		.byte	0
 3438 00cb 00       		.byte	0
 3439 00cc 13       		.uleb128 0x13
 3440 00cd 0D       		.uleb128 0xd
 3441 00ce 00       		.byte	0
 3442 00cf 03       		.uleb128 0x3
 3443 00d0 0E       		.uleb128 0xe
 3444 00d1 3A       		.uleb128 0x3a
 3445 00d2 0B       		.uleb128 0xb
 3446 00d3 3B       		.uleb128 0x3b
 3447 00d4 0B       		.uleb128 0xb
 3448 00d5 49       		.uleb128 0x49
 3449 00d6 13       		.uleb128 0x13
 3450 00d7 38       		.uleb128 0x38
 3451 00d8 0B       		.uleb128 0xb
 3452 00d9 00       		.byte	0
 3453 00da 00       		.byte	0
 3454 00db 14       		.uleb128 0x14
 3455 00dc 04       		.uleb128 0x4
 3456 00dd 01       		.byte	0x1
 3457 00de 0B       		.uleb128 0xb
 3458 00df 0B       		.uleb128 0xb
 3459 00e0 49       		.uleb128 0x49
 3460 00e1 13       		.uleb128 0x13
 3461 00e2 3A       		.uleb128 0x3a
 3462 00e3 0B       		.uleb128 0xb
 3463 00e4 3B       		.uleb128 0x3b
 3464 00e5 0B       		.uleb128 0xb
 3465 00e6 01       		.uleb128 0x1
 3466 00e7 13       		.uleb128 0x13
 3467 00e8 00       		.byte	0
 3468 00e9 00       		.byte	0
 3469 00ea 15       		.uleb128 0x15
 3470 00eb 2E       		.uleb128 0x2e
 3471 00ec 01       		.byte	0x1
 3472 00ed 3F       		.uleb128 0x3f
 3473 00ee 19       		.uleb128 0x19
 3474 00ef 03       		.uleb128 0x3
 3475 00f0 0E       		.uleb128 0xe
 3476 00f1 3A       		.uleb128 0x3a
 3477 00f2 0B       		.uleb128 0xb
 3478 00f3 3B       		.uleb128 0x3b
 3479 00f4 0B       		.uleb128 0xb
 3480 00f5 27       		.uleb128 0x27
 3481 00f6 19       		.uleb128 0x19
 3482 00f7 11       		.uleb128 0x11
 3483 00f8 01       		.uleb128 0x1
 3484 00f9 12       		.uleb128 0x12
ARM GAS  C:\Users\13740\AppData\Local\Temp\ccgojbJm.s 			page 76


 3485 00fa 06       		.uleb128 0x6
 3486 00fb 40       		.uleb128 0x40
 3487 00fc 18       		.uleb128 0x18
 3488 00fd 9642     		.uleb128 0x2116
 3489 00ff 19       		.uleb128 0x19
 3490 0100 01       		.uleb128 0x1
 3491 0101 13       		.uleb128 0x13
 3492 0102 00       		.byte	0
 3493 0103 00       		.byte	0
 3494 0104 16       		.uleb128 0x16
 3495 0105 34       		.uleb128 0x34
 3496 0106 00       		.byte	0
 3497 0107 03       		.uleb128 0x3
 3498 0108 0E       		.uleb128 0xe
 3499 0109 3A       		.uleb128 0x3a
 3500 010a 0B       		.uleb128 0xb
 3501 010b 3B       		.uleb128 0x3b
 3502 010c 0B       		.uleb128 0xb
 3503 010d 49       		.uleb128 0x49
 3504 010e 13       		.uleb128 0x13
 3505 010f 02       		.uleb128 0x2
 3506 0110 18       		.uleb128 0x18
 3507 0111 00       		.byte	0
 3508 0112 00       		.byte	0
 3509 0113 17       		.uleb128 0x17
 3510 0114 2E       		.uleb128 0x2e
 3511 0115 01       		.byte	0x1
 3512 0116 3F       		.uleb128 0x3f
 3513 0117 19       		.uleb128 0x19
 3514 0118 03       		.uleb128 0x3
 3515 0119 0E       		.uleb128 0xe
 3516 011a 3A       		.uleb128 0x3a
 3517 011b 0B       		.uleb128 0xb
 3518 011c 3B       		.uleb128 0x3b
 3519 011d 0B       		.uleb128 0xb
 3520 011e 27       		.uleb128 0x27
 3521 011f 19       		.uleb128 0x19
 3522 0120 49       		.uleb128 0x49
 3523 0121 13       		.uleb128 0x13
 3524 0122 11       		.uleb128 0x11
 3525 0123 01       		.uleb128 0x1
 3526 0124 12       		.uleb128 0x12
 3527 0125 06       		.uleb128 0x6
 3528 0126 40       		.uleb128 0x40
 3529 0127 18       		.uleb128 0x18
 3530 0128 9642     		.uleb128 0x2116
 3531 012a 19       		.uleb128 0x19
 3532 012b 01       		.uleb128 0x1
 3533 012c 13       		.uleb128 0x13
 3534 012d 00       		.byte	0
 3535 012e 00       		.byte	0
 3536 012f 18       		.uleb128 0x18
 3537 0130 05       		.uleb128 0x5
 3538 0131 00       		.byte	0
 3539 0132 03       		.uleb128 0x3
 3540 0133 0E       		.uleb128 0xe
 3541 0134 3A       		.uleb128 0x3a
ARM GAS  C:\Users\13740\AppData\Local\Temp\ccgojbJm.s 			page 77


 3542 0135 0B       		.uleb128 0xb
 3543 0136 3B       		.uleb128 0x3b
 3544 0137 0B       		.uleb128 0xb
 3545 0138 49       		.uleb128 0x49
 3546 0139 13       		.uleb128 0x13
 3547 013a 02       		.uleb128 0x2
 3548 013b 18       		.uleb128 0x18
 3549 013c 00       		.byte	0
 3550 013d 00       		.byte	0
 3551 013e 19       		.uleb128 0x19
 3552 013f 34       		.uleb128 0x34
 3553 0140 00       		.byte	0
 3554 0141 03       		.uleb128 0x3
 3555 0142 0E       		.uleb128 0xe
 3556 0143 3A       		.uleb128 0x3a
 3557 0144 0B       		.uleb128 0xb
 3558 0145 3B       		.uleb128 0x3b
 3559 0146 0B       		.uleb128 0xb
 3560 0147 49       		.uleb128 0x49
 3561 0148 13       		.uleb128 0x13
 3562 0149 00       		.byte	0
 3563 014a 00       		.byte	0
 3564 014b 1A       		.uleb128 0x1a
 3565 014c 2E       		.uleb128 0x2e
 3566 014d 01       		.byte	0x1
 3567 014e 3F       		.uleb128 0x3f
 3568 014f 19       		.uleb128 0x19
 3569 0150 03       		.uleb128 0x3
 3570 0151 0E       		.uleb128 0xe
 3571 0152 3A       		.uleb128 0x3a
 3572 0153 0B       		.uleb128 0xb
 3573 0154 3B       		.uleb128 0x3b
 3574 0155 05       		.uleb128 0x5
 3575 0156 27       		.uleb128 0x27
 3576 0157 19       		.uleb128 0x19
 3577 0158 11       		.uleb128 0x11
 3578 0159 01       		.uleb128 0x1
 3579 015a 12       		.uleb128 0x12
 3580 015b 06       		.uleb128 0x6
 3581 015c 40       		.uleb128 0x40
 3582 015d 18       		.uleb128 0x18
 3583 015e 9642     		.uleb128 0x2116
 3584 0160 19       		.uleb128 0x19
 3585 0161 01       		.uleb128 0x1
 3586 0162 13       		.uleb128 0x13
 3587 0163 00       		.byte	0
 3588 0164 00       		.byte	0
 3589 0165 1B       		.uleb128 0x1b
 3590 0166 34       		.uleb128 0x34
 3591 0167 00       		.byte	0
 3592 0168 03       		.uleb128 0x3
 3593 0169 0E       		.uleb128 0xe
 3594 016a 3A       		.uleb128 0x3a
 3595 016b 0B       		.uleb128 0xb
 3596 016c 3B       		.uleb128 0x3b
 3597 016d 05       		.uleb128 0x5
 3598 016e 49       		.uleb128 0x49
ARM GAS  C:\Users\13740\AppData\Local\Temp\ccgojbJm.s 			page 78


 3599 016f 13       		.uleb128 0x13
 3600 0170 02       		.uleb128 0x2
 3601 0171 18       		.uleb128 0x18
 3602 0172 00       		.byte	0
 3603 0173 00       		.byte	0
 3604 0174 1C       		.uleb128 0x1c
 3605 0175 05       		.uleb128 0x5
 3606 0176 00       		.byte	0
 3607 0177 03       		.uleb128 0x3
 3608 0178 0E       		.uleb128 0xe
 3609 0179 3A       		.uleb128 0x3a
 3610 017a 0B       		.uleb128 0xb
 3611 017b 3B       		.uleb128 0x3b
 3612 017c 05       		.uleb128 0x5
 3613 017d 49       		.uleb128 0x49
 3614 017e 13       		.uleb128 0x13
 3615 017f 02       		.uleb128 0x2
 3616 0180 18       		.uleb128 0x18
 3617 0181 00       		.byte	0
 3618 0182 00       		.byte	0
 3619 0183 1D       		.uleb128 0x1d
 3620 0184 34       		.uleb128 0x34
 3621 0185 00       		.byte	0
 3622 0186 03       		.uleb128 0x3
 3623 0187 08       		.uleb128 0x8
 3624 0188 3A       		.uleb128 0x3a
 3625 0189 0B       		.uleb128 0xb
 3626 018a 3B       		.uleb128 0x3b
 3627 018b 05       		.uleb128 0x5
 3628 018c 49       		.uleb128 0x49
 3629 018d 13       		.uleb128 0x13
 3630 018e 02       		.uleb128 0x2
 3631 018f 18       		.uleb128 0x18
 3632 0190 00       		.byte	0
 3633 0191 00       		.byte	0
 3634 0192 1E       		.uleb128 0x1e
 3635 0193 34       		.uleb128 0x34
 3636 0194 00       		.byte	0
 3637 0195 03       		.uleb128 0x3
 3638 0196 08       		.uleb128 0x8
 3639 0197 3A       		.uleb128 0x3a
 3640 0198 0B       		.uleb128 0xb
 3641 0199 3B       		.uleb128 0x3b
 3642 019a 05       		.uleb128 0x5
 3643 019b 49       		.uleb128 0x49
 3644 019c 13       		.uleb128 0x13
 3645 019d 00       		.byte	0
 3646 019e 00       		.byte	0
 3647 019f 1F       		.uleb128 0x1f
 3648 01a0 2E       		.uleb128 0x2e
 3649 01a1 01       		.byte	0x1
 3650 01a2 03       		.uleb128 0x3
 3651 01a3 0E       		.uleb128 0xe
 3652 01a4 3A       		.uleb128 0x3a
 3653 01a5 0B       		.uleb128 0xb
 3654 01a6 3B       		.uleb128 0x3b
 3655 01a7 05       		.uleb128 0x5
ARM GAS  C:\Users\13740\AppData\Local\Temp\ccgojbJm.s 			page 79


 3656 01a8 27       		.uleb128 0x27
 3657 01a9 19       		.uleb128 0x19
 3658 01aa 11       		.uleb128 0x11
 3659 01ab 01       		.uleb128 0x1
 3660 01ac 12       		.uleb128 0x12
 3661 01ad 06       		.uleb128 0x6
 3662 01ae 40       		.uleb128 0x40
 3663 01af 18       		.uleb128 0x18
 3664 01b0 9642     		.uleb128 0x2116
 3665 01b2 19       		.uleb128 0x19
 3666 01b3 01       		.uleb128 0x1
 3667 01b4 13       		.uleb128 0x13
 3668 01b5 00       		.byte	0
 3669 01b6 00       		.byte	0
 3670 01b7 20       		.uleb128 0x20
 3671 01b8 2E       		.uleb128 0x2e
 3672 01b9 00       		.byte	0
 3673 01ba 3F       		.uleb128 0x3f
 3674 01bb 19       		.uleb128 0x19
 3675 01bc 03       		.uleb128 0x3
 3676 01bd 0E       		.uleb128 0xe
 3677 01be 3A       		.uleb128 0x3a
 3678 01bf 0B       		.uleb128 0xb
 3679 01c0 3B       		.uleb128 0x3b
 3680 01c1 05       		.uleb128 0x5
 3681 01c2 49       		.uleb128 0x49
 3682 01c3 13       		.uleb128 0x13
 3683 01c4 11       		.uleb128 0x11
 3684 01c5 01       		.uleb128 0x1
 3685 01c6 12       		.uleb128 0x12
 3686 01c7 06       		.uleb128 0x6
 3687 01c8 40       		.uleb128 0x40
 3688 01c9 18       		.uleb128 0x18
 3689 01ca 9642     		.uleb128 0x2116
 3690 01cc 19       		.uleb128 0x19
 3691 01cd 00       		.byte	0
 3692 01ce 00       		.byte	0
 3693 01cf 21       		.uleb128 0x21
 3694 01d0 34       		.uleb128 0x34
 3695 01d1 00       		.byte	0
 3696 01d2 03       		.uleb128 0x3
 3697 01d3 0E       		.uleb128 0xe
 3698 01d4 3A       		.uleb128 0x3a
 3699 01d5 0B       		.uleb128 0xb
 3700 01d6 3B       		.uleb128 0x3b
 3701 01d7 05       		.uleb128 0x5
 3702 01d8 49       		.uleb128 0x49
 3703 01d9 13       		.uleb128 0x13
 3704 01da 3F       		.uleb128 0x3f
 3705 01db 19       		.uleb128 0x19
 3706 01dc 3C       		.uleb128 0x3c
 3707 01dd 19       		.uleb128 0x19
 3708 01de 00       		.byte	0
 3709 01df 00       		.byte	0
 3710 01e0 22       		.uleb128 0x22
 3711 01e1 34       		.uleb128 0x34
 3712 01e2 00       		.byte	0
ARM GAS  C:\Users\13740\AppData\Local\Temp\ccgojbJm.s 			page 80


 3713 01e3 03       		.uleb128 0x3
 3714 01e4 0E       		.uleb128 0xe
 3715 01e5 3A       		.uleb128 0x3a
 3716 01e6 0B       		.uleb128 0xb
 3717 01e7 3B       		.uleb128 0x3b
 3718 01e8 0B       		.uleb128 0xb
 3719 01e9 49       		.uleb128 0x49
 3720 01ea 13       		.uleb128 0x13
 3721 01eb 3F       		.uleb128 0x3f
 3722 01ec 19       		.uleb128 0x19
 3723 01ed 02       		.uleb128 0x2
 3724 01ee 18       		.uleb128 0x18
 3725 01ef 00       		.byte	0
 3726 01f0 00       		.byte	0
 3727 01f1 23       		.uleb128 0x23
 3728 01f2 21       		.uleb128 0x21
 3729 01f3 00       		.byte	0
 3730 01f4 49       		.uleb128 0x49
 3731 01f5 13       		.uleb128 0x13
 3732 01f6 2F       		.uleb128 0x2f
 3733 01f7 05       		.uleb128 0x5
 3734 01f8 00       		.byte	0
 3735 01f9 00       		.byte	0
 3736 01fa 00       		.byte	0
 3737              		.section	.debug_aranges,"",%progbits
 3738 0000 7C000000 		.4byte	0x7c
 3739 0004 0200     		.2byte	0x2
 3740 0006 00000000 		.4byte	.Ldebug_info0
 3741 000a 04       		.byte	0x4
 3742 000b 00       		.byte	0
 3743 000c 0000     		.2byte	0
 3744 000e 0000     		.2byte	0
 3745 0010 00000000 		.4byte	.LFB36
 3746 0014 84010000 		.4byte	.LFE36-.LFB36
 3747 0018 00000000 		.4byte	.LFB37
 3748 001c CC000000 		.4byte	.LFE37-.LFB37
 3749 0020 00000000 		.4byte	.LFB38
 3750 0024 AC000000 		.4byte	.LFE38-.LFB38
 3751 0028 00000000 		.4byte	.LFB39
 3752 002c 48000000 		.4byte	.LFE39-.LFB39
 3753 0030 00000000 		.4byte	.LFB40
 3754 0034 78010000 		.4byte	.LFE40-.LFB40
 3755 0038 00000000 		.4byte	.LFB41
 3756 003c 44000000 		.4byte	.LFE41-.LFB41
 3757 0040 00000000 		.4byte	.LFB42
 3758 0044 44000000 		.4byte	.LFE42-.LFB42
 3759 0048 00000000 		.4byte	.LFB43
 3760 004c BC000000 		.4byte	.LFE43-.LFB43
 3761 0050 00000000 		.4byte	.LFB44
 3762 0054 4C000000 		.4byte	.LFE44-.LFB44
 3763 0058 00000000 		.4byte	.LFB45
 3764 005c AC000000 		.4byte	.LFE45-.LFB45
 3765 0060 00000000 		.4byte	.LFB46
 3766 0064 74000000 		.4byte	.LFE46-.LFB46
 3767 0068 00000000 		.4byte	.LFB47
 3768 006c 70010000 		.4byte	.LFE47-.LFB47
 3769 0070 00000000 		.4byte	.LFB48
ARM GAS  C:\Users\13740\AppData\Local\Temp\ccgojbJm.s 			page 81


 3770 0074 A4000000 		.4byte	.LFE48-.LFB48
 3771 0078 00000000 		.4byte	0
 3772 007c 00000000 		.4byte	0
 3773              		.section	.debug_ranges,"",%progbits
 3774              	.Ldebug_ranges0:
 3775 0000 00000000 		.4byte	.LFB36
 3776 0004 84010000 		.4byte	.LFE36
 3777 0008 00000000 		.4byte	.LFB37
 3778 000c CC000000 		.4byte	.LFE37
 3779 0010 00000000 		.4byte	.LFB38
 3780 0014 AC000000 		.4byte	.LFE38
 3781 0018 00000000 		.4byte	.LFB39
 3782 001c 48000000 		.4byte	.LFE39
 3783 0020 00000000 		.4byte	.LFB40
 3784 0024 78010000 		.4byte	.LFE40
 3785 0028 00000000 		.4byte	.LFB41
 3786 002c 44000000 		.4byte	.LFE41
 3787 0030 00000000 		.4byte	.LFB42
 3788 0034 44000000 		.4byte	.LFE42
 3789 0038 00000000 		.4byte	.LFB43
 3790 003c BC000000 		.4byte	.LFE43
 3791 0040 00000000 		.4byte	.LFB44
 3792 0044 4C000000 		.4byte	.LFE44
 3793 0048 00000000 		.4byte	.LFB45
 3794 004c AC000000 		.4byte	.LFE45
 3795 0050 00000000 		.4byte	.LFB46
 3796 0054 74000000 		.4byte	.LFE46
 3797 0058 00000000 		.4byte	.LFB47
 3798 005c 70010000 		.4byte	.LFE47
 3799 0060 00000000 		.4byte	.LFB48
 3800 0064 A4000000 		.4byte	.LFE48
 3801 0068 00000000 		.4byte	0
 3802 006c 00000000 		.4byte	0
 3803              		.section	.debug_line,"",%progbits
 3804              	.Ldebug_line0:
 3805 0000 88030000 		.section	.debug_str,"MS",%progbits,1
 3805      02009A01 
 3805      00000201 
 3805      FB0E0D00 
 3805      01010101 
 3806              	.LASF218:
 3807 0000 53454E53 		.ascii	"SENSOR_LACTATE\000"
 3807      4F525F4C 
 3807      41435441 
 3807      544500
 3808              	.LASF76:
 3809 000f 4359424C 		.ascii	"CYBLE_EVT_GATTC_STOP_CMD_COMPLETE\000"
 3809      455F4556 
 3809      545F4741 
 3809      5454435F 
 3809      53544F50 
 3810              	.LASF72:
 3811 0031 4359424C 		.ascii	"CYBLE_EVT_GATTC_HANDLE_VALUE_NTF\000"
 3811      455F4556 
 3811      545F4741 
 3811      5454435F 
 3811      48414E44 
ARM GAS  C:\Users\13740\AppData\Local\Temp\ccgojbJm.s 			page 82


 3812              	.LASF198:
 3813 0052 567A6572 		.ascii	"Vzero\000"
 3813      6F00
 3814              	.LASF262:
 3815 0058 6D61696E 		.ascii	"main.c\000"
 3815      2E6300
 3816              	.LASF241:
 3817 005f 6E6F7469 		.ascii	"notificationHandle\000"
 3817      66696361 
 3817      74696F6E 
 3817      48616E64 
 3817      6C6500
 3818              	.LASF31:
 3819 0072 4359424C 		.ascii	"CYBLE_EVT_GAP_AUTH_REQ\000"
 3819      455F4556 
 3819      545F4741 
 3819      505F4155 
 3819      54485F52 
 3820              	.LASF201:
 3821 0089 45787452 		.ascii	"ExtRtiaVal\000"
 3821      74696156 
 3821      616C00
 3822              	.LASF104:
 3823 0094 4359424C 		.ascii	"CYBLE_ERROR_GAP_ROLE\000"
 3823      455F4552 
 3823      524F525F 
 3823      4741505F 
 3823      524F4C45 
 3824              	.LASF118:
 3825 00a9 4359424C 		.ascii	"CYBLE_ERROR_HARDWARE_FAILURE\000"
 3825      455F4552 
 3825      524F525F 
 3825      48415244 
 3825      57415245 
 3826              	.LASF56:
 3827 00c6 4359424C 		.ascii	"CYBLE_EVT_GATT_DISCONNECT_IND\000"
 3827      455F4556 
 3827      545F4741 
 3827      54545F44 
 3827      4953434F 
 3828              	.LASF213:
 3829 00e4 6C616374 		.ascii	"lactate\000"
 3829      61746500 
 3830              	.LASF197:
 3831 00ec 52746961 		.ascii	"RtiaCalValue\000"
 3831      43616C56 
 3831      616C7565 
 3831      00
 3832              	.LASF246:
 3833 00f9 6576656E 		.ascii	"eventParam\000"
 3833      74506172 
 3833      616D00
 3834              	.LASF51:
 3835 0104 4359424C 		.ascii	"CYBLE_EVT_GAP_SCAN_REQ_RECVD\000"
 3835      455F4556 
 3835      545F4741 
 3835      505F5343 
ARM GAS  C:\Users\13740\AppData\Local\Temp\ccgojbJm.s 			page 83


 3835      414E5F52 
 3836              	.LASF206:
 3837 0121 4669666F 		.ascii	"FifoDataCount\000"
 3837      44617461 
 3837      436F756E 
 3837      7400
 3838              	.LASF57:
 3839 012f 4359424C 		.ascii	"CYBLE_EVT_GATTS_XCNHG_MTU_REQ\000"
 3839      455F4556 
 3839      545F4741 
 3839      5454535F 
 3839      58434E48 
 3840              	.LASF75:
 3841 014d 4359424C 		.ascii	"CYBLE_EVT_GATTS_DATA_SIGNED_CMD_REQ\000"
 3841      455F4556 
 3841      545F4741 
 3841      5454535F 
 3841      44415441 
 3842              	.LASF97:
 3843 0171 4359424C 		.ascii	"CYBLE_ERROR_INVALID_OPERATION\000"
 3843      455F4552 
 3843      524F525F 
 3843      494E5641 
 3843      4C49445F 
 3844              	.LASF26:
 3845 018f 4359424C 		.ascii	"CYBLE_EVT_HARDWARE_ERROR\000"
 3845      455F4556 
 3845      545F4841 
 3845      52445741 
 3845      52455F45 
 3846              	.LASF11:
 3847 01a8 756E7369 		.ascii	"unsigned int\000"
 3847      676E6564 
 3847      20696E74 
 3847      00
 3848              	.LASF91:
 3849 01b5 4359424C 		.ascii	"CYBLE_EVT_LE_PING_AUTH_TIMEOUT\000"
 3849      455F4556 
 3849      545F4C45 
 3849      5F50494E 
 3849      475F4155 
 3850              	.LASF88:
 3851 01d4 4359424C 		.ascii	"CYBLE_EVT_L2CAP_CBFC_TX_CREDIT_IND\000"
 3851      455F4556 
 3851      545F4C32 
 3851      4341505F 
 3851      43424643 
 3852              	.LASF208:
 3853 01f7 43757272 		.ascii	"Current\000"
 3853      656E7400 
 3854              	.LASF68:
 3855 01ff 4359424C 		.ascii	"CYBLE_EVT_GATTS_WRITE_CMD_REQ\000"
 3855      455F4556 
 3855      545F4741 
 3855      5454535F 
 3855      57524954 
 3856              	.LASF5:
ARM GAS  C:\Users\13740\AppData\Local\Temp\ccgojbJm.s 			page 84


 3857 021d 5F5F696E 		.ascii	"__int32_t\000"
 3857      7433325F 
 3857      7400
 3858              	.LASF102:
 3859 0227 4359424C 		.ascii	"CYBLE_ERROR_NO_DEVICE_ENTITY\000"
 3859      455F4552 
 3859      524F525F 
 3859      4E4F5F44 
 3859      45564943 
 3860              	.LASF134:
 3861 0244 4359424C 		.ascii	"CYBLE_LP_MODE_T\000"
 3861      455F4C50 
 3861      5F4D4F44 
 3861      455F5400 
 3862              	.LASF232:
 3863 0254 766F6C74 		.ascii	"voltage\000"
 3863      61676500 
 3864              	.LASF261:
 3865 025c 474E5520 		.ascii	"GNU C11 5.4.1 20160609 (release) [ARM/embedded-5-br"
 3865      43313120 
 3865      352E342E 
 3865      31203230 
 3865      31363036 
 3866 028f 616E6368 		.ascii	"anch revision 237715] -mcpu=cortex-m0 -mthumb -g -O"
 3866      20726576 
 3866      6973696F 
 3866      6E203233 
 3866      37373135 
 3867 02c2 30202D66 		.ascii	"0 -ffunction-sections -ffat-lto-objects\000"
 3867      66756E63 
 3867      74696F6E 
 3867      2D736563 
 3867      74696F6E 
 3868              	.LASF207:
 3869 02ea 41707041 		.ascii	"AppAMPCfg_Type\000"
 3869      4D504366 
 3869      675F5479 
 3869      706500
 3870              	.LASF203:
 3871 02f9 496E6974 		.ascii	"InitSeqInfo\000"
 3871      53657149 
 3871      6E666F00 
 3872              	.LASF32:
 3873 0305 4359424C 		.ascii	"CYBLE_EVT_GAP_PASSKEY_ENTRY_REQUEST\000"
 3873      455F4556 
 3873      545F4741 
 3873      505F5041 
 3873      53534B45 
 3874              	.LASF259:
 3875 0329 616D7042 		.ascii	"ampBuffer\000"
 3875      75666665 
 3875      7200
 3876              	.LASF222:
 3877 0333 6572726F 		.ascii	"error\000"
 3877      7200
 3878              	.LASF190:
 3879 0339 41444350 		.ascii	"ADCPgaGain\000"
ARM GAS  C:\Users\13740\AppData\Local\Temp\ccgojbJm.s 			page 85


 3879      67614761 
 3879      696E00
 3880              	.LASF126:
 3881 0344 4359424C 		.ascii	"CYBLE_ERROR_INVALID_STATE\000"
 3881      455F4552 
 3881      524F525F 
 3881      494E5641 
 3881      4C49445F 
 3882              	.LASF189:
 3883 035e 5077724D 		.ascii	"PwrMod\000"
 3883      6F6400
 3884              	.LASF193:
 3885 0365 44617461 		.ascii	"DataFifoSrc\000"
 3885      4669666F 
 3885      53726300 
 3886              	.LASF205:
 3887 0371 53746F70 		.ascii	"StopRequired\000"
 3887      52657175 
 3887      69726564 
 3887      00
 3888              	.LASF255:
 3889 037e 6D61696E 		.ascii	"mainTimer\000"
 3889      54696D65 
 3889      7200
 3890              	.LASF40:
 3891 0388 4359424C 		.ascii	"CYBLE_EVT_GAP_CONNECTION_UPDATE_COMPLETE\000"
 3891      455F4556 
 3891      545F4741 
 3891      505F434F 
 3891      4E4E4543 
 3892              	.LASF43:
 3893 03b1 4359424C 		.ascii	"CYBLE_EVT_GAP_NUMERIC_COMPARISON_REQUEST\000"
 3893      455F4556 
 3893      545F4741 
 3893      505F4E55 
 3893      4D455249 
 3894              	.LASF183:
 3895 03da 41646343 		.ascii	"AdcClkFreq\000"
 3895      6C6B4672 
 3895      657100
 3896              	.LASF181:
 3897 03e5 53797343 		.ascii	"SysClkFreq\000"
 3897      6C6B4672 
 3897      657100
 3898              	.LASF173:
 3899 03f0 50686173 		.ascii	"Phase\000"
 3899      6500
 3900              	.LASF14:
 3901 03f6 75696E74 		.ascii	"uint32_t\000"
 3901      33325F74 
 3901      00
 3902              	.LASF90:
 3903 03ff 4359424C 		.ascii	"CYBLE_EVT_PENDING_FLASH_WRITE\000"
 3903      455F4556 
 3903      545F5045 
 3903      4E44494E 
 3903      475F464C 
ARM GAS  C:\Users\13740\AppData\Local\Temp\ccgojbJm.s 			page 86


 3904              	.LASF67:
 3905 041d 4359424C 		.ascii	"CYBLE_EVT_GATTC_WRITE_RSP\000"
 3905      455F4556 
 3905      545F4741 
 3905      5454435F 
 3905      57524954 
 3906              	.LASF18:
 3907 0437 666C6F61 		.ascii	"float\000"
 3907      7400
 3908              	.LASF191:
 3909 043d 41444353 		.ascii	"ADCSinc3Osr\000"
 3909      696E6333 
 3909      4F737200 
 3910              	.LASF245:
 3911 0449 6576656E 		.ascii	"event\000"
 3911      7400
 3912              	.LASF28:
 3913 044f 4359424C 		.ascii	"CYBLE_EVT_STACK_BUSY_STATUS\000"
 3913      455F4556 
 3913      545F5354 
 3913      41434B5F 
 3913      42555359 
 3914              	.LASF81:
 3915 046b 4359424C 		.ascii	"CYBLE_EVT_L2CAP_COMMAND_REJ\000"
 3915      455F4556 
 3915      545F4C32 
 3915      4341505F 
 3915      434F4D4D 
 3916              	.LASF175:
 3917 0487 62506172 		.ascii	"bParaChanged\000"
 3917      61436861 
 3917      6E676564 
 3917      00
 3918              	.LASF129:
 3919 0494 4359424C 		.ascii	"CYBLE_BLESS_ACTIVE\000"
 3919      455F424C 
 3919      4553535F 
 3919      41435449 
 3919      564500
 3920              	.LASF187:
 3921 04a7 5263616C 		.ascii	"RcalVal\000"
 3921      56616C00 
 3922              	.LASF10:
 3923 04af 6C6F6E67 		.ascii	"long long unsigned int\000"
 3923      206C6F6E 
 3923      6720756E 
 3923      7369676E 
 3923      65642069 
 3924              	.LASF66:
 3925 04c6 4359424C 		.ascii	"CYBLE_EVT_GATTS_WRITE_REQ\000"
 3925      455F4556 
 3925      545F4741 
 3925      5454535F 
 3925      57524954 
 3926              	.LASF167:
 3927 04e0 53657152 		.ascii	"SeqRamAddr\000"
 3927      616D4164 
ARM GAS  C:\Users\13740\AppData\Local\Temp\ccgojbJm.s 			page 87


 3927      647200
 3928              	.LASF156:
 3929 04eb 4359424C 		.ascii	"CYBLE_STATE_STOPPED\000"
 3929      455F5354 
 3929      4154455F 
 3929      53544F50 
 3929      50454400 
 3930              	.LASF209:
 3931 04ff 566F6C74 		.ascii	"Voltage\000"
 3931      61676500 
 3932              	.LASF210:
 3933 0507 66416D70 		.ascii	"fAmpRes_Type\000"
 3933      5265735F 
 3933      54797065 
 3933      00
 3934              	.LASF253:
 3935 0514 6379426C 		.ascii	"cyBle_connHandle\000"
 3935      655F636F 
 3935      6E6E4861 
 3935      6E646C65 
 3935      00
 3936              	.LASF61:
 3937 0525 4359424C 		.ascii	"CYBLE_EVT_GATTC_FIND_INFO_RSP\000"
 3937      455F4556 
 3937      545F4741 
 3937      5454435F 
 3937      46494E44 
 3938              	.LASF137:
 3939 0543 4359424C 		.ascii	"CYBLE_BLESS_STATE_SLEEP\000"
 3939      455F424C 
 3939      4553535F 
 3939      53544154 
 3939      455F534C 
 3940              	.LASF158:
 3941 055b 4359424C 		.ascii	"CYBLE_STATE_CONNECTED\000"
 3941      455F5354 
 3941      4154455F 
 3941      434F4E4E 
 3941      45435445 
 3942              	.LASF238:
 3943 0571 656E6162 		.ascii	"enable\000"
 3943      6C6500
 3944              	.LASF235:
 3945 0578 4D656173 		.ascii	"MeasureAllSensors\000"
 3945      75726541 
 3945      6C6C5365 
 3945      6E736F72 
 3945      7300
 3946              	.LASF62:
 3947 058a 4359424C 		.ascii	"CYBLE_EVT_GATTC_FIND_BY_TYPE_VALUE_RSP\000"
 3947      455F4556 
 3947      545F4741 
 3947      5454435F 
 3947      46494E44 
 3948              	.LASF152:
 3949 05b1 76616C75 		.ascii	"value\000"
 3949      6500
ARM GAS  C:\Users\13740\AppData\Local\Temp\ccgojbJm.s 			page 88


 3950              	.LASF217:
 3951 05b7 53454E53 		.ascii	"SENSOR_GLUCOSE\000"
 3951      4F525F47 
 3951      4C55434F 
 3951      534500
 3952              	.LASF70:
 3953 05c6 4359424C 		.ascii	"CYBLE_EVT_GATTS_EXEC_WRITE_REQ\000"
 3953      455F4556 
 3953      545F4741 
 3953      5454535F 
 3953      45584543 
 3954              	.LASF71:
 3955 05e5 4359424C 		.ascii	"CYBLE_EVT_GATTC_EXEC_WRITE_RSP\000"
 3955      455F4556 
 3955      545F4741 
 3955      5454435F 
 3955      45584543 
 3956              	.LASF252:
 3957 0604 6379426C 		.ascii	"cyBle_state\000"
 3957      655F7374 
 3957      61746500 
 3958              	.LASF149:
 3959 0610 4359424C 		.ascii	"CYBLE_CONN_HANDLE_T\000"
 3959      455F434F 
 3959      4E4E5F48 
 3959      414E444C 
 3959      455F5400 
 3960              	.LASF155:
 3961 0624 4359424C 		.ascii	"CYBLE_GATTS_HANDLE_VALUE_NTF_T\000"
 3961      455F4741 
 3961      5454535F 
 3961      48414E44 
 3961      4C455F56 
 3962              	.LASF260:
 3963 0643 616D7052 		.ascii	"ampResult\000"
 3963      6573756C 
 3963      7400
 3964              	.LASF195:
 3965 064d 4C705469 		.ascii	"LpTiaRf\000"
 3965      61526600 
 3966              	.LASF258:
 3967 0655 70416D70 		.ascii	"pAmpCfg\000"
 3967      43666700 
 3968              	.LASF77:
 3969 065d 4359424C 		.ascii	"CYBLE_EVT_GATTS_READ_CHAR_VAL_ACCESS_REQ\000"
 3969      455F4556 
 3969      545F4741 
 3969      5454535F 
 3969      52454144 
 3970              	.LASF34:
 3971 0686 4359424C 		.ascii	"CYBLE_EVT_GAP_AUTH_COMPLETE\000"
 3971      455F4556 
 3971      545F4741 
 3971      505F4155 
 3971      54485F43 
 3972              	.LASF106:
 3973 06a2 4359424C 		.ascii	"CYBLE_ERROR_BT_ON_NOT_COMPLETED\000"
ARM GAS  C:\Users\13740\AppData\Local\Temp\ccgojbJm.s 			page 89


 3973      455F4552 
 3973      524F525F 
 3973      42545F4F 
 3973      4E5F4E4F 
 3974              	.LASF124:
 3975 06c2 4359424C 		.ascii	"CYBLE_ERROR_IND_DISABLED\000"
 3975      455F4552 
 3975      524F525F 
 3975      494E445F 
 3975      44495341 
 3976              	.LASF19:
 3977 06db 646F7562 		.ascii	"double\000"
 3977      6C6500
 3978              	.LASF166:
 3979 06e2 53657149 		.ascii	"SeqId\000"
 3979      6400
 3980              	.LASF63:
 3981 06e8 4359424C 		.ascii	"CYBLE_EVT_GATTC_READ_RSP\000"
 3981      455F4556 
 3981      545F4741 
 3981      5454435F 
 3981      52454144 
 3982              	.LASF212:
 3983 0701 676C7563 		.ascii	"glucose\000"
 3983      6F736500 
 3984              	.LASF177:
 3985 0709 4D617853 		.ascii	"MaxSeqLen\000"
 3985      65714C65 
 3985      6E00
 3986              	.LASF58:
 3987 0713 4359424C 		.ascii	"CYBLE_EVT_GATTC_XCHNG_MTU_RSP\000"
 3987      455F4556 
 3987      545F4741 
 3987      5454435F 
 3987      5843484E 
 3988              	.LASF93:
 3989 0731 4359424C 		.ascii	"CYBLE_EVT_FLASH_CORRUPT\000"
 3989      455F4556 
 3989      545F464C 
 3989      4153485F 
 3989      434F5252 
 3990              	.LASF221:
 3991 0749 416D7065 		.ascii	"AmperometricSensor_t\000"
 3991      726F6D65 
 3991      74726963 
 3991      53656E73 
 3991      6F725F74 
 3992              	.LASF256:
 3993 075e 6D656173 		.ascii	"measurementFlag\000"
 3993      7572656D 
 3993      656E7446 
 3993      6C616700 
 3994              	.LASF153:
 3995 076e 61747472 		.ascii	"attrHandle\000"
 3995      48616E64 
 3995      6C6500
 3996              	.LASF171:
ARM GAS  C:\Users\13740\AppData\Local\Temp\ccgojbJm.s 			page 90


 3997 0779 53455149 		.ascii	"SEQInfo_Type\000"
 3997      6E666F5F 
 3997      54797065 
 3997      00
 3998              	.LASF186:
 3999 0786 4E756D4F 		.ascii	"NumOfData\000"
 3999      66446174 
 3999      6100
 4000              	.LASF194:
 4001 0790 4C707469 		.ascii	"LptiaRtiaSel\000"
 4001      61527469 
 4001      6153656C 
 4001      00
 4002              	.LASF64:
 4003 079d 4359424C 		.ascii	"CYBLE_EVT_GATTC_READ_BLOB_RSP\000"
 4003      455F4556 
 4003      545F4741 
 4003      5454435F 
 4003      52454144 
 4004              	.LASF100:
 4005 07bb 4359424C 		.ascii	"CYBLE_ERROR_OOB_NOT_AVAILABLE\000"
 4005      455F4552 
 4005      524F525F 
 4005      4F4F425F 
 4005      4E4F545F 
 4006              	.LASF80:
 4007 07d9 4359424C 		.ascii	"CYBLE_EVT_L2CAP_CONN_PARAM_UPDATE_RSP\000"
 4007      455F4556 
 4007      545F4C32 
 4007      4341505F 
 4007      434F4E4E 
 4008              	.LASF87:
 4009 07ff 4359424C 		.ascii	"CYBLE_EVT_L2CAP_CBFC_RX_CREDIT_IND\000"
 4009      455F4556 
 4009      545F4C32 
 4009      4341505F 
 4009      43424643 
 4010              	.LASF248:
 4011 0822 696E7465 		.ascii	"interruptStatus\000"
 4011      72727570 
 4011      74537461 
 4011      74757300 
 4012              	.LASF83:
 4013 0832 4359424C 		.ascii	"CYBLE_EVT_L2CAP_CBFC_CONN_CNF\000"
 4013      455F4556 
 4013      545F4C32 
 4013      4341505F 
 4013      43424643 
 4014              	.LASF161:
 4015 0850 4359424C 		.ascii	"CYBLE_STATE_T\000"
 4015      455F5354 
 4015      4154455F 
 4015      5400
 4016              	.LASF185:
 4017 085e 416D704F 		.ascii	"AmpODR\000"
 4017      445200
 4018              	.LASF202:
ARM GAS  C:\Users\13740\AppData\Local\Temp\ccgojbJm.s 			page 91


 4019 0865 414D5049 		.ascii	"AMPInited\000"
 4019      6E697465 
 4019      6400
 4020              	.LASF211:
 4021 086f 74656D70 		.ascii	"temperature\000"
 4021      65726174 
 4021      75726500 
 4022              	.LASF98:
 4023 087b 4359424C 		.ascii	"CYBLE_ERROR_MEMORY_ALLOCATION_FAILED\000"
 4023      455F4552 
 4023      524F525F 
 4023      4D454D4F 
 4023      52595F41 
 4024              	.LASF119:
 4025 08a0 4359424C 		.ascii	"CYBLE_ERROR_UNSUPPORTED_FEATURE_OR_PARAMETER_VALUE\000"
 4025      455F4552 
 4025      524F525F 
 4025      554E5355 
 4025      50504F52 
 4026              	.LASF184:
 4027 08d3 4669666F 		.ascii	"FifoThresh\000"
 4027      54687265 
 4027      736800
 4028              	.LASF27:
 4029 08de 4359424C 		.ascii	"CYBLE_EVT_HCI_STATUS\000"
 4029      455F4556 
 4029      545F4843 
 4029      495F5354 
 4029      41545553 
 4030              	.LASF107:
 4031 08f3 4359424C 		.ascii	"CYBLE_ERROR_SEC_FAILED\000"
 4031      455F4552 
 4031      524F525F 
 4031      5345435F 
 4031      4641494C 
 4032              	.LASF20:
 4033 090a 63686172 		.ascii	"char\000"
 4033      00
 4034              	.LASF223:
 4035 090f 63757272 		.ascii	"current_uA\000"
 4035      656E745F 
 4035      754100
 4036              	.LASF264:
 4037 091a 4C6F7750 		.ascii	"LowPowerImplementation\000"
 4037      6F776572 
 4037      496D706C 
 4037      656D656E 
 4037      74617469 
 4038              	.LASF116:
 4039 0931 4359424C 		.ascii	"CYBLE_ERROR_FLASH_WRITE_NOT_PERMITED\000"
 4039      455F4552 
 4039      524F525F 
 4039      464C4153 
 4039      485F5752 
 4040              	.LASF247:
 4041 0956 626C654D 		.ascii	"bleMode\000"
 4041      6F646500 
ARM GAS  C:\Users\13740\AppData\Local\Temp\ccgojbJm.s 			page 92


 4042              	.LASF99:
 4043 095e 4359424C 		.ascii	"CYBLE_ERROR_INSUFFICIENT_RESOURCES\000"
 4043      455F4552 
 4043      524F525F 
 4043      494E5355 
 4043      46464943 
 4044              	.LASF164:
 4045 0981 62545255 		.ascii	"bTRUE\000"
 4045      4500
 4046              	.LASF117:
 4047 0987 4359424C 		.ascii	"CYBLE_ERROR_MIC_AUTH_FAILED\000"
 4047      455F4552 
 4047      524F525F 
 4047      4D49435F 
 4047      41555448 
 4048              	.LASF151:
 4049 09a3 4359424C 		.ascii	"CYBLE_GATT_VALUE_T\000"
 4049      455F4741 
 4049      54545F56 
 4049      414C5545 
 4049      5F5400
 4050              	.LASF24:
 4051 09b6 4359424C 		.ascii	"CYBLE_EVT_STACK_ON\000"
 4051      455F4556 
 4051      545F5354 
 4051      41434B5F 
 4051      4F4E00
 4052              	.LASF16:
 4053 09c9 75696E74 		.ascii	"uint16\000"
 4053      313600
 4054              	.LASF146:
 4055 09d0 4359424C 		.ascii	"CYBLE_GATT_DB_ATTR_HANDLE_T\000"
 4055      455F4741 
 4055      54545F44 
 4055      425F4154 
 4055      54525F48 
 4056              	.LASF79:
 4057 09ec 4359424C 		.ascii	"CYBLE_EVT_L2CAP_CONN_PARAM_UPDATE_REQ\000"
 4057      455F4556 
 4057      545F4C32 
 4057      4341505F 
 4057      434F4E4E 
 4058              	.LASF12:
 4059 0a12 75696E74 		.ascii	"uint8_t\000"
 4059      385F7400 
 4060              	.LASF115:
 4061 0a1a 4359424C 		.ascii	"CYBLE_ERROR_DEVICE_ALREADY_EXISTS\000"
 4061      455F4552 
 4061      524F525F 
 4061      44455649 
 4061      43455F41 
 4062              	.LASF229:
 4063 0a3c 636F6E63 		.ascii	"concentration\000"
 4063      656E7472 
 4063      6174696F 
 4063      6E00
 4064              	.LASF174:
ARM GAS  C:\Users\13740\AppData\Local\Temp\ccgojbJm.s 			page 93


 4065 0a4a 66496D70 		.ascii	"fImpPol_Type\000"
 4065      506F6C5F 
 4065      54797065 
 4065      00
 4066              	.LASF46:
 4067 0a57 4359424C 		.ascii	"CYBLE_EVT_GAP_DATA_LENGTH_CHANGE\000"
 4067      455F4556 
 4067      545F4741 
 4067      505F4441 
 4067      54415F4C 
 4068              	.LASF200:
 4069 0a78 45787452 		.ascii	"ExtRtia\000"
 4069      74696100 
 4070              	.LASF257:
 4071 0a80 73656E73 		.ascii	"sensorData\000"
 4071      6F724461 
 4071      746100
 4072              	.LASF251:
 4073 0a8b 6379426C 		.ascii	"cyBle_pendingFlashWrite\000"
 4073      655F7065 
 4073      6E64696E 
 4073      67466C61 
 4073      73685772 
 4074              	.LASF123:
 4075 0aa3 4359424C 		.ascii	"CYBLE_ERROR_NTF_DISABLED\000"
 4075      455F4552 
 4075      524F525F 
 4075      4E54465F 
 4075      44495341 
 4076              	.LASF127:
 4077 0abc 4359424C 		.ascii	"CYBLE_ERROR_STACK_BUSY\000"
 4077      455F4552 
 4077      524F525F 
 4077      53544143 
 4077      4B5F4255 
 4078              	.LASF250:
 4079 0ad3 6C6F6361 		.ascii	"localAddr\000"
 4079      6C416464 
 4079      7200
 4080              	.LASF254:
 4081 0add 61706952 		.ascii	"apiResult\000"
 4081      6573756C 
 4081      7400
 4082              	.LASF9:
 4083 0ae7 6C6F6E67 		.ascii	"long long int\000"
 4083      206C6F6E 
 4083      6720696E 
 4083      7400
 4084              	.LASF140:
 4085 0af5 4359424C 		.ascii	"CYBLE_BLESS_STATE_DEEPSLEEP\000"
 4085      455F424C 
 4085      4553535F 
 4085      53544154 
 4085      455F4445 
 4086              	.LASF54:
 4087 0b11 4359424C 		.ascii	"CYBLE_EVT_GATTC_ERROR_RSP\000"
 4087      455F4556 
ARM GAS  C:\Users\13740\AppData\Local\Temp\ccgojbJm.s 			page 94


 4087      545F4741 
 4087      5454435F 
 4087      4552524F 
 4088              	.LASF236:
 4089 0b2b 74656D70 		.ascii	"temp_factor\000"
 4089      5F666163 
 4089      746F7200 
 4090              	.LASF114:
 4091 0b37 4359424C 		.ascii	"CYBLE_ERROR_GATT_DB_INVALID_ATTR_HANDLE\000"
 4091      455F4552 
 4091      524F525F 
 4091      47415454 
 4091      5F44425F 
 4092              	.LASF157:
 4093 0b5f 4359424C 		.ascii	"CYBLE_STATE_INITIALIZING\000"
 4093      455F5354 
 4093      4154455F 
 4093      494E4954 
 4093      49414C49 
 4094              	.LASF122:
 4095 0b78 4359424C 		.ascii	"CYBLE_ERROR_MAX\000"
 4095      455F4552 
 4095      524F525F 
 4095      4D415800 
 4096              	.LASF219:
 4097 0b88 53454E53 		.ascii	"SENSOR_URIC_ACID\000"
 4097      4F525F55 
 4097      5249435F 
 4097      41434944 
 4097      00
 4098              	.LASF182:
 4099 0b99 57757074 		.ascii	"WuptClkFreq\000"
 4099      436C6B46 
 4099      72657100 
 4100              	.LASF111:
 4101 0ba5 4359424C 		.ascii	"CYBLE_ERROR_L2CAP_CONNECTION_ENTITY_NOT_FOUND\000"
 4101      455F4552 
 4101      524F525F 
 4101      4C324341 
 4101      505F434F 
 4102              	.LASF214:
 4103 0bd3 75726963 		.ascii	"uric_acid\000"
 4103      5F616369 
 4103      6400
 4104              	.LASF225:
 4105 0bdd 4D656173 		.ascii	"MeasureAmperometricSensor\000"
 4105      75726541 
 4105      6D706572 
 4105      6F6D6574 
 4105      72696353 
 4106              	.LASF108:
 4107 0bf7 4359424C 		.ascii	"CYBLE_ERROR_L2CAP_PSM_WRONG_ENCODING\000"
 4107      455F4552 
 4107      524F525F 
 4107      4C324341 
 4107      505F5053 
 4108              	.LASF239:
ARM GAS  C:\Users\13740\AppData\Local\Temp\ccgojbJm.s 			page 95


 4109 0c1c 436F6E74 		.ascii	"ControlElectricalStimulation\000"
 4109      726F6C45 
 4109      6C656374 
 4109      72696361 
 4109      6C537469 
 4110              	.LASF36:
 4111 0c39 4359424C 		.ascii	"CYBLE_EVT_GAPP_ADVERTISEMENT_START_STOP\000"
 4111      455F4556 
 4111      545F4741 
 4111      50505F41 
 4111      44564552 
 4112              	.LASF163:
 4113 0c61 6246414C 		.ascii	"bFALSE\000"
 4113      534500
 4114              	.LASF147:
 4115 0c68 62644861 		.ascii	"bdHandle\000"
 4115      6E646C65 
 4115      00
 4116              	.LASF17:
 4117 0c71 75696E74 		.ascii	"uint32\000"
 4117      333200
 4118              	.LASF244:
 4119 0c78 41707043 		.ascii	"AppCallBack\000"
 4119      616C6C42 
 4119      61636B00 
 4120              	.LASF86:
 4121 0c84 4359424C 		.ascii	"CYBLE_EVT_L2CAP_CBFC_DATA_READ\000"
 4121      455F4556 
 4121      545F4C32 
 4121      4341505F 
 4121      43424643 
 4122              	.LASF160:
 4123 0ca3 4359424C 		.ascii	"CYBLE_STATE_DISCONNECTED\000"
 4123      455F5354 
 4123      4154455F 
 4123      44495343 
 4123      4F4E4E45 
 4124              	.LASF45:
 4125 0cbc 4359424C 		.ascii	"CYBLE_EVT_GAP_OOB_GENERATED_NOTIFICATION\000"
 4125      455F4556 
 4125      545F4741 
 4125      505F4F4F 
 4125      425F4745 
 4126              	.LASF237:
 4127 0ce5 436F6E74 		.ascii	"ControlDrugRelease\000"
 4127      726F6C44 
 4127      72756752 
 4127      656C6561 
 4127      736500
 4128              	.LASF133:
 4129 0cf8 4359424C 		.ascii	"CYBLE_BLESS_INVALID\000"
 4129      455F424C 
 4129      4553535F 
 4129      494E5641 
 4129      4C494400 
 4130              	.LASF92:
 4131 0d0c 4359424C 		.ascii	"CYBLE_EVT_HCI_PKT\000"
ARM GAS  C:\Users\13740\AppData\Local\Temp\ccgojbJm.s 			page 96


 4131      455F4556 
 4131      545F4843 
 4131      495F504B 
 4131      5400
 4132              	.LASF128:
 4133 0d1e 4359424C 		.ascii	"CYBLE_API_RESULT_T\000"
 4133      455F4150 
 4133      495F5245 
 4133      53554C54 
 4133      5F5400
 4134              	.LASF110:
 4135 0d31 4359424C 		.ascii	"CYBLE_ERROR_L2CAP_PSM_NOT_REGISTERED\000"
 4135      455F4552 
 4135      524F525F 
 4135      4C324341 
 4135      505F5053 
 4136              	.LASF165:
 4137 0d56 426F6F6C 		.ascii	"BoolFlag\000"
 4137      466C6167 
 4137      00
 4138              	.LASF49:
 4139 0d5f 4359424C 		.ascii	"CYBLE_EVT_GAP_SMP_NEGOTIATED_AUTH_INFO\000"
 4139      455F4556 
 4139      545F4741 
 4139      505F534D 
 4139      505F4E45 
 4140              	.LASF168:
 4141 0d86 5365714C 		.ascii	"SeqLen\000"
 4141      656E00
 4142              	.LASF21:
 4143 0d8d 6C6F6E67 		.ascii	"long double\000"
 4143      20646F75 
 4143      626C6500 
 4144              	.LASF73:
 4145 0d99 4359424C 		.ascii	"CYBLE_EVT_GATTC_HANDLE_VALUE_IND\000"
 4145      455F4556 
 4145      545F4741 
 4145      5454435F 
 4145      48414E44 
 4146              	.LASF105:
 4147 0dba 4359424C 		.ascii	"CYBLE_ERROR_TX_POWER_READ\000"
 4147      455F4552 
 4147      524F525F 
 4147      54585F50 
 4147      4F574552 
 4148              	.LASF192:
 4149 0dd4 41444353 		.ascii	"ADCSinc2Osr\000"
 4149      696E6332 
 4149      4F737200 
 4150              	.LASF142:
 4151 0de0 4359424C 		.ascii	"CYBLE_BLESS_STATE_INVALID\000"
 4151      455F424C 
 4151      4553535F 
 4151      53544154 
 4151      455F494E 
 4152              	.LASF103:
 4153 0dfa 4359424C 		.ascii	"CYBLE_ERROR_REPEATED_ATTEMPTS\000"
ARM GAS  C:\Users\13740\AppData\Local\Temp\ccgojbJm.s 			page 97


 4153      455F4552 
 4153      524F525F 
 4153      52455045 
 4153      41544544 
 4154              	.LASF120:
 4155 0e18 4359424C 		.ascii	"CYBLE_ERROR_FLASH_WRITE\000"
 4155      455F4552 
 4155      524F525F 
 4155      464C4153 
 4155      485F5752 
 4156              	.LASF25:
 4157 0e30 4359424C 		.ascii	"CYBLE_EVT_TIMEOUT\000"
 4157      455F4556 
 4157      545F5449 
 4157      4D454F55 
 4157      5400
 4158              	.LASF39:
 4159 0e42 4359424C 		.ascii	"CYBLE_EVT_GAP_ENCRYPT_CHANGE\000"
 4159      455F4556 
 4159      545F4741 
 4159      505F454E 
 4159      43525950 
 4160              	.LASF204:
 4161 0e5f 4D656173 		.ascii	"MeasureSeqInfo\000"
 4161      75726553 
 4161      6571496E 
 4161      666F00
 4162              	.LASF22:
 4163 0e6e 73697A65 		.ascii	"sizetype\000"
 4163      74797065 
 4163      00
 4164              	.LASF125:
 4165 0e77 4359424C 		.ascii	"CYBLE_ERROR_CHAR_IS_NOT_DISCOVERED\000"
 4165      455F4552 
 4165      524F525F 
 4165      43484152 
 4165      5F49535F 
 4166              	.LASF60:
 4167 0e9a 4359424C 		.ascii	"CYBLE_EVT_GATTC_READ_BY_TYPE_RSP\000"
 4167      455F4556 
 4167      545F4741 
 4167      5454435F 
 4167      52454144 
 4168              	.LASF2:
 4169 0ebb 73686F72 		.ascii	"short int\000"
 4169      7420696E 
 4169      7400
 4170              	.LASF199:
 4171 0ec5 53656E73 		.ascii	"SensorBias\000"
 4171      6F724269 
 4171      617300
 4172              	.LASF179:
 4173 0ed0 4D617853 		.ascii	"MaxSeqLenCal\000"
 4173      65714C65 
 4173      6E43616C 
 4173      00
 4174              	.LASF6:
ARM GAS  C:\Users\13740\AppData\Local\Temp\ccgojbJm.s 			page 98


 4175 0edd 6C6F6E67 		.ascii	"long int\000"
 4175      20696E74 
 4175      00
 4176              	.LASF178:
 4177 0ee6 53657153 		.ascii	"SeqStartAddrCal\000"
 4177      74617274 
 4177      41646472 
 4177      43616C00 
 4178              	.LASF55:
 4179 0ef6 4359424C 		.ascii	"CYBLE_EVT_GATT_CONNECT_IND\000"
 4179      455F4556 
 4179      545F4741 
 4179      54545F43 
 4179      4F4E4E45 
 4180              	.LASF94:
 4181 0f11 4359424C 		.ascii	"CYBLE_EVT_MAX\000"
 4181      455F4556 
 4181      545F4D41 
 4181      5800
 4182              	.LASF47:
 4183 0f1f 4359424C 		.ascii	"CYBLE_EVT_GAP_ENHANCE_CONN_COMPLETE\000"
 4183      455F4556 
 4183      545F4741 
 4183      505F454E 
 4183      48414E43 
 4184              	.LASF65:
 4185 0f43 4359424C 		.ascii	"CYBLE_EVT_GATTC_READ_MULTI_RSP\000"
 4185      455F4556 
 4185      545F4741 
 4185      5454435F 
 4185      52454144 
 4186              	.LASF84:
 4187 0f62 4359424C 		.ascii	"CYBLE_EVT_L2CAP_CBFC_DISCONN_IND\000"
 4187      455F4556 
 4187      545F4C32 
 4187      4341505F 
 4187      43424643 
 4188              	.LASF138:
 4189 0f83 4359424C 		.ascii	"CYBLE_BLESS_STATE_ECO_ON\000"
 4189      455F424C 
 4189      4553535F 
 4189      53544154 
 4189      455F4543 
 4190              	.LASF234:
 4191 0f9c 41443539 		.ascii	"AD5941_Initialize\000"
 4191      34315F49 
 4191      6E697469 
 4191      616C697A 
 4191      6500
 4192              	.LASF169:
 4193 0fae 57726974 		.ascii	"WriteSRAM\000"
 4193      65535241 
 4193      4D00
 4194              	.LASF96:
 4195 0fb8 4359424C 		.ascii	"CYBLE_ERROR_INVALID_PARAMETER\000"
 4195      455F4552 
 4195      524F525F 
ARM GAS  C:\Users\13740\AppData\Local\Temp\ccgojbJm.s 			page 99


 4195      494E5641 
 4195      4C49445F 
 4196              	.LASF30:
 4197 0fd6 4359424C 		.ascii	"CYBLE_EVT_GAPC_SCAN_PROGRESS_RESULT\000"
 4197      455F4556 
 4197      545F4741 
 4197      50435F53 
 4197      43414E5F 
 4198              	.LASF131:
 4199 0ffa 4359424C 		.ascii	"CYBLE_BLESS_DEEPSLEEP\000"
 4199      455F424C 
 4199      4553535F 
 4199      44454550 
 4199      534C4545 
 4200              	.LASF180:
 4201 1010 5265446F 		.ascii	"ReDoRtiaCal\000"
 4201      52746961 
 4201      43616C00 
 4202              	.LASF48:
 4203 101c 4359424C 		.ascii	"CYBLE_EVT_GAPC_DIRECT_ADV_REPORT\000"
 4203      455F4556 
 4203      545F4741 
 4203      50435F44 
 4203      49524543 
 4204              	.LASF59:
 4205 103d 4359424C 		.ascii	"CYBLE_EVT_GATTC_READ_BY_GROUP_TYPE_RSP\000"
 4205      455F4556 
 4205      545F4741 
 4205      5454435F 
 4205      52454144 
 4206              	.LASF150:
 4207 1064 61637475 		.ascii	"actualLen\000"
 4207      616C4C65 
 4207      6E00
 4208              	.LASF141:
 4209 106e 4359424C 		.ascii	"CYBLE_BLESS_STATE_HIBERNATE\000"
 4209      455F424C 
 4209      4553535F 
 4209      53544154 
 4209      455F4849 
 4210              	.LASF145:
 4211 108a 4359424C 		.ascii	"CYBLE_GAP_BD_ADDR_T\000"
 4211      455F4741 
 4211      505F4244 
 4211      5F414444 
 4211      525F5400 
 4212              	.LASF112:
 4213 109e 4359424C 		.ascii	"CYBLE_ERROR_L2CAP_CHANNEL_NOT_FOUND\000"
 4213      455F4552 
 4213      524F525F 
 4213      4C324341 
 4213      505F4348 
 4214              	.LASF4:
 4215 10c2 5F5F7569 		.ascii	"__uint8_t\000"
 4215      6E74385F 
 4215      7400
 4216              	.LASF38:
ARM GAS  C:\Users\13740\AppData\Local\Temp\ccgojbJm.s 			page 100


 4217 10cc 4359424C 		.ascii	"CYBLE_EVT_GAP_DEVICE_DISCONNECTED\000"
 4217      455F4556 
 4217      545F4741 
 4217      505F4445 
 4217      56494345 
 4218              	.LASF188:
 4219 10ee 41444352 		.ascii	"ADCRefVolt\000"
 4219      6566566F 
 4219      6C7400
 4220              	.LASF82:
 4221 10f9 4359424C 		.ascii	"CYBLE_EVT_L2CAP_CBFC_CONN_IND\000"
 4221      455F4556 
 4221      545F4C32 
 4221      4341505F 
 4221      43424643 
 4222              	.LASF172:
 4223 1117 4D61676E 		.ascii	"Magnitude\000"
 4223      69747564 
 4223      6500
 4224              	.LASF265:
 4225 1121 6D61696E 		.ascii	"main\000"
 4225      00
 4226              	.LASF143:
 4227 1126 62644164 		.ascii	"bdAddr\000"
 4227      647200
 4228              	.LASF8:
 4229 112d 6C6F6E67 		.ascii	"long unsigned int\000"
 4229      20756E73 
 4229      69676E65 
 4229      6420696E 
 4229      7400
 4230              	.LASF109:
 4231 113f 4359424C 		.ascii	"CYBLE_ERROR_L2CAP_PSM_ALREADY_REGISTERED\000"
 4231      455F4552 
 4231      524F525F 
 4231      4C324341 
 4231      505F5053 
 4232              	.LASF42:
 4233 1168 4359424C 		.ascii	"CYBLE_EVT_GAP_KEYINFO_EXCHNGE_CMPLT\000"
 4233      455F4556 
 4233      545F4741 
 4233      505F4B45 
 4233      59494E46 
 4234              	.LASF33:
 4235 118c 4359424C 		.ascii	"CYBLE_EVT_GAP_PASSKEY_DISPLAY_REQUEST\000"
 4235      455F4556 
 4235      545F4741 
 4235      505F5041 
 4235      53534B45 
 4236              	.LASF78:
 4237 11b2 4359424C 		.ascii	"CYBLE_EVT_GATTC_LONG_PROCEDURE_END\000"
 4237      455F4556 
 4237      545F4741 
 4237      5454435F 
 4237      4C4F4E47 
 4238              	.LASF101:
 4239 11d5 4359424C 		.ascii	"CYBLE_ERROR_NO_CONNECTION\000"
ARM GAS  C:\Users\13740\AppData\Local\Temp\ccgojbJm.s 			page 101


 4239      455F4552 
 4239      524F525F 
 4239      4E4F5F43 
 4239      4F4E4E45 
 4240              	.LASF13:
 4241 11ef 696E7433 		.ascii	"int32_t\000"
 4241      325F7400 
 4242              	.LASF154:
 4243 11f7 4359424C 		.ascii	"CYBLE_GATT_HANDLE_VALUE_PAIR_T\000"
 4243      455F4741 
 4243      54545F48 
 4243      414E444C 
 4243      455F5641 
 4244              	.LASF89:
 4245 1216 4359424C 		.ascii	"CYBLE_EVT_L2CAP_CBFC_DATA_WRITE_IND\000"
 4245      455F4556 
 4245      545F4C32 
 4245      4341505F 
 4245      43424643 
 4246              	.LASF243:
 4247 123a 54696D65 		.ascii	"Timer_Interrupt\000"
 4247      725F496E 
 4247      74657272 
 4247      75707400 
 4248              	.LASF35:
 4249 124a 4359424C 		.ascii	"CYBLE_EVT_GAP_AUTH_FAILED\000"
 4249      455F4556 
 4249      545F4741 
 4249      505F4155 
 4249      54485F46 
 4250              	.LASF29:
 4251 1264 4359424C 		.ascii	"CYBLE_EVT_MEMORY_REQUEST\000"
 4251      455F4556 
 4251      545F4D45 
 4251      4D4F5259 
 4251      5F524551 
 4252              	.LASF220:
 4253 127d 53454E53 		.ascii	"SENSOR_COUNT\000"
 4253      4F525F43 
 4253      4F554E54 
 4253      00
 4254              	.LASF144:
 4255 128a 74797065 		.ascii	"type\000"
 4255      00
 4256              	.LASF44:
 4257 128f 4359424C 		.ascii	"CYBLE_EVT_GAP_KEYPRESS_NOTIFICATION\000"
 4257      455F4556 
 4257      545F4741 
 4257      505F4B45 
 4257      59505245 
 4258              	.LASF240:
 4259 12b3 53656E64 		.ascii	"SendDataViaBLE\000"
 4259      44617461 
 4259      56696142 
 4259      4C4500
 4260              	.LASF1:
 4261 12c2 756E7369 		.ascii	"unsigned char\000"
ARM GAS  C:\Users\13740\AppData\Local\Temp\ccgojbJm.s 			page 102


 4261      676E6564 
 4261      20636861 
 4261      7200
 4262              	.LASF7:
 4263 12d0 5F5F7569 		.ascii	"__uint32_t\000"
 4263      6E743332 
 4263      5F7400
 4264              	.LASF224:
 4265 12db 64617461 		.ascii	"dataCount\000"
 4265      436F756E 
 4265      7400
 4266              	.LASF216:
 4267 12e5 53656E73 		.ascii	"SensorData_t\000"
 4267      6F724461 
 4267      74615F74 
 4267      00
 4268              	.LASF139:
 4269 12f2 4359424C 		.ascii	"CYBLE_BLESS_STATE_ECO_STABLE\000"
 4269      455F424C 
 4269      4553535F 
 4269      53544154 
 4269      455F4543 
 4270              	.LASF249:
 4271 130f 53746172 		.ascii	"StartAdvertisement\000"
 4271      74416476 
 4271      65727469 
 4271      73656D65 
 4271      6E7400
 4272              	.LASF23:
 4273 1322 4359424C 		.ascii	"CYBLE_EVT_HOST_INVALID\000"
 4273      455F4556 
 4273      545F484F 
 4273      53545F49 
 4273      4E56414C 
 4274              	.LASF132:
 4275 1339 4359424C 		.ascii	"CYBLE_BLESS_HIBERNATE\000"
 4275      455F424C 
 4275      4553535F 
 4275      48494245 
 4275      524E4154 
 4276              	.LASF53:
 4277 134f 4359424C 		.ascii	"CYBLE_EVT_GAP_SMP_LOC_P256_KEYS_GEN_AND_SET_COMPLET"
 4277      455F4556 
 4277      545F4741 
 4277      505F534D 
 4277      505F4C4F 
 4278 1382 4500     		.ascii	"E\000"
 4279              	.LASF85:
 4280 1384 4359424C 		.ascii	"CYBLE_EVT_L2CAP_CBFC_DISCONN_CNF\000"
 4280      455F4556 
 4280      545F4C32 
 4280      4341505F 
 4280      43424643 
 4281              	.LASF37:
 4282 13a5 4359424C 		.ascii	"CYBLE_EVT_GAP_DEVICE_CONNECTED\000"
 4282      455F4556 
 4282      545F4741 
ARM GAS  C:\Users\13740\AppData\Local\Temp\ccgojbJm.s 			page 103


 4282      505F4445 
 4282      56494345 
 4283              	.LASF242:
 4284 13c4 64617461 		.ascii	"dataPacket\000"
 4284      5061636B 
 4284      657400
 4285              	.LASF69:
 4286 13cf 4359424C 		.ascii	"CYBLE_EVT_GATTS_PREP_WRITE_REQ\000"
 4286      455F4556 
 4286      545F4741 
 4286      5454535F 
 4286      50524550 
 4287              	.LASF226:
 4288 13ee 436F6E76 		.ascii	"ConvertCurrentToConcentration\000"
 4288      65727443 
 4288      75727265 
 4288      6E74546F 
 4288      436F6E63 
 4289              	.LASF50:
 4290 140c 4359424C 		.ascii	"CYBLE_EVT_GAP_CONN_ESTB\000"
 4290      455F4556 
 4290      545F4741 
 4290      505F434F 
 4290      4E4E5F45 
 4291              	.LASF52:
 4292 1424 4359424C 		.ascii	"CYBLE_EVT_GAP_AUTH_REQ_REPLY_ERR\000"
 4292      455F4556 
 4292      545F4741 
 4292      505F4155 
 4292      54485F52 
 4293              	.LASF215:
 4294 1445 74696D65 		.ascii	"timestamp\000"
 4294      7374616D 
 4294      7000
 4295              	.LASF233:
 4296 144f 72657369 		.ascii	"resistance\000"
 4296      7374616E 
 4296      636500
 4297              	.LASF0:
 4298 145a 7369676E 		.ascii	"signed char\000"
 4298      65642063 
 4298      68617200 
 4299              	.LASF196:
 4300 1466 4C705469 		.ascii	"LpTiaRl\000"
 4300      61526C00 
 4301              	.LASF3:
 4302 146e 73686F72 		.ascii	"short unsigned int\000"
 4302      7420756E 
 4302      7369676E 
 4302      65642069 
 4302      6E7400
 4303              	.LASF263:
 4304 1481 453A5C64 		.ascii	"E:\\desktop\\bu\\eda\\Transistor\\Transistor.cydsn\000"
 4304      65736B74 
 4304      6F705C62 
 4304      755C6564 
 4304      615C5472 
ARM GAS  C:\Users\13740\AppData\Local\Temp\ccgojbJm.s 			page 104


 4305              	.LASF230:
 4306 14af 4D656173 		.ascii	"MeasureTemperature\000"
 4306      75726554 
 4306      656D7065 
 4306      72617475 
 4306      726500
 4307              	.LASF162:
 4308 14c2 41443539 		.ascii	"AD5940Err\000"
 4308      34304572 
 4308      7200
 4309              	.LASF121:
 4310 14cc 4359424C 		.ascii	"CYBLE_ERROR_CONTROLLER_BUSY\000"
 4310      455F4552 
 4310      524F525F 
 4310      434F4E54 
 4310      524F4C4C 
 4311              	.LASF113:
 4312 14e8 4359424C 		.ascii	"CYBLE_ERROR_L2CAP_PSM_NOT_IN_RANGE\000"
 4312      455F4552 
 4312      524F525F 
 4312      4C324341 
 4312      505F5053 
 4313              	.LASF15:
 4314 150b 75696E74 		.ascii	"uint8\000"
 4314      3800
 4315              	.LASF95:
 4316 1511 4359424C 		.ascii	"CYBLE_ERROR_OK\000"
 4316      455F4552 
 4316      524F525F 
 4316      4F4B00
 4317              	.LASF228:
 4318 1520 63757272 		.ascii	"current_nA\000"
 4318      656E745F 
 4318      6E4100
 4319              	.LASF74:
 4320 152b 4359424C 		.ascii	"CYBLE_EVT_GATTS_HANDLE_VALUE_CNF\000"
 4320      455F4556 
 4320      545F4741 
 4320      5454535F 
 4320      48414E44 
 4321              	.LASF130:
 4322 154c 4359424C 		.ascii	"CYBLE_BLESS_SLEEP\000"
 4322      455F424C 
 4322      4553535F 
 4322      534C4545 
 4322      5000
 4323              	.LASF227:
 4324 155e 73656E73 		.ascii	"sensorType\000"
 4324      6F725479 
 4324      706500
 4325              	.LASF148:
 4326 1569 61747449 		.ascii	"attId\000"
 4326      6400
 4327              	.LASF135:
 4328 156f 4359424C 		.ascii	"CYBLE_BLESS_STATE_ACTIVE\000"
 4328      455F424C 
 4328      4553535F 
ARM GAS  C:\Users\13740\AppData\Local\Temp\ccgojbJm.s 			page 105


 4328      53544154 
 4328      455F4143 
 4329              	.LASF136:
 4330 1588 4359424C 		.ascii	"CYBLE_BLESS_STATE_EVENT_CLOSE\000"
 4330      455F424C 
 4330      4553535F 
 4330      53544154 
 4330      455F4556 
 4331              	.LASF41:
 4332 15a6 4359424C 		.ascii	"CYBLE_EVT_GAPC_SCAN_START_STOP\000"
 4332      455F4556 
 4332      545F4741 
 4332      50435F53 
 4332      43414E5F 
 4333              	.LASF176:
 4334 15c5 53657153 		.ascii	"SeqStartAddr\000"
 4334      74617274 
 4334      41646472 
 4334      00
 4335              	.LASF231:
 4336 15d2 61646343 		.ascii	"adcCode\000"
 4336      6F646500 
 4337              	.LASF159:
 4338 15da 4359424C 		.ascii	"CYBLE_STATE_ADVERTISING\000"
 4338      455F5354 
 4338      4154455F 
 4338      41445645 
 4338      52544953 
 4339              	.LASF170:
 4340 15f2 70536571 		.ascii	"pSeqCmd\000"
 4340      436D6400 
 4341              		.ident	"GCC: (GNU Tools for ARM Embedded Processors) 5.4.1 20160609 (release) [ARM/embedded-5-bran
