ARM GAS  C:\Users\13740\AppData\Local\Temp\ccN8S1qO.s 			page 1


   1              		.syntax unified
   2              		.cpu cortex-m0
   3              		.fpu softvfp
   4              		.eabi_attribute 20, 1
   5              		.eabi_attribute 21, 1
   6              		.eabi_attribute 23, 3
   7              		.eabi_attribute 24, 1
   8              		.eabi_attribute 25, 1
   9              		.eabi_attribute 26, 1
  10              		.eabi_attribute 30, 6
  11              		.eabi_attribute 34, 0
  12              		.eabi_attribute 18, 4
  13              		.thumb
  14              		.syntax unified
  15              		.file	"main.c"
  16              		.text
  17              	.Ltext0:
  18              		.cfi_sections	.debug_frame
  19              		.global	lastSendTime
  20              		.bss
  21              		.align	2
  22              		.type	lastSendTime, %object
  23              		.size	lastSendTime, 4
  24              	lastSendTime:
  25 0000 00000000 		.space	4
  26              		.global	mainTimer
  27              		.align	2
  28              		.type	mainTimer, %object
  29              		.size	mainTimer, 4
  30              	mainTimer:
  31 0004 00000000 		.space	4
  32              		.global	measurementFlag
  33              		.type	measurementFlag, %object
  34              		.size	measurementFlag, 1
  35              	measurementFlag:
  36 0008 00       		.space	1
  37              		.comm	apiResult,2,2
  38              		.global	sensorData
  39 0009 000000   		.align	2
  40              		.type	sensorData, %object
  41              		.size	sensorData, 32
  42              	sensorData:
  43 000c 00000000 		.space	32
  43      00000000 
  43      00000000 
  43      00000000 
  43      00000000 
  44              		.comm	pAmpCfg,4,4
  45              		.comm	ampBuffer,2048,4
  46              		.comm	ampResult,8,4
  47              		.section	.rodata
  48              		.align	2
  49              	.LC0:
  50 0000 5B494E49 		.ascii	"[INIT] Step 1: Resetting AD5940...\000"
  50      545D2053 
  50      74657020 
  50      313A2052 
ARM GAS  C:\Users\13740\AppData\Local\Temp\ccN8S1qO.s 			page 2


  50      65736574 
  51 0023 00       		.align	2
  52              	.LC2:
  53 0024 5B494E49 		.ascii	"[INIT] Reset complete\000"
  53      545D2052 
  53      65736574 
  53      20636F6D 
  53      706C6574 
  54 003a 0000     		.align	2
  55              	.LC4:
  56 003c 5B494E49 		.ascii	"[INIT] Step 2: Initializing MCU SPI resources...\000"
  56      545D2053 
  56      74657020 
  56      323A2049 
  56      6E697469 
  57 006d 000000   		.align	2
  58              	.LC6:
  59 0070 5B494E49 		.ascii	"[INIT] SPI resources initialized\000"
  59      545D2053 
  59      50492072 
  59      65736F75 
  59      72636573 
  60 0091 000000   		.align	2
  61              	.LC8:
  62 0094 5B494E49 		.ascii	"[INIT] Step 2.5: Running AD5940_Initialize (Table 1"
  62      545D2053 
  62      74657020 
  62      322E353A 
  62      2052756E 
  63 00c7 34207365 		.ascii	"4 sequence)...\000"
  63      7175656E 
  63      6365292E 
  63      2E2E00
  64 00d6 0000     		.align	2
  65              	.LC10:
  66 00d8 5B494E49 		.ascii	"[INIT] AD5940_Initialize complete\000"
  66      545D2041 
  66      44353934 
  66      305F496E 
  66      69746961 
  67 00fa 0000     		.align	2
  68              	.LC12:
  69 00fc 5B444542 		.ascii	"[DEBUG] CHIPID after 50ms wait: 0x%lX\012\000"
  69      55475D20 
  69      43484950 
  69      49442061 
  69      66746572 
  70 0123 00       		.align	2
  71              	.LC14:
  72 0124 5B455252 		.ascii	"[ERROR] Chip not responding! Got: 0x%lX\012\000"
  72      4F525D20 
  72      43686970 
  72      206E6F74 
  72      20726573 
  73 014d 000000   		.align	2
  74              	.LC16:
  75 0150 5B524554 		.ascii	"[RETRY] CHIPID after 150ms: 0x%lX\012\000"
ARM GAS  C:\Users\13740\AppData\Local\Temp\ccN8S1qO.s 			page 3


  75      52595D20 
  75      43484950 
  75      49442061 
  75      66746572 
  76 0173 00       		.align	2
  77              	.LC18:
  78 0174 5B494E49 		.ascii	"[INIT] Step 3: Getting config pointer...\000"
  78      545D2053 
  78      74657020 
  78      333A2047 
  78      65747469 
  79 019d 000000   		.align	2
  80              	.LC21:
  81 01a0 5B455252 		.ascii	"[ERROR] pAmpCfg is NULL!\000"
  81      4F525D20 
  81      70416D70 
  81      43666720 
  81      6973204E 
  82 01b9 000000   		.align	2
  83              	.LC23:
  84 01bc 5B494E49 		.ascii	"[INIT] Config pointer obtained: %p\012\000"
  84      545D2043 
  84      6F6E6669 
  84      6720706F 
  84      696E7465 
  85              		.align	2
  86              	.LC25:
  87 01e0 5B494E49 		.ascii	"[INIT] Step 4: Configuring amperometric parameters."
  87      545D2053 
  87      74657020 
  87      343A2043 
  87      6F6E6669 
  88 0213 2E2E00   		.ascii	"..\000"
  89 0216 0000     		.align	2
  90              	.LC27:
  91 0218 5B494E49 		.ascii	"[INIT] Parameters configured\000"
  91      545D2050 
  91      6172616D 
  91      65746572 
  91      7320636F 
  92 0235 000000   		.align	2
  93              	.LC29:
  94 0238 5B494E49 		.ascii	"[INIT] AMPInited before AppAMPInit: %d\012\000"
  94      545D2041 
  94      4D50496E 
  94      69746564 
  94      20626566 
  95              		.align	2
  96              	.LC31:
  97 0260 5B494E49 		.ascii	"[INIT] Step 5: Calling AppAMPInit...\000"
  97      545D2053 
  97      74657020 
  97      353A2043 
  97      616C6C69 
  98 0285 000000   		.align	2
  99              	.LC34:
 100 0288 5B494E49 		.ascii	"[INIT] AppAMPInit returned: %d\012\000"
ARM GAS  C:\Users\13740\AppData\Local\Temp\ccN8S1qO.s 			page 4


 100      545D2041 
 100      7070414D 
 100      50496E69 
 100      74207265 
 101              		.align	2
 102              	.LC36:
 103 02a8 5B494E49 		.ascii	"[INIT] AMPInited after AppAMPInit: %d\012\000"
 103      545D2041 
 103      4D50496E 
 103      69746564 
 103      20616674 
 104 02cf 00       		.align	2
 105              	.LC38:
 106 02d0 5B4F4B5D 		.ascii	"[OK] AD5941 initialization successful\000"
 106      20414435 
 106      39343120 
 106      696E6974 
 106      69616C69 
 107 02f6 0000     		.align	2
 108              	.LC40:
 109 02f8 5B455252 		.ascii	"[ERROR] AD5941 initialization failed: error=%d\012\000"
 109      4F525D20 
 109      41443539 
 109      34312069 
 109      6E697469 
 110              		.align	2
 111              	.LC42:
 112 0328 0A5B4944 		.ascii	"\012[ID CHECK] Reading AD5941 ID registers...\000"
 112      20434845 
 112      434B5D20 
 112      52656164 
 112      696E6720 
 113 0353 00       		.align	2
 114              	.LC44:
 115 0354 41444949 		.ascii	"ADIID: 0x%lX\012\000"
 115      443A2030 
 115      78256C58 
 115      0A00
 116 0362 0000     		.align	2
 117              	.LC46:
 118 0364 43484950 		.ascii	"CHIPID: 0x%lX\012\000"
 118      49443A20 
 118      3078256C 
 118      580A00
 119 0373 00       		.align	2
 120              	.LC48:
 121 0374 5B4F4B5D 		.ascii	"[OK] ID registers correct!\000"
 121      20494420 
 121      72656769 
 121      73746572 
 121      7320636F 
 122 038f 00       		.align	2
 123              	.LC50:
 124 0390 5B455252 		.ascii	"[ERROR] Still getting 0x808080 - MISO issue persist"
 124      4F525D20 
 124      5374696C 
 124      6C206765 
ARM GAS  C:\Users\13740\AppData\Local\Temp\ccN8S1qO.s 			page 5


 124      7474696E 
 125 03c3 732100   		.ascii	"s!\000"
 126 03c6 0000     		.align	2
 127              	.LC52:
 128 03c8 5B574152 		.ascii	"[WARNING] Unexpected ID values\000"
 128      4E494E47 
 128      5D20556E 
 128      65787065 
 128      63746564 
 129              		.section	.text.AD5941_Initialize,"ax",%progbits
 130              		.align	2
 131              		.global	AD5941_Initialize
 132              		.code	16
 133              		.thumb_func
 134              		.type	AD5941_Initialize, %function
 135              	AD5941_Initialize:
 136              	.LFB36:
 137              		.file 1 "main.c"
   1:main.c        **** 
   2:main.c        **** /*******************************************************************************
   3:main.c        **** * File Name: main.c
   4:main.c        **** *
   5:main.c        **** * Version 2.0
   6:main.c        **** *
   7:main.c        **** * Description:
   8:main.c        **** *  Â§öË∑ØÁîüÁâ©‰º†ÊÑüÂô®Á≥ªÁªü - ‰øÆÂ§çÂêéÁöÑÂÆåÊï¥ÁâàÊú¨
   9:main.c        **** *  ‰ΩøÁî®AD5940ÂÜÖÁΩÆADCÔºå‰∏ç‰æùËµñPSoC ADCÊ®°Âùó
  10:main.c        **** *
  11:main.c        **** ********************************************************************************/
  12:main.c        **** 
  13:main.c        **** // /* ÈìæÊé•Êï∞Â≠¶Â∫ìÔºàGCCÁºñËØëÂô®Ôºâ */
  14:main.c        **** // #pragma comment(lib, "libm.a")
  15:main.c        **** 
  16:main.c        **** #include "main.h"
  17:main.c        **** #include "ad5940.h"
  18:main.c        **** #include "Amperometric.h"
  19:main.c        **** 
  20:main.c        **** // Âú® main() ÂáΩÊï∞ÂºÄÂ§¥Ê∑ªÂä†ÂèòÈáè
  21:main.c        **** uint32 lastSendTime = 0;  // ‰∏äÊ¨°ÂèëÈÄÅÊï∞ÊçÆÁöÑÊó∂Èó¥
  22:main.c        **** #define SEND_INTERVAL 3   // ÊØè3ÁßíÂèëÈÄÅ‰∏ÄÊ¨°Êï∞ÊçÆ
  23:main.c        **** 
  24:main.c        **** /*******************************************************************************
  25:main.c        **** * ÂÖ®Â±ÄÂèòÈáè
  26:main.c        **** *******************************************************************************/
  27:main.c        **** volatile uint32 mainTimer = 0;
  28:main.c        **** volatile uint8 measurementFlag = 0;
  29:main.c        **** CYBLE_API_RESULT_T apiResult;
  30:main.c        **** 
  31:main.c        **** // ‰º†ÊÑüÂô®Êï∞ÊçÆÁªìÊûÑ
  32:main.c        **** typedef struct {
  33:main.c        ****     float temperature;      // Ê∏©Â∫¶ (¬∞C) - ‰ªéAD5940ËØªÂèñ
  34:main.c        ****     float glucose;         // Ëë°ËêÑÁ≥ñ (mM)
  35:main.c        ****     float lactate;         // ‰π≥ÈÖ∏ (mM)
  36:main.c        ****     float uric_acid;       // Â∞øÈÖ∏ (ŒºM)
  37:main.c        ****     uint32 timestamp;      // Êó∂Èó¥Êà≥
  38:main.c        ****     
  39:main.c        ****     // Êñ∞Â¢ûÔºöÂéüÂßãÁîµÊµÅÂÄºÔºà‰ªéÊ∫êË°®/AD5940ËØªÂèñÔºâ
ARM GAS  C:\Users\13740\AppData\Local\Temp\ccN8S1qO.s 			page 6


  40:main.c        ****     float current_glucose_nA;   // Ëë°ËêÑÁ≥ñ‰º†ÊÑüÂô®ÁîµÊµÅ (nA)
  41:main.c        ****     float current_lactate_nA;   // ‰π≥ÈÖ∏‰º†ÊÑüÂô®ÁîµÊµÅ (nA)
  42:main.c        ****     float current_uric_nA;      // Â∞øÈÖ∏‰º†ÊÑüÂô®ÁîµÊµÅ (nA)    
  43:main.c        **** } SensorData_t;
  44:main.c        **** 
  45:main.c        **** // ‰º†ÊÑüÂô®Êï∞ÊçÆÂÖ®Â±ÄÂèòÈáèÔºàÂÆö‰πâÂú®main.h‰∏≠ÁöÑSensorData_tÁªìÊûÑÔºâ
  46:main.c        **** SensorData_t sensorData = {0};
  47:main.c        **** 
  48:main.c        **** typedef enum {
  49:main.c        ****     SENSOR_GLUCOSE = 0,
  50:main.c        ****     SENSOR_LACTATE = 1,
  51:main.c        ****     SENSOR_URIC_ACID = 2,
  52:main.c        ****     SENSOR_COUNT = 3
  53:main.c        **** } AmperometricSensor_t;
  54:main.c        **** 
  55:main.c        **** 
  56:main.c        **** 
  57:main.c        **** 
  58:main.c        **** 
  59:main.c        **** // AD5941Áõ∏ÂÖ≥ÂèòÈáè
  60:main.c        **** AppAMPCfg_Type *pAmpCfg;
  61:main.c        **** uint32 ampBuffer[512];  // Áî®‰∫éAppAMPInitÁöÑÁºìÂÜ≤Âå∫
  62:main.c        **** fAmpRes_Type ampResult;
  63:main.c        **** 
  64:main.c        **** /*******************************************************************************
  65:main.c        **** * Function Name: AD5941_Initialize
  66:main.c        **** ********************************************************************************
  67:main.c        **** * Summary:
  68:main.c        **** *   ÂàùÂßãÂåñAD5941ÁîµÂåñÂ≠¶ÂâçÁ´ØËäØÁâá - ‰øÆÂ§çÂêéÁöÑÁâàÊú¨
  69:main.c        **** *******************************************************************************/
  70:main.c        **** void AD5941_Initialize(void)
  71:main.c        **** {
 138              		.loc 1 71 0
 139              		.cfi_startproc
 140              		@ args = 0, pretend = 0, frame = 16
 141              		@ frame_needed = 1, uses_anonymous_args = 0
 142 0000 80B5     		push	{r7, lr}
 143              		.cfi_def_cfa_offset 8
 144              		.cfi_offset 7, -8
 145              		.cfi_offset 14, -4
 146 0002 84B0     		sub	sp, sp, #16
 147              		.cfi_def_cfa_offset 24
 148 0004 00AF     		add	r7, sp, #0
 149              		.cfi_def_cfa_register 7
  72:main.c        ****     AD5940Err error;
  73:main.c        ****     
  74:main.c        ****     // Ê≠•È™§1: Â§ç‰ΩçAD5940
  75:main.c        ****     printf("[INIT] Step 1: Resetting AD5940...\n");
 150              		.loc 1 75 0
 151 0006 B24B     		ldr	r3, .L10
 152 0008 1800     		movs	r0, r3
 153 000a FFF7FEFF 		bl	puts
  76:main.c        ****     AD5940_RST_Write(0);
 154              		.loc 1 76 0
 155 000e 0020     		movs	r0, #0
 156 0010 FFF7FEFF 		bl	AD5940_RST_Write
  77:main.c        ****     CyDelay(10);
ARM GAS  C:\Users\13740\AppData\Local\Temp\ccN8S1qO.s 			page 7


 157              		.loc 1 77 0
 158 0014 0A20     		movs	r0, #10
 159 0016 FFF7FEFF 		bl	CyDelay
  78:main.c        ****     AD5940_RST_Write(1);
 160              		.loc 1 78 0
 161 001a 0120     		movs	r0, #1
 162 001c FFF7FEFF 		bl	AD5940_RST_Write
  79:main.c        ****     CyDelay(100);
 163              		.loc 1 79 0
 164 0020 6420     		movs	r0, #100
 165 0022 FFF7FEFF 		bl	CyDelay
  80:main.c        ****     printf("[INIT] Reset complete\n");
 166              		.loc 1 80 0
 167 0026 AB4B     		ldr	r3, .L10+4
 168 0028 1800     		movs	r0, r3
 169 002a FFF7FEFF 		bl	puts
  81:main.c        ****     
  82:main.c        ****     // Ê≠•È™§2: ÂàùÂßãÂåñMCUËµÑÊ∫êÔºàSPIÈÄö‰ø°Ôºâ
  83:main.c        ****     printf("[INIT] Step 2: Initializing MCU SPI resources...\n");
 170              		.loc 1 83 0
 171 002e AA4B     		ldr	r3, .L10+8
 172 0030 1800     		movs	r0, r3
 173 0032 FFF7FEFF 		bl	puts
  84:main.c        ****     AD5940_MCUResourceInit(NULL);
 174              		.loc 1 84 0
 175 0036 0020     		movs	r0, #0
 176 0038 FFF7FEFF 		bl	AD5940_MCUResourceInit
  85:main.c        ****     printf("[INIT] SPI resources initialized\n");
 177              		.loc 1 85 0
 178 003c A74B     		ldr	r3, .L10+12
 179 003e 1800     		movs	r0, r3
 180 0040 FFF7FEFF 		bl	puts
  86:main.c        ****     
  87:main.c        ****     // Ê≠•È™§2.5: ÊâßË°åAD5940Á°¨‰ª∂ÂàùÂßãÂåñ (Table 14 - ÂøÖÈ°ªÂú®Â§ç‰ΩçÂêéÁ´ãÂç≥ÊâßË°å)
  88:main.c        ****     // ËøôÊòØÂÖ≥ÈîÆÊ≠•È™§ÔºöÂÜôÂÖ•ÂàùÂßãÂåñÂØÑÂ≠òÂô®Â∫èÂàó‰ª•ÊøÄÊ¥ªËäØÁâáÂÜÖÈÉ®SPIÊé•Âè£ÂíåÊ®°ÊãüÂâ
  89:main.c        ****     printf("[INIT] Step 2.5: Running AD5940_Initialize (Table 14 sequence)...\n");
 181              		.loc 1 89 0
 182 0044 A64B     		ldr	r3, .L10+16
 183 0046 1800     		movs	r0, r3
 184 0048 FFF7FEFF 		bl	puts
  90:main.c        ****     AD5940_Initialize();
 185              		.loc 1 90 0
 186 004c FFF7FEFF 		bl	AD5940_Initialize
  91:main.c        ****     printf("[INIT] AD5940_Initialize complete\n");
 187              		.loc 1 91 0
 188 0050 A44B     		ldr	r3, .L10+20
 189 0052 1800     		movs	r0, r3
 190 0054 FFF7FEFF 		bl	puts
  92:main.c        ****     CyDelay(50);  // ÈáçË¶ÅÔºÅÁ≠âÂæÖAFEÂî§ÈÜíÔºàÊï∞ÊçÆÊâãÂÜåË¶ÅÊ±Ç‚â•30msÔºåËøôÈáåÁî®50msÁ°Æ‰øùÂÖÖÂ
 191              		.loc 1 92 0
 192 0058 3220     		movs	r0, #50
 193 005a FFF7FEFF 		bl	CyDelay
  93:main.c        ****         // üîç Á´ãÂç≥Ê£ÄÊü• ID
  94:main.c        ****     uint32 chipid = AD5940_ReadReg(REG_AFECON_CHIPID);
 194              		.loc 1 94 0
 195 005e A24B     		ldr	r3, .L10+24
 196 0060 1800     		movs	r0, r3
ARM GAS  C:\Users\13740\AppData\Local\Temp\ccN8S1qO.s 			page 8


 197 0062 FFF7FEFF 		bl	AD5940_ReadReg
 198 0066 0300     		movs	r3, r0
 199 0068 FB60     		str	r3, [r7, #12]
  95:main.c        ****     printf("[DEBUG] CHIPID after 50ms wait: 0x%lX\n", chipid);
 200              		.loc 1 95 0
 201 006a FA68     		ldr	r2, [r7, #12]
 202 006c 9F4B     		ldr	r3, .L10+28
 203 006e 1100     		movs	r1, r2
 204 0070 1800     		movs	r0, r3
 205 0072 FFF7FEFF 		bl	printf
  96:main.c        ****     
  97:main.c        ****     if(chipid != 0x5502 && chipid != 0x5501)
 206              		.loc 1 97 0
 207 0076 FB68     		ldr	r3, [r7, #12]
 208 0078 9D4A     		ldr	r2, .L10+32
 209 007a 9342     		cmp	r3, r2
 210 007c 18D0     		beq	.L2
 211              		.loc 1 97 0 is_stmt 0 discriminator 1
 212 007e FB68     		ldr	r3, [r7, #12]
 213 0080 9C4A     		ldr	r2, .L10+36
 214 0082 9342     		cmp	r3, r2
 215 0084 14D0     		beq	.L2
  98:main.c        ****     {
  99:main.c        ****         printf("[ERROR] Chip not responding! Got: 0x%lX\n", chipid);
 216              		.loc 1 99 0 is_stmt 1
 217 0086 FA68     		ldr	r2, [r7, #12]
 218 0088 9B4B     		ldr	r3, .L10+40
 219 008a 1100     		movs	r1, r2
 220 008c 1800     		movs	r0, r3
 221 008e FFF7FEFF 		bl	printf
 100:main.c        ****         // Â∞ùËØïÊõ¥ÈïøÁöÑÁ≠âÂæÖ
 101:main.c        ****         CyDelay(100);
 222              		.loc 1 101 0
 223 0092 6420     		movs	r0, #100
 224 0094 FFF7FEFF 		bl	CyDelay
 102:main.c        ****         chipid = AD5940_ReadReg(REG_AFECON_CHIPID);
 225              		.loc 1 102 0
 226 0098 934B     		ldr	r3, .L10+24
 227 009a 1800     		movs	r0, r3
 228 009c FFF7FEFF 		bl	AD5940_ReadReg
 229 00a0 0300     		movs	r3, r0
 230 00a2 FB60     		str	r3, [r7, #12]
 103:main.c        ****         printf("[RETRY] CHIPID after 150ms: 0x%lX\n", chipid);
 231              		.loc 1 103 0
 232 00a4 FA68     		ldr	r2, [r7, #12]
 233 00a6 954B     		ldr	r3, .L10+44
 234 00a8 1100     		movs	r1, r2
 235 00aa 1800     		movs	r0, r3
 236 00ac FFF7FEFF 		bl	printf
 237              	.L2:
 104:main.c        ****     }
 105:main.c        ****     
 106:main.c        ****     // Ê≠•È™§3: Ëé∑ÂèñÈÖçÁΩÆÊåáÈíà
 107:main.c        ****     printf("[INIT] Step 3: Getting config pointer...\n");
 238              		.loc 1 107 0
 239 00b0 934B     		ldr	r3, .L10+48
 240 00b2 1800     		movs	r0, r3
ARM GAS  C:\Users\13740\AppData\Local\Temp\ccN8S1qO.s 			page 9


 241 00b4 FFF7FEFF 		bl	puts
 108:main.c        ****     AppAMPGetCfg(&pAmpCfg);
 242              		.loc 1 108 0
 243 00b8 924B     		ldr	r3, .L10+52
 244 00ba 1800     		movs	r0, r3
 245 00bc FFF7FEFF 		bl	AppAMPGetCfg
 109:main.c        ****     if(pAmpCfg == NULL)
 246              		.loc 1 109 0
 247 00c0 904B     		ldr	r3, .L10+52
 248 00c2 1B68     		ldr	r3, [r3]
 249 00c4 002B     		cmp	r3, #0
 250 00c6 04D1     		bne	.L3
 110:main.c        ****     {
 111:main.c        ****         printf("[ERROR] pAmpCfg is NULL!\n");
 251              		.loc 1 111 0
 252 00c8 8F4B     		ldr	r3, .L10+56
 253 00ca 1800     		movs	r0, r3
 254 00cc FFF7FEFF 		bl	puts
 112:main.c        ****         return;
 255              		.loc 1 112 0
 256 00d0 FBE0     		b	.L1
 257              	.L3:
 113:main.c        ****     }
 114:main.c        ****     printf("[INIT] Config pointer obtained: %p\n", (void*)pAmpCfg);
 258              		.loc 1 114 0
 259 00d2 8C4B     		ldr	r3, .L10+52
 260 00d4 1A68     		ldr	r2, [r3]
 261 00d6 8D4B     		ldr	r3, .L10+60
 262 00d8 1100     		movs	r1, r2
 263 00da 1800     		movs	r0, r3
 264 00dc FFF7FEFF 		bl	printf
 115:main.c        ****     
 116:main.c        ****     // Ê≠•È™§4: ÈÖçÁΩÆÂÆâÂüπÊ≥ïÊµãÈáèÂèÇÊï∞ÔºàÊ†πÊçÆAmperometric.hÁªìÊûÑ‰ΩìÔºâ
 117:main.c        ****     printf("[INIT] Step 4: Configuring amperometric parameters...\n");
 265              		.loc 1 117 0
 266 00e0 8B4B     		ldr	r3, .L10+64
 267 00e2 1800     		movs	r0, r3
 268 00e4 FFF7FEFF 		bl	puts
 118:main.c        ****     pAmpCfg->bParaChanged = bTRUE;
 269              		.loc 1 118 0
 270 00e8 864B     		ldr	r3, .L10+52
 271 00ea 1B68     		ldr	r3, [r3]
 272 00ec 0122     		movs	r2, #1
 273 00ee 1A70     		strb	r2, [r3]
 119:main.c        ****     pAmpCfg->SeqStartAddr = 0;
 274              		.loc 1 119 0
 275 00f0 844B     		ldr	r3, .L10+52
 276 00f2 1B68     		ldr	r3, [r3]
 277 00f4 0022     		movs	r2, #0
 278 00f6 5A60     		str	r2, [r3, #4]
 120:main.c        ****     pAmpCfg->MaxSeqLen = 512;
 279              		.loc 1 120 0
 280 00f8 824B     		ldr	r3, .L10+52
 281 00fa 1B68     		ldr	r3, [r3]
 282 00fc 8022     		movs	r2, #128
 283 00fe 9200     		lsls	r2, r2, #2
 284 0100 9A60     		str	r2, [r3, #8]
ARM GAS  C:\Users\13740\AppData\Local\Temp\ccN8S1qO.s 			page 10


 121:main.c        ****     pAmpCfg->SeqStartAddrCal = 0;
 285              		.loc 1 121 0
 286 0102 804B     		ldr	r3, .L10+52
 287 0104 1B68     		ldr	r3, [r3]
 288 0106 0022     		movs	r2, #0
 289 0108 DA60     		str	r2, [r3, #12]
 122:main.c        ****     pAmpCfg->MaxSeqLenCal = 512;
 290              		.loc 1 122 0
 291 010a 7E4B     		ldr	r3, .L10+52
 292 010c 1B68     		ldr	r3, [r3]
 293 010e 8022     		movs	r2, #128
 294 0110 9200     		lsls	r2, r2, #2
 295 0112 1A61     		str	r2, [r3, #16]
 123:main.c        ****     
 124:main.c        ****     pAmpCfg->ReDoRtiaCal = bFALSE;
 296              		.loc 1 124 0
 297 0114 7B4B     		ldr	r3, .L10+52
 298 0116 1B68     		ldr	r3, [r3]
 299 0118 0022     		movs	r2, #0
 300 011a 1A75     		strb	r2, [r3, #20]
 125:main.c        ****     pAmpCfg->SysClkFreq = 16000000.0;   // 16MHzÁ≥ªÁªüÊó∂Èíü
 301              		.loc 1 125 0
 302 011c 794B     		ldr	r3, .L10+52
 303 011e 1B68     		ldr	r3, [r3]
 304 0120 7C4A     		ldr	r2, .L10+68
 305 0122 9A61     		str	r2, [r3, #24]
 126:main.c        ****     pAmpCfg->WuptClkFreq = 32000.0;     // 32kHzÂî§ÈÜíÊó∂Èíü
 306              		.loc 1 126 0
 307 0124 774B     		ldr	r3, .L10+52
 308 0126 1B68     		ldr	r3, [r3]
 309 0128 7B4A     		ldr	r2, .L10+72
 310 012a DA61     		str	r2, [r3, #28]
 127:main.c        ****     pAmpCfg->AdcClkFreq = 16000000.0;   // 16MHz ADCÊó∂Èíü
 311              		.loc 1 127 0
 312 012c 754B     		ldr	r3, .L10+52
 313 012e 1B68     		ldr	r3, [r3]
 314 0130 784A     		ldr	r2, .L10+68
 315 0132 1A62     		str	r2, [r3, #32]
 128:main.c        ****     pAmpCfg->FifoThresh = 4;            // FIFOÈòàÂÄº
 316              		.loc 1 128 0
 317 0134 734B     		ldr	r3, .L10+52
 318 0136 1B68     		ldr	r3, [r3]
 319 0138 0422     		movs	r2, #4
 320 013a 5A62     		str	r2, [r3, #36]
 129:main.c        ****     pAmpCfg->AmpODR = 10.0;             // 10HzÈááÊ†∑Áéá
 321              		.loc 1 129 0
 322 013c 714B     		ldr	r3, .L10+52
 323 013e 1B68     		ldr	r3, [r3]
 324 0140 764A     		ldr	r2, .L10+76
 325 0142 9A62     		str	r2, [r3, #40]
 130:main.c        ****     pAmpCfg->NumOfData = -1;            // ËøûÁª≠ÊµãÈáè
 326              		.loc 1 130 0
 327 0144 6F4B     		ldr	r3, .L10+52
 328 0146 1B68     		ldr	r3, [r3]
 329 0148 0122     		movs	r2, #1
 330 014a 5242     		rsbs	r2, r2, #0
 331 014c DA62     		str	r2, [r3, #44]
ARM GAS  C:\Users\13740\AppData\Local\Temp\ccN8S1qO.s 			page 11


 131:main.c        ****     
 132:main.c        ****     // ÁîµÂåñÂ≠¶ÂèÇÊï∞
 133:main.c        ****     pAmpCfg->RcalVal = 10000.0;         // 10kŒ©Ê†°ÂáÜÁîµÈòª
 332              		.loc 1 133 0
 333 014e 6D4B     		ldr	r3, .L10+52
 334 0150 1B68     		ldr	r3, [r3]
 335 0152 734A     		ldr	r2, .L10+80
 336 0154 1A63     		str	r2, [r3, #48]
 134:main.c        ****     pAmpCfg->ADCRefVolt = 1.82;         // ADCÂèÇËÄÉÁîµÂéã1.82V
 337              		.loc 1 134 0
 338 0156 6B4B     		ldr	r3, .L10+52
 339 0158 1B68     		ldr	r3, [r3]
 340 015a 724A     		ldr	r2, .L10+84
 341 015c 5A63     		str	r2, [r3, #52]
 135:main.c        ****     pAmpCfg->PwrMod = AFEPWR_LP;        // ‰ΩéÂäüËÄóÊ®°Âºè
 342              		.loc 1 135 0
 343 015e 694B     		ldr	r3, .L10+52
 344 0160 1B68     		ldr	r3, [r3]
 345 0162 0022     		movs	r2, #0
 346 0164 9A63     		str	r2, [r3, #56]
 136:main.c        ****     
 137:main.c        ****     // ADCÈÖçÁΩÆ
 138:main.c        ****     pAmpCfg->ADCPgaGain = ADCPGA_1P5;   // PGAÂ¢ûÁõä1.5
 347              		.loc 1 138 0
 348 0166 674B     		ldr	r3, .L10+52
 349 0168 1B68     		ldr	r3, [r3]
 350 016a 0122     		movs	r2, #1
 351 016c DA63     		str	r2, [r3, #60]
 139:main.c        ****     pAmpCfg->ADCSinc3Osr = ADCSINC3OSR_4;
 352              		.loc 1 139 0
 353 016e 654B     		ldr	r3, .L10+52
 354 0170 1B68     		ldr	r3, [r3]
 355 0172 4022     		movs	r2, #64
 356 0174 0121     		movs	r1, #1
 357 0176 9954     		strb	r1, [r3, r2]
 140:main.c        ****     pAmpCfg->ADCSinc2Osr = ADCSINC2OSR_178;
 358              		.loc 1 140 0
 359 0178 624B     		ldr	r3, .L10+52
 360 017a 1B68     		ldr	r3, [r3]
 361 017c 4122     		movs	r2, #65
 362 017e 0321     		movs	r1, #3
 363 0180 9954     		strb	r1, [r3, r2]
 141:main.c        ****     pAmpCfg->DataFifoSrc = FIFOSRC_SINC3;
 364              		.loc 1 141 0
 365 0182 604B     		ldr	r3, .L10+52
 366 0184 1B68     		ldr	r3, [r3]
 367 0186 0022     		movs	r2, #0
 368 0188 5A64     		str	r2, [r3, #68]
 142:main.c        ****     
 143:main.c        ****     // LPTIAÈÖçÁΩÆÔºàË∑®ÈòªÊîæÂ§ßÂô®Ôºâ
 144:main.c        ****     pAmpCfg->LptiaRtiaSel = LPTIARTIA_10K;  // 10kŒ©ÂÜÖÈÉ®RTIA
 369              		.loc 1 144 0
 370 018a 5E4B     		ldr	r3, .L10+52
 371 018c 1B68     		ldr	r3, [r3]
 372 018e 0822     		movs	r2, #8
 373 0190 9A64     		str	r2, [r3, #72]
 145:main.c        ****     pAmpCfg->LpTiaRf = LPTIARF_1M;          // 1MŒ©Êª§Ê≥¢ÁîµÈòª
ARM GAS  C:\Users\13740\AppData\Local\Temp\ccN8S1qO.s 			page 12


 374              		.loc 1 145 0
 375 0192 5C4B     		ldr	r3, .L10+52
 376 0194 1B68     		ldr	r3, [r3]
 377 0196 0722     		movs	r2, #7
 378 0198 DA64     		str	r2, [r3, #76]
 146:main.c        ****     pAmpCfg->LpTiaRl = LPTIARLOAD_100R;     // 100Œ©Ë¥üËΩΩÁîµÈòª
 379              		.loc 1 146 0
 380 019a 5A4B     		ldr	r3, .L10+52
 381 019c 1B68     		ldr	r3, [r3]
 382 019e 0422     		movs	r2, #4
 383 01a0 1A65     		str	r2, [r3, #80]
 147:main.c        ****     
 148:main.c        ****     // ÂÅèÁΩÆÁîµÂéã
 149:main.c        ****     pAmpCfg->Vzero = 1100.0;            // SE0ÂÅèÁΩÆÁîµÂéã1.1V
 384              		.loc 1 149 0
 385 01a2 584B     		ldr	r3, .L10+52
 386 01a4 1B68     		ldr	r3, [r3]
 387 01a6 604A     		ldr	r2, .L10+88
 388 01a8 DA65     		str	r2, [r3, #92]
 150:main.c        ****     pAmpCfg->SensorBias = 0.0;          // ‰º†ÊÑüÂô®ÂÅèÁΩÆ0VÔºàÊôÆÈ≤ÅÂ£´Ëìù‰ªã‰ΩìÔºâ
 389              		.loc 1 150 0
 390 01aa 564B     		ldr	r3, .L10+52
 391 01ac 1B68     		ldr	r3, [r3]
 392 01ae 0022     		movs	r2, #0
 393 01b0 1A66     		str	r2, [r3, #96]
 151:main.c        ****     
 152:main.c        ****     // Â§ñÈÉ®RTIAÔºà‰∏ç‰ΩøÁî®Ôºâ
 153:main.c        ****     pAmpCfg->ExtRtia = bFALSE;
 394              		.loc 1 153 0
 395 01b2 544B     		ldr	r3, .L10+52
 396 01b4 1B68     		ldr	r3, [r3]
 397 01b6 6422     		movs	r2, #100
 398 01b8 0021     		movs	r1, #0
 399 01ba 9954     		strb	r1, [r3, r2]
 154:main.c        ****     pAmpCfg->ExtRtiaVal = 0.0;
 400              		.loc 1 154 0
 401 01bc 514B     		ldr	r3, .L10+52
 402 01be 1B68     		ldr	r3, [r3]
 403 01c0 0022     		movs	r2, #0
 404 01c2 9A66     		str	r2, [r3, #104]
 155:main.c        ****     
 156:main.c        ****     pAmpCfg->AMPInited = bFALSE;
 405              		.loc 1 156 0
 406 01c4 4F4B     		ldr	r3, .L10+52
 407 01c6 1B68     		ldr	r3, [r3]
 408 01c8 6C22     		movs	r2, #108
 409 01ca 0021     		movs	r1, #0
 410 01cc 9954     		strb	r1, [r3, r2]
 157:main.c        ****     pAmpCfg->StopRequired = bFALSE;
 411              		.loc 1 157 0
 412 01ce 4D4B     		ldr	r3, .L10+52
 413 01d0 1B68     		ldr	r3, [r3]
 414 01d2 9822     		movs	r2, #152
 415 01d4 0021     		movs	r1, #0
 416 01d6 9954     		strb	r1, [r3, r2]
 158:main.c        ****     pAmpCfg->FifoDataCount = 0;
 417              		.loc 1 158 0
ARM GAS  C:\Users\13740\AppData\Local\Temp\ccN8S1qO.s 			page 13


 418 01d8 4A4B     		ldr	r3, .L10+52
 419 01da 1B68     		ldr	r3, [r3]
 420 01dc 9C22     		movs	r2, #156
 421 01de 0021     		movs	r1, #0
 422 01e0 9950     		str	r1, [r3, r2]
 159:main.c        ****     printf("[INIT] Parameters configured\n");
 423              		.loc 1 159 0
 424 01e2 524B     		ldr	r3, .L10+92
 425 01e4 1800     		movs	r0, r3
 426 01e6 FFF7FEFF 		bl	puts
 160:main.c        ****     printf("[INIT] AMPInited before AppAMPInit: %d\n", (int)pAmpCfg->AMPInited);
 427              		.loc 1 160 0
 428 01ea 464B     		ldr	r3, .L10+52
 429 01ec 1B68     		ldr	r3, [r3]
 430 01ee 6C22     		movs	r2, #108
 431 01f0 9B5C     		ldrb	r3, [r3, r2]
 432 01f2 1A00     		movs	r2, r3
 433 01f4 4E4B     		ldr	r3, .L10+96
 434 01f6 1100     		movs	r1, r2
 435 01f8 1800     		movs	r0, r3
 436 01fa FFF7FEFF 		bl	printf
 161:main.c        ****     
 162:main.c        ****     // Ê≠•È™§5: ÂàùÂßãÂåñÂ∫îÁî®Ôºà‰ΩøÁî®ÁºìÂÜ≤Âå∫Ôºâ
 163:main.c        ****     printf("[INIT] Step 5: Calling AppAMPInit...\n");
 437              		.loc 1 163 0
 438 01fe 4D4B     		ldr	r3, .L10+100
 439 0200 1800     		movs	r0, r3
 440 0202 FFF7FEFF 		bl	puts
 164:main.c        ****     error = AppAMPInit(ampBuffer, 512);
 441              		.loc 1 164 0
 442 0206 8023     		movs	r3, #128
 443 0208 9A00     		lsls	r2, r3, #2
 444 020a 4B4B     		ldr	r3, .L10+104
 445 020c 1100     		movs	r1, r2
 446 020e 1800     		movs	r0, r3
 447 0210 FFF7FEFF 		bl	AppAMPInit
 448 0214 0300     		movs	r3, r0
 449 0216 BB60     		str	r3, [r7, #8]
 165:main.c        ****     printf("[INIT] AppAMPInit returned: %d\n", (int)error);
 450              		.loc 1 165 0
 451 0218 BA68     		ldr	r2, [r7, #8]
 452 021a 484B     		ldr	r3, .L10+108
 453 021c 1100     		movs	r1, r2
 454 021e 1800     		movs	r0, r3
 455 0220 FFF7FEFF 		bl	printf
 166:main.c        ****     printf("[INIT] AMPInited after AppAMPInit: %d\n", (int)pAmpCfg->AMPInited);
 456              		.loc 1 166 0
 457 0224 374B     		ldr	r3, .L10+52
 458 0226 1B68     		ldr	r3, [r3]
 459 0228 6C22     		movs	r2, #108
 460 022a 9B5C     		ldrb	r3, [r3, r2]
 461 022c 1A00     		movs	r2, r3
 462 022e 444B     		ldr	r3, .L10+112
 463 0230 1100     		movs	r1, r2
 464 0232 1800     		movs	r0, r3
 465 0234 FFF7FEFF 		bl	printf
 167:main.c        ****     
ARM GAS  C:\Users\13740\AppData\Local\Temp\ccN8S1qO.s 			page 14


 168:main.c        ****     if(error == AD5940ERR_OK)
 466              		.loc 1 168 0
 467 0238 BB68     		ldr	r3, [r7, #8]
 468 023a 002B     		cmp	r3, #0
 469 023c 04D1     		bne	.L5
 169:main.c        ****     {
 170:main.c        ****         printf("[OK] AD5941 initialization successful\n");
 470              		.loc 1 170 0
 471 023e 414B     		ldr	r3, .L10+116
 472 0240 1800     		movs	r0, r3
 473 0242 FFF7FEFF 		bl	puts
 474 0246 05E0     		b	.L6
 475              	.L5:
 171:main.c        ****     }
 172:main.c        ****     else
 173:main.c        ****     {
 174:main.c        ****         printf("[ERROR] AD5941 initialization failed: error=%d\n", (int)error);
 476              		.loc 1 174 0
 477 0248 BA68     		ldr	r2, [r7, #8]
 478 024a 3F4B     		ldr	r3, .L10+120
 479 024c 1100     		movs	r1, r2
 480 024e 1800     		movs	r0, r3
 481 0250 FFF7FEFF 		bl	printf
 482              	.L6:
 175:main.c        ****     }
 176:main.c        ****     
 177:main.c        ****     // Âø´ÈÄüIDÂØÑÂ≠òÂô®Ê£ÄÊü•ÔºàÂú®ÂàùÂßãÂåñÂêéÔºâ
 178:main.c        ****     printf("\n[ID CHECK] Reading AD5941 ID registers...\n");
 483              		.loc 1 178 0
 484 0254 3D4B     		ldr	r3, .L10+124
 485 0256 1800     		movs	r0, r3
 486 0258 FFF7FEFF 		bl	puts
 179:main.c        ****     uint32 id_adiid = AD5940_ReadReg(REG_AFECON_ADIID);
 487              		.loc 1 179 0
 488 025c 8023     		movs	r3, #128
 489 025e DB00     		lsls	r3, r3, #3
 490 0260 1800     		movs	r0, r3
 491 0262 FFF7FEFF 		bl	AD5940_ReadReg
 492 0266 0300     		movs	r3, r0
 493 0268 7B60     		str	r3, [r7, #4]
 180:main.c        ****     uint32 id_chipid = AD5940_ReadReg(REG_AFECON_CHIPID);
 494              		.loc 1 180 0
 495 026a 1F4B     		ldr	r3, .L10+24
 496 026c 1800     		movs	r0, r3
 497 026e FFF7FEFF 		bl	AD5940_ReadReg
 498 0272 0300     		movs	r3, r0
 499 0274 3B60     		str	r3, [r7]
 181:main.c        ****     printf("ADIID: 0x%lX\n", (unsigned long)id_adiid);
 500              		.loc 1 181 0
 501 0276 7A68     		ldr	r2, [r7, #4]
 502 0278 354B     		ldr	r3, .L10+128
 503 027a 1100     		movs	r1, r2
 504 027c 1800     		movs	r0, r3
 505 027e FFF7FEFF 		bl	printf
 182:main.c        ****     printf("CHIPID: 0x%lX\n", (unsigned long)id_chipid);
 506              		.loc 1 182 0
 507 0282 3A68     		ldr	r2, [r7]
ARM GAS  C:\Users\13740\AppData\Local\Temp\ccN8S1qO.s 			page 15


 508 0284 334B     		ldr	r3, .L10+132
 509 0286 1100     		movs	r1, r2
 510 0288 1800     		movs	r0, r3
 511 028a FFF7FEFF 		bl	printf
 183:main.c        ****     if(id_adiid == 0x4144 && id_chipid == 0x5501)
 512              		.loc 1 183 0
 513 028e 7B68     		ldr	r3, [r7, #4]
 514 0290 314A     		ldr	r2, .L10+136
 515 0292 9342     		cmp	r3, r2
 516 0294 08D1     		bne	.L7
 517              		.loc 1 183 0 is_stmt 0 discriminator 1
 518 0296 3B68     		ldr	r3, [r7]
 519 0298 164A     		ldr	r2, .L10+36
 520 029a 9342     		cmp	r3, r2
 521 029c 04D1     		bne	.L7
 184:main.c        ****     {
 185:main.c        ****         printf("[OK] ID registers correct!\n");
 522              		.loc 1 185 0 is_stmt 1
 523 029e 2F4B     		ldr	r3, .L10+140
 524 02a0 1800     		movs	r0, r3
 525 02a2 FFF7FEFF 		bl	puts
 526 02a6 10E0     		b	.L1
 527              	.L7:
 186:main.c        ****     }
 187:main.c        ****     else if(id_adiid == 0x808080 || id_chipid == 0x808080)
 528              		.loc 1 187 0
 529 02a8 7B68     		ldr	r3, [r7, #4]
 530 02aa 2D4A     		ldr	r2, .L10+144
 531 02ac 9342     		cmp	r3, r2
 532 02ae 03D0     		beq	.L8
 533              		.loc 1 187 0 is_stmt 0 discriminator 1
 534 02b0 3B68     		ldr	r3, [r7]
 535 02b2 2B4A     		ldr	r2, .L10+144
 536 02b4 9342     		cmp	r3, r2
 537 02b6 04D1     		bne	.L9
 538              	.L8:
 188:main.c        ****     {
 189:main.c        ****         printf("[ERROR] Still getting 0x808080 - MISO issue persists!\n");
 539              		.loc 1 189 0 is_stmt 1
 540 02b8 2A4B     		ldr	r3, .L10+148
 541 02ba 1800     		movs	r0, r3
 542 02bc FFF7FEFF 		bl	puts
 543 02c0 03E0     		b	.L1
 544              	.L9:
 190:main.c        ****     }
 191:main.c        ****     else
 192:main.c        ****     {
 193:main.c        ****         printf("[WARNING] Unexpected ID values\n");
 545              		.loc 1 193 0
 546 02c2 294B     		ldr	r3, .L10+152
 547 02c4 1800     		movs	r0, r3
 548 02c6 FFF7FEFF 		bl	puts
 549              	.L1:
 194:main.c        ****     }
 195:main.c        **** }
 550              		.loc 1 195 0
 551 02ca BD46     		mov	sp, r7
ARM GAS  C:\Users\13740\AppData\Local\Temp\ccN8S1qO.s 			page 16


 552 02cc 04B0     		add	sp, sp, #16
 553              		@ sp needed
 554 02ce 80BD     		pop	{r7, pc}
 555              	.L11:
 556              		.align	2
 557              	.L10:
 558 02d0 00000000 		.word	.LC0
 559 02d4 24000000 		.word	.LC2
 560 02d8 3C000000 		.word	.LC4
 561 02dc 70000000 		.word	.LC6
 562 02e0 94000000 		.word	.LC8
 563 02e4 D8000000 		.word	.LC10
 564 02e8 04040000 		.word	1028
 565 02ec FC000000 		.word	.LC12
 566 02f0 02550000 		.word	21762
 567 02f4 01550000 		.word	21761
 568 02f8 24010000 		.word	.LC14
 569 02fc 50010000 		.word	.LC16
 570 0300 74010000 		.word	.LC18
 571 0304 00000000 		.word	pAmpCfg
 572 0308 A0010000 		.word	.LC21
 573 030c BC010000 		.word	.LC23
 574 0310 E0010000 		.word	.LC25
 575 0314 0024744B 		.word	1265902592
 576 0318 0000FA46 		.word	1190789120
 577 031c 00002041 		.word	1092616192
 578 0320 00401C46 		.word	1176256512
 579 0324 C3F5E83F 		.word	1072231875
 580 0328 00808944 		.word	1149861888
 581 032c 18020000 		.word	.LC27
 582 0330 38020000 		.word	.LC29
 583 0334 60020000 		.word	.LC31
 584 0338 00000000 		.word	ampBuffer
 585 033c 88020000 		.word	.LC34
 586 0340 A8020000 		.word	.LC36
 587 0344 D0020000 		.word	.LC38
 588 0348 F8020000 		.word	.LC40
 589 034c 28030000 		.word	.LC42
 590 0350 54030000 		.word	.LC44
 591 0354 64030000 		.word	.LC46
 592 0358 44410000 		.word	16708
 593 035c 74030000 		.word	.LC48
 594 0360 80808000 		.word	8421504
 595 0364 90030000 		.word	.LC50
 596 0368 C8030000 		.word	.LC52
 597              		.cfi_endproc
 598              	.LFE36:
 599              		.size	AD5941_Initialize, .-AD5941_Initialize
 600              		.section	.rodata
 601 03e7 00       		.align	2
 602              	.LC54:
 603 03e8 0A3D3D3D 		.ascii	"\012=== SPI COMMUNICATION TEST (ENHANCED) ===\000"
 603      20535049 
 603      20434F4D 
 603      4D554E49 
 603      43415449 
 604 0413 00       		.align	2
ARM GAS  C:\Users\13740\AppData\Local\Temp\ccN8S1qO.s 			page 17


 605              	.LC56:
 606 0414 5B544553 		.ascii	"[TEST] Attempting 3 consecutive reads of REG_AFE_AF"
 606      545D2041 
 606      7474656D 
 606      7074696E 
 606      67203320 
 607 0447 45434F4E 		.ascii	"ECON...\000"
 607      2E2E2E00 
 608 044f 00       		.align	2
 609              	.LC58:
 610 0450 5B415454 		.ascii	"[ATTEMPT %d] Register Value: 0x%lX\012\000"
 610      454D5054 
 610      2025645D 
 610      20526567 
 610      69737465 
 611              		.align	2
 612              	.LC60:
 613 0474 0A5B5445 		.ascii	"\012[TEST] Reading different AD5940 registers...\000"
 613      53545D20 
 613      52656164 
 613      696E6720 
 613      64696666 
 614 04a2 0000     		.align	2
 615              	.LC62:
 616 04a4 20205245 		.ascii	"  REG_AFE_AFECON:  0x%lX\012\000"
 616      475F4146 
 616      455F4146 
 616      45434F4E 
 616      3A202030 
 617 04be 0000     		.align	2
 618              	.LC64:
 619 04c0 20205245 		.ascii	"  REG_AFE_ADCCON:  0x%lX\012\000"
 619      475F4146 
 619      455F4144 
 619      43434F4E 
 619      3A202030 
 620 04da 0000     		.align	2
 621              	.LC66:
 622 04dc 20205245 		.ascii	"  REG_AFE_FIFOCON: 0x%lX\012\000"
 622      475F4146 
 622      455F4649 
 622      464F434F 
 622      4E3A2030 
 623 04f6 0000     		.align	2
 624              	.LC68:
 625 04f8 20205245 		.ascii	"  REG_AFE_ADCDAT:  0x%lX\012\000"
 625      475F4146 
 625      455F4144 
 625      43444154 
 625      3A202030 
 626 0512 0000     		.align	2
 627              	.LC70:
 628 0514 0A5B414E 		.ascii	"\012[ANALYSIS]\000"
 628      414C5953 
 628      49535D00 
 629              		.align	2
 630              	.LC72:
ARM GAS  C:\Users\13740\AppData\Local\Temp\ccN8S1qO.s 			page 18


 631 0520 5B435249 		.ascii	"[CRITICAL] Consistent 0x80 pattern detected!\000"
 631      54494341 
 631      4C5D2043 
 631      6F6E7369 
 631      7374656E 
 632 054d 000000   		.align	2
 633              	.LC74:
 634 0550 20202054 		.ascii	"   This is NOT random garbage - it's a systematic i"
 634      68697320 
 634      6973204E 
 634      4F542072 
 634      616E646F 
 635 0583 73737565 		.ascii	"ssue:\000"
 635      3A00
 636 0589 000000   		.align	2
 637              	.LC76:
 638 058c 20202050 		.ascii	"   Possible Causes:\000"
 638      6F737369 
 638      626C6520 
 638      43617573 
 638      65733A00 
 639              		.align	2
 640              	.LC78:
 641 05a0 20202031 		.ascii	"   1. **MISO line floating** - Not connected or ope"
 641      2E202A2A 
 641      4D49534F 
 641      206C696E 
 641      6520666C 
 642 05d3 6E206369 		.ascii	"n circuit\000"
 642      72637569 
 642      7400
 643 05dd 000000   		.align	2
 644              	.LC80:
 645 05e0 20202032 		.ascii	"   2. **CS timing** - Signal not toggling correctly"
 645      2E202A2A 
 645      43532074 
 645      696D696E 
 645      672A2A20 
 646 0613 00       		.ascii	"\000"
 647              		.align	2
 648              	.LC82:
 649 0614 20202033 		.ascii	"   3. **DUMMY READ issue** - SPI read sequence prob"
 649      2E202A2A 
 649      44554D4D 
 649      59205245 
 649      41442069 
 650 0647 6C656D00 		.ascii	"lem\000"
 651 064b 00       		.align	2
 652              	.LC84:
 653 064c 20202034 		.ascii	"   4. **AD5940 not responding** - Check power, rese"
 653      2E202A2A 
 653      41443539 
 653      3430206E 
 653      6F742072 
 654 067f 742C2061 		.ascii	"t, and connections\000"
 654      6E642063 
 654      6F6E6E65 
ARM GAS  C:\Users\13740\AppData\Local\Temp\ccN8S1qO.s 			page 19


 654      6374696F 
 654      6E7300
 655 0692 0000     		.align	2
 656              	.LC86:
 657 0694 0A202020 		.ascii	"\012   ACTION REQUIRED:\000"
 657      41435449 
 657      4F4E2052 
 657      45515549 
 657      5245443A 
 658 06a9 000000   		.align	2
 659              	.LC88:
 660 06ac 20202031 		.ascii	"   1. Check physical connection: PSoC P0.5 <-> AD59"
 660      2E204368 
 660      65636B20 
 660      70687973 
 660      6963616C 
 661 06df 34302044 		.ascii	"40 DOUT\000"
 661      4F555400 
 662 06e7 00       		.align	2
 663              	.LC90:
 664 06e8 20202032 		.ascii	"   2. Measure voltage on DOUT pin (should toggle wi"
 664      2E204D65 
 664      61737572 
 664      6520766F 
 664      6C746167 
 665 071b 74682053 		.ascii	"th SCLK)\000"
 665      434C4B29 
 665      00
 666              		.align	2
 667              	.LC92:
 668 0724 20202033 		.ascii	"   3. Verify AD5940 VDD = 3.3V and GND is connected"
 668      2E205665 
 668      72696679 
 668      20414435 
 668      39343020 
 669 0757 00       		.ascii	"\000"
 670              		.align	2
 671              	.LC94:
 672 0758 20202034 		.ascii	"   4. Try reducing SPI speed further (now at 100 kb"
 672      2E205472 
 672      79207265 
 672      64756369 
 672      6E672053 
 673 078b 70732900 		.ascii	"ps)\000"
 674 078f 00       		.align	2
 675              	.LC96:
 676 0790 5B474F4F 		.ascii	"[GOOD SIGN] Different values in different registers"
 676      44205349 
 676      474E5D20 
 676      44696666 
 676      6572656E 
 677 07c3 2100     		.ascii	"!\000"
 678 07c5 000000   		.align	2
 679              	.LC98:
 680 07c8 20202054 		.ascii	"   This suggests SPI communication is partially wor"
 680      68697320 
 680      73756767 
ARM GAS  C:\Users\13740\AppData\Local\Temp\ccN8S1qO.s 			page 20


 680      65737473 
 680      20535049 
 681 07fb 6B696E67 		.ascii	"king\000"
 681      00
 682              		.align	2
 683              	.LC100:
 684 0800 5B4F4B5D 		.ascii	"[OK] Register values appear reasonable\000"
 684      20526567 
 684      69737465 
 684      72207661 
 684      6C756573 
 685 0827 00       		.align	2
 686              	.LC102:
 687 0828 0A5B5350 		.ascii	"\012[SPI CONFIGURATION]\000"
 687      4920434F 
 687      4E464947 
 687      55524154 
 687      494F4E5D 
 688 083d 000000   		.align	2
 689              	.LC104:
 690 0840 2020202D 		.ascii	"   - SPI Speed: 100 kbps (reduced from 1 Mbps)\000"
 690      20535049 
 690      20537065 
 690      65643A20 
 690      31303020 
 691 086f 00       		.align	2
 692              	.LC106:
 693 0870 2020202D 		.ascii	"   - Mode: Motorola (CPHA=0, CPOL=0)\000"
 693      204D6F64 
 693      653A204D 
 693      6F746F72 
 693      6F6C6120 
 694 0895 000000   		.align	2
 695              	.LC108:
 696 0898 2020202D 		.ascii	"   - Data Width: 8-bit\000"
 696      20446174 
 696      61205769 
 696      6474683A 
 696      20382D62 
 697 08af 00       		.align	2
 698              	.LC110:
 699 08b0 3D3D3D20 		.ascii	"=== SPI TEST END ===\012\000"
 699      53504920 
 699      54455354 
 699      20454E44 
 699      203D3D3D 
 700              		.section	.text.DiagnosticsSPI,"ax",%progbits
 701              		.align	2
 702              		.global	DiagnosticsSPI
 703              		.code	16
 704              		.thumb_func
 705              		.type	DiagnosticsSPI, %function
 706              	DiagnosticsSPI:
 707              	.LFB37:
 196:main.c        **** 
 197:main.c        **** /*******************************************************************************
 198:main.c        **** * Function Name: DiagnosticsSPI
ARM GAS  C:\Users\13740\AppData\Local\Temp\ccN8S1qO.s 			page 21


 199:main.c        **** ********************************************************************************
 200:main.c        **** * Summary:
 201:main.c        **** *   ËØäÊñ≠ SPI ÈÄöËÆØ - Â¢ûÂº∫ÁâàÊú¨ÔºåÂ§öÂØÑÂ≠òÂô®ÊµãËØï
 202:main.c        **** *******************************************************************************/
 203:main.c        **** void DiagnosticsSPI(void)
 204:main.c        **** {
 708              		.loc 1 204 0
 709              		.cfi_startproc
 710              		@ args = 0, pretend = 0, frame = 24
 711              		@ frame_needed = 1, uses_anonymous_args = 0
 712 0000 80B5     		push	{r7, lr}
 713              		.cfi_def_cfa_offset 8
 714              		.cfi_offset 7, -8
 715              		.cfi_offset 14, -4
 716 0002 86B0     		sub	sp, sp, #24
 717              		.cfi_def_cfa_offset 32
 718 0004 00AF     		add	r7, sp, #0
 719              		.cfi_def_cfa_register 7
 205:main.c        ****     printf("\n=== SPI COMMUNICATION TEST (ENHANCED) ===\n");
 720              		.loc 1 205 0
 721 0006 704B     		ldr	r3, .L22
 722 0008 1800     		movs	r0, r3
 723 000a FFF7FEFF 		bl	puts
 206:main.c        ****     
 207:main.c        ****     uint32 regValue = 0;
 724              		.loc 1 207 0
 725 000e 0023     		movs	r3, #0
 726 0010 3B61     		str	r3, [r7, #16]
 208:main.c        ****     uint32 regValue2 = 0;
 727              		.loc 1 208 0
 728 0012 0023     		movs	r3, #0
 729 0014 FB60     		str	r3, [r7, #12]
 209:main.c        ****     uint32 regValue3 = 0;
 730              		.loc 1 209 0
 731 0016 0023     		movs	r3, #0
 732 0018 BB60     		str	r3, [r7, #8]
 210:main.c        ****     uint32 regValue4 = 0;
 733              		.loc 1 210 0
 734 001a 0023     		movs	r3, #0
 735 001c 7B60     		str	r3, [r7, #4]
 211:main.c        ****     int testCount = 0;
 736              		.loc 1 211 0
 737 001e 0023     		movs	r3, #0
 738 0020 7B61     		str	r3, [r7, #20]
 212:main.c        ****     
 213:main.c        ****     // Â∞ùËØïÂ§öÊ¨°ËØªÂèñÔºåÁúãÊòØÂê¶Êúâ‰ªª‰ΩïÂèòÂåñ
 214:main.c        ****     printf("[TEST] Attempting 3 consecutive reads of REG_AFE_AFECON...\n");
 739              		.loc 1 214 0
 740 0022 6A4B     		ldr	r3, .L22+4
 741 0024 1800     		movs	r0, r3
 742 0026 FFF7FEFF 		bl	puts
 215:main.c        ****     for(testCount = 0; testCount < 3; testCount++)
 743              		.loc 1 215 0
 744 002a 0023     		movs	r3, #0
 745 002c 7B61     		str	r3, [r7, #20]
 746 002e 13E0     		b	.L13
 747              	.L14:
ARM GAS  C:\Users\13740\AppData\Local\Temp\ccN8S1qO.s 			page 22


 216:main.c        ****     {
 217:main.c        ****         regValue = AD5940_ReadReg(REG_AFE_AFECON);
 748              		.loc 1 217 0 discriminator 3
 749 0030 8023     		movs	r3, #128
 750 0032 9B01     		lsls	r3, r3, #6
 751 0034 1800     		movs	r0, r3
 752 0036 FFF7FEFF 		bl	AD5940_ReadReg
 753 003a 0300     		movs	r3, r0
 754 003c 3B61     		str	r3, [r7, #16]
 218:main.c        ****         printf("[ATTEMPT %d] Register Value: 0x%lX\n", testCount + 1, (unsigned long)regValue);
 755              		.loc 1 218 0 discriminator 3
 756 003e 7B69     		ldr	r3, [r7, #20]
 757 0040 591C     		adds	r1, r3, #1
 758 0042 3A69     		ldr	r2, [r7, #16]
 759 0044 624B     		ldr	r3, .L22+8
 760 0046 1800     		movs	r0, r3
 761 0048 FFF7FEFF 		bl	printf
 219:main.c        ****         CyDelay(50);
 762              		.loc 1 219 0 discriminator 3
 763 004c 3220     		movs	r0, #50
 764 004e FFF7FEFF 		bl	CyDelay
 215:main.c        ****     {
 765              		.loc 1 215 0 discriminator 3
 766 0052 7B69     		ldr	r3, [r7, #20]
 767 0054 0133     		adds	r3, r3, #1
 768 0056 7B61     		str	r3, [r7, #20]
 769              	.L13:
 215:main.c        ****     {
 770              		.loc 1 215 0 is_stmt 0 discriminator 1
 771 0058 7B69     		ldr	r3, [r7, #20]
 772 005a 022B     		cmp	r3, #2
 773 005c E8DD     		ble	.L14
 220:main.c        ****     }
 221:main.c        ****     
 222:main.c        ****     // Â∞ùËØïËØªÂèñ‰∏çÂêåÁöÑÂØÑÂ≠òÂô®
 223:main.c        ****     printf("\n[TEST] Reading different AD5940 registers...\n");
 774              		.loc 1 223 0 is_stmt 1
 775 005e 5D4B     		ldr	r3, .L22+12
 776 0060 1800     		movs	r0, r3
 777 0062 FFF7FEFF 		bl	puts
 224:main.c        ****     regValue = AD5940_ReadReg(REG_AFE_AFECON);
 778              		.loc 1 224 0
 779 0066 8023     		movs	r3, #128
 780 0068 9B01     		lsls	r3, r3, #6
 781 006a 1800     		movs	r0, r3
 782 006c FFF7FEFF 		bl	AD5940_ReadReg
 783 0070 0300     		movs	r3, r0
 784 0072 3B61     		str	r3, [r7, #16]
 225:main.c        ****     printf("  REG_AFE_AFECON:  0x%lX\n", (unsigned long)regValue);
 785              		.loc 1 225 0
 786 0074 3A69     		ldr	r2, [r7, #16]
 787 0076 584B     		ldr	r3, .L22+16
 788 0078 1100     		movs	r1, r2
 789 007a 1800     		movs	r0, r3
 790 007c FFF7FEFF 		bl	printf
 226:main.c        ****     CyDelay(20);
 791              		.loc 1 226 0
ARM GAS  C:\Users\13740\AppData\Local\Temp\ccN8S1qO.s 			page 23


 792 0080 1420     		movs	r0, #20
 793 0082 FFF7FEFF 		bl	CyDelay
 227:main.c        ****     
 228:main.c        ****     regValue2 = AD5940_ReadReg(REG_AFE_ADCCON);
 794              		.loc 1 228 0
 795 0086 554B     		ldr	r3, .L22+20
 796 0088 1800     		movs	r0, r3
 797 008a FFF7FEFF 		bl	AD5940_ReadReg
 798 008e 0300     		movs	r3, r0
 799 0090 FB60     		str	r3, [r7, #12]
 229:main.c        ****     printf("  REG_AFE_ADCCON:  0x%lX\n", (unsigned long)regValue2);
 800              		.loc 1 229 0
 801 0092 FA68     		ldr	r2, [r7, #12]
 802 0094 524B     		ldr	r3, .L22+24
 803 0096 1100     		movs	r1, r2
 804 0098 1800     		movs	r0, r3
 805 009a FFF7FEFF 		bl	printf
 230:main.c        ****     CyDelay(20);
 806              		.loc 1 230 0
 807 009e 1420     		movs	r0, #20
 808 00a0 FFF7FEFF 		bl	CyDelay
 231:main.c        ****     
 232:main.c        ****     regValue3 = AD5940_ReadReg(REG_AFE_FIFOCON);
 809              		.loc 1 232 0
 810 00a4 4F4B     		ldr	r3, .L22+28
 811 00a6 1800     		movs	r0, r3
 812 00a8 FFF7FEFF 		bl	AD5940_ReadReg
 813 00ac 0300     		movs	r3, r0
 814 00ae BB60     		str	r3, [r7, #8]
 233:main.c        ****     printf("  REG_AFE_FIFOCON: 0x%lX\n", (unsigned long)regValue3);
 815              		.loc 1 233 0
 816 00b0 BA68     		ldr	r2, [r7, #8]
 817 00b2 4D4B     		ldr	r3, .L22+32
 818 00b4 1100     		movs	r1, r2
 819 00b6 1800     		movs	r0, r3
 820 00b8 FFF7FEFF 		bl	printf
 234:main.c        ****     CyDelay(20);
 821              		.loc 1 234 0
 822 00bc 1420     		movs	r0, #20
 823 00be FFF7FEFF 		bl	CyDelay
 235:main.c        ****     
 236:main.c        ****     regValue4 = AD5940_ReadReg(REG_AFE_ADCDAT);
 824              		.loc 1 236 0
 825 00c2 4A4B     		ldr	r3, .L22+36
 826 00c4 1800     		movs	r0, r3
 827 00c6 FFF7FEFF 		bl	AD5940_ReadReg
 828 00ca 0300     		movs	r3, r0
 829 00cc 7B60     		str	r3, [r7, #4]
 237:main.c        ****     printf("  REG_AFE_ADCDAT:  0x%lX\n", (unsigned long)regValue4);
 830              		.loc 1 237 0
 831 00ce 7A68     		ldr	r2, [r7, #4]
 832 00d0 474B     		ldr	r3, .L22+40
 833 00d2 1100     		movs	r1, r2
 834 00d4 1800     		movs	r0, r3
 835 00d6 FFF7FEFF 		bl	printf
 238:main.c        ****     
 239:main.c        ****     // ÂàÜÊûêËØªÂèñÁªìÊûú
ARM GAS  C:\Users\13740\AppData\Local\Temp\ccN8S1qO.s 			page 24


 240:main.c        ****     printf("\n[ANALYSIS]\n");
 836              		.loc 1 240 0
 837 00da 464B     		ldr	r3, .L22+44
 838 00dc 1800     		movs	r0, r3
 839 00de FFF7FEFF 		bl	puts
 241:main.c        ****     
 242:main.c        ****     if((regValue == 0x808080 || regValue == 0x80) && 
 840              		.loc 1 242 0
 841 00e2 3B69     		ldr	r3, [r7, #16]
 842 00e4 444A     		ldr	r2, .L22+48
 843 00e6 9342     		cmp	r3, r2
 844 00e8 02D0     		beq	.L15
 845              		.loc 1 242 0 is_stmt 0 discriminator 2
 846 00ea 3B69     		ldr	r3, [r7, #16]
 847 00ec 802B     		cmp	r3, #128
 848 00ee 3ED1     		bne	.L16
 849              	.L15:
 850              		.loc 1 242 0 discriminator 3
 851 00f0 FB68     		ldr	r3, [r7, #12]
 852 00f2 414A     		ldr	r2, .L22+48
 853 00f4 9342     		cmp	r3, r2
 854 00f6 02D0     		beq	.L17
 243:main.c        ****        (regValue2 == 0x808080 || regValue2 == 0x80) &&
 855              		.loc 1 243 0 is_stmt 1
 856 00f8 FB68     		ldr	r3, [r7, #12]
 857 00fa 802B     		cmp	r3, #128
 858 00fc 37D1     		bne	.L16
 859              	.L17:
 860              		.loc 1 243 0 is_stmt 0 discriminator 1
 861 00fe BB68     		ldr	r3, [r7, #8]
 862 0100 3D4A     		ldr	r2, .L22+48
 863 0102 9342     		cmp	r3, r2
 864 0104 02D0     		beq	.L18
 244:main.c        ****        (regValue3 == 0x808080 || regValue3 == 0x80))
 865              		.loc 1 244 0 is_stmt 1
 866 0106 BB68     		ldr	r3, [r7, #8]
 867 0108 802B     		cmp	r3, #128
 868 010a 30D1     		bne	.L16
 869              	.L18:
 245:main.c        ****     {
 246:main.c        ****         printf("[CRITICAL] Consistent 0x80 pattern detected!\n");
 870              		.loc 1 246 0
 871 010c 3B4B     		ldr	r3, .L22+52
 872 010e 1800     		movs	r0, r3
 873 0110 FFF7FEFF 		bl	puts
 247:main.c        ****         printf("   This is NOT random garbage - it's a systematic issue:\n");
 874              		.loc 1 247 0
 875 0114 3A4B     		ldr	r3, .L22+56
 876 0116 1800     		movs	r0, r3
 877 0118 FFF7FEFF 		bl	puts
 248:main.c        ****         printf("   Possible Causes:\n");
 878              		.loc 1 248 0
 879 011c 394B     		ldr	r3, .L22+60
 880 011e 1800     		movs	r0, r3
 881 0120 FFF7FEFF 		bl	puts
 249:main.c        ****         printf("   1. **MISO line floating** - Not connected or open circuit\n");
 882              		.loc 1 249 0
ARM GAS  C:\Users\13740\AppData\Local\Temp\ccN8S1qO.s 			page 25


 883 0124 384B     		ldr	r3, .L22+64
 884 0126 1800     		movs	r0, r3
 885 0128 FFF7FEFF 		bl	puts
 250:main.c        ****         printf("   2. **CS timing** - Signal not toggling correctly\n");
 886              		.loc 1 250 0
 887 012c 374B     		ldr	r3, .L22+68
 888 012e 1800     		movs	r0, r3
 889 0130 FFF7FEFF 		bl	puts
 251:main.c        ****         printf("   3. **DUMMY READ issue** - SPI read sequence problem\n");
 890              		.loc 1 251 0
 891 0134 364B     		ldr	r3, .L22+72
 892 0136 1800     		movs	r0, r3
 893 0138 FFF7FEFF 		bl	puts
 252:main.c        ****         printf("   4. **AD5940 not responding** - Check power, reset, and connections\n");
 894              		.loc 1 252 0
 895 013c 354B     		ldr	r3, .L22+76
 896 013e 1800     		movs	r0, r3
 897 0140 FFF7FEFF 		bl	puts
 253:main.c        ****         printf("\n   ACTION REQUIRED:\n");
 898              		.loc 1 253 0
 899 0144 344B     		ldr	r3, .L22+80
 900 0146 1800     		movs	r0, r3
 901 0148 FFF7FEFF 		bl	puts
 254:main.c        ****         printf("   1. Check physical connection: PSoC P0.5 <-> AD5940 DOUT\n");
 902              		.loc 1 254 0
 903 014c 334B     		ldr	r3, .L22+84
 904 014e 1800     		movs	r0, r3
 905 0150 FFF7FEFF 		bl	puts
 255:main.c        ****         printf("   2. Measure voltage on DOUT pin (should toggle with SCLK)\n");
 906              		.loc 1 255 0
 907 0154 324B     		ldr	r3, .L22+88
 908 0156 1800     		movs	r0, r3
 909 0158 FFF7FEFF 		bl	puts
 256:main.c        ****         printf("   3. Verify AD5940 VDD = 3.3V and GND is connected\n");
 910              		.loc 1 256 0
 911 015c 314B     		ldr	r3, .L22+92
 912 015e 1800     		movs	r0, r3
 913 0160 FFF7FEFF 		bl	puts
 257:main.c        ****         printf("   4. Try reducing SPI speed further (now at 100 kbps)\n");
 914              		.loc 1 257 0
 915 0164 304B     		ldr	r3, .L22+96
 916 0166 1800     		movs	r0, r3
 917 0168 FFF7FEFF 		bl	puts
 918 016c 14E0     		b	.L19
 919              	.L16:
 258:main.c        ****     }
 259:main.c        ****     else if(regValue != regValue2 || regValue != regValue3)
 920              		.loc 1 259 0
 921 016e 3A69     		ldr	r2, [r7, #16]
 922 0170 FB68     		ldr	r3, [r7, #12]
 923 0172 9A42     		cmp	r2, r3
 924 0174 03D1     		bne	.L20
 925              		.loc 1 259 0 is_stmt 0 discriminator 1
 926 0176 3A69     		ldr	r2, [r7, #16]
 927 0178 BB68     		ldr	r3, [r7, #8]
 928 017a 9A42     		cmp	r2, r3
 929 017c 08D0     		beq	.L21
ARM GAS  C:\Users\13740\AppData\Local\Temp\ccN8S1qO.s 			page 26


 930              	.L20:
 260:main.c        ****     {
 261:main.c        ****         printf("[GOOD SIGN] Different values in different registers!\n");
 931              		.loc 1 261 0 is_stmt 1
 932 017e 2B4B     		ldr	r3, .L22+100
 933 0180 1800     		movs	r0, r3
 934 0182 FFF7FEFF 		bl	puts
 262:main.c        ****         printf("   This suggests SPI communication is partially working\n");
 935              		.loc 1 262 0
 936 0186 2A4B     		ldr	r3, .L22+104
 937 0188 1800     		movs	r0, r3
 938 018a FFF7FEFF 		bl	puts
 939 018e 03E0     		b	.L19
 940              	.L21:
 263:main.c        ****     }
 264:main.c        ****     else
 265:main.c        ****     {
 266:main.c        ****         printf("[OK] Register values appear reasonable\n");
 941              		.loc 1 266 0
 942 0190 284B     		ldr	r3, .L22+108
 943 0192 1800     		movs	r0, r3
 944 0194 FFF7FEFF 		bl	puts
 945              	.L19:
 267:main.c        ****     }
 268:main.c        ****     
 269:main.c        ****     printf("\n[SPI CONFIGURATION]\n");
 946              		.loc 1 269 0
 947 0198 274B     		ldr	r3, .L22+112
 948 019a 1800     		movs	r0, r3
 949 019c FFF7FEFF 		bl	puts
 270:main.c        ****     printf("   - SPI Speed: 100 kbps (reduced from 1 Mbps)\n");
 950              		.loc 1 270 0
 951 01a0 264B     		ldr	r3, .L22+116
 952 01a2 1800     		movs	r0, r3
 953 01a4 FFF7FEFF 		bl	puts
 271:main.c        ****     printf("   - Mode: Motorola (CPHA=0, CPOL=0)\n");
 954              		.loc 1 271 0
 955 01a8 254B     		ldr	r3, .L22+120
 956 01aa 1800     		movs	r0, r3
 957 01ac FFF7FEFF 		bl	puts
 272:main.c        ****     printf("   - Data Width: 8-bit\n");
 958              		.loc 1 272 0
 959 01b0 244B     		ldr	r3, .L22+124
 960 01b2 1800     		movs	r0, r3
 961 01b4 FFF7FEFF 		bl	puts
 273:main.c        ****     
 274:main.c        ****     printf("=== SPI TEST END ===\n\n");
 962              		.loc 1 274 0
 963 01b8 234B     		ldr	r3, .L22+128
 964 01ba 1800     		movs	r0, r3
 965 01bc FFF7FEFF 		bl	puts
 275:main.c        **** }
 966              		.loc 1 275 0
 967 01c0 C046     		nop
 968 01c2 BD46     		mov	sp, r7
 969 01c4 06B0     		add	sp, sp, #24
 970              		@ sp needed
ARM GAS  C:\Users\13740\AppData\Local\Temp\ccN8S1qO.s 			page 27


 971 01c6 80BD     		pop	{r7, pc}
 972              	.L23:
 973              		.align	2
 974              	.L22:
 975 01c8 E8030000 		.word	.LC54
 976 01cc 14040000 		.word	.LC56
 977 01d0 50040000 		.word	.LC58
 978 01d4 74040000 		.word	.LC60
 979 01d8 A4040000 		.word	.LC62
 980 01dc A8210000 		.word	8616
 981 01e0 C0040000 		.word	.LC64
 982 01e4 08200000 		.word	8200
 983 01e8 DC040000 		.word	.LC66
 984 01ec 74200000 		.word	8308
 985 01f0 F8040000 		.word	.LC68
 986 01f4 14050000 		.word	.LC70
 987 01f8 80808000 		.word	8421504
 988 01fc 20050000 		.word	.LC72
 989 0200 50050000 		.word	.LC74
 990 0204 8C050000 		.word	.LC76
 991 0208 A0050000 		.word	.LC78
 992 020c E0050000 		.word	.LC80
 993 0210 14060000 		.word	.LC82
 994 0214 4C060000 		.word	.LC84
 995 0218 94060000 		.word	.LC86
 996 021c AC060000 		.word	.LC88
 997 0220 E8060000 		.word	.LC90
 998 0224 24070000 		.word	.LC92
 999 0228 58070000 		.word	.LC94
 1000 022c 90070000 		.word	.LC96
 1001 0230 C8070000 		.word	.LC98
 1002 0234 00080000 		.word	.LC100
 1003 0238 28080000 		.word	.LC102
 1004 023c 40080000 		.word	.LC104
 1005 0240 70080000 		.word	.LC106
 1006 0244 98080000 		.word	.LC108
 1007 0248 B0080000 		.word	.LC110
 1008              		.cfi_endproc
 1009              	.LFE37:
 1010              		.size	DiagnosticsSPI, .-DiagnosticsSPI
 1011              		.section	.rodata
 1012 08c6 0000     		.align	2
 1013              	.LC112:
 1014 08c8 0A3D3D3D 		.ascii	"\012=== FIFO & INTERRUPT STATUS (ENHANCED) ===\000"
 1014      20464946 
 1014      4F202620 
 1014      494E5445 
 1014      52525550 
 1015              		.align	2
 1016              	.LC114:
 1017 08f4 5B444542 		.ascii	"[DEBUG] Checking FIFO status...\000"
 1017      55475D20 
 1017      43686563 
 1017      6B696E67 
 1017      20464946 
 1018              		.align	2
 1019              	.LC117:
ARM GAS  C:\Users\13740\AppData\Local\Temp\ccN8S1qO.s 			page 28


 1020 0914 20202020 		.ascii	"    FifoDataCount: %lu\012\000"
 1020      4669666F 
 1020      44617461 
 1020      436F756E 
 1020      743A2025 
 1021              		.align	2
 1022              	.LC119:
 1023 092c 20202020 		.ascii	"    FifoThresh: %d\012\000"
 1023      4669666F 
 1023      54687265 
 1023      73683A20 
 1023      25640A00 
 1024              		.align	2
 1025              	.LC121:
 1026 0940 20202020 		.ascii	"    AMPInited: %d\012\000"
 1026      414D5049 
 1026      6E697465 
 1026      643A2025 
 1026      640A00
 1027 0953 00       		.align	2
 1028              	.LC123:
 1029 0954 20202020 		.ascii	"    StopRequired: %d\012\000"
 1029      53746F70 
 1029      52657175 
 1029      69726564 
 1029      3A202564 
 1030 096a 0000     		.align	2
 1031              	.LC126:
 1032 096c 3D3D3D20 		.ascii	"=== FIFO TEST END ===\012\000"
 1032      4649464F 
 1032      20544553 
 1032      5420454E 
 1032      44203D3D 
 1033 0983 00       		.align	2
 1034              	.LC128:
 1035 0984 20202020 		.ascii	"    [OK] FIFO Threshold Interrupt: DETECTED\000"
 1035      5B4F4B5D 
 1035      20464946 
 1035      4F205468 
 1035      72657368 
 1036              		.align	2
 1037              	.LC130:
 1038 09b0 20202020 		.ascii	"    [WARNING] FIFO Threshold Interrupt: NOT DETECTE"
 1038      5B574152 
 1038      4E494E47 
 1038      5D204649 
 1038      464F2054 
 1039 09e3 4400     		.ascii	"D\000"
 1040 09e5 000000   		.align	2
 1041              	.LC132:
 1042 09e8 20202020 		.ascii	"            Check if ADC is running and FIFO has da"
 1042      20202020 
 1042      20202020 
 1042      43686563 
 1042      6B206966 
 1043 0a1b 746100   		.ascii	"ta\000"
 1044 0a1e 0000     		.align	2
ARM GAS  C:\Users\13740\AppData\Local\Temp\ccN8S1qO.s 			page 29


 1045              	.LC134:
 1046 0a20 0A5B4449 		.ascii	"\012[DIAGNOSIS]\000"
 1046      41474E4F 
 1046      5349535D 
 1046      00
 1047 0a2d 000000   		.align	2
 1048              	.LC136:
 1049 0a30 20202020 		.ascii	"    [CRITICAL] AMPInited = 0, initialization incomp"
 1049      5B435249 
 1049      54494341 
 1049      4C5D2041 
 1049      4D50496E 
 1050 0a63 6C657465 		.ascii	"lete\000"
 1050      00
 1051              		.align	2
 1052              	.LC138:
 1053 0a68 20202020 		.ascii	"    This prevents any measurements from starting\000"
 1053      54686973 
 1053      20707265 
 1053      76656E74 
 1053      7320616E 
 1054 0a99 000000   		.align	2
 1055              	.LC140:
 1056 0a9c 20202020 		.ascii	"    [OK] AMPInited = 1, initialization complete\000"
 1056      5B4F4B5D 
 1056      20414D50 
 1056      496E6974 
 1056      6564203D 
 1057              		.section	.text.DiagnosticsFIFO,"ax",%progbits
 1058              		.align	2
 1059              		.global	DiagnosticsFIFO
 1060              		.code	16
 1061              		.thumb_func
 1062              		.type	DiagnosticsFIFO, %function
 1063              	DiagnosticsFIFO:
 1064              	.LFB38:
 276:main.c        **** 
 277:main.c        **** /*******************************************************************************
 278:main.c        **** * Function Name: DiagnosticsFIFO
 279:main.c        **** ********************************************************************************
 280:main.c        **** * Summary:
 281:main.c        **** *   ËØäÊñ≠ FIFO Âíå‰∏≠Êñ≠Áä∂ÊÄÅ - Â¢ûÂº∫ÁâàÊú¨
 282:main.c        **** *******************************************************************************/
 283:main.c        **** void DiagnosticsFIFO(void)
 284:main.c        **** {
 1065              		.loc 1 284 0
 1066              		.cfi_startproc
 1067              		@ args = 0, pretend = 0, frame = 8
 1068              		@ frame_needed = 1, uses_anonymous_args = 0
 1069 0000 80B5     		push	{r7, lr}
 1070              		.cfi_def_cfa_offset 8
 1071              		.cfi_offset 7, -8
 1072              		.cfi_offset 14, -4
 1073 0002 82B0     		sub	sp, sp, #8
 1074              		.cfi_def_cfa_offset 16
 1075 0004 00AF     		add	r7, sp, #0
 1076              		.cfi_def_cfa_register 7
ARM GAS  C:\Users\13740\AppData\Local\Temp\ccN8S1qO.s 			page 30


 285:main.c        ****     printf("\n=== FIFO & INTERRUPT STATUS (ENHANCED) ===\n");
 1077              		.loc 1 285 0
 1078 0006 394B     		ldr	r3, .L33
 1079 0008 1800     		movs	r0, r3
 1080 000a FFF7FEFF 		bl	puts
 286:main.c        ****     
 287:main.c        ****     uint32 fifoCount = 0;
 1081              		.loc 1 287 0
 1082 000e 0023     		movs	r3, #0
 1083 0010 7B60     		str	r3, [r7, #4]
 288:main.c        ****     
 289:main.c        ****     printf("[DEBUG] Checking FIFO status...\n");
 1084              		.loc 1 289 0
 1085 0012 374B     		ldr	r3, .L33+4
 1086 0014 1800     		movs	r0, r3
 1087 0016 FFF7FEFF 		bl	puts
 290:main.c        ****     if(pAmpCfg != NULL)
 1088              		.loc 1 290 0
 1089 001a 364B     		ldr	r3, .L33+8
 1090 001c 1B68     		ldr	r3, [r3]
 1091 001e 002B     		cmp	r3, #0
 1092 0020 2FD0     		beq	.L25
 291:main.c        ****     {
 292:main.c        ****         printf("    FifoDataCount: %lu\n", (unsigned long)pAmpCfg->FifoDataCount);
 1093              		.loc 1 292 0
 1094 0022 344B     		ldr	r3, .L33+8
 1095 0024 1B68     		ldr	r3, [r3]
 1096 0026 9C22     		movs	r2, #156
 1097 0028 9A58     		ldr	r2, [r3, r2]
 1098 002a 334B     		ldr	r3, .L33+12
 1099 002c 1100     		movs	r1, r2
 1100 002e 1800     		movs	r0, r3
 1101 0030 FFF7FEFF 		bl	printf
 293:main.c        ****         printf("    FifoThresh: %d\n", (int)pAmpCfg->FifoThresh);
 1102              		.loc 1 293 0
 1103 0034 2F4B     		ldr	r3, .L33+8
 1104 0036 1B68     		ldr	r3, [r3]
 1105 0038 5B6A     		ldr	r3, [r3, #36]
 1106 003a 1A00     		movs	r2, r3
 1107 003c 2F4B     		ldr	r3, .L33+16
 1108 003e 1100     		movs	r1, r2
 1109 0040 1800     		movs	r0, r3
 1110 0042 FFF7FEFF 		bl	printf
 294:main.c        ****         printf("    AMPInited: %d\n", (int)pAmpCfg->AMPInited);
 1111              		.loc 1 294 0
 1112 0046 2B4B     		ldr	r3, .L33+8
 1113 0048 1B68     		ldr	r3, [r3]
 1114 004a 6C22     		movs	r2, #108
 1115 004c 9B5C     		ldrb	r3, [r3, r2]
 1116 004e 1A00     		movs	r2, r3
 1117 0050 2B4B     		ldr	r3, .L33+20
 1118 0052 1100     		movs	r1, r2
 1119 0054 1800     		movs	r0, r3
 1120 0056 FFF7FEFF 		bl	printf
 295:main.c        ****         printf("    StopRequired: %d\n", (int)pAmpCfg->StopRequired);
 1121              		.loc 1 295 0
 1122 005a 264B     		ldr	r3, .L33+8
ARM GAS  C:\Users\13740\AppData\Local\Temp\ccN8S1qO.s 			page 31


 1123 005c 1B68     		ldr	r3, [r3]
 1124 005e 9822     		movs	r2, #152
 1125 0060 9B5C     		ldrb	r3, [r3, r2]
 1126 0062 1A00     		movs	r2, r3
 1127 0064 274B     		ldr	r3, .L33+24
 1128 0066 1100     		movs	r1, r2
 1129 0068 1800     		movs	r0, r3
 1130 006a FFF7FEFF 		bl	printf
 296:main.c        ****     }
 297:main.c        ****     else
 298:main.c        ****     {
 299:main.c        ****         printf("[ERROR] pAmpCfg is NULL!\n");
 300:main.c        ****         printf("=== FIFO TEST END ===\n\n");
 301:main.c        ****         return;
 302:main.c        ****     }
 303:main.c        ****     
 304:main.c        ****     if(AD5940_INTCTestFlag(AFEINTC_0, AFEINTSRC_DATAFIFOTHRESH) == bTRUE)
 1131              		.loc 1 304 0
 1132 006e 8023     		movs	r3, #128
 1133 0070 9B04     		lsls	r3, r3, #18
 1134 0072 1900     		movs	r1, r3
 1135 0074 0020     		movs	r0, #0
 1136 0076 FFF7FEFF 		bl	AD5940_INTCTestFlag
 1137 007a 0300     		movs	r3, r0
 1138 007c 012B     		cmp	r3, #1
 1139 007e 0ED1     		bne	.L28
 1140 0080 08E0     		b	.L32
 1141              	.L25:
 299:main.c        ****         printf("=== FIFO TEST END ===\n\n");
 1142              		.loc 1 299 0
 1143 0082 214B     		ldr	r3, .L33+28
 1144 0084 1800     		movs	r0, r3
 1145 0086 FFF7FEFF 		bl	puts
 300:main.c        ****         return;
 1146              		.loc 1 300 0
 1147 008a 204B     		ldr	r3, .L33+32
 1148 008c 1800     		movs	r0, r3
 1149 008e FFF7FEFF 		bl	puts
 301:main.c        ****     }
 1150              		.loc 1 301 0
 1151 0092 27E0     		b	.L24
 1152              	.L32:
 305:main.c        ****     {
 306:main.c        ****         printf("    [OK] FIFO Threshold Interrupt: DETECTED\n");
 1153              		.loc 1 306 0
 1154 0094 1E4B     		ldr	r3, .L33+36
 1155 0096 1800     		movs	r0, r3
 1156 0098 FFF7FEFF 		bl	puts
 1157 009c 07E0     		b	.L29
 1158              	.L28:
 307:main.c        ****     }
 308:main.c        ****     else
 309:main.c        ****     {
 310:main.c        ****         printf("    [WARNING] FIFO Threshold Interrupt: NOT DETECTED\n");
 1159              		.loc 1 310 0
 1160 009e 1D4B     		ldr	r3, .L33+40
 1161 00a0 1800     		movs	r0, r3
ARM GAS  C:\Users\13740\AppData\Local\Temp\ccN8S1qO.s 			page 32


 1162 00a2 FFF7FEFF 		bl	puts
 311:main.c        ****         printf("            Check if ADC is running and FIFO has data\n");
 1163              		.loc 1 311 0
 1164 00a6 1C4B     		ldr	r3, .L33+44
 1165 00a8 1800     		movs	r0, r3
 1166 00aa FFF7FEFF 		bl	puts
 1167              	.L29:
 312:main.c        ****     }
 313:main.c        ****     
 314:main.c        ****     printf("\n[DIAGNOSIS]\n");
 1168              		.loc 1 314 0
 1169 00ae 1B4B     		ldr	r3, .L33+48
 1170 00b0 1800     		movs	r0, r3
 1171 00b2 FFF7FEFF 		bl	puts
 315:main.c        ****     if(pAmpCfg->AMPInited == 0)
 1172              		.loc 1 315 0
 1173 00b6 0F4B     		ldr	r3, .L33+8
 1174 00b8 1B68     		ldr	r3, [r3]
 1175 00ba 6C22     		movs	r2, #108
 1176 00bc 9B5C     		ldrb	r3, [r3, r2]
 1177 00be 002B     		cmp	r3, #0
 1178 00c0 08D1     		bne	.L30
 316:main.c        ****     {
 317:main.c        ****         printf("    [CRITICAL] AMPInited = 0, initialization incomplete\n");
 1179              		.loc 1 317 0
 1180 00c2 174B     		ldr	r3, .L33+52
 1181 00c4 1800     		movs	r0, r3
 1182 00c6 FFF7FEFF 		bl	puts
 318:main.c        ****         printf("    This prevents any measurements from starting\n");
 1183              		.loc 1 318 0
 1184 00ca 164B     		ldr	r3, .L33+56
 1185 00cc 1800     		movs	r0, r3
 1186 00ce FFF7FEFF 		bl	puts
 1187 00d2 03E0     		b	.L31
 1188              	.L30:
 319:main.c        ****     }
 320:main.c        ****     else
 321:main.c        ****     {
 322:main.c        ****         printf("    [OK] AMPInited = 1, initialization complete\n");
 1189              		.loc 1 322 0
 1190 00d4 144B     		ldr	r3, .L33+60
 1191 00d6 1800     		movs	r0, r3
 1192 00d8 FFF7FEFF 		bl	puts
 1193              	.L31:
 323:main.c        ****     }
 324:main.c        ****     
 325:main.c        ****     printf("=== FIFO TEST END ===\n\n");
 1194              		.loc 1 325 0
 1195 00dc 0B4B     		ldr	r3, .L33+32
 1196 00de 1800     		movs	r0, r3
 1197 00e0 FFF7FEFF 		bl	puts
 1198              	.L24:
 326:main.c        **** }
 1199              		.loc 1 326 0
 1200 00e4 BD46     		mov	sp, r7
 1201 00e6 02B0     		add	sp, sp, #8
 1202              		@ sp needed
ARM GAS  C:\Users\13740\AppData\Local\Temp\ccN8S1qO.s 			page 33


 1203 00e8 80BD     		pop	{r7, pc}
 1204              	.L34:
 1205 00ea C046     		.align	2
 1206              	.L33:
 1207 00ec C8080000 		.word	.LC112
 1208 00f0 F4080000 		.word	.LC114
 1209 00f4 00000000 		.word	pAmpCfg
 1210 00f8 14090000 		.word	.LC117
 1211 00fc 2C090000 		.word	.LC119
 1212 0100 40090000 		.word	.LC121
 1213 0104 54090000 		.word	.LC123
 1214 0108 A0010000 		.word	.LC21
 1215 010c 6C090000 		.word	.LC126
 1216 0110 84090000 		.word	.LC128
 1217 0114 B0090000 		.word	.LC130
 1218 0118 E8090000 		.word	.LC132
 1219 011c 200A0000 		.word	.LC134
 1220 0120 300A0000 		.word	.LC136
 1221 0124 680A0000 		.word	.LC138
 1222 0128 9C0A0000 		.word	.LC140
 1223              		.cfi_endproc
 1224              	.LFE38:
 1225              		.size	DiagnosticsFIFO, .-DiagnosticsFIFO
 1226              		.section	.rodata
 1227              		.align	2
 1228              	.LC142:
 1229 0acc 0A3D3D3D 		.ascii	"\012=== ELECTRODE CONFIGURATION ===\000"
 1229      20454C45 
 1229      4354524F 
 1229      44452043 
 1229      4F4E4649 
 1230 0aed 000000   		.align	2
 1231              	.LC144:
 1232 0af0 5B444542 		.ascii	"[DEBUG] Electrode Control Pin Status:\000"
 1232      55475D20 
 1232      456C6563 
 1232      74726F64 
 1232      6520436F 
 1233 0b16 0000     		.align	2
 1234              	.LC146:
 1235 0b18 20202020 		.ascii	"    AMP1_EN (Glucose): %d\012\000"
 1235      414D5031 
 1235      5F454E20 
 1235      28476C75 
 1235      636F7365 
 1236 0b33 00       		.align	2
 1237              	.LC148:
 1238 0b34 20202020 		.ascii	"    AMP2_EN (Lactate): %d\012\000"
 1238      414D5032 
 1238      5F454E20 
 1238      284C6163 
 1238      74617465 
 1239 0b4f 00       		.align	2
 1240              	.LC150:
 1241 0b50 20202020 		.ascii	"    AMP3_EN (Uric Acid): %d\012\000"
 1241      414D5033 
 1241      5F454E20 
ARM GAS  C:\Users\13740\AppData\Local\Temp\ccN8S1qO.s 			page 34


 1241      28557269 
 1241      63204163 
 1242 0b6d 000000   		.align	2
 1243              	.LC152:
 1244 0b70 0A5B4348 		.ascii	"\012[CHECK] Please verify:\000"
 1244      45434B5D 
 1244      20506C65 
 1244      61736520 
 1244      76657269 
 1245              		.align	2
 1246              	.LC154:
 1247 0b88 20202020 		.ascii	"    1. WE (Working Electrode): Connected to appropr"
 1247      312E2057 
 1247      45202857 
 1247      6F726B69 
 1247      6E672045 
 1248 0bbb 69617465 		.ascii	"iate sensor\000"
 1248      2073656E 
 1248      736F7200 
 1249 0bc7 00       		.align	2
 1250              	.LC156:
 1251 0bc8 20202020 		.ascii	"    2. RE (Reference Electrode): Connected to Ag/Ag"
 1251      322E2052 
 1251      45202852 
 1251      65666572 
 1251      656E6365 
 1252 0bfb 436C206F 		.ascii	"Cl or similar\000"
 1252      72207369 
 1252      6D696C61 
 1252      7200
 1253 0c09 000000   		.align	2
 1254              	.LC158:
 1255 0c0c 20202020 		.ascii	"    3. CE (Counter Electrode): Connected to carbon "
 1255      332E2043 
 1255      45202843 
 1255      6F756E74 
 1255      65722045 
 1256 0c3f 6F722073 		.ascii	"or similar\000"
 1256      696D696C 
 1256      617200
 1257              		.global	__aeabi_f2d
 1258 0c4a 0000     		.align	2
 1259              	.LC161:
 1260 0c4c 20202020 		.ascii	"    4. Sensor bias voltage: %.1f mV\012\000"
 1260      342E2053 
 1260      656E736F 
 1260      72206269 
 1260      61732076 
 1261 0c71 000000   		.align	2
 1262              	.LC163:
 1263 0c74 20202020 		.ascii	"    5. RTIA value: %.0f Ohm\012\000"
 1263      352E2052 
 1263      54494120 
 1263      76616C75 
 1263      653A2025 
 1264 0c91 000000   		.align	2
 1265              	.LC165:
ARM GAS  C:\Users\13740\AppData\Local\Temp\ccN8S1qO.s 			page 35


 1266 0c94 3D3D3D20 		.ascii	"=== ELECTRODE TEST END ===\012\000"
 1266      454C4543 
 1266      54524F44 
 1266      45205445 
 1266      53542045 
 1267              		.section	.text.DiagnosticsElectrodes,"ax",%progbits
 1268              		.align	2
 1269              		.global	DiagnosticsElectrodes
 1270              		.code	16
 1271              		.thumb_func
 1272              		.type	DiagnosticsElectrodes, %function
 1273              	DiagnosticsElectrodes:
 1274              	.LFB39:
 327:main.c        **** 
 328:main.c        **** /*******************************************************************************
 329:main.c        **** * Function Name: DiagnosticsElectrodes
 330:main.c        **** ********************************************************************************
 331:main.c        **** * Summary:
 332:main.c        **** *   ËØäÊñ≠ÁîµÊûÅÈÖçÁΩÆÂíåÊé•Á∫ø
 333:main.c        **** *******************************************************************************/
 334:main.c        **** void DiagnosticsElectrodes(void)
 335:main.c        **** {
 1275              		.loc 1 335 0
 1276              		.cfi_startproc
 1277              		@ args = 0, pretend = 0, frame = 0
 1278              		@ frame_needed = 1, uses_anonymous_args = 0
 1279 0000 B0B5     		push	{r4, r5, r7, lr}
 1280              		.cfi_def_cfa_offset 16
 1281              		.cfi_offset 4, -16
 1282              		.cfi_offset 5, -12
 1283              		.cfi_offset 7, -8
 1284              		.cfi_offset 14, -4
 1285 0002 00AF     		add	r7, sp, #0
 1286              		.cfi_def_cfa_register 7
 336:main.c        ****     printf("\n=== ELECTRODE CONFIGURATION ===\n");
 1287              		.loc 1 336 0
 1288 0004 2A4B     		ldr	r3, .L36
 1289 0006 1800     		movs	r0, r3
 1290 0008 FFF7FEFF 		bl	puts
 337:main.c        ****     
 338:main.c        ****     printf("[DEBUG] Electrode Control Pin Status:\n");
 1291              		.loc 1 338 0
 1292 000c 294B     		ldr	r3, .L36+4
 1293 000e 1800     		movs	r0, r3
 1294 0010 FFF7FEFF 		bl	puts
 339:main.c        ****     printf("    AMP1_EN (Glucose): %d\n", (int)AMP1_EN_Read());
 1295              		.loc 1 339 0
 1296 0014 FFF7FEFF 		bl	AMP1_EN_Read
 1297 0018 0300     		movs	r3, r0
 1298 001a 1A00     		movs	r2, r3
 1299 001c 264B     		ldr	r3, .L36+8
 1300 001e 1100     		movs	r1, r2
 1301 0020 1800     		movs	r0, r3
 1302 0022 FFF7FEFF 		bl	printf
 340:main.c        ****     printf("    AMP2_EN (Lactate): %d\n", (int)AMP2_EN_Read());
 1303              		.loc 1 340 0
 1304 0026 FFF7FEFF 		bl	AMP2_EN_Read
ARM GAS  C:\Users\13740\AppData\Local\Temp\ccN8S1qO.s 			page 36


 1305 002a 0300     		movs	r3, r0
 1306 002c 1A00     		movs	r2, r3
 1307 002e 234B     		ldr	r3, .L36+12
 1308 0030 1100     		movs	r1, r2
 1309 0032 1800     		movs	r0, r3
 1310 0034 FFF7FEFF 		bl	printf
 341:main.c        ****     printf("    AMP3_EN (Uric Acid): %d\n", (int)AMP3_EN_Read());
 1311              		.loc 1 341 0
 1312 0038 FFF7FEFF 		bl	AMP3_EN_Read
 1313 003c 0300     		movs	r3, r0
 1314 003e 1A00     		movs	r2, r3
 1315 0040 1F4B     		ldr	r3, .L36+16
 1316 0042 1100     		movs	r1, r2
 1317 0044 1800     		movs	r0, r3
 1318 0046 FFF7FEFF 		bl	printf
 342:main.c        ****     
 343:main.c        ****     printf("\n[CHECK] Please verify:\n");
 1319              		.loc 1 343 0
 1320 004a 1E4B     		ldr	r3, .L36+20
 1321 004c 1800     		movs	r0, r3
 1322 004e FFF7FEFF 		bl	puts
 344:main.c        ****     printf("    1. WE (Working Electrode): Connected to appropriate sensor\n");
 1323              		.loc 1 344 0
 1324 0052 1D4B     		ldr	r3, .L36+24
 1325 0054 1800     		movs	r0, r3
 1326 0056 FFF7FEFF 		bl	puts
 345:main.c        ****     printf("    2. RE (Reference Electrode): Connected to Ag/AgCl or similar\n");
 1327              		.loc 1 345 0
 1328 005a 1C4B     		ldr	r3, .L36+28
 1329 005c 1800     		movs	r0, r3
 1330 005e FFF7FEFF 		bl	puts
 346:main.c        ****     printf("    3. CE (Counter Electrode): Connected to carbon or similar\n");
 1331              		.loc 1 346 0
 1332 0062 1B4B     		ldr	r3, .L36+32
 1333 0064 1800     		movs	r0, r3
 1334 0066 FFF7FEFF 		bl	puts
 347:main.c        ****     printf("    4. Sensor bias voltage: %.1f mV\n", (double)pAmpCfg->SensorBias);
 1335              		.loc 1 347 0
 1336 006a 1A4B     		ldr	r3, .L36+36
 1337 006c 1B68     		ldr	r3, [r3]
 1338 006e 1B6E     		ldr	r3, [r3, #96]
 1339 0070 181C     		adds	r0, r3, #0
 1340 0072 FFF7FEFF 		bl	__aeabi_f2d
 1341 0076 0300     		movs	r3, r0
 1342 0078 0C00     		movs	r4, r1
 1343 007a 1749     		ldr	r1, .L36+40
 1344 007c 1A00     		movs	r2, r3
 1345 007e 2300     		movs	r3, r4
 1346 0080 0800     		movs	r0, r1
 1347 0082 FFF7FEFF 		bl	printf
 348:main.c        ****     printf("    5. RTIA value: %.0f Ohm\n", (double)pAmpCfg->RtiaCalValue.Magnitude);
 1348              		.loc 1 348 0
 1349 0086 134B     		ldr	r3, .L36+36
 1350 0088 1B68     		ldr	r3, [r3]
 1351 008a 5B6D     		ldr	r3, [r3, #84]
 1352 008c 181C     		adds	r0, r3, #0
 1353 008e FFF7FEFF 		bl	__aeabi_f2d
ARM GAS  C:\Users\13740\AppData\Local\Temp\ccN8S1qO.s 			page 37


 1354 0092 0300     		movs	r3, r0
 1355 0094 0C00     		movs	r4, r1
 1356 0096 1149     		ldr	r1, .L36+44
 1357 0098 1A00     		movs	r2, r3
 1358 009a 2300     		movs	r3, r4
 1359 009c 0800     		movs	r0, r1
 1360 009e FFF7FEFF 		bl	printf
 349:main.c        ****     
 350:main.c        ****     printf("=== ELECTRODE TEST END ===\n\n");
 1361              		.loc 1 350 0
 1362 00a2 0F4B     		ldr	r3, .L36+48
 1363 00a4 1800     		movs	r0, r3
 1364 00a6 FFF7FEFF 		bl	puts
 351:main.c        **** }
 1365              		.loc 1 351 0
 1366 00aa C046     		nop
 1367 00ac BD46     		mov	sp, r7
 1368              		@ sp needed
 1369 00ae B0BD     		pop	{r4, r5, r7, pc}
 1370              	.L37:
 1371              		.align	2
 1372              	.L36:
 1373 00b0 CC0A0000 		.word	.LC142
 1374 00b4 F00A0000 		.word	.LC144
 1375 00b8 180B0000 		.word	.LC146
 1376 00bc 340B0000 		.word	.LC148
 1377 00c0 500B0000 		.word	.LC150
 1378 00c4 700B0000 		.word	.LC152
 1379 00c8 880B0000 		.word	.LC154
 1380 00cc C80B0000 		.word	.LC156
 1381 00d0 0C0C0000 		.word	.LC158
 1382 00d4 00000000 		.word	pAmpCfg
 1383 00d8 4C0C0000 		.word	.LC161
 1384 00dc 740C0000 		.word	.LC163
 1385 00e0 940C0000 		.word	.LC165
 1386              		.cfi_endproc
 1387              	.LFE39:
 1388              		.size	DiagnosticsElectrodes, .-DiagnosticsElectrodes
 1389              		.section	.rodata
 1390              		.align	2
 1391              	.LC167:
 1392 0cb0 0A3D3D3D 		.ascii	"\012=== RAW SPI TEST ===\000"
 1392      20524157 
 1392      20535049 
 1392      20544553 
 1392      54203D3D 
 1393 0cc6 0000     		.align	2
 1394              	.LC169:
 1395 0cc8 5B544553 		.ascii	"[TEST 1] Sending 0x00, 0x00, 0x00, 0x00...\000"
 1395      5420315D 
 1395      2053656E 
 1395      64696E67 
 1395      20307830 
 1396 0cf3 00       		.align	2
 1397              	.LC171:
 1398 0cf4 20205458 		.ascii	"  TX: 0x00 0x00 0x00 0x00\000"
 1398      3A203078 
ARM GAS  C:\Users\13740\AppData\Local\Temp\ccN8S1qO.s 			page 38


 1398      30302030 
 1398      78303020 
 1398      30783030 
 1399 0d0e 0000     		.align	2
 1400              	.LC173:
 1401 0d10 20205258 		.ascii	"  RX: 0x%02X 0x%02X 0x%02X 0x%02X\012\000"
 1401      3A203078 
 1401      25303258 
 1401      20307825 
 1401      30325820 
 1402 0d33 00       		.align	2
 1403              	.LC175:
 1404 0d34 5B544553 		.ascii	"[TEST 2] Sending 0xFF, 0xFF, 0xFF, 0xFF...\000"
 1404      5420325D 
 1404      2053656E 
 1404      64696E67 
 1404      20307846 
 1405 0d5f 00       		.align	2
 1406              	.LC177:
 1407 0d60 20205458 		.ascii	"  TX: 0xFF 0xFF 0xFF 0xFF\000"
 1407      3A203078 
 1407      46462030 
 1407      78464620 
 1407      30784646 
 1408 0d7a 0000     		.align	2
 1409              	.LC179:
 1410 0d7c 5B544553 		.ascii	"[TEST 3] Sending 0xAA, 0x55, 0xAA, 0x55...\000"
 1410      5420335D 
 1410      2053656E 
 1410      64696E67 
 1410      20307841 
 1411 0da7 00       		.align	2
 1412              	.LC181:
 1413 0da8 20205458 		.ascii	"  TX: 0xAA 0x55 0xAA 0x55\000"
 1413      3A203078 
 1413      41412030 
 1413      78353520 
 1413      30784141 
 1414 0dc2 0000     		.align	2
 1415              	.LC184:
 1416 0dc4 20205B43 		.ascii	"  [CRITICAL] All tests return same value!\000"
 1416      52495449 
 1416      43414C5D 
 1416      20416C6C 
 1416      20746573 
 1417 0dee 0000     		.align	2
 1418              	.LC186:
 1419 0df0 20205468 		.ascii	"  This indicates MISO line is:\000"
 1419      69732069 
 1419      6E646963 
 1419      61746573 
 1419      204D4953 
 1420 0e0f 00       		.align	2
 1421              	.LC188:
 1422 0e10 20202D20 		.ascii	"  - Stuck or floating with 0x80 pattern (10000000 b"
 1422      53747563 
 1422      6B206F72 
ARM GAS  C:\Users\13740\AppData\Local\Temp\ccN8S1qO.s 			page 39


 1422      20666C6F 
 1422      6174696E 
 1423 0e43 696E6172 		.ascii	"inary)\000"
 1423      792900
 1424 0e4a 0000     		.align	2
 1425              	.LC190:
 1426 0e4c 20202D20 		.ascii	"  - Pulled high (0xFF = 11111111 binary, likely flo"
 1426      50756C6C 
 1426      65642068 
 1426      69676820 
 1426      28307846 
 1427 0e7f 6174696E 		.ascii	"ating/not connected)\000"
 1427      672F6E6F 
 1427      7420636F 
 1427      6E6E6563 
 1427      74656429 
 1428              		.align	2
 1429              	.LC192:
 1430 0e94 20202D20 		.ascii	"  - Stuck low or shorted to ground\000"
 1430      53747563 
 1430      6B206C6F 
 1430      77206F72 
 1430      2073686F 
 1431 0eb7 00       		.align	2
 1432              	.LC194:
 1433 0eb8 0A202048 		.ascii	"\012  HARDWARE CHECK REQUIRED:\000"
 1433      41524457 
 1433      41524520 
 1433      43484543 
 1433      4B205245 
 1434              		.align	2
 1435              	.LC196:
 1436 0ed4 2020312E 		.ascii	"  1. Verify MISO pin (PSoC P0.5) is physically conn"
 1436      20566572 
 1436      69667920 
 1436      4D49534F 
 1436      2070696E 
 1437 0f07 65637465 		.ascii	"ected to AD5940 DOUT\000"
 1437      6420746F 
 1437      20414435 
 1437      39343020 
 1437      444F5554 
 1438              		.align	2
 1439              	.LC198:
 1440 0f1c 2020322E 		.ascii	"  2. Check for shorts or cold solder joints\000"
 1440      20436865 
 1440      636B2066 
 1440      6F722073 
 1440      686F7274 
 1441              		.align	2
 1442              	.LC200:
 1443 0f48 2020332E 		.ascii	"  3. Verify AD5940 is powered correctly (3.3V)\000"
 1443      20566572 
 1443      69667920 
 1443      41443539 
 1443      34302069 
 1444 0f77 00       		.align	2
ARM GAS  C:\Users\13740\AppData\Local\Temp\ccN8S1qO.s 			page 40


 1445              	.LC202:
 1446 0f78 2020342E 		.ascii	"  4. Check CS and SCLK connections\000"
 1446      20436865 
 1446      636B2043 
 1446      5320616E 
 1446      64205343 
 1447 0f9b 00       		.align	2
 1448              	.LC204:
 1449 0f9c 20205B4F 		.ascii	"  [OK] SPI is responding with variable data\000"
 1449      4B5D2053 
 1449      50492069 
 1449      73207265 
 1449      73706F6E 
 1450              		.align	2
 1451              	.LC206:
 1452 0fc8 0A3D3D3D 		.ascii	"\012=== RAW SPI TEST END ===\012\000"
 1452      20524157 
 1452      20535049 
 1452      20544553 
 1452      5420454E 
 1453              		.section	.text.TestRawSPI,"ax",%progbits
 1454              		.align	2
 1455              		.global	TestRawSPI
 1456              		.code	16
 1457              		.thumb_func
 1458              		.type	TestRawSPI, %function
 1459              	TestRawSPI:
 1460              	.LFB40:
 352:main.c        **** 
 353:main.c        **** /*******************************************************************************
 354:main.c        **** * Function Name: TestRawSPI
 355:main.c        **** ********************************************************************************
 356:main.c        **** * Summary:
 357:main.c        **** *   ÊµãËØïÂéüÁîü SPI ÈÄöËÆØÔºà‰ΩøÁî®Â∫ïÂ±ÇAD5940Êé•Âè£Ôºâ
 358:main.c        **** *   Áî®‰∫éÁ°ÆËÆ§ SPI Á°¨‰ª∂ÊòØÂê¶Â∑•‰Ωú
 359:main.c        **** *******************************************************************************/
 360:main.c        **** void TestRawSPI(void)
 361:main.c        **** {
 1461              		.loc 1 361 0
 1462              		.cfi_startproc
 1463              		@ args = 0, pretend = 0, frame = 24
 1464              		@ frame_needed = 1, uses_anonymous_args = 0
 1465 0000 90B5     		push	{r4, r7, lr}
 1466              		.cfi_def_cfa_offset 12
 1467              		.cfi_offset 4, -12
 1468              		.cfi_offset 7, -8
 1469              		.cfi_offset 14, -4
 1470 0002 89B0     		sub	sp, sp, #36
 1471              		.cfi_def_cfa_offset 48
 1472 0004 02AF     		add	r7, sp, #8
 1473              		.cfi_def_cfa 7, 40
 362:main.c        ****     printf("\n=== RAW SPI TEST ===\n");
 1474              		.loc 1 362 0
 1475 0006 954B     		ldr	r3, .L51
 1476 0008 1800     		movs	r0, r3
 1477 000a FFF7FEFF 		bl	puts
 363:main.c        ****     
ARM GAS  C:\Users\13740\AppData\Local\Temp\ccN8S1qO.s 			page 41


 364:main.c        ****     uint8 txBuffer[8];
 365:main.c        ****     uint8 rxBuffer[8];
 366:main.c        ****     int i;
 367:main.c        ****     
 368:main.c        ****     // ÊµãËØï 1: ÂèëÈÄÅ 0x00 Ê®°Âºè
 369:main.c        ****     printf("[TEST 1] Sending 0x00, 0x00, 0x00, 0x00...\n");
 1478              		.loc 1 369 0
 1479 000e 944B     		ldr	r3, .L51+4
 1480 0010 1800     		movs	r0, r3
 1481 0012 FFF7FEFF 		bl	puts
 370:main.c        ****     for(i = 0; i < 4; i++)
 1482              		.loc 1 370 0
 1483 0016 0023     		movs	r3, #0
 1484 0018 7B61     		str	r3, [r7, #20]
 1485 001a 08E0     		b	.L39
 1486              	.L40:
 371:main.c        ****         txBuffer[i] = 0x00;
 1487              		.loc 1 371 0 discriminator 3
 1488 001c 0C23     		movs	r3, #12
 1489 001e FA18     		adds	r2, r7, r3
 1490 0020 7B69     		ldr	r3, [r7, #20]
 1491 0022 D318     		adds	r3, r2, r3
 1492 0024 0022     		movs	r2, #0
 1493 0026 1A70     		strb	r2, [r3]
 370:main.c        ****     for(i = 0; i < 4; i++)
 1494              		.loc 1 370 0 discriminator 3
 1495 0028 7B69     		ldr	r3, [r7, #20]
 1496 002a 0133     		adds	r3, r3, #1
 1497 002c 7B61     		str	r3, [r7, #20]
 1498              	.L39:
 370:main.c        ****     for(i = 0; i < 4; i++)
 1499              		.loc 1 370 0 is_stmt 0 discriminator 1
 1500 002e 7B69     		ldr	r3, [r7, #20]
 1501 0030 032B     		cmp	r3, #3
 1502 0032 F3DD     		ble	.L40
 372:main.c        ****     
 373:main.c        ****     AD5940_CsClr();
 1503              		.loc 1 373 0 is_stmt 1
 1504 0034 FFF7FEFF 		bl	AD5940_CsClr
 374:main.c        ****     CyDelay(2);
 1505              		.loc 1 374 0
 1506 0038 0220     		movs	r0, #2
 1507 003a FFF7FEFF 		bl	CyDelay
 375:main.c        ****     AD5940_ReadWriteNBytes(txBuffer, rxBuffer, 4);
 1508              		.loc 1 375 0
 1509 003e 391D     		adds	r1, r7, #4
 1510 0040 0C23     		movs	r3, #12
 1511 0042 FB18     		adds	r3, r7, r3
 1512 0044 0422     		movs	r2, #4
 1513 0046 1800     		movs	r0, r3
 1514 0048 FFF7FEFF 		bl	AD5940_ReadWriteNBytes
 376:main.c        ****     CyDelay(2);
 1515              		.loc 1 376 0
 1516 004c 0220     		movs	r0, #2
 1517 004e FFF7FEFF 		bl	CyDelay
 377:main.c        ****     AD5940_CsSet();
 1518              		.loc 1 377 0
ARM GAS  C:\Users\13740\AppData\Local\Temp\ccN8S1qO.s 			page 42


 1519 0052 FFF7FEFF 		bl	AD5940_CsSet
 378:main.c        ****     
 379:main.c        ****     printf("  TX: 0x00 0x00 0x00 0x00\n");
 1520              		.loc 1 379 0
 1521 0056 834B     		ldr	r3, .L51+8
 1522 0058 1800     		movs	r0, r3
 1523 005a FFF7FEFF 		bl	puts
 380:main.c        ****     printf("  RX: 0x%02X 0x%02X 0x%02X 0x%02X\n", rxBuffer[0], rxBuffer[1], rxBuffer[2], rxBuffer[3
 1524              		.loc 1 380 0
 1525 005e 3B1D     		adds	r3, r7, #4
 1526 0060 1B78     		ldrb	r3, [r3]
 1527 0062 1900     		movs	r1, r3
 1528 0064 3B1D     		adds	r3, r7, #4
 1529 0066 5B78     		ldrb	r3, [r3, #1]
 1530 0068 1A00     		movs	r2, r3
 1531 006a 3B1D     		adds	r3, r7, #4
 1532 006c 9B78     		ldrb	r3, [r3, #2]
 1533 006e 1C00     		movs	r4, r3
 1534 0070 3B1D     		adds	r3, r7, #4
 1535 0072 DB78     		ldrb	r3, [r3, #3]
 1536 0074 7C48     		ldr	r0, .L51+12
 1537 0076 0093     		str	r3, [sp]
 1538 0078 2300     		movs	r3, r4
 1539 007a FFF7FEFF 		bl	printf
 381:main.c        ****     
 382:main.c        ****     CyDelay(100);
 1540              		.loc 1 382 0
 1541 007e 6420     		movs	r0, #100
 1542 0080 FFF7FEFF 		bl	CyDelay
 383:main.c        ****     
 384:main.c        ****     // ÊµãËØï 2: ÂèëÈÄÅ 0xFF Ê®°Âºè
 385:main.c        ****     printf("[TEST 2] Sending 0xFF, 0xFF, 0xFF, 0xFF...\n");
 1543              		.loc 1 385 0
 1544 0084 794B     		ldr	r3, .L51+16
 1545 0086 1800     		movs	r0, r3
 1546 0088 FFF7FEFF 		bl	puts
 386:main.c        ****     for(i = 0; i < 4; i++)
 1547              		.loc 1 386 0
 1548 008c 0023     		movs	r3, #0
 1549 008e 7B61     		str	r3, [r7, #20]
 1550 0090 08E0     		b	.L41
 1551              	.L42:
 387:main.c        ****         txBuffer[i] = 0xFF;
 1552              		.loc 1 387 0 discriminator 3
 1553 0092 0C23     		movs	r3, #12
 1554 0094 FA18     		adds	r2, r7, r3
 1555 0096 7B69     		ldr	r3, [r7, #20]
 1556 0098 D318     		adds	r3, r2, r3
 1557 009a FF22     		movs	r2, #255
 1558 009c 1A70     		strb	r2, [r3]
 386:main.c        ****     for(i = 0; i < 4; i++)
 1559              		.loc 1 386 0 discriminator 3
 1560 009e 7B69     		ldr	r3, [r7, #20]
 1561 00a0 0133     		adds	r3, r3, #1
 1562 00a2 7B61     		str	r3, [r7, #20]
 1563              	.L41:
 386:main.c        ****     for(i = 0; i < 4; i++)
ARM GAS  C:\Users\13740\AppData\Local\Temp\ccN8S1qO.s 			page 43


 1564              		.loc 1 386 0 is_stmt 0 discriminator 1
 1565 00a4 7B69     		ldr	r3, [r7, #20]
 1566 00a6 032B     		cmp	r3, #3
 1567 00a8 F3DD     		ble	.L42
 388:main.c        ****     
 389:main.c        ****     AD5940_CsClr();
 1568              		.loc 1 389 0 is_stmt 1
 1569 00aa FFF7FEFF 		bl	AD5940_CsClr
 390:main.c        ****     CyDelay(2);
 1570              		.loc 1 390 0
 1571 00ae 0220     		movs	r0, #2
 1572 00b0 FFF7FEFF 		bl	CyDelay
 391:main.c        ****     AD5940_ReadWriteNBytes(txBuffer, rxBuffer, 4);
 1573              		.loc 1 391 0
 1574 00b4 391D     		adds	r1, r7, #4
 1575 00b6 0C23     		movs	r3, #12
 1576 00b8 FB18     		adds	r3, r7, r3
 1577 00ba 0422     		movs	r2, #4
 1578 00bc 1800     		movs	r0, r3
 1579 00be FFF7FEFF 		bl	AD5940_ReadWriteNBytes
 392:main.c        ****     CyDelay(2);
 1580              		.loc 1 392 0
 1581 00c2 0220     		movs	r0, #2
 1582 00c4 FFF7FEFF 		bl	CyDelay
 393:main.c        ****     AD5940_CsSet();
 1583              		.loc 1 393 0
 1584 00c8 FFF7FEFF 		bl	AD5940_CsSet
 394:main.c        ****     
 395:main.c        ****     printf("  TX: 0xFF 0xFF 0xFF 0xFF\n");
 1585              		.loc 1 395 0
 1586 00cc 684B     		ldr	r3, .L51+20
 1587 00ce 1800     		movs	r0, r3
 1588 00d0 FFF7FEFF 		bl	puts
 396:main.c        ****     printf("  RX: 0x%02X 0x%02X 0x%02X 0x%02X\n", rxBuffer[0], rxBuffer[1], rxBuffer[2], rxBuffer[3
 1589              		.loc 1 396 0
 1590 00d4 3B1D     		adds	r3, r7, #4
 1591 00d6 1B78     		ldrb	r3, [r3]
 1592 00d8 1900     		movs	r1, r3
 1593 00da 3B1D     		adds	r3, r7, #4
 1594 00dc 5B78     		ldrb	r3, [r3, #1]
 1595 00de 1A00     		movs	r2, r3
 1596 00e0 3B1D     		adds	r3, r7, #4
 1597 00e2 9B78     		ldrb	r3, [r3, #2]
 1598 00e4 1C00     		movs	r4, r3
 1599 00e6 3B1D     		adds	r3, r7, #4
 1600 00e8 DB78     		ldrb	r3, [r3, #3]
 1601 00ea 5F48     		ldr	r0, .L51+12
 1602 00ec 0093     		str	r3, [sp]
 1603 00ee 2300     		movs	r3, r4
 1604 00f0 FFF7FEFF 		bl	printf
 397:main.c        ****     
 398:main.c        ****     CyDelay(100);
 1605              		.loc 1 398 0
 1606 00f4 6420     		movs	r0, #100
 1607 00f6 FFF7FEFF 		bl	CyDelay
 399:main.c        ****     
 400:main.c        ****     // ÊµãËØï 3: ÂèëÈÄÅ 0xAA 0x55 ‰∫§ÊõøÊ®°Âºè
ARM GAS  C:\Users\13740\AppData\Local\Temp\ccN8S1qO.s 			page 44


 401:main.c        ****     printf("[TEST 3] Sending 0xAA, 0x55, 0xAA, 0x55...\n");
 1608              		.loc 1 401 0
 1609 00fa 5E4B     		ldr	r3, .L51+24
 1610 00fc 1800     		movs	r0, r3
 1611 00fe FFF7FEFF 		bl	puts
 402:main.c        ****     txBuffer[0] = 0xAA;
 1612              		.loc 1 402 0
 1613 0102 0C23     		movs	r3, #12
 1614 0104 FB18     		adds	r3, r7, r3
 1615 0106 AA22     		movs	r2, #170
 1616 0108 1A70     		strb	r2, [r3]
 403:main.c        ****     txBuffer[1] = 0x55;
 1617              		.loc 1 403 0
 1618 010a 0C23     		movs	r3, #12
 1619 010c FB18     		adds	r3, r7, r3
 1620 010e 5522     		movs	r2, #85
 1621 0110 5A70     		strb	r2, [r3, #1]
 404:main.c        ****     txBuffer[2] = 0xAA;
 1622              		.loc 1 404 0
 1623 0112 0C23     		movs	r3, #12
 1624 0114 FB18     		adds	r3, r7, r3
 1625 0116 AA22     		movs	r2, #170
 1626 0118 9A70     		strb	r2, [r3, #2]
 405:main.c        ****     txBuffer[3] = 0x55;
 1627              		.loc 1 405 0
 1628 011a 0C23     		movs	r3, #12
 1629 011c FB18     		adds	r3, r7, r3
 1630 011e 5522     		movs	r2, #85
 1631 0120 DA70     		strb	r2, [r3, #3]
 406:main.c        ****     
 407:main.c        ****     AD5940_CsClr();
 1632              		.loc 1 407 0
 1633 0122 FFF7FEFF 		bl	AD5940_CsClr
 408:main.c        ****     CyDelay(2);
 1634              		.loc 1 408 0
 1635 0126 0220     		movs	r0, #2
 1636 0128 FFF7FEFF 		bl	CyDelay
 409:main.c        ****     AD5940_ReadWriteNBytes(txBuffer, rxBuffer, 4);
 1637              		.loc 1 409 0
 1638 012c 391D     		adds	r1, r7, #4
 1639 012e 0C23     		movs	r3, #12
 1640 0130 FB18     		adds	r3, r7, r3
 1641 0132 0422     		movs	r2, #4
 1642 0134 1800     		movs	r0, r3
 1643 0136 FFF7FEFF 		bl	AD5940_ReadWriteNBytes
 410:main.c        ****     CyDelay(2);
 1644              		.loc 1 410 0
 1645 013a 0220     		movs	r0, #2
 1646 013c FFF7FEFF 		bl	CyDelay
 411:main.c        ****     AD5940_CsSet();
 1647              		.loc 1 411 0
 1648 0140 FFF7FEFF 		bl	AD5940_CsSet
 412:main.c        ****     
 413:main.c        ****     printf("  TX: 0xAA 0x55 0xAA 0x55\n");
 1649              		.loc 1 413 0
 1650 0144 4C4B     		ldr	r3, .L51+28
 1651 0146 1800     		movs	r0, r3
ARM GAS  C:\Users\13740\AppData\Local\Temp\ccN8S1qO.s 			page 45


 1652 0148 FFF7FEFF 		bl	puts
 414:main.c        ****     printf("  RX: 0x%02X 0x%02X 0x%02X 0x%02X\n", rxBuffer[0], rxBuffer[1], rxBuffer[2], rxBuffer[3
 1653              		.loc 1 414 0
 1654 014c 3B1D     		adds	r3, r7, #4
 1655 014e 1B78     		ldrb	r3, [r3]
 1656 0150 1900     		movs	r1, r3
 1657 0152 3B1D     		adds	r3, r7, #4
 1658 0154 5B78     		ldrb	r3, [r3, #1]
 1659 0156 1A00     		movs	r2, r3
 1660 0158 3B1D     		adds	r3, r7, #4
 1661 015a 9B78     		ldrb	r3, [r3, #2]
 1662 015c 1C00     		movs	r4, r3
 1663 015e 3B1D     		adds	r3, r7, #4
 1664 0160 DB78     		ldrb	r3, [r3, #3]
 1665 0162 4148     		ldr	r0, .L51+12
 1666 0164 0093     		str	r3, [sp]
 1667 0166 2300     		movs	r3, r4
 1668 0168 FFF7FEFF 		bl	printf
 415:main.c        ****     
 416:main.c        ****     // ÂàÜÊûêÁªìÊûú
 417:main.c        ****     printf("\n[ANALYSIS]\n");
 1669              		.loc 1 417 0
 1670 016c 434B     		ldr	r3, .L51+32
 1671 016e 1800     		movs	r0, r3
 1672 0170 FFF7FEFF 		bl	puts
 418:main.c        ****     
 419:main.c        ****     // Â¶ÇÊûúÊâÄÊúâÊµãËØïÈÉΩËøîÂõûÁõ∏ÂêåÁöÑÂÄºÔºåËØ¥ÊòéÊúâ‰∏•ÈáçÁöÑÁ°¨‰ª∂ÈóÆÈ¢ò
 420:main.c        ****     if((rxBuffer[0] == 0x80 && rxBuffer[1] == 0x80 && rxBuffer[2] == 0x80 && rxBuffer[3] == 0x80) |
 1673              		.loc 1 420 0
 1674 0174 3B1D     		adds	r3, r7, #4
 1675 0176 1B78     		ldrb	r3, [r3]
 1676 0178 802B     		cmp	r3, #128
 1677 017a 0BD1     		bne	.L43
 1678              		.loc 1 420 0 is_stmt 0 discriminator 1
 1679 017c 3B1D     		adds	r3, r7, #4
 1680 017e 5B78     		ldrb	r3, [r3, #1]
 1681 0180 802B     		cmp	r3, #128
 1682 0182 07D1     		bne	.L43
 1683              		.loc 1 420 0 discriminator 3
 1684 0184 3B1D     		adds	r3, r7, #4
 1685 0186 9B78     		ldrb	r3, [r3, #2]
 1686 0188 802B     		cmp	r3, #128
 1687 018a 03D1     		bne	.L43
 1688              		.loc 1 420 0 discriminator 5
 1689 018c 3B1D     		adds	r3, r7, #4
 1690 018e DB78     		ldrb	r3, [r3, #3]
 1691 0190 802B     		cmp	r3, #128
 1692 0192 1FD0     		beq	.L44
 1693              	.L43:
 421:main.c        ****        (rxBuffer[0] == 0xFF && rxBuffer[1] == 0xFF && rxBuffer[2] == 0xFF && rxBuffer[3] == 0xFF) |
 1694              		.loc 1 421 0 is_stmt 1 discriminator 7
 1695 0194 3B1D     		adds	r3, r7, #4
 1696 0196 1B78     		ldrb	r3, [r3]
 420:main.c        ****        (rxBuffer[0] == 0xFF && rxBuffer[1] == 0xFF && rxBuffer[2] == 0xFF && rxBuffer[3] == 0xFF) |
 1697              		.loc 1 420 0 discriminator 7
 1698 0198 FF2B     		cmp	r3, #255
 1699 019a 0BD1     		bne	.L45
ARM GAS  C:\Users\13740\AppData\Local\Temp\ccN8S1qO.s 			page 46


 1700              		.loc 1 421 0
 1701 019c 3B1D     		adds	r3, r7, #4
 1702 019e 5B78     		ldrb	r3, [r3, #1]
 1703 01a0 FF2B     		cmp	r3, #255
 1704 01a2 07D1     		bne	.L45
 1705              		.loc 1 421 0 is_stmt 0 discriminator 1
 1706 01a4 3B1D     		adds	r3, r7, #4
 1707 01a6 9B78     		ldrb	r3, [r3, #2]
 1708 01a8 FF2B     		cmp	r3, #255
 1709 01aa 03D1     		bne	.L45
 1710              		.loc 1 421 0 discriminator 3
 1711 01ac 3B1D     		adds	r3, r7, #4
 1712 01ae DB78     		ldrb	r3, [r3, #3]
 1713 01b0 FF2B     		cmp	r3, #255
 1714 01b2 0FD0     		beq	.L44
 1715              	.L45:
 422:main.c        ****        (rxBuffer[0] == 0x00 && rxBuffer[1] == 0x00 && rxBuffer[2] == 0x00 && rxBuffer[3] == 0x00))
 1716              		.loc 1 422 0 is_stmt 1 discriminator 5
 1717 01b4 3B1D     		adds	r3, r7, #4
 1718 01b6 1B78     		ldrb	r3, [r3]
 421:main.c        ****        (rxBuffer[0] == 0xFF && rxBuffer[1] == 0xFF && rxBuffer[2] == 0xFF && rxBuffer[3] == 0xFF) |
 1719              		.loc 1 421 0 discriminator 5
 1720 01b8 002B     		cmp	r3, #0
 1721 01ba 42D1     		bne	.L46
 1722              		.loc 1 422 0
 1723 01bc 3B1D     		adds	r3, r7, #4
 1724 01be 5B78     		ldrb	r3, [r3, #1]
 1725 01c0 002B     		cmp	r3, #0
 1726 01c2 3ED1     		bne	.L46
 1727              		.loc 1 422 0 is_stmt 0 discriminator 1
 1728 01c4 3B1D     		adds	r3, r7, #4
 1729 01c6 9B78     		ldrb	r3, [r3, #2]
 1730 01c8 002B     		cmp	r3, #0
 1731 01ca 3AD1     		bne	.L46
 1732              		.loc 1 422 0 discriminator 2
 1733 01cc 3B1D     		adds	r3, r7, #4
 1734 01ce DB78     		ldrb	r3, [r3, #3]
 1735 01d0 002B     		cmp	r3, #0
 1736 01d2 36D1     		bne	.L46
 1737              	.L44:
 423:main.c        ****     {
 424:main.c        ****         printf("  [CRITICAL] All tests return same value!\n");
 1738              		.loc 1 424 0 is_stmt 1
 1739 01d4 2A4B     		ldr	r3, .L51+36
 1740 01d6 1800     		movs	r0, r3
 1741 01d8 FFF7FEFF 		bl	puts
 425:main.c        ****         printf("  This indicates MISO line is:\n");
 1742              		.loc 1 425 0
 1743 01dc 294B     		ldr	r3, .L51+40
 1744 01de 1800     		movs	r0, r3
 1745 01e0 FFF7FEFF 		bl	puts
 426:main.c        ****         
 427:main.c        ****         if(rxBuffer[0] == 0x80)
 1746              		.loc 1 427 0
 1747 01e4 3B1D     		adds	r3, r7, #4
 1748 01e6 1B78     		ldrb	r3, [r3]
 1749 01e8 802B     		cmp	r3, #128
ARM GAS  C:\Users\13740\AppData\Local\Temp\ccN8S1qO.s 			page 47


 1750 01ea 04D1     		bne	.L47
 428:main.c        ****             printf("  - Stuck or floating with 0x80 pattern (10000000 binary)\n");
 1751              		.loc 1 428 0
 1752 01ec 264B     		ldr	r3, .L51+44
 1753 01ee 1800     		movs	r0, r3
 1754 01f0 FFF7FEFF 		bl	puts
 1755 01f4 10E0     		b	.L48
 1756              	.L47:
 429:main.c        ****         else if(rxBuffer[0] == 0xFF)
 1757              		.loc 1 429 0
 1758 01f6 3B1D     		adds	r3, r7, #4
 1759 01f8 1B78     		ldrb	r3, [r3]
 1760 01fa FF2B     		cmp	r3, #255
 1761 01fc 04D1     		bne	.L49
 430:main.c        ****             printf("  - Pulled high (0xFF = 11111111 binary, likely floating/not connected)\n");
 1762              		.loc 1 430 0
 1763 01fe 234B     		ldr	r3, .L51+48
 1764 0200 1800     		movs	r0, r3
 1765 0202 FFF7FEFF 		bl	puts
 1766 0206 07E0     		b	.L48
 1767              	.L49:
 431:main.c        ****         else if(rxBuffer[0] == 0x00)
 1768              		.loc 1 431 0
 1769 0208 3B1D     		adds	r3, r7, #4
 1770 020a 1B78     		ldrb	r3, [r3]
 1771 020c 002B     		cmp	r3, #0
 1772 020e 03D1     		bne	.L48
 432:main.c        ****             printf("  - Stuck low or shorted to ground\n");
 1773              		.loc 1 432 0
 1774 0210 1F4B     		ldr	r3, .L51+52
 1775 0212 1800     		movs	r0, r3
 1776 0214 FFF7FEFF 		bl	puts
 1777              	.L48:
 433:main.c        ****             
 434:main.c        ****         printf("\n  HARDWARE CHECK REQUIRED:\n");
 1778              		.loc 1 434 0
 1779 0218 1E4B     		ldr	r3, .L51+56
 1780 021a 1800     		movs	r0, r3
 1781 021c FFF7FEFF 		bl	puts
 435:main.c        ****         printf("  1. Verify MISO pin (PSoC P0.5) is physically connected to AD5940 DOUT\n");
 1782              		.loc 1 435 0
 1783 0220 1D4B     		ldr	r3, .L51+60
 1784 0222 1800     		movs	r0, r3
 1785 0224 FFF7FEFF 		bl	puts
 436:main.c        ****         printf("  2. Check for shorts or cold solder joints\n");
 1786              		.loc 1 436 0
 1787 0228 1C4B     		ldr	r3, .L51+64
 1788 022a 1800     		movs	r0, r3
 1789 022c FFF7FEFF 		bl	puts
 437:main.c        ****         printf("  3. Verify AD5940 is powered correctly (3.3V)\n");
 1790              		.loc 1 437 0
 1791 0230 1B4B     		ldr	r3, .L51+68
 1792 0232 1800     		movs	r0, r3
 1793 0234 FFF7FEFF 		bl	puts
 438:main.c        ****         printf("  4. Check CS and SCLK connections\n");
 1794              		.loc 1 438 0
 1795 0238 1A4B     		ldr	r3, .L51+72
ARM GAS  C:\Users\13740\AppData\Local\Temp\ccN8S1qO.s 			page 48


 1796 023a 1800     		movs	r0, r3
 1797 023c FFF7FEFF 		bl	puts
 1798 0240 03E0     		b	.L50
 1799              	.L46:
 439:main.c        ****     }
 440:main.c        ****     else
 441:main.c        ****     {
 442:main.c        ****         printf("  [OK] SPI is responding with variable data\n");
 1800              		.loc 1 442 0
 1801 0242 194B     		ldr	r3, .L51+76
 1802 0244 1800     		movs	r0, r3
 1803 0246 FFF7FEFF 		bl	puts
 1804              	.L50:
 443:main.c        ****     }
 444:main.c        ****     
 445:main.c        ****     printf("\n=== RAW SPI TEST END ===\n\n");
 1805              		.loc 1 445 0
 1806 024a 184B     		ldr	r3, .L51+80
 1807 024c 1800     		movs	r0, r3
 1808 024e FFF7FEFF 		bl	puts
 446:main.c        **** }
 1809              		.loc 1 446 0
 1810 0252 C046     		nop
 1811 0254 BD46     		mov	sp, r7
 1812 0256 07B0     		add	sp, sp, #28
 1813              		@ sp needed
 1814 0258 90BD     		pop	{r4, r7, pc}
 1815              	.L52:
 1816 025a C046     		.align	2
 1817              	.L51:
 1818 025c B00C0000 		.word	.LC167
 1819 0260 C80C0000 		.word	.LC169
 1820 0264 F40C0000 		.word	.LC171
 1821 0268 100D0000 		.word	.LC173
 1822 026c 340D0000 		.word	.LC175
 1823 0270 600D0000 		.word	.LC177
 1824 0274 7C0D0000 		.word	.LC179
 1825 0278 A80D0000 		.word	.LC181
 1826 027c 14050000 		.word	.LC70
 1827 0280 C40D0000 		.word	.LC184
 1828 0284 F00D0000 		.word	.LC186
 1829 0288 100E0000 		.word	.LC188
 1830 028c 4C0E0000 		.word	.LC190
 1831 0290 940E0000 		.word	.LC192
 1832 0294 B80E0000 		.word	.LC194
 1833 0298 D40E0000 		.word	.LC196
 1834 029c 1C0F0000 		.word	.LC198
 1835 02a0 480F0000 		.word	.LC200
 1836 02a4 780F0000 		.word	.LC202
 1837 02a8 9C0F0000 		.word	.LC204
 1838 02ac C80F0000 		.word	.LC206
 1839              		.cfi_endproc
 1840              	.LFE40:
 1841              		.size	TestRawSPI, .-TestRawSPI
 1842              		.section	.rodata
 1843 0fe3 00       		.align	2
 1844              	.LC208:
ARM GAS  C:\Users\13740\AppData\Local\Temp\ccN8S1qO.s 			page 49


 1845 0fe4 0A00     		.ascii	"\012\000"
 1846 0fe6 0000     		.align	2
 1847              	.LC210:
 1848 0fe8 E29594E2 		.ascii	"\342\225\224\342\225\220\342\225\220\342\225\220\342"
 1848      9590E295 
 1848      90E29590 
 1848      E2
 1849 0ff5 9590E295 		.ascii	"\225\220\342\225\220\342\225\220\342\225\220\342\225"
 1849      90E29590 
 1849      E29590E2 
 1849      95
 1850 1002 90E29590 		.ascii	"\220\342\225\220\342\225\220\342\225\220\342\225\220"
 1850      E29590E2 
 1850      9590E295 
 1850      90
 1851 100f E29590E2 		.ascii	"\342\225\220\342\225\220\342\225\220\342\225\220\342"
 1851      9590E295 
 1851      90E29590 
 1851      E2
 1852 101c 9590E295 		.ascii	"\225\220\342\225\220\342\225\220\342\225\220\342\225"
 1852      90E29590 
 1852      E29590E2 
 1852      95
 1853 1029 90E29590 		.ascii	"\220\342\225\220\342\225\220\342\225\220\342\225\220"
 1853      E29590E2 
 1853      9590E295 
 1853      90
 1854 1036 E29590E2 		.ascii	"\342\225\220\342\225\220\342\225\220\342\225\220\342"
 1854      9590E295 
 1854      90E29590 
 1854      E2
 1855 1043 9590E295 		.ascii	"\225\220\342\225\220\342\225\220\342\225\220\342\225"
 1855      90E29590 
 1855      E29590E2 
 1855      95
 1856 1050 90E29590 		.ascii	"\220\342\225\220\342\225\220\342\225\220\342\225\220"
 1856      E29590E2 
 1856      9590E295 
 1856      90
 1857 105d E29590E2 		.ascii	"\342\225\220\342\225\220\342\225\220\342\225\220\342"
 1857      9590E295 
 1857      90E29590 
 1857      E2
 1858 106a 9590E295 		.ascii	"\225\220\342\225\220\342\225\220\342\225\220\342\225"
 1858      90E29590 
 1858      E29590E2 
 1858      95
 1859 1077 90E29590 		.ascii	"\220\342\225\220\342\225\220\342\225\220\342\225\220"
 1859      E29590E2 
 1859      9590E295 
 1859      90
 1860 1084 E29590E2 		.ascii	"\342\225\220\342\225\220\342\225\220\342\225\220\342"
 1860      9590E295 
 1860      90E29590 
 1860      E2
 1861 1091 9590E295 		.ascii	"\225\220\342\225\227\000"
 1861      9700
ARM GAS  C:\Users\13740\AppData\Local\Temp\ccN8S1qO.s 			page 50


 1862 1097 00       		.align	2
 1863              	.LC212:
 1864 1098 E2959120 		.ascii	"\342\225\221        AD5941 COMPLETE DIAGNOSTIC SUIT"
 1864      20202020 
 1864      20202041 
 1864      44353934 
 1864      3120434F 
 1865 10c2 45202020 		.ascii	"E                \342\225\221\000"
 1865      20202020 
 1865      20202020 
 1865      20202020 
 1865      20E29591 
 1866 10d7 00       		.align	2
 1867              	.LC214:
 1868 10d8 E2959120 		.ascii	"\342\225\221         Troubleshooting BLE Data Trans"
 1868      20202020 
 1868      20202020 
 1868      54726F75 
 1868      626C6573 
 1869 1102 6D697373 		.ascii	"mission          \342\225\221\000"
 1869      696F6E20 
 1869      20202020 
 1869      20202020 
 1869      20E29591 
 1870 1117 00       		.align	2
 1871              	.LC216:
 1872 1118 E2959AE2 		.ascii	"\342\225\232\342\225\220\342\225\220\342\225\220\342"
 1872      9590E295 
 1872      90E29590 
 1872      E2
 1873 1125 9590E295 		.ascii	"\225\220\342\225\220\342\225\220\342\225\220\342\225"
 1873      90E29590 
 1873      E29590E2 
 1873      95
 1874 1132 90E29590 		.ascii	"\220\342\225\220\342\225\220\342\225\220\342\225\220"
 1874      E29590E2 
 1874      9590E295 
 1874      90
 1875 113f E29590E2 		.ascii	"\342\225\220\342\225\220\342\225\220\342\225\220\342"
 1875      9590E295 
 1875      90E29590 
 1875      E2
 1876 114c 9590E295 		.ascii	"\225\220\342\225\220\342\225\220\342\225\220\342\225"
 1876      90E29590 
 1876      E29590E2 
 1876      95
 1877 1159 90E29590 		.ascii	"\220\342\225\220\342\225\220\342\225\220\342\225\220"
 1877      E29590E2 
 1877      9590E295 
 1877      90
 1878 1166 E29590E2 		.ascii	"\342\225\220\342\225\220\342\225\220\342\225\220\342"
 1878      9590E295 
 1878      90E29590 
 1878      E2
 1879 1173 9590E295 		.ascii	"\225\220\342\225\220\342\225\220\342\225\220\342\225"
 1879      90E29590 
 1879      E29590E2 
ARM GAS  C:\Users\13740\AppData\Local\Temp\ccN8S1qO.s 			page 51


 1879      95
 1880 1180 90E29590 		.ascii	"\220\342\225\220\342\225\220\342\225\220\342\225\220"
 1880      E29590E2 
 1880      9590E295 
 1880      90
 1881 118d E29590E2 		.ascii	"\342\225\220\342\225\220\342\225\220\342\225\220\342"
 1881      9590E295 
 1881      90E29590 
 1881      E2
 1882 119a 9590E295 		.ascii	"\225\220\342\225\220\342\225\220\342\225\220\342\225"
 1882      90E29590 
 1882      E29590E2 
 1882      95
 1883 11a7 90E29590 		.ascii	"\220\342\225\220\342\225\220\342\225\220\342\225\220"
 1883      E29590E2 
 1883      9590E295 
 1883      90
 1884 11b4 E29590E2 		.ascii	"\342\225\220\342\225\220\342\225\220\342\225\220\342"
 1884      9590E295 
 1884      90E29590 
 1884      E2
 1885 11c1 9590E295 		.ascii	"\225\220\342\225\235\000"
 1885      9D00
 1886 11c7 00       		.align	2
 1887              	.LC218:
 1888 11c8 0A5B5354 		.ascii	"\012[STEP 0] Testing Raw SPI Communication...\000"
 1888      45502030 
 1888      5D205465 
 1888      7374696E 
 1888      67205261 
 1889 11f3 00       		.align	2
 1890              	.LC220:
 1891 11f4 5B535445 		.ascii	"[STEP 1] Verifying AD5940 SPI Communication...\000"
 1891      5020315D 
 1891      20566572 
 1891      69667969 
 1891      6E672041 
 1892 1223 00       		.align	2
 1893              	.LC222:
 1894 1224 5B535445 		.ascii	"[STEP 2] Checking FIFO and Interrupts...\000"
 1894      5020325D 
 1894      20436865 
 1894      636B696E 
 1894      67204649 
 1895 124d 000000   		.align	2
 1896              	.LC224:
 1897 1250 5B535445 		.ascii	"[STEP 3] Verifying Electrode Configuration...\000"
 1897      5020335D 
 1897      20566572 
 1897      69667969 
 1897      6E672045 
 1898 127e 0000     		.align	2
 1899              	.LC226:
 1900 1280 0AE29594 		.ascii	"\012\342\225\224\342\225\220\342\225\220\342\225\220"
 1900      E29590E2 
 1900      9590E295 
 1900      90
ARM GAS  C:\Users\13740\AppData\Local\Temp\ccN8S1qO.s 			page 52


 1901 128d E29590E2 		.ascii	"\342\225\220\342\225\220\342\225\220\342\225\220\342"
 1901      9590E295 
 1901      90E29590 
 1901      E2
 1902 129a 9590E295 		.ascii	"\225\220\342\225\220\342\225\220\342\225\220\342\225"
 1902      90E29590 
 1902      E29590E2 
 1902      95
 1903 12a7 90E29590 		.ascii	"\220\342\225\220\342\225\220\342\225\220\342\225\220"
 1903      E29590E2 
 1903      9590E295 
 1903      90
 1904 12b4 E29590E2 		.ascii	"\342\225\220\342\225\220\342\225\220\342\225\220\342"
 1904      9590E295 
 1904      90E29590 
 1904      E2
 1905 12c1 9590E295 		.ascii	"\225\220\342\225\220\342\225\220\342\225\220\342\225"
 1905      90E29590 
 1905      E29590E2 
 1905      95
 1906 12ce 90E29590 		.ascii	"\220\342\225\220\342\225\220\342\225\220\342\225\220"
 1906      E29590E2 
 1906      9590E295 
 1906      90
 1907 12db E29590E2 		.ascii	"\342\225\220\342\225\220\342\225\220\342\225\220\342"
 1907      9590E295 
 1907      90E29590 
 1907      E2
 1908 12e8 9590E295 		.ascii	"\225\220\342\225\220\342\225\220\342\225\220\342\225"
 1908      90E29590 
 1908      E29590E2 
 1908      95
 1909 12f5 90E29590 		.ascii	"\220\342\225\220\342\225\220\342\225\220\342\225\220"
 1909      E29590E2 
 1909      9590E295 
 1909      90
 1910 1302 E29590E2 		.ascii	"\342\225\220\342\225\220\342\225\220\342\225\220\342"
 1910      9590E295 
 1910      90E29590 
 1910      E2
 1911 130f 9590E295 		.ascii	"\225\220\342\225\220\342\225\220\342\225\220\342\225"
 1911      90E29590 
 1911      E29590E2 
 1911      95
 1912 131c 90E29590 		.ascii	"\220\342\225\220\342\225\220\342\225\220\342\225\220"
 1912      E29590E2 
 1912      9590E295 
 1912      90
 1913 1329 E29590E2 		.ascii	"\342\225\220\342\225\227\000"
 1913      959700
 1914              		.align	2
 1915              	.LC228:
 1916 1330 E2959120 		.ascii	"\342\225\221  DIAGNOSTIC COMPLETE - Check output ab"
 1916      20444941 
 1916      474E4F53 
 1916      54494320 
 1916      434F4D50 
ARM GAS  C:\Users\13740\AppData\Local\Temp\ccN8S1qO.s 			page 53


 1917 135a 6F766520 		.ascii	"ove for issues   \342\225\221\000"
 1917      666F7220 
 1917      69737375 
 1917      65732020 
 1917      20E29591 
 1918 136f 00       		.align	2
 1919              	.LC230:
 1920 1370 E2959AE2 		.ascii	"\342\225\232\342\225\220\342\225\220\342\225\220\342"
 1920      9590E295 
 1920      90E29590 
 1920      E2
 1921 137d 9590E295 		.ascii	"\225\220\342\225\220\342\225\220\342\225\220\342\225"
 1921      90E29590 
 1921      E29590E2 
 1921      95
 1922 138a 90E29590 		.ascii	"\220\342\225\220\342\225\220\342\225\220\342\225\220"
 1922      E29590E2 
 1922      9590E295 
 1922      90
 1923 1397 E29590E2 		.ascii	"\342\225\220\342\225\220\342\225\220\342\225\220\342"
 1923      9590E295 
 1923      90E29590 
 1923      E2
 1924 13a4 9590E295 		.ascii	"\225\220\342\225\220\342\225\220\342\225\220\342\225"
 1924      90E29590 
 1924      E29590E2 
 1924      95
 1925 13b1 90E29590 		.ascii	"\220\342\225\220\342\225\220\342\225\220\342\225\220"
 1925      E29590E2 
 1925      9590E295 
 1925      90
 1926 13be E29590E2 		.ascii	"\342\225\220\342\225\220\342\225\220\342\225\220\342"
 1926      9590E295 
 1926      90E29590 
 1926      E2
 1927 13cb 9590E295 		.ascii	"\225\220\342\225\220\342\225\220\342\225\220\342\225"
 1927      90E29590 
 1927      E29590E2 
 1927      95
 1928 13d8 90E29590 		.ascii	"\220\342\225\220\342\225\220\342\225\220\342\225\220"
 1928      E29590E2 
 1928      9590E295 
 1928      90
 1929 13e5 E29590E2 		.ascii	"\342\225\220\342\225\220\342\225\220\342\225\220\342"
 1929      9590E295 
 1929      90E29590 
 1929      E2
 1930 13f2 9590E295 		.ascii	"\225\220\342\225\220\342\225\220\342\225\220\342\225"
 1930      90E29590 
 1930      E29590E2 
 1930      95
 1931 13ff 90E29590 		.ascii	"\220\342\225\220\342\225\220\342\225\220\342\225\220"
 1931      E29590E2 
 1931      9590E295 
 1931      90
 1932 140c E29590E2 		.ascii	"\342\225\220\342\225\220\342\225\220\342\225\220\342"
 1932      9590E295 
ARM GAS  C:\Users\13740\AppData\Local\Temp\ccN8S1qO.s 			page 54


 1932      90E29590 
 1932      E2
 1933 1419 9590E295 		.ascii	"\225\220\342\225\235\012\000"
 1933      9D0A00
 1934              		.section	.text.FullDiagnostics,"ax",%progbits
 1935              		.align	2
 1936              		.global	FullDiagnostics
 1937              		.code	16
 1938              		.thumb_func
 1939              		.type	FullDiagnostics, %function
 1940              	FullDiagnostics:
 1941              	.LFB41:
 447:main.c        **** 
 448:main.c        **** /*******************************************************************************
 449:main.c        **** * Function Name: FullDiagnostics
 450:main.c        **** ********************************************************************************
 451:main.c        **** * Summary:
 452:main.c        **** *   ÊâßË°åÂÆåÊï¥ËØäÊñ≠ - ÂåÖÂê´ÂéüÁîüSPIÊµãËØï
 453:main.c        **** *******************************************************************************/
 454:main.c        **** void FullDiagnostics(void)
 455:main.c        **** {
 1942              		.loc 1 455 0
 1943              		.cfi_startproc
 1944              		@ args = 0, pretend = 0, frame = 0
 1945              		@ frame_needed = 1, uses_anonymous_args = 0
 1946 0000 80B5     		push	{r7, lr}
 1947              		.cfi_def_cfa_offset 8
 1948              		.cfi_offset 7, -8
 1949              		.cfi_offset 14, -4
 1950 0002 00AF     		add	r7, sp, #0
 1951              		.cfi_def_cfa_register 7
 456:main.c        ****     printf("\n\n");
 1952              		.loc 1 456 0
 1953 0004 214B     		ldr	r3, .L54
 1954 0006 1800     		movs	r0, r3
 1955 0008 FFF7FEFF 		bl	puts
 457:main.c        ****     printf("‚ïî‚ïê‚ïê‚ïê‚ïê‚ïê‚ïê‚ïê‚ïê‚ïê‚ïê‚ïê‚ïê‚ïê‚ïê‚ïê‚ïê‚ïê‚ïê‚ïê‚ïê‚ïê‚ïê‚ïê‚ïê‚ïê‚ïê‚ïê‚ïê
 1956              		.loc 1 457 0
 1957 000c 204B     		ldr	r3, .L54+4
 1958 000e 1800     		movs	r0, r3
 1959 0010 FFF7FEFF 		bl	puts
 458:main.c        ****     printf("‚ïë        AD5941 COMPLETE DIAGNOSTIC SUITE                ‚ïë\n");
 1960              		.loc 1 458 0
 1961 0014 1F4B     		ldr	r3, .L54+8
 1962 0016 1800     		movs	r0, r3
 1963 0018 FFF7FEFF 		bl	puts
 459:main.c        ****     printf("‚ïë         Troubleshooting BLE Data Transmission          ‚ïë\n");
 1964              		.loc 1 459 0
 1965 001c 1E4B     		ldr	r3, .L54+12
 1966 001e 1800     		movs	r0, r3
 1967 0020 FFF7FEFF 		bl	puts
 460:main.c        ****     printf("‚ïö‚ïê‚ïê‚ïê‚ïê‚ïê‚ïê‚ïê‚ïê‚ïê‚ïê‚ïê‚ïê‚ïê‚ïê‚ïê‚ïê‚ïê‚ïê‚ïê‚ïê‚ïê‚ïê‚ïê‚ïê‚ïê‚ïê‚ïê‚ïê
 1968              		.loc 1 460 0
 1969 0024 1D4B     		ldr	r3, .L54+16
 1970 0026 1800     		movs	r0, r3
 1971 0028 FFF7FEFF 		bl	puts
 461:main.c        ****     
ARM GAS  C:\Users\13740\AppData\Local\Temp\ccN8S1qO.s 			page 55


 462:main.c        ****     printf("\n[STEP 0] Testing Raw SPI Communication...\n");
 1972              		.loc 1 462 0
 1973 002c 1C4B     		ldr	r3, .L54+20
 1974 002e 1800     		movs	r0, r3
 1975 0030 FFF7FEFF 		bl	puts
 463:main.c        ****     TestRawSPI();
 1976              		.loc 1 463 0
 1977 0034 FFF7FEFF 		bl	TestRawSPI
 464:main.c        ****     
 465:main.c        ****     CyDelay(100);
 1978              		.loc 1 465 0
 1979 0038 6420     		movs	r0, #100
 1980 003a FFF7FEFF 		bl	CyDelay
 466:main.c        ****     
 467:main.c        ****     printf("[STEP 1] Verifying AD5940 SPI Communication...\n");
 1981              		.loc 1 467 0
 1982 003e 194B     		ldr	r3, .L54+24
 1983 0040 1800     		movs	r0, r3
 1984 0042 FFF7FEFF 		bl	puts
 468:main.c        ****     DiagnosticsSPI();
 1985              		.loc 1 468 0
 1986 0046 FFF7FEFF 		bl	DiagnosticsSPI
 469:main.c        ****     
 470:main.c        ****     CyDelay(100);
 1987              		.loc 1 470 0
 1988 004a 6420     		movs	r0, #100
 1989 004c FFF7FEFF 		bl	CyDelay
 471:main.c        ****     
 472:main.c        ****     printf("[STEP 2] Checking FIFO and Interrupts...\n");
 1990              		.loc 1 472 0
 1991 0050 154B     		ldr	r3, .L54+28
 1992 0052 1800     		movs	r0, r3
 1993 0054 FFF7FEFF 		bl	puts
 473:main.c        ****     DiagnosticsFIFO();
 1994              		.loc 1 473 0
 1995 0058 FFF7FEFF 		bl	DiagnosticsFIFO
 474:main.c        ****     
 475:main.c        ****     CyDelay(100);
 1996              		.loc 1 475 0
 1997 005c 6420     		movs	r0, #100
 1998 005e FFF7FEFF 		bl	CyDelay
 476:main.c        ****     
 477:main.c        ****     printf("[STEP 3] Verifying Electrode Configuration...\n");
 1999              		.loc 1 477 0
 2000 0062 124B     		ldr	r3, .L54+32
 2001 0064 1800     		movs	r0, r3
 2002 0066 FFF7FEFF 		bl	puts
 478:main.c        ****     DiagnosticsElectrodes();
 2003              		.loc 1 478 0
 2004 006a FFF7FEFF 		bl	DiagnosticsElectrodes
 479:main.c        ****     
 480:main.c        ****     printf("\n‚ïî‚ïê‚ïê‚ïê‚ïê‚ïê‚ïê‚ïê‚ïê‚ïê‚ïê‚ïê‚ïê‚ïê‚ïê‚ïê‚ïê‚ïê‚ïê‚ïê‚ïê‚ïê‚ïê‚ïê‚ïê‚ïê‚ïê‚ïê‚
 2005              		.loc 1 480 0
 2006 006e 104B     		ldr	r3, .L54+36
 2007 0070 1800     		movs	r0, r3
 2008 0072 FFF7FEFF 		bl	puts
 481:main.c        ****     printf("‚ïë  DIAGNOSTIC COMPLETE - Check output above for issues   ‚ïë\n");
ARM GAS  C:\Users\13740\AppData\Local\Temp\ccN8S1qO.s 			page 56


 2009              		.loc 1 481 0
 2010 0076 0F4B     		ldr	r3, .L54+40
 2011 0078 1800     		movs	r0, r3
 2012 007a FFF7FEFF 		bl	puts
 482:main.c        ****     printf("‚ïö‚ïê‚ïê‚ïê‚ïê‚ïê‚ïê‚ïê‚ïê‚ïê‚ïê‚ïê‚ïê‚ïê‚ïê‚ïê‚ïê‚ïê‚ïê‚ïê‚ïê‚ïê‚ïê‚ïê‚ïê‚ïê‚ïê‚ïê‚ïê
 2013              		.loc 1 482 0
 2014 007e 0E4B     		ldr	r3, .L54+44
 2015 0080 1800     		movs	r0, r3
 2016 0082 FFF7FEFF 		bl	puts
 483:main.c        **** }
 2017              		.loc 1 483 0
 2018 0086 C046     		nop
 2019 0088 BD46     		mov	sp, r7
 2020              		@ sp needed
 2021 008a 80BD     		pop	{r7, pc}
 2022              	.L55:
 2023              		.align	2
 2024              	.L54:
 2025 008c E40F0000 		.word	.LC208
 2026 0090 E80F0000 		.word	.LC210
 2027 0094 98100000 		.word	.LC212
 2028 0098 D8100000 		.word	.LC214
 2029 009c 18110000 		.word	.LC216
 2030 00a0 C8110000 		.word	.LC218
 2031 00a4 F4110000 		.word	.LC220
 2032 00a8 24120000 		.word	.LC222
 2033 00ac 50120000 		.word	.LC224
 2034 00b0 80120000 		.word	.LC226
 2035 00b4 30130000 		.word	.LC228
 2036 00b8 70130000 		.word	.LC230
 2037              		.cfi_endproc
 2038              	.LFE41:
 2039              		.size	FullDiagnostics, .-FullDiagnostics
 2040              		.global	__aeabi_fmul
 2041              		.section	.text.MeasureAmperometricSensor,"ax",%progbits
 2042              		.align	2
 2043              		.global	MeasureAmperometricSensor
 2044              		.code	16
 2045              		.thumb_func
 2046              		.type	MeasureAmperometricSensor, %function
 2047              	MeasureAmperometricSensor:
 2048              	.LFB42:
 484:main.c        **** 
 485:main.c        **** /*******************************************************************************
 486:main.c        **** * Function Name: MeasureAmperometricSensor
 487:main.c        **** ********************************************************************************
 488:main.c        **** * Summary:
 489:main.c        **** *   ÊµãÈáèÂÆâÂüπÊ≥ï‰º†ÊÑüÂô® - ‰øÆÂ§çÂêéÁâàÊú¨
 490:main.c        **** *   ‰∏ç‰ΩøÁî®AMuxÔºåÁõ¥Êé•‰ΩøÁî®AD5941ÁöÑWE0/WE1/WE2ÈÄöÈÅì
 491:main.c        **** *******************************************************************************/
 492:main.c        **** float MeasureAmperometricSensor(AmperometricSensor_t sensorType)
 493:main.c        **** {
 2049              		.loc 1 493 0
 2050              		.cfi_startproc
 2051              		@ args = 0, pretend = 0, frame = 24
 2052              		@ frame_needed = 1, uses_anonymous_args = 0
 2053 0000 80B5     		push	{r7, lr}
ARM GAS  C:\Users\13740\AppData\Local\Temp\ccN8S1qO.s 			page 57


 2054              		.cfi_def_cfa_offset 8
 2055              		.cfi_offset 7, -8
 2056              		.cfi_offset 14, -4
 2057 0002 86B0     		sub	sp, sp, #24
 2058              		.cfi_def_cfa_offset 32
 2059 0004 00AF     		add	r7, sp, #0
 2060              		.cfi_def_cfa_register 7
 2061 0006 0200     		movs	r2, r0
 2062 0008 FB1D     		adds	r3, r7, #7
 2063 000a 1A70     		strb	r2, [r3]
 494:main.c        ****     float current_uA = 0;
 2064              		.loc 1 494 0
 2065 000c 0023     		movs	r3, #0
 2066 000e 7B61     		str	r3, [r7, #20]
 495:main.c        ****     uint32_t dataCount = 0;
 2067              		.loc 1 495 0
 2068 0010 0023     		movs	r3, #0
 2069 0012 FB60     		str	r3, [r7, #12]
 496:main.c        ****     AD5940Err error;
 497:main.c        ****     
 498:main.c        ****     
 499:main.c        ****     // Ê≥®ÊÑèÔºöÂ¶ÇÊûú‰∏ç‰ΩøÁî®AMuxÔºåAD5941‰ºö‰ΩøÁî®ÈªòËÆ§ÁöÑWE0ÈÄöÈÅì
 500:main.c        ****     // Â¶ÇÊûúÈúÄË¶ÅÂàáÊç¢WEÈÄöÈÅìÔºåÈúÄË¶ÅÂú®ÈÖçÁΩÆ‰∏≠‰øÆÊîπ
 501:main.c        ****     
 502:main.c        ****     // ÂêØÂä®ÊµãÈáè
 503:main.c        ****     error = AppAMPCtrl(AMPCTRL_START, NULL);
 2070              		.loc 1 503 0
 2071 0014 0021     		movs	r1, #0
 2072 0016 0020     		movs	r0, #0
 2073 0018 FFF7FEFF 		bl	AppAMPCtrl
 2074 001c 0300     		movs	r3, r0
 2075 001e 3B61     		str	r3, [r7, #16]
 504:main.c        ****     if(error != AD5940ERR_OK)
 2076              		.loc 1 504 0
 2077 0020 3B69     		ldr	r3, [r7, #16]
 2078 0022 002B     		cmp	r3, #0
 2079 0024 01D0     		beq	.L57
 505:main.c        ****     {
 506:main.c        ****         return 0;
 2080              		.loc 1 506 0
 2081 0026 0023     		movs	r3, #0
 2082 0028 20E0     		b	.L60
 2083              	.L57:
 507:main.c        ****     }
 508:main.c        ****     
 509:main.c        ****     // Á≠âÂæÖÊµãÈáèÁ®≥ÂÆöÔºàÂÆâÂüπÊ≥ïÈúÄË¶Å500msÔºâ
 510:main.c        ****     CyDelay(500);
 2084              		.loc 1 510 0
 2085 002a FA23     		movs	r3, #250
 2086 002c 5B00     		lsls	r3, r3, #1
 2087 002e 1800     		movs	r0, r3
 2088 0030 FFF7FEFF 		bl	CyDelay
 511:main.c        ****     
 512:main.c        ****     // ËØªÂèñFIFOÊï∞ÊçÆ
 513:main.c        ****     error = AppAMPISR(&ampResult, &dataCount);
 2089              		.loc 1 513 0
 2090 0034 0C23     		movs	r3, #12
ARM GAS  C:\Users\13740\AppData\Local\Temp\ccN8S1qO.s 			page 58


 2091 0036 FA18     		adds	r2, r7, r3
 2092 0038 0E4B     		ldr	r3, .L61
 2093 003a 1100     		movs	r1, r2
 2094 003c 1800     		movs	r0, r3
 2095 003e FFF7FEFF 		bl	AppAMPISR
 2096 0042 0300     		movs	r3, r0
 2097 0044 3B61     		str	r3, [r7, #16]
 514:main.c        ****     
 515:main.c        ****     if(error == AD5940ERR_OK && dataCount > 0)
 2098              		.loc 1 515 0
 2099 0046 3B69     		ldr	r3, [r7, #16]
 2100 0048 002B     		cmp	r3, #0
 2101 004a 0AD1     		bne	.L59
 2102              		.loc 1 515 0 is_stmt 0 discriminator 1
 2103 004c FB68     		ldr	r3, [r7, #12]
 2104 004e 002B     		cmp	r3, #0
 2105 0050 07D0     		beq	.L59
 516:main.c        ****     {
 517:main.c        ****         // Ëé∑ÂèñÁîµÊµÅÂÄºÔºàfAmpRes_TypeÁªìÊûÑ‰Ωì‰∏≠ÁöÑCurrentÊàêÂëòÔºâ
 518:main.c        ****         current_uA = ampResult.Current * 1000.0;  // ËΩ¨Êç¢‰∏∫nA
 2106              		.loc 1 518 0 is_stmt 1
 2107 0052 084B     		ldr	r3, .L61
 2108 0054 1B68     		ldr	r3, [r3]
 2109 0056 0849     		ldr	r1, .L61+4
 2110 0058 181C     		adds	r0, r3, #0
 2111 005a FFF7FEFF 		bl	__aeabi_fmul
 2112 005e 031C     		adds	r3, r0, #0
 2113 0060 7B61     		str	r3, [r7, #20]
 2114              	.L59:
 519:main.c        ****     }
 520:main.c        ****     else
 521:main.c        ****     {
 522:main.c        ****     }
 523:main.c        ****     
 524:main.c        ****     // ÂÅúÊ≠¢ÊµãÈáè
 525:main.c        ****     AppAMPCtrl(AMPCTRL_STOPNOW, NULL);
 2115              		.loc 1 525 0
 2116 0062 0021     		movs	r1, #0
 2117 0064 0120     		movs	r0, #1
 2118 0066 FFF7FEFF 		bl	AppAMPCtrl
 526:main.c        ****     
 527:main.c        ****     return current_uA;
 2119              		.loc 1 527 0
 2120 006a 7B69     		ldr	r3, [r7, #20]
 2121              	.L60:
 528:main.c        **** }
 2122              		.loc 1 528 0 discriminator 1
 2123 006c 181C     		adds	r0, r3, #0
 2124 006e BD46     		mov	sp, r7
 2125 0070 06B0     		add	sp, sp, #24
 2126              		@ sp needed
 2127 0072 80BD     		pop	{r7, pc}
 2128              	.L62:
 2129              		.align	2
 2130              	.L61:
 2131 0074 00000000 		.word	ampResult
 2132 0078 00007A44 		.word	1148846080
ARM GAS  C:\Users\13740\AppData\Local\Temp\ccN8S1qO.s 			page 59


 2133              		.cfi_endproc
 2134              	.LFE42:
 2135              		.size	MeasureAmperometricSensor, .-MeasureAmperometricSensor
 2136              		.global	__aeabi_ddiv
 2137              		.global	__aeabi_d2f
 2138              		.section	.text.ConvertCurrentToConcentration,"ax",%progbits
 2139              		.align	2
 2140              		.global	ConvertCurrentToConcentration
 2141              		.code	16
 2142              		.thumb_func
 2143              		.type	ConvertCurrentToConcentration, %function
 2144              	ConvertCurrentToConcentration:
 2145              	.LFB43:
 529:main.c        **** 
 530:main.c        **** /*******************************************************************************
 531:main.c        **** * Function Name: ConvertCurrentToConcentration
 532:main.c        **** ********************************************************************************
 533:main.c        **** * Summary:
 534:main.c        **** *   Â∞ÜÁîµÊµÅÂÄºËΩ¨Êç¢‰∏∫ÊµìÂ∫¶ÔºàÊ†πÊçÆËÆ∫ÊñáÊ†°ÂáÜÁ≥ªÊï∞Ôºâ
 535:main.c        **** *******************************************************************************/
 536:main.c        **** float ConvertCurrentToConcentration(float current_nA, uint8 sensorType)
 537:main.c        **** {
 2146              		.loc 1 537 0
 2147              		.cfi_startproc
 2148              		@ args = 0, pretend = 0, frame = 16
 2149              		@ frame_needed = 1, uses_anonymous_args = 0
 2150 0000 90B5     		push	{r4, r7, lr}
 2151              		.cfi_def_cfa_offset 12
 2152              		.cfi_offset 4, -12
 2153              		.cfi_offset 7, -8
 2154              		.cfi_offset 14, -4
 2155 0002 85B0     		sub	sp, sp, #20
 2156              		.cfi_def_cfa_offset 32
 2157 0004 00AF     		add	r7, sp, #0
 2158              		.cfi_def_cfa_register 7
 2159 0006 7860     		str	r0, [r7, #4]
 2160 0008 0A00     		movs	r2, r1
 2161 000a FB1C     		adds	r3, r7, #3
 2162 000c 1A70     		strb	r2, [r3]
 538:main.c        ****     float concentration = 0;
 2163              		.loc 1 538 0
 2164 000e 0023     		movs	r3, #0
 2165 0010 FB60     		str	r3, [r7, #12]
 539:main.c        ****     
 540:main.c        ****     switch(sensorType)
 2166              		.loc 1 540 0
 2167 0012 FB1C     		adds	r3, r7, #3
 2168 0014 1B78     		ldrb	r3, [r3]
 2169 0016 012B     		cmp	r3, #1
 2170 0018 13D0     		beq	.L65
 2171 001a 022B     		cmp	r3, #2
 2172 001c 21D0     		beq	.L66
 2173 001e 002B     		cmp	r3, #0
 2174 0020 2FD1     		bne	.L70
 541:main.c        ****     {
 542:main.c        ****         case SENSOR_GLUCOSE:
 543:main.c        ****             concentration = current_nA / 16.34;  // 16.34 nA/mM
ARM GAS  C:\Users\13740\AppData\Local\Temp\ccN8S1qO.s 			page 60


 2175              		.loc 1 543 0
 2176 0022 7868     		ldr	r0, [r7, #4]
 2177 0024 FFF7FEFF 		bl	__aeabi_f2d
 2178 0028 1A4A     		ldr	r2, .L71
 2179 002a 1B4B     		ldr	r3, .L71+4
 2180 002c FFF7FEFF 		bl	__aeabi_ddiv
 2181 0030 0300     		movs	r3, r0
 2182 0032 0C00     		movs	r4, r1
 2183 0034 1800     		movs	r0, r3
 2184 0036 2100     		movs	r1, r4
 2185 0038 FFF7FEFF 		bl	__aeabi_d2f
 2186 003c 031C     		adds	r3, r0, #0
 2187 003e FB60     		str	r3, [r7, #12]
 544:main.c        ****             break;
 2188              		.loc 1 544 0
 2189 0040 22E0     		b	.L68
 2190              	.L65:
 545:main.c        ****             
 546:main.c        ****         case SENSOR_LACTATE:
 547:main.c        ****             concentration = current_nA / 41.44;  // 41.44 nA/mM
 2191              		.loc 1 547 0
 2192 0042 7868     		ldr	r0, [r7, #4]
 2193 0044 FFF7FEFF 		bl	__aeabi_f2d
 2194 0048 144A     		ldr	r2, .L71+8
 2195 004a 154B     		ldr	r3, .L71+12
 2196 004c FFF7FEFF 		bl	__aeabi_ddiv
 2197 0050 0300     		movs	r3, r0
 2198 0052 0C00     		movs	r4, r1
 2199 0054 1800     		movs	r0, r3
 2200 0056 2100     		movs	r1, r4
 2201 0058 FFF7FEFF 		bl	__aeabi_d2f
 2202 005c 031C     		adds	r3, r0, #0
 2203 005e FB60     		str	r3, [r7, #12]
 548:main.c        ****             break;
 2204              		.loc 1 548 0
 2205 0060 12E0     		b	.L68
 2206              	.L66:
 549:main.c        ****             
 550:main.c        ****         case SENSOR_URIC_ACID:
 551:main.c        ****             concentration = current_nA / 189.60; // 189.60 nA/ŒºM
 2207              		.loc 1 551 0
 2208 0062 7868     		ldr	r0, [r7, #4]
 2209 0064 FFF7FEFF 		bl	__aeabi_f2d
 2210 0068 0E4A     		ldr	r2, .L71+16
 2211 006a 0F4B     		ldr	r3, .L71+20
 2212 006c FFF7FEFF 		bl	__aeabi_ddiv
 2213 0070 0300     		movs	r3, r0
 2214 0072 0C00     		movs	r4, r1
 2215 0074 1800     		movs	r0, r3
 2216 0076 2100     		movs	r1, r4
 2217 0078 FFF7FEFF 		bl	__aeabi_d2f
 2218 007c 031C     		adds	r3, r0, #0
 2219 007e FB60     		str	r3, [r7, #12]
 552:main.c        ****             break;
 2220              		.loc 1 552 0
 2221 0080 02E0     		b	.L68
 2222              	.L70:
ARM GAS  C:\Users\13740\AppData\Local\Temp\ccN8S1qO.s 			page 61


 553:main.c        ****             
 554:main.c        ****         default:
 555:main.c        ****             concentration = 0;
 2223              		.loc 1 555 0
 2224 0082 0023     		movs	r3, #0
 2225 0084 FB60     		str	r3, [r7, #12]
 556:main.c        ****             break;
 2226              		.loc 1 556 0
 2227 0086 C046     		nop
 2228              	.L68:
 557:main.c        ****     }
 558:main.c        ****     
 559:main.c        ****     return concentration;
 2229              		.loc 1 559 0
 2230 0088 FB68     		ldr	r3, [r7, #12]
 560:main.c        **** }
 2231              		.loc 1 560 0
 2232 008a 181C     		adds	r0, r3, #0
 2233 008c BD46     		mov	sp, r7
 2234 008e 05B0     		add	sp, sp, #20
 2235              		@ sp needed
 2236 0090 90BD     		pop	{r4, r7, pc}
 2237              	.L72:
 2238 0092 C046     		.align	2
 2239              	.L71:
 2240 0094 D7A3703D 		.word	1030792151
 2241 0098 0A573040 		.word	1076909834
 2242 009c B81E85EB 		.word	-343597384
 2243 00a0 51B84440 		.word	1078245457
 2244 00a4 33333333 		.word	858993459
 2245 00a8 33B36740 		.word	1080537907
 2246              		.cfi_endproc
 2247              	.LFE43:
 2248              		.size	ConvertCurrentToConcentration, .-ConvertCurrentToConcentration
 2249              		.section	.text.MeasureTemperature,"ax",%progbits
 2250              		.align	2
 2251              		.global	MeasureTemperature
 2252              		.code	16
 2253              		.thumb_func
 2254              		.type	MeasureTemperature, %function
 2255              	MeasureTemperature:
 2256              	.LFB44:
 561:main.c        **** 
 562:main.c        **** /*******************************************************************************
 563:main.c        **** * Function Name: MeasureTemperature
 564:main.c        **** ********************************************************************************
 565:main.c        **** * Summary:
 566:main.c        **** *   ‰ΩøÁî®AD5940ÁöÑADCÊµãÈáèÊ∏©Â∫¶‰º†ÊÑüÂô®
 567:main.c        **** *   Êõø‰ª£PSoCÁöÑADCÊ®°Âùó
 568:main.c        **** *******************************************************************************/
 569:main.c        **** float MeasureTemperature(void)
 570:main.c        **** {
 2257              		.loc 1 570 0
 2258              		.cfi_startproc
 2259              		@ args = 0, pretend = 0, frame = 8
 2260              		@ frame_needed = 1, uses_anonymous_args = 0
 2261 0000 80B5     		push	{r7, lr}
ARM GAS  C:\Users\13740\AppData\Local\Temp\ccN8S1qO.s 			page 62


 2262              		.cfi_def_cfa_offset 8
 2263              		.cfi_offset 7, -8
 2264              		.cfi_offset 14, -4
 2265 0002 82B0     		sub	sp, sp, #8
 2266              		.cfi_def_cfa_offset 16
 2267 0004 00AF     		add	r7, sp, #0
 2268              		.cfi_def_cfa_register 7
 571:main.c        ****     float temperature = 25.0;  // ÈªòËÆ§ÂÆ§Ê∏©
 2269              		.loc 1 571 0
 2270 0006 044B     		ldr	r3, .L75
 2271 0008 7B60     		str	r3, [r7, #4]
 572:main.c        ****     uint32_t adcCode;
 573:main.c        ****     float voltage, resistance;
 574:main.c        ****     
 575:main.c        ****     
 576:main.c        ****     // ÊñπÊ≥ï1: ‰ΩøÁî®AD5940ÁöÑËæÖÂä©ADCÔºàAUX ADCÔºâÊµãÈáèÊ∏©Â∫¶‰º†ÊÑüÂô®
 577:main.c        ****     // Ê≥®ÊÑèÔºöÈúÄË¶ÅÈÖçÁΩÆAD5940ÁöÑGPIOÊàñËÄÖAUXËæìÂÖ•Êù•ËøûÊé•Ê∏©Â∫¶‰º†ÊÑüÂô®
 578:main.c        ****     
 579:main.c        ****     // ËøôÈáåÊèê‰æõ‰∏Ä‰∏™ÁÆÄÂåñÁöÑÂÆûÁé∞
 580:main.c        ****     // ÂÆûÈôÖÂ∫îÁî®‰∏≠Ôºå‰Ω†ÈúÄË¶ÅÔºö
 581:main.c        ****     // 1. ÈÖçÁΩÆAD5940ÁöÑGPIO/AUX‰∏∫ADCËæìÂÖ•
 582:main.c        ****     // 2. ËØªÂèñADCÂÄº
 583:main.c        ****     // 3. ËΩ¨Êç¢‰∏∫Ê∏©Â∫¶
 584:main.c        ****     
 585:main.c        ****     // Á§∫‰æã‰ª£Á†ÅÔºàÈúÄË¶ÅÊ†πÊçÆÂÆûÈôÖÁ°¨‰ª∂Ë∞ÉÊï¥Ôºâ:
 586:main.c        ****     /*
 587:main.c        ****     AD5940_StructInit(&ADCInit, sizeof(ADCInit));
 588:main.c        ****     ADCInit.ADCMuxP = ADCMUXP_AIN2;  // ÂÅáËÆæÊ∏©Â∫¶‰º†ÊÑüÂô®ËøûÊé•Âà∞AIN2
 589:main.c        ****     ADCInit.ADCMuxN = ADCMUXN_VSET1P1;
 590:main.c        ****     AD5940_ADCInit(&ADCInit);
 591:main.c        ****     
 592:main.c        ****     AD5940_ADCStart();
 593:main.c        ****     CyDelay(10);
 594:main.c        ****     adcCode = AD5940_ReadADC();
 595:main.c        ****     
 596:main.c        ****     voltage = (adcCode * 1.82) / 32768.0;  // ËΩ¨Êç¢‰∏∫ÁîµÂéã
 597:main.c        ****     resistance = 1000.0 * voltage / (3.3 - voltage);  // ÂÅáËÆæÂàÜÂéãÁîµË∑Ø
 598:main.c        ****     temperature = 25.0 + (resistance - 1000.0) / (1000.0 * 0.0021);
 599:main.c        ****     */
 600:main.c        ****     
 601:main.c        ****     // ‰∏¥Êó∂ÊñπÊ°àÔºö‰ªéÁ≥ªÁªüËØªÂèñÊàñ‰ΩøÁî®Âõ∫ÂÆöÂÄº
 602:main.c        ****     temperature = 37.0;  // ÂÅáËÆæ‰ΩìÊ∏©
 2272              		.loc 1 602 0
 2273 000a 044B     		ldr	r3, .L75+4
 2274 000c 7B60     		str	r3, [r7, #4]
 603:main.c        ****     
 604:main.c        ****     
 605:main.c        ****     return temperature;
 2275              		.loc 1 605 0
 2276 000e 7B68     		ldr	r3, [r7, #4]
 606:main.c        **** }
 2277              		.loc 1 606 0
 2278 0010 181C     		adds	r0, r3, #0
 2279 0012 BD46     		mov	sp, r7
 2280 0014 02B0     		add	sp, sp, #8
 2281              		@ sp needed
 2282 0016 80BD     		pop	{r7, pc}
ARM GAS  C:\Users\13740\AppData\Local\Temp\ccN8S1qO.s 			page 63


 2283              	.L76:
 2284              		.align	2
 2285              	.L75:
 2286 0018 0000C841 		.word	1103626240
 2287 001c 00001442 		.word	1108606976
 2288              		.cfi_endproc
 2289              	.LFE44:
 2290              		.size	MeasureTemperature, .-MeasureTemperature
 2291              		.section	.text.ReadCurrentFromAD5940,"ax",%progbits
 2292              		.align	2
 2293              		.global	ReadCurrentFromAD5940
 2294              		.code	16
 2295              		.thumb_func
 2296              		.type	ReadCurrentFromAD5940, %function
 2297              	ReadCurrentFromAD5940:
 2298              	.LFB45:
 607:main.c        **** 
 608:main.c        **** 
 609:main.c        **** /*******************************************************************************
 610:main.c        **** * Function Name: ReadCurrentFromAD5940
 611:main.c        **** ********************************************************************************
 612:main.c        **** * Summary:
 613:main.c        **** *   ‰ªé AD5940 ËØªÂèñÂÆûÈôÖÁîµÊµÅÂÄºÔºàÂÆâÂüπÊ≥ïÊµãÈáèÔºâ
 614:main.c        **** *   
 615:main.c        **** * Parameters:
 616:main.c        **** *   sensorType: ‰º†ÊÑüÂô®Á±ªÂûãÔºàGLUCOSE, LACTATE, URIC_ACIDÔºâ
 617:main.c        **** *
 618:main.c        **** * Return:
 619:main.c        **** *   float: ÁîµÊµÅÂÄºÔºàÂçï‰ΩçÔºönAÔºâ
 620:main.c        **** *******************************************************************************/
 621:main.c        **** float ReadCurrentFromAD5940(AmperometricSensor_t sensorType)
 622:main.c        **** {
 2299              		.loc 1 622 0
 2300              		.cfi_startproc
 2301              		@ args = 0, pretend = 0, frame = 24
 2302              		@ frame_needed = 1, uses_anonymous_args = 0
 2303 0000 80B5     		push	{r7, lr}
 2304              		.cfi_def_cfa_offset 8
 2305              		.cfi_offset 7, -8
 2306              		.cfi_offset 14, -4
 2307 0002 86B0     		sub	sp, sp, #24
 2308              		.cfi_def_cfa_offset 32
 2309 0004 00AF     		add	r7, sp, #0
 2310              		.cfi_def_cfa_register 7
 2311 0006 0200     		movs	r2, r0
 2312 0008 FB1D     		adds	r3, r7, #7
 2313 000a 1A70     		strb	r2, [r3]
 623:main.c        ****     float current_nA = 0;
 2314              		.loc 1 623 0
 2315 000c 0023     		movs	r3, #0
 2316 000e 7B61     		str	r3, [r7, #20]
 624:main.c        ****     uint32_t dataCount = 0;
 2317              		.loc 1 624 0
 2318 0010 0023     		movs	r3, #0
 2319 0012 BB60     		str	r3, [r7, #8]
 625:main.c        ****     AD5940Err error;
 626:main.c        ****     static uint32_t ampFifoBuffer[256];  // Â≠òÂÇ®FIFOÊï∞ÊçÆÁöÑÁºìÂÜ≤Âå∫
ARM GAS  C:\Users\13740\AppData\Local\Temp\ccN8S1qO.s 			page 64


 627:main.c        ****     
 628:main.c        ****     // 1. ÈÖçÁΩÆ AD5940 ‰∏∫ÂÆâÂüπÊ≥ïÊµãÈáèÊ®°Âºè
 629:main.c        ****     AppAMPGetCfg(&pAmpCfg);
 2320              		.loc 1 629 0
 2321 0014 494B     		ldr	r3, .L90
 2322 0016 1800     		movs	r0, r3
 2323 0018 FFF7FEFF 		bl	AppAMPGetCfg
 630:main.c        ****     
 631:main.c        ****     // Ê†πÊçÆ‰º†ÊÑüÂô®Á±ªÂûãËÆæÁΩÆÂ∑•‰ΩúÁîµÊûÅ
 632:main.c        ****     switch(sensorType)
 2324              		.loc 1 632 0
 2325 001c FB1D     		adds	r3, r7, #7
 2326 001e 1B78     		ldrb	r3, [r3]
 2327 0020 012B     		cmp	r3, #1
 2328 0022 0DD0     		beq	.L79
 2329 0024 022B     		cmp	r3, #2
 2330 0026 15D0     		beq	.L80
 2331 0028 002B     		cmp	r3, #0
 2332 002a 1DD1     		bne	.L78
 633:main.c        ****     {
 634:main.c        ****         case SENSOR_GLUCOSE:
 635:main.c        ****             AMP1_EN_Write(1);  // ÂêØÁî®ÈÄöÈÅì1
 2333              		.loc 1 635 0
 2334 002c 0120     		movs	r0, #1
 2335 002e FFF7FEFF 		bl	AMP1_EN_Write
 636:main.c        ****             AMP2_EN_Write(0);
 2336              		.loc 1 636 0
 2337 0032 0020     		movs	r0, #0
 2338 0034 FFF7FEFF 		bl	AMP2_EN_Write
 637:main.c        ****             AMP3_EN_Write(0);
 2339              		.loc 1 637 0
 2340 0038 0020     		movs	r0, #0
 2341 003a FFF7FEFF 		bl	AMP3_EN_Write
 638:main.c        ****             break;
 2342              		.loc 1 638 0
 2343 003e 13E0     		b	.L78
 2344              	.L79:
 639:main.c        ****             
 640:main.c        ****         case SENSOR_LACTATE:
 641:main.c        ****             AMP1_EN_Write(0);
 2345              		.loc 1 641 0
 2346 0040 0020     		movs	r0, #0
 2347 0042 FFF7FEFF 		bl	AMP1_EN_Write
 642:main.c        ****             AMP2_EN_Write(1);  // ÂêØÁî®ÈÄöÈÅì2
 2348              		.loc 1 642 0
 2349 0046 0120     		movs	r0, #1
 2350 0048 FFF7FEFF 		bl	AMP2_EN_Write
 643:main.c        ****             AMP3_EN_Write(0);
 2351              		.loc 1 643 0
 2352 004c 0020     		movs	r0, #0
 2353 004e FFF7FEFF 		bl	AMP3_EN_Write
 644:main.c        ****             break;
 2354              		.loc 1 644 0
 2355 0052 09E0     		b	.L78
 2356              	.L80:
 645:main.c        ****             
 646:main.c        ****         case SENSOR_URIC_ACID:
ARM GAS  C:\Users\13740\AppData\Local\Temp\ccN8S1qO.s 			page 65


 647:main.c        ****             AMP1_EN_Write(0);
 2357              		.loc 1 647 0
 2358 0054 0020     		movs	r0, #0
 2359 0056 FFF7FEFF 		bl	AMP1_EN_Write
 648:main.c        ****             AMP2_EN_Write(0);
 2360              		.loc 1 648 0
 2361 005a 0020     		movs	r0, #0
 2362 005c FFF7FEFF 		bl	AMP2_EN_Write
 649:main.c        ****             AMP3_EN_Write(1);  // ÂêØÁî®ÈÄöÈÅì3
 2363              		.loc 1 649 0
 2364 0060 0120     		movs	r0, #1
 2365 0062 FFF7FEFF 		bl	AMP3_EN_Write
 650:main.c        ****             break;
 2366              		.loc 1 650 0
 2367 0066 C046     		nop
 2368              	.L78:
 651:main.c        ****     }
 652:main.c        ****     
 653:main.c        ****     CyDelay(50);  // Á≠âÂæÖÈÄöÈÅìÂàáÊç¢Á®≥ÂÆö
 2369              		.loc 1 653 0
 2370 0068 3220     		movs	r0, #50
 2371 006a FFF7FEFF 		bl	CyDelay
 654:main.c        ****     
 655:main.c        ****     // 2. ÂêØÂä®ÊµãÈáè
 656:main.c        ****     error = AppAMPCtrl(AMPCTRL_START, NULL);
 2372              		.loc 1 656 0
 2373 006e 0021     		movs	r1, #0
 2374 0070 0020     		movs	r0, #0
 2375 0072 FFF7FEFF 		bl	AppAMPCtrl
 2376 0076 0300     		movs	r3, r0
 2377 0078 3B61     		str	r3, [r7, #16]
 657:main.c        ****     if(error != AD5940ERR_OK)
 2378              		.loc 1 657 0
 2379 007a 3B69     		ldr	r3, [r7, #16]
 2380 007c 002B     		cmp	r3, #0
 2381 007e 01D0     		beq	.L82
 658:main.c        ****     {
 659:main.c        ****         return 0;
 2382              		.loc 1 659 0
 2383 0080 0023     		movs	r3, #0
 2384 0082 56E0     		b	.L89
 2385              	.L82:
 660:main.c        ****     }
 661:main.c        ****     
 662:main.c        ****     // 3. Á≠âÂæÖÊµãÈáèÁ®≥ÂÆöÔºàÂÆâÂüπÊ≥ïÈúÄË¶Å 500msÔºâ
 663:main.c        ****     CyDelay(500);
 2386              		.loc 1 663 0
 2387 0084 FA23     		movs	r3, #250
 2388 0086 5B00     		lsls	r3, r3, #1
 2389 0088 1800     		movs	r0, r3
 2390 008a FFF7FEFF 		bl	CyDelay
 664:main.c        ****     
 665:main.c        ****     // 4. ËØªÂèñ FIFO Êï∞ÊçÆ
 666:main.c        ****     // Á¨¨‰∏Ä‰∏™ÂèÇÊï∞ÔºöÊåáÂêëFIFOÊï∞ÊçÆÁºìÂÜ≤Âå∫ÔºåAppAMPISR‰ºöÂ∞ÜADC‰ª£Á†ÅËØªÂà∞ËøôÈáåÔºåÁÑ∂ÂêéË
 667:main.c        ****     // Á¨¨‰∫å‰∏™ÂèÇÊï∞ÔºöÊåáÂêëÊï∞ÊçÆËÆ°Êï∞ÔºåËøîÂõûËØªÂèñÁöÑÊï∞ÊçÆÁÇπÊï∞
 668:main.c        ****     error = AppAMPISR(ampFifoBuffer, &dataCount);
 2391              		.loc 1 668 0
ARM GAS  C:\Users\13740\AppData\Local\Temp\ccN8S1qO.s 			page 66


 2392 008e 0823     		movs	r3, #8
 2393 0090 FA18     		adds	r2, r7, r3
 2394 0092 2B4B     		ldr	r3, .L90+4
 2395 0094 1100     		movs	r1, r2
 2396 0096 1800     		movs	r0, r3
 2397 0098 FFF7FEFF 		bl	AppAMPISR
 2398 009c 0300     		movs	r3, r0
 2399 009e 3B61     		str	r3, [r7, #16]
 669:main.c        ****     
 670:main.c        ****     if(error == AD5940ERR_OK && dataCount > 0)
 2400              		.loc 1 670 0
 2401 00a0 3B69     		ldr	r3, [r7, #16]
 2402 00a2 002B     		cmp	r3, #0
 2403 00a4 0DD1     		bne	.L84
 2404              		.loc 1 670 0 is_stmt 0 discriminator 1
 2405 00a6 BB68     		ldr	r3, [r7, #8]
 2406 00a8 002B     		cmp	r3, #0
 2407 00aa 0AD0     		beq	.L84
 2408              	.LBB2:
 671:main.c        ****     {
 672:main.c        ****         // 5. ‰ªéÁºìÂÜ≤Âå∫‰∏≠ÊèêÂèñÁîµÊµÅÂÄº
 673:main.c        ****         // AppAMPDataProcess Â∑≤ÁªèÂ∞ÜADCÂÄºËΩ¨Êç¢‰∏∫ÁîµÊµÅÂÄºÔºàfloatÔºâ
 674:main.c        ****         // ÁªìÊûúÂ≠òÂÇ®Âú® ampFifoBuffer ‰∏≠ÔºàÂ∑≤ËΩ¨Êç¢‰∏∫floatÊåáÈíàÔºâ
 675:main.c        ****         float *pCurrentData = (float *)ampFifoBuffer;
 2409              		.loc 1 675 0 is_stmt 1
 2410 00ac 244B     		ldr	r3, .L90+4
 2411 00ae FB60     		str	r3, [r7, #12]
 676:main.c        ****         
 677:main.c        ****         // ÂèñÁ¨¨‰∏Ä‰∏™Ê†∑Êú¨ÁöÑÁîµÊµÅÂÄºÔºàÂçï‰ΩçÔºöAÔºâ
 678:main.c        ****         current_nA = pCurrentData[0] * 1e9;  // ËΩ¨Êç¢‰∏∫ nA
 2412              		.loc 1 678 0
 2413 00b0 FB68     		ldr	r3, [r7, #12]
 2414 00b2 1B68     		ldr	r3, [r3]
 2415 00b4 2349     		ldr	r1, .L90+8
 2416 00b6 181C     		adds	r0, r3, #0
 2417 00b8 FFF7FEFF 		bl	__aeabi_fmul
 2418 00bc 031C     		adds	r3, r0, #0
 2419 00be 7B61     		str	r3, [r7, #20]
 2420              	.LBE2:
 671:main.c        ****     {
 2421              		.loc 1 671 0
 2422 00c0 01E0     		b	.L85
 2423              	.L84:
 679:main.c        ****         
 680:main.c        ****     }
 681:main.c        ****     else
 682:main.c        ****     {
 683:main.c        ****         current_nA = 0;
 2424              		.loc 1 683 0
 2425 00c2 0023     		movs	r3, #0
 2426 00c4 7B61     		str	r3, [r7, #20]
 2427              	.L85:
 684:main.c        ****     }
 685:main.c        ****     
 686:main.c        ****     // 6. ÂÅúÊ≠¢ÊµãÈáè
 687:main.c        ****     AppAMPCtrl(AMPCTRL_STOPNOW, NULL);
 2428              		.loc 1 687 0
ARM GAS  C:\Users\13740\AppData\Local\Temp\ccN8S1qO.s 			page 67


 2429 00c6 0021     		movs	r1, #0
 2430 00c8 0120     		movs	r0, #1
 2431 00ca FFF7FEFF 		bl	AppAMPCtrl
 688:main.c        ****     
 689:main.c        **** 
 690:main.c        ****     
 691:main.c        ****     
 692:main.c        ****     
 693:main.c        **** 
 694:main.c        ****     CyDelay(50);  // Á≠âÂæÖÈÄöÈÅìÂàáÊç¢Á®≥ÂÆö
 2432              		.loc 1 694 0
 2433 00ce 3220     		movs	r0, #50
 2434 00d0 FFF7FEFF 		bl	CyDelay
 695:main.c        ****     
 696:main.c        ****     // 2. ÂêØÂä®ÊµãÈáè
 697:main.c        ****     error = AppAMPCtrl(AMPCTRL_START, NULL);
 2435              		.loc 1 697 0
 2436 00d4 0021     		movs	r1, #0
 2437 00d6 0020     		movs	r0, #0
 2438 00d8 FFF7FEFF 		bl	AppAMPCtrl
 2439 00dc 0300     		movs	r3, r0
 2440 00de 3B61     		str	r3, [r7, #16]
 698:main.c        ****     if(error != AD5940ERR_OK)
 2441              		.loc 1 698 0
 2442 00e0 3B69     		ldr	r3, [r7, #16]
 2443 00e2 002B     		cmp	r3, #0
 2444 00e4 01D0     		beq	.L86
 699:main.c        ****     {
 700:main.c        ****         return 0;
 2445              		.loc 1 700 0
 2446 00e6 0023     		movs	r3, #0
 2447 00e8 23E0     		b	.L89
 2448              	.L86:
 701:main.c        ****     }
 702:main.c        ****     
 703:main.c        ****     // 3. Á≠âÂæÖÊµãÈáèÁ®≥ÂÆöÔºàÂÆâÂüπÊ≥ïÈúÄË¶Å 500msÔºâ
 704:main.c        ****     CyDelay(500);
 2449              		.loc 1 704 0
 2450 00ea FA23     		movs	r3, #250
 2451 00ec 5B00     		lsls	r3, r3, #1
 2452 00ee 1800     		movs	r0, r3
 2453 00f0 FFF7FEFF 		bl	CyDelay
 705:main.c        ****     
 706:main.c        ****     // 4. ËØªÂèñ FIFO Êï∞ÊçÆ
 707:main.c        ****     error = AppAMPISR(&ampResult, &dataCount);
 2454              		.loc 1 707 0
 2455 00f4 0823     		movs	r3, #8
 2456 00f6 FA18     		adds	r2, r7, r3
 2457 00f8 134B     		ldr	r3, .L90+12
 2458 00fa 1100     		movs	r1, r2
 2459 00fc 1800     		movs	r0, r3
 2460 00fe FFF7FEFF 		bl	AppAMPISR
 2461 0102 0300     		movs	r3, r0
 2462 0104 3B61     		str	r3, [r7, #16]
 708:main.c        ****     
 709:main.c        ****     if(error == AD5940ERR_OK && dataCount > 0)
 2463              		.loc 1 709 0
ARM GAS  C:\Users\13740\AppData\Local\Temp\ccN8S1qO.s 			page 68


 2464 0106 3B69     		ldr	r3, [r7, #16]
 2465 0108 002B     		cmp	r3, #0
 2466 010a 0BD1     		bne	.L87
 2467              		.loc 1 709 0 is_stmt 0 discriminator 1
 2468 010c BB68     		ldr	r3, [r7, #8]
 2469 010e 002B     		cmp	r3, #0
 2470 0110 08D0     		beq	.L87
 710:main.c        ****     {
 711:main.c        ****         // 5. ‰ªéÁªìÊûú‰∏≠ÊèêÂèñÁîµÊµÅÂÄº
 712:main.c        ****         current_nA = ampResult.Current * 1e9;  // ËΩ¨Êç¢‰∏∫ nA
 2471              		.loc 1 712 0 is_stmt 1
 2472 0112 0D4B     		ldr	r3, .L90+12
 2473 0114 1B68     		ldr	r3, [r3]
 2474 0116 0B49     		ldr	r1, .L90+8
 2475 0118 181C     		adds	r0, r3, #0
 2476 011a FFF7FEFF 		bl	__aeabi_fmul
 2477 011e 031C     		adds	r3, r0, #0
 2478 0120 7B61     		str	r3, [r7, #20]
 2479 0122 01E0     		b	.L88
 2480              	.L87:
 713:main.c        ****         
 714:main.c        ****     }
 715:main.c        ****     else
 716:main.c        ****     {
 717:main.c        ****         current_nA = 0;
 2481              		.loc 1 717 0
 2482 0124 0023     		movs	r3, #0
 2483 0126 7B61     		str	r3, [r7, #20]
 2484              	.L88:
 718:main.c        ****     }
 719:main.c        ****     
 720:main.c        ****     // 6. ÂÅúÊ≠¢ÊµãÈáè
 721:main.c        ****     AppAMPCtrl(AMPCTRL_STOPNOW, NULL);
 2485              		.loc 1 721 0
 2486 0128 0021     		movs	r1, #0
 2487 012a 0120     		movs	r0, #1
 2488 012c FFF7FEFF 		bl	AppAMPCtrl
 722:main.c        ****     
 723:main.c        ****     return current_nA;
 2489              		.loc 1 723 0
 2490 0130 7B69     		ldr	r3, [r7, #20]
 2491              	.L89:
 724:main.c        **** }
 2492              		.loc 1 724 0 discriminator 1
 2493 0132 181C     		adds	r0, r3, #0
 2494 0134 BD46     		mov	sp, r7
 2495 0136 06B0     		add	sp, sp, #24
 2496              		@ sp needed
 2497 0138 80BD     		pop	{r7, pc}
 2498              	.L91:
 2499 013a C046     		.align	2
 2500              	.L90:
 2501 013c 00000000 		.word	pAmpCfg
 2502 0140 2C000000 		.word	ampFifoBuffer.9723
 2503 0144 286B6E4E 		.word	1315859240
 2504 0148 00000000 		.word	ampResult
 2505              		.cfi_endproc
ARM GAS  C:\Users\13740\AppData\Local\Temp\ccN8S1qO.s 			page 69


 2506              	.LFE45:
 2507              		.size	ReadCurrentFromAD5940, .-ReadCurrentFromAD5940
 2508              		.global	__aeabi_idivmod
 2509              		.global	__aeabi_i2d
 2510              		.global	__aeabi_dadd
 2511              		.section	.text.ReadCurrentFromSourceMeter_Simulated,"ax",%progbits
 2512              		.align	2
 2513              		.global	ReadCurrentFromSourceMeter_Simulated
 2514              		.code	16
 2515              		.thumb_func
 2516              		.type	ReadCurrentFromSourceMeter_Simulated, %function
 2517              	ReadCurrentFromSourceMeter_Simulated:
 2518              	.LFB46:
 725:main.c        **** 
 726:main.c        **** /*******************************************************************************
 727:main.c        **** * Function Name: ReadCurrentFromSourceMeter_Simulated
 728:main.c        **** ********************************************************************************
 729:main.c        **** * Summary:
 730:main.c        **** *   Ê®°Êãü‰ªéÊ∫êË°®ËØªÂèñÁîµÊµÅÂÄºÔºàÁî®‰∫éÊµãËØïÔºâ
 731:main.c        **** *   ÂÆûÈôÖ‰ΩøÁî®Êó∂ÊõøÊç¢‰∏∫ÁúüÂÆûÁöÑÊ∫êË°®ËØªÂèñ‰ª£Á†Å
 732:main.c        **** *
 733:main.c        **** * Return:
 734:main.c        **** *   float: ÁîµÊµÅÂÄºÔºàÂçï‰ΩçÔºönAÔºâ
 735:main.c        **** *******************************************************************************/
 736:main.c        **** float ReadCurrentFromSourceMeter_Simulated(AmperometricSensor_t sensorType)
 737:main.c        **** {
 2519              		.loc 1 737 0
 2520              		.cfi_startproc
 2521              		@ args = 0, pretend = 0, frame = 16
 2522              		@ frame_needed = 1, uses_anonymous_args = 0
 2523 0000 90B5     		push	{r4, r7, lr}
 2524              		.cfi_def_cfa_offset 12
 2525              		.cfi_offset 4, -12
 2526              		.cfi_offset 7, -8
 2527              		.cfi_offset 14, -4
 2528 0002 85B0     		sub	sp, sp, #20
 2529              		.cfi_def_cfa_offset 32
 2530 0004 00AF     		add	r7, sp, #0
 2531              		.cfi_def_cfa_register 7
 2532 0006 0200     		movs	r2, r0
 2533 0008 FB1D     		adds	r3, r7, #7
 2534 000a 1A70     		strb	r2, [r3]
 738:main.c        ****     float current_nA = 0;
 2535              		.loc 1 738 0
 2536 000c 0023     		movs	r3, #0
 2537 000e FB60     		str	r3, [r7, #12]
 739:main.c        ****     
 740:main.c        ****     // Ê®°Êãü‰∏çÂêå‰º†ÊÑüÂô®ÁöÑÂÖ∏ÂûãÁîµÊµÅÂìçÂ∫î
 741:main.c        ****     switch(sensorType)
 2538              		.loc 1 741 0
 2539 0010 FB1D     		adds	r3, r7, #7
 2540 0012 1B78     		ldrb	r3, [r3]
 2541 0014 012B     		cmp	r3, #1
 2542 0016 1CD0     		beq	.L94
 2543 0018 022B     		cmp	r3, #2
 2544 001a 33D0     		beq	.L95
 2545 001c 002B     		cmp	r3, #0
ARM GAS  C:\Users\13740\AppData\Local\Temp\ccN8S1qO.s 			page 70


 2546 001e 4AD1     		bne	.L99
 2547              	.LBB3:
 742:main.c        ****     {
 743:main.c        ****         case SENSOR_GLUCOSE:
 744:main.c        ****             // 5 mM Ëë°ËêÑÁ≥ñ ‚Üí Á∫¶ 80 nAÔºàÊ†πÊçÆËÆ∫ÊñáÊ†°ÂáÜÁ≥ªÊï∞ 16.34 nA/mMÔºâ
 745:main.c        ****             current_nA = 85.0 + (rand() % 10 - 5);  // 80-90 nA
 2548              		.loc 1 745 0
 2549 0020 FFF7FEFF 		bl	rand
 2550 0024 0300     		movs	r3, r0
 2551 0026 0A21     		movs	r1, #10
 2552 0028 1800     		movs	r0, r3
 2553 002a FFF7FEFF 		bl	__aeabi_idivmod
 2554 002e 0B00     		movs	r3, r1
 2555 0030 053B     		subs	r3, r3, #5
 2556 0032 1800     		movs	r0, r3
 2557 0034 FFF7FEFF 		bl	__aeabi_i2d
 2558 0038 0022     		movs	r2, #0
 2559 003a 234B     		ldr	r3, .L100
 2560 003c FFF7FEFF 		bl	__aeabi_dadd
 2561 0040 0300     		movs	r3, r0
 2562 0042 0C00     		movs	r4, r1
 2563 0044 1800     		movs	r0, r3
 2564 0046 2100     		movs	r1, r4
 2565 0048 FFF7FEFF 		bl	__aeabi_d2f
 2566 004c 031C     		adds	r3, r0, #0
 2567 004e FB60     		str	r3, [r7, #12]
 746:main.c        ****             break;
 2568              		.loc 1 746 0
 2569 0050 34E0     		b	.L97
 2570              	.L94:
 747:main.c        ****             
 748:main.c        ****         case SENSOR_LACTATE:
 749:main.c        ****             // 2 mM ‰π≥ÈÖ∏ ‚Üí Á∫¶ 100 nAÔºàÊ†πÊçÆËÆ∫ÊñáÊ†°ÂáÜÁ≥ªÊï∞ 41.44 nA/mMÔºâ
 750:main.c        ****             current_nA = 100.0 + (rand() % 10 - 5);  // 95-105 nA
 2571              		.loc 1 750 0
 2572 0052 FFF7FEFF 		bl	rand
 2573 0056 0300     		movs	r3, r0
 2574 0058 0A21     		movs	r1, #10
 2575 005a 1800     		movs	r0, r3
 2576 005c FFF7FEFF 		bl	__aeabi_idivmod
 2577 0060 0B00     		movs	r3, r1
 2578 0062 053B     		subs	r3, r3, #5
 2579 0064 1800     		movs	r0, r3
 2580 0066 FFF7FEFF 		bl	__aeabi_i2d
 2581 006a 0022     		movs	r2, #0
 2582 006c 174B     		ldr	r3, .L100+4
 2583 006e FFF7FEFF 		bl	__aeabi_dadd
 2584 0072 0300     		movs	r3, r0
 2585 0074 0C00     		movs	r4, r1
 2586 0076 1800     		movs	r0, r3
 2587 0078 2100     		movs	r1, r4
 2588 007a FFF7FEFF 		bl	__aeabi_d2f
 2589 007e 031C     		adds	r3, r0, #0
 2590 0080 FB60     		str	r3, [r7, #12]
 751:main.c        ****             break;
 2591              		.loc 1 751 0
 2592 0082 1BE0     		b	.L97
ARM GAS  C:\Users\13740\AppData\Local\Temp\ccN8S1qO.s 			page 71


 2593              	.L95:
 752:main.c        ****             
 753:main.c        ****         case SENSOR_URIC_ACID:
 754:main.c        ****             // 300 ŒºM Â∞øÈÖ∏ ‚Üí Á∫¶ 57000 nAÔºàÊ†πÊçÆËÆ∫ÊñáÊ†°ÂáÜÁ≥ªÊï∞ 189.60 nA/ŒºMÔºâ
 755:main.c        ****             //current_nA = 57000.0 + (rand() % 100 - 50);
 756:main.c        ****             current_nA = 570.0 + (rand() % 100 - 50);
 2594              		.loc 1 756 0
 2595 0084 FFF7FEFF 		bl	rand
 2596 0088 0300     		movs	r3, r0
 2597 008a 6421     		movs	r1, #100
 2598 008c 1800     		movs	r0, r3
 2599 008e FFF7FEFF 		bl	__aeabi_idivmod
 2600 0092 0B00     		movs	r3, r1
 2601 0094 323B     		subs	r3, r3, #50
 2602 0096 1800     		movs	r0, r3
 2603 0098 FFF7FEFF 		bl	__aeabi_i2d
 2604 009c 0022     		movs	r2, #0
 2605 009e 0C4B     		ldr	r3, .L100+8
 2606 00a0 FFF7FEFF 		bl	__aeabi_dadd
 2607 00a4 0300     		movs	r3, r0
 2608 00a6 0C00     		movs	r4, r1
 2609 00a8 1800     		movs	r0, r3
 2610 00aa 2100     		movs	r1, r4
 2611 00ac FFF7FEFF 		bl	__aeabi_d2f
 2612 00b0 031C     		adds	r3, r0, #0
 2613 00b2 FB60     		str	r3, [r7, #12]
 757:main.c        ****             break;
 2614              		.loc 1 757 0
 2615 00b4 02E0     		b	.L97
 2616              	.L99:
 758:main.c        ****             
 759:main.c        ****         default:
 760:main.c        ****             current_nA = 0;
 2617              		.loc 1 760 0
 2618 00b6 0023     		movs	r3, #0
 2619 00b8 FB60     		str	r3, [r7, #12]
 761:main.c        ****             break;
 2620              		.loc 1 761 0
 2621 00ba C046     		nop
 2622              	.L97:
 2623              	.LBE3:
 762:main.c        ****     }
 763:main.c        ****     
 764:main.c        **** 
 765:main.c        ****     
 766:main.c        ****     return current_nA;
 2624              		.loc 1 766 0
 2625 00bc FB68     		ldr	r3, [r7, #12]
 767:main.c        **** }
 2626              		.loc 1 767 0
 2627 00be 181C     		adds	r0, r3, #0
 2628 00c0 BD46     		mov	sp, r7
 2629 00c2 05B0     		add	sp, sp, #20
 2630              		@ sp needed
 2631 00c4 90BD     		pop	{r4, r7, pc}
 2632              	.L101:
 2633 00c6 C046     		.align	2
ARM GAS  C:\Users\13740\AppData\Local\Temp\ccN8S1qO.s 			page 72


 2634              	.L100:
 2635 00c8 00405540 		.word	1079328768
 2636 00cc 00005940 		.word	1079574528
 2637 00d0 00D08140 		.word	1082249216
 2638              		.cfi_endproc
 2639              	.LFE46:
 2640              		.size	ReadCurrentFromSourceMeter_Simulated, .-ReadCurrentFromSourceMeter_Simulated
 2641              		.global	__aeabi_dsub
 2642              		.global	__aeabi_dmul
 2643              		.section	.text.MeasureAllSensorsWithCurrent,"ax",%progbits
 2644              		.align	2
 2645              		.global	MeasureAllSensorsWithCurrent
 2646              		.code	16
 2647              		.thumb_func
 2648              		.type	MeasureAllSensorsWithCurrent, %function
 2649              	MeasureAllSensorsWithCurrent:
 2650              	.LFB47:
 768:main.c        **** 
 769:main.c        **** /*******************************************************************************
 770:main.c        **** * Function Name: MeasureAllSensorsWithCurrent
 771:main.c        **** ********************************************************************************
 772:main.c        **** * Summary:
 773:main.c        **** *   ÊµãÈáèÊâÄÊúâ‰º†ÊÑüÂô® - ÂåÖÂê´ÂÆûÈôÖÁîµÊµÅÂÄº
 774:main.c        **** *******************************************************************************/
 775:main.c        **** void MeasureAllSensorsWithCurrent(void)
 776:main.c        **** {
 2651              		.loc 1 776 0
 2652              		.cfi_startproc
 2653              		@ args = 0, pretend = 0, frame = 8
 2654              		@ frame_needed = 1, uses_anonymous_args = 0
 2655 0000 90B5     		push	{r4, r7, lr}
 2656              		.cfi_def_cfa_offset 12
 2657              		.cfi_offset 4, -12
 2658              		.cfi_offset 7, -8
 2659              		.cfi_offset 14, -4
 2660 0002 83B0     		sub	sp, sp, #12
 2661              		.cfi_def_cfa_offset 24
 2662 0004 00AF     		add	r7, sp, #0
 2663              		.cfi_def_cfa_register 7
 777:main.c        ****  
 778:main.c        ****     // 1. Ê∏©Â∫¶ÊµãÈáè
 779:main.c        ****     sensorData.temperature = MeasureTemperature();
 2664              		.loc 1 779 0
 2665 0006 FFF7FEFF 		bl	MeasureTemperature
 2666 000a 021C     		adds	r2, r0, #0
 2667 000c 3A4B     		ldr	r3, .L103
 2668 000e 1A60     		str	r2, [r3]
 780:main.c        ****     
 781:main.c        ****     // 2. Ëë°ËêÑÁ≥ñÊµãÈáè
 782:main.c        **** 
 783:main.c        ****     
 784:main.c        ****     // ÊñπÊ≥ï A: ‰ΩøÁî® AD5940 ËØªÂèñÔºàÊé®ËçêÔºâ
 785:main.c        ****    sensorData.current_glucose_nA = ReadCurrentFromAD5940(SENSOR_GLUCOSE);
 2669              		.loc 1 785 0
 2670 0010 0020     		movs	r0, #0
 2671 0012 FFF7FEFF 		bl	ReadCurrentFromAD5940
 2672 0016 021C     		adds	r2, r0, #0
ARM GAS  C:\Users\13740\AppData\Local\Temp\ccN8S1qO.s 			page 73


 2673 0018 374B     		ldr	r3, .L103
 2674 001a 5A61     		str	r2, [r3, #20]
 786:main.c        ****     
 787:main.c        ****     // ÊñπÊ≥ï B: ‰ΩøÁî®Ê®°ÊãüÂÄºÊµãËØïÔºàÊµãËØïÁî®Ôºâ
 788:main.c        ****     //sensorData.current_glucose_nA = ReadCurrentFromSourceMeter_Simulated(SENSOR_GLUCOSE);
 789:main.c        ****     
 790:main.c        ****     // ËΩ¨Êç¢‰∏∫ÊµìÂ∫¶
 791:main.c        ****     sensorData.glucose = ConvertCurrentToConcentration(sensorData.current_glucose_nA, SENSOR_GLUCOS
 2675              		.loc 1 791 0
 2676 001c 364B     		ldr	r3, .L103
 2677 001e 5B69     		ldr	r3, [r3, #20]
 2678 0020 0021     		movs	r1, #0
 2679 0022 181C     		adds	r0, r3, #0
 2680 0024 FFF7FEFF 		bl	ConvertCurrentToConcentration
 2681 0028 021C     		adds	r2, r0, #0
 2682 002a 334B     		ldr	r3, .L103
 2683 002c 5A60     		str	r2, [r3, #4]
 792:main.c        ****     
 793:main.c        ****     
 794:main.c        ****     // 3. ‰π≥ÈÖ∏ÊµãÈáè
 795:main.c        **** 
 796:main.c        ****      sensorData.current_lactate_nA = ReadCurrentFromAD5940(SENSOR_LACTATE); 
 2684              		.loc 1 796 0
 2685 002e 0120     		movs	r0, #1
 2686 0030 FFF7FEFF 		bl	ReadCurrentFromAD5940
 2687 0034 021C     		adds	r2, r0, #0
 2688 0036 304B     		ldr	r3, .L103
 2689 0038 9A61     		str	r2, [r3, #24]
 797:main.c        ****     //sensorData.current_lactate_nA = ReadCurrentFromSourceMeter_Simulated(SENSOR_LACTATE);
 798:main.c        ****     sensorData.lactate = ConvertCurrentToConcentration(sensorData.current_lactate_nA, SENSOR_LACTAT
 2690              		.loc 1 798 0
 2691 003a 2F4B     		ldr	r3, .L103
 2692 003c 9B69     		ldr	r3, [r3, #24]
 2693 003e 0121     		movs	r1, #1
 2694 0040 181C     		adds	r0, r3, #0
 2695 0042 FFF7FEFF 		bl	ConvertCurrentToConcentration
 2696 0046 021C     		adds	r2, r0, #0
 2697 0048 2B4B     		ldr	r3, .L103
 2698 004a 9A60     		str	r2, [r3, #8]
 799:main.c        ****     
 800:main.c        ****     // 4. Â∞øÈÖ∏ÊµãÈáè
 801:main.c        **** 
 802:main.c        ****     sensorData.current_uric_nA = ReadCurrentFromAD5940(SENSOR_URIC_ACID);
 2699              		.loc 1 802 0
 2700 004c 0220     		movs	r0, #2
 2701 004e FFF7FEFF 		bl	ReadCurrentFromAD5940
 2702 0052 021C     		adds	r2, r0, #0
 2703 0054 284B     		ldr	r3, .L103
 2704 0056 DA61     		str	r2, [r3, #28]
 803:main.c        ****     //sensorData.uric_acid = ConvertCurrentToConcentration(sensorData.current_uric_nA,SENSOR_URIC_A
 804:main.c        ****     // [‰øÆÊîπ] ÂàáÊç¢‰∏∫Ê®°ÊãüÊï∞ÊçÆ
 805:main.c        ****     // sensorData.current_uric_acid_nA = ReadCurrentFromAD5940(SENSOR_URIC_ACID);
 806:main.c        ****     //sensorData.current_uric_nA = ReadCurrentFromSourceMeter_Simulated(SENSOR_URIC_ACID); 
 807:main.c        ****     // [Â¢ûÂä†] ÁîµÊµÅÊç¢ÁÆóÂà∞ÊµìÂ∫¶
 808:main.c        ****     sensorData.uric_acid = ConvertCurrentToConcentration(sensorData.current_uric_nA, SENSOR_URIC_AC
 2705              		.loc 1 808 0
 2706 0058 274B     		ldr	r3, .L103
ARM GAS  C:\Users\13740\AppData\Local\Temp\ccN8S1qO.s 			page 74


 2707 005a DB69     		ldr	r3, [r3, #28]
 2708 005c 0221     		movs	r1, #2
 2709 005e 181C     		adds	r0, r3, #0
 2710 0060 FFF7FEFF 		bl	ConvertCurrentToConcentration
 2711 0064 021C     		adds	r2, r0, #0
 2712 0066 244B     		ldr	r3, .L103
 2713 0068 DA60     		str	r2, [r3, #12]
 809:main.c        **** 
 810:main.c        ****     
 811:main.c        **** 
 812:main.c        ****     
 813:main.c        ****     // 6. Ê∏©Â∫¶Ê†°ÂáÜ
 814:main.c        ****     float temp_factor = 1.0 + 0.03 * (sensorData.temperature - 37.0);
 2714              		.loc 1 814 0
 2715 006a 234B     		ldr	r3, .L103
 2716 006c 1B68     		ldr	r3, [r3]
 2717 006e 181C     		adds	r0, r3, #0
 2718 0070 FFF7FEFF 		bl	__aeabi_f2d
 2719 0074 0022     		movs	r2, #0
 2720 0076 214B     		ldr	r3, .L103+4
 2721 0078 FFF7FEFF 		bl	__aeabi_dsub
 2722 007c 0300     		movs	r3, r0
 2723 007e 0C00     		movs	r4, r1
 2724 0080 1800     		movs	r0, r3
 2725 0082 2100     		movs	r1, r4
 2726 0084 1E4A     		ldr	r2, .L103+8
 2727 0086 1F4B     		ldr	r3, .L103+12
 2728 0088 FFF7FEFF 		bl	__aeabi_dmul
 2729 008c 0300     		movs	r3, r0
 2730 008e 0C00     		movs	r4, r1
 2731 0090 1800     		movs	r0, r3
 2732 0092 2100     		movs	r1, r4
 2733 0094 0022     		movs	r2, #0
 2734 0096 1C4B     		ldr	r3, .L103+16
 2735 0098 FFF7FEFF 		bl	__aeabi_dadd
 2736 009c 0300     		movs	r3, r0
 2737 009e 0C00     		movs	r4, r1
 2738 00a0 1800     		movs	r0, r3
 2739 00a2 2100     		movs	r1, r4
 2740 00a4 FFF7FEFF 		bl	__aeabi_d2f
 2741 00a8 031C     		adds	r3, r0, #0
 2742 00aa 7B60     		str	r3, [r7, #4]
 815:main.c        ****     sensorData.glucose *= temp_factor;
 2743              		.loc 1 815 0
 2744 00ac 124B     		ldr	r3, .L103
 2745 00ae 5B68     		ldr	r3, [r3, #4]
 2746 00b0 7968     		ldr	r1, [r7, #4]
 2747 00b2 181C     		adds	r0, r3, #0
 2748 00b4 FFF7FEFF 		bl	__aeabi_fmul
 2749 00b8 031C     		adds	r3, r0, #0
 2750 00ba 1A1C     		adds	r2, r3, #0
 2751 00bc 0E4B     		ldr	r3, .L103
 2752 00be 5A60     		str	r2, [r3, #4]
 816:main.c        ****     sensorData.lactate *= temp_factor;
 2753              		.loc 1 816 0
 2754 00c0 0D4B     		ldr	r3, .L103
 2755 00c2 9B68     		ldr	r3, [r3, #8]
ARM GAS  C:\Users\13740\AppData\Local\Temp\ccN8S1qO.s 			page 75


 2756 00c4 7968     		ldr	r1, [r7, #4]
 2757 00c6 181C     		adds	r0, r3, #0
 2758 00c8 FFF7FEFF 		bl	__aeabi_fmul
 2759 00cc 031C     		adds	r3, r0, #0
 2760 00ce 1A1C     		adds	r2, r3, #0
 2761 00d0 094B     		ldr	r3, .L103
 2762 00d2 9A60     		str	r2, [r3, #8]
 817:main.c        ****     sensorData.uric_acid *= temp_factor;
 2763              		.loc 1 817 0
 2764 00d4 084B     		ldr	r3, .L103
 2765 00d6 DB68     		ldr	r3, [r3, #12]
 2766 00d8 7968     		ldr	r1, [r7, #4]
 2767 00da 181C     		adds	r0, r3, #0
 2768 00dc FFF7FEFF 		bl	__aeabi_fmul
 2769 00e0 031C     		adds	r3, r0, #0
 2770 00e2 1A1C     		adds	r2, r3, #0
 2771 00e4 044B     		ldr	r3, .L103
 2772 00e6 DA60     		str	r2, [r3, #12]
 818:main.c        ****     
 819:main.c        ****     sensorData.timestamp = mainTimer;
 2773              		.loc 1 819 0
 2774 00e8 084B     		ldr	r3, .L103+20
 2775 00ea 1A68     		ldr	r2, [r3]
 2776 00ec 024B     		ldr	r3, .L103
 2777 00ee 1A61     		str	r2, [r3, #16]
 820:main.c        ****     
 821:main.c        **** }
 2778              		.loc 1 821 0
 2779 00f0 C046     		nop
 2780 00f2 BD46     		mov	sp, r7
 2781 00f4 03B0     		add	sp, sp, #12
 2782              		@ sp needed
 2783 00f6 90BD     		pop	{r4, r7, pc}
 2784              	.L104:
 2785              		.align	2
 2786              	.L103:
 2787 00f8 00000000 		.word	sensorData
 2788 00fc 00804240 		.word	1078099968
 2789 0100 B81E85EB 		.word	-343597384
 2790 0104 51B89E3F 		.word	1067366481
 2791 0108 0000F03F 		.word	1072693248
 2792 010c 00000000 		.word	mainTimer
 2793              		.cfi_endproc
 2794              	.LFE47:
 2795              		.size	MeasureAllSensorsWithCurrent, .-MeasureAllSensorsWithCurrent
 2796              		.section	.text.ControlDrugRelease,"ax",%progbits
 2797              		.align	2
 2798              		.global	ControlDrugRelease
 2799              		.code	16
 2800              		.thumb_func
 2801              		.type	ControlDrugRelease, %function
 2802              	ControlDrugRelease:
 2803              	.LFB48:
 822:main.c        **** 
 823:main.c        **** 
 824:main.c        **** /*******************************************************************************
 825:main.c        **** * Function Name: ControlDrugRelease
ARM GAS  C:\Users\13740\AppData\Local\Temp\ccN8S1qO.s 			page 76


 826:main.c        **** ********************************************************************************
 827:main.c        **** * Summary:
 828:main.c        **** *   ÊéßÂà∂ËçØÁâ©ÈáäÊîæÔºàÁîµÊéßÊ∞¥ÂáùËÉ∂Ôºâ
 829:main.c        **** *******************************************************************************/
 830:main.c        **** void ControlDrugRelease(uint8 enable)
 831:main.c        **** {
 2804              		.loc 1 831 0
 2805              		.cfi_startproc
 2806              		@ args = 0, pretend = 0, frame = 8
 2807              		@ frame_needed = 1, uses_anonymous_args = 0
 2808 0000 80B5     		push	{r7, lr}
 2809              		.cfi_def_cfa_offset 8
 2810              		.cfi_offset 7, -8
 2811              		.cfi_offset 14, -4
 2812 0002 82B0     		sub	sp, sp, #8
 2813              		.cfi_def_cfa_offset 16
 2814 0004 00AF     		add	r7, sp, #0
 2815              		.cfi_def_cfa_register 7
 2816 0006 0200     		movs	r2, r0
 2817 0008 FB1D     		adds	r3, r7, #7
 2818 000a 1A70     		strb	r2, [r3]
 832:main.c        ****     if(enable)
 2819              		.loc 1 832 0
 2820 000c FB1D     		adds	r3, r7, #7
 2821 000e 1B78     		ldrb	r3, [r3]
 2822 0010 002B     		cmp	r3, #0
 2823 0012 03D0     		beq	.L106
 833:main.c        ****     {
 834:main.c        ****         DRUG_EN_1_Write(1);
 2824              		.loc 1 834 0
 2825 0014 0120     		movs	r0, #1
 2826 0016 FFF7FEFF 		bl	DRUG_EN_1_Write
 835:main.c        ****     }
 836:main.c        ****     else
 837:main.c        ****     {
 838:main.c        ****         DRUG_EN_1_Write(0);
 839:main.c        ****     }
 840:main.c        **** }
 2827              		.loc 1 840 0
 2828 001a 02E0     		b	.L108
 2829              	.L106:
 838:main.c        ****     }
 2830              		.loc 1 838 0
 2831 001c 0020     		movs	r0, #0
 2832 001e FFF7FEFF 		bl	DRUG_EN_1_Write
 2833              	.L108:
 2834              		.loc 1 840 0
 2835 0022 C046     		nop
 2836 0024 BD46     		mov	sp, r7
 2837 0026 02B0     		add	sp, sp, #8
 2838              		@ sp needed
 2839 0028 80BD     		pop	{r7, pc}
 2840              		.cfi_endproc
 2841              	.LFE48:
 2842              		.size	ControlDrugRelease, .-ControlDrugRelease
 2843 002a C046     		.section	.text.ControlElectricalStimulation,"ax",%progbits
 2844              		.align	2
ARM GAS  C:\Users\13740\AppData\Local\Temp\ccN8S1qO.s 			page 77


 2845              		.global	ControlElectricalStimulation
 2846              		.code	16
 2847              		.thumb_func
 2848              		.type	ControlElectricalStimulation, %function
 2849              	ControlElectricalStimulation:
 2850              	.LFB49:
 841:main.c        **** 
 842:main.c        **** /*******************************************************************************
 843:main.c        **** * Function Name: ControlElectricalStimulation
 844:main.c        **** ********************************************************************************
 845:main.c        **** * Summary:
 846:main.c        **** *   ÊéßÂà∂ÁîµÂà∫ÊøÄÊ≤ªÁñó
 847:main.c        **** *******************************************************************************/
 848:main.c        **** void ControlElectricalStimulation(uint8 enable)
 849:main.c        **** {
 2851              		.loc 1 849 0
 2852              		.cfi_startproc
 2853              		@ args = 0, pretend = 0, frame = 8
 2854              		@ frame_needed = 1, uses_anonymous_args = 0
 2855 0000 80B5     		push	{r7, lr}
 2856              		.cfi_def_cfa_offset 8
 2857              		.cfi_offset 7, -8
 2858              		.cfi_offset 14, -4
 2859 0002 82B0     		sub	sp, sp, #8
 2860              		.cfi_def_cfa_offset 16
 2861 0004 00AF     		add	r7, sp, #0
 2862              		.cfi_def_cfa_register 7
 2863 0006 0200     		movs	r2, r0
 2864 0008 FB1D     		adds	r3, r7, #7
 2865 000a 1A70     		strb	r2, [r3]
 850:main.c        ****     if(enable)
 2866              		.loc 1 850 0
 2867 000c FB1D     		adds	r3, r7, #7
 2868 000e 1B78     		ldrb	r3, [r3]
 2869 0010 002B     		cmp	r3, #0
 2870 0012 03D0     		beq	.L110
 851:main.c        ****     {
 852:main.c        ****         STIM_EN_A_Write(1);
 2871              		.loc 1 852 0
 2872 0014 0120     		movs	r0, #1
 2873 0016 FFF7FEFF 		bl	STIM_EN_A_Write
 853:main.c        ****     }
 854:main.c        ****     else
 855:main.c        ****     {
 856:main.c        ****         STIM_EN_A_Write(0);
 857:main.c        ****     }
 858:main.c        **** }
 2874              		.loc 1 858 0
 2875 001a 02E0     		b	.L112
 2876              	.L110:
 856:main.c        ****     }
 2877              		.loc 1 856 0
 2878 001c 0020     		movs	r0, #0
 2879 001e FFF7FEFF 		bl	STIM_EN_A_Write
 2880              	.L112:
 2881              		.loc 1 858 0
 2882 0022 C046     		nop
ARM GAS  C:\Users\13740\AppData\Local\Temp\ccN8S1qO.s 			page 78


 2883 0024 BD46     		mov	sp, r7
 2884 0026 02B0     		add	sp, sp, #8
 2885              		@ sp needed
 2886 0028 80BD     		pop	{r7, pc}
 2887              		.cfi_endproc
 2888              	.LFE49:
 2889              		.size	ControlElectricalStimulation, .-ControlElectricalStimulation
 2890 002a C046     		.section	.rodata
 2891              		.align	2
 2892              	.LC240:
 2893 1420 252E3266 		.ascii	"%.2f mM (%.1f nA)\000"
 2893      206D4D20 
 2893      28252E31 
 2893      66206E41 
 2893      2900
 2894              		.section	.text.SendGlucoseDataViaBLE,"ax",%progbits
 2895              		.align	2
 2896              		.global	SendGlucoseDataViaBLE
 2897              		.code	16
 2898              		.thumb_func
 2899              		.type	SendGlucoseDataViaBLE, %function
 2900              	SendGlucoseDataViaBLE:
 2901              	.LFB50:
 859:main.c        **** 
 860:main.c        **** /*******************************************************************************
 861:main.c        **** * Function Name: SendCurrentDataViaBLE
 862:main.c        **** ********************************************************************************
 863:main.c        **** * Summary:
 864:main.c        **** *   ÂèëÈÄÅÁîµÊµÅÂÄºÂà∞ BLEÔºàÊòæÁ§∫Âú®ÊâãÊú∫ App ‰∏äÔºâ
 865:main.c        **** *******************************************************************************/
 866:main.c        **** 
 867:main.c        **** // ÂèëÈÄÅËë°ËêÑÁ≥ñÊï∞ÊçÆÔºàÊµìÂ∫¶ + ÁîµÊµÅÔºâ
 868:main.c        **** void SendGlucoseDataViaBLE(void)
 869:main.c        **** {
 2902              		.loc 1 869 0
 2903              		.cfi_startproc
 2904              		@ args = 0, pretend = 0, frame = 16
 2905              		@ frame_needed = 1, uses_anonymous_args = 0
 2906 0000 F0B5     		push	{r4, r5, r6, r7, lr}
 2907              		.cfi_def_cfa_offset 20
 2908              		.cfi_offset 4, -20
 2909              		.cfi_offset 5, -16
 2910              		.cfi_offset 6, -12
 2911              		.cfi_offset 7, -8
 2912              		.cfi_offset 14, -4
 2913 0002 87B0     		sub	sp, sp, #28
 2914              		.cfi_def_cfa_offset 48
 2915 0004 02AF     		add	r7, sp, #8
 2916              		.cfi_def_cfa 7, 40
 870:main.c        ****     CYBLE_GATTS_HANDLE_VALUE_NTF_T notificationHandle;
 871:main.c        ****     static char dataString[30];
 872:main.c        ****     
 873:main.c        ****     if(CyBle_GetState() == CYBLE_STATE_CONNECTED)
 2917              		.loc 1 873 0
 2918 0006 1D4B     		ldr	r3, .L116
 2919 0008 1B78     		ldrb	r3, [r3]
 2920 000a 022B     		cmp	r3, #2
ARM GAS  C:\Users\13740\AppData\Local\Temp\ccN8S1qO.s 			page 79


 2921 000c 32D1     		bne	.L115
 874:main.c        ****     {
 875:main.c        ****         sprintf(dataString, "%.2f mM (%.1f nA)", 
 876:main.c        ****                 sensorData.glucose, 
 2922              		.loc 1 876 0
 2923 000e 1C4B     		ldr	r3, .L116+4
 2924 0010 5B68     		ldr	r3, [r3, #4]
 875:main.c        ****                 sensorData.glucose, 
 2925              		.loc 1 875 0
 2926 0012 181C     		adds	r0, r3, #0
 2927 0014 FFF7FEFF 		bl	__aeabi_f2d
 2928 0018 0500     		movs	r5, r0
 2929 001a 0E00     		movs	r6, r1
 877:main.c        ****                 sensorData.current_glucose_nA);
 2930              		.loc 1 877 0
 2931 001c 184B     		ldr	r3, .L116+4
 2932 001e 5B69     		ldr	r3, [r3, #20]
 875:main.c        ****                 sensorData.glucose, 
 2933              		.loc 1 875 0
 2934 0020 181C     		adds	r0, r3, #0
 2935 0022 FFF7FEFF 		bl	__aeabi_f2d
 2936 0026 0300     		movs	r3, r0
 2937 0028 0C00     		movs	r4, r1
 2938 002a 1649     		ldr	r1, .L116+8
 2939 002c 1648     		ldr	r0, .L116+12
 2940 002e 0093     		str	r3, [sp]
 2941 0030 0194     		str	r4, [sp, #4]
 2942 0032 2A00     		movs	r2, r5
 2943 0034 3300     		movs	r3, r6
 2944 0036 FFF7FEFF 		bl	sprintf
 878:main.c        ****         
 879:main.c        ****         notificationHandle.attrHandle = CYBLE_CUSTOM_SERVICE_GLUCOSE_MEASUREMENT_CHAR_HANDLE;
 2945              		.loc 1 879 0
 2946 003a 3B1D     		adds	r3, r7, #4
 2947 003c 1722     		movs	r2, #23
 2948 003e 1A81     		strh	r2, [r3, #8]
 880:main.c        ****         notificationHandle.value.val = (uint8*)dataString;
 2949              		.loc 1 880 0
 2950 0040 3B1D     		adds	r3, r7, #4
 2951 0042 114A     		ldr	r2, .L116+12
 2952 0044 1A60     		str	r2, [r3]
 881:main.c        ****         notificationHandle.value.len = strlen(dataString);
 2953              		.loc 1 881 0
 2954 0046 104B     		ldr	r3, .L116+12
 2955 0048 1800     		movs	r0, r3
 2956 004a FFF7FEFF 		bl	strlen
 2957 004e 0300     		movs	r3, r0
 2958 0050 9AB2     		uxth	r2, r3
 2959 0052 3B1D     		adds	r3, r7, #4
 2960 0054 9A80     		strh	r2, [r3, #4]
 882:main.c        ****         
 883:main.c        ****         if(CyBle_GattsNotification(cyBle_connHandle, &notificationHandle) == CYBLE_ERROR_OK)
 2961              		.loc 1 883 0
 2962 0056 391D     		adds	r1, r7, #4
 2963 0058 0C4B     		ldr	r3, .L116+16
 2964 005a 1A78     		ldrb	r2, [r3]
 2965 005c 5B78     		ldrb	r3, [r3, #1]
ARM GAS  C:\Users\13740\AppData\Local\Temp\ccN8S1qO.s 			page 80


 2966 005e 1B02     		lsls	r3, r3, #8
 2967 0060 1A43     		orrs	r2, r3
 2968 0062 0023     		movs	r3, #0
 2969 0064 1204     		lsls	r2, r2, #16
 2970 0066 120C     		lsrs	r2, r2, #16
 2971 0068 1B0C     		lsrs	r3, r3, #16
 2972 006a 1B04     		lsls	r3, r3, #16
 2973 006c 1343     		orrs	r3, r2
 2974 006e 1800     		movs	r0, r3
 2975 0070 FFF7FEFF 		bl	CyBle_GattsNotification
 2976              	.L115:
 884:main.c        ****         {
 885:main.c        ****         }
 886:main.c        ****     }
 887:main.c        **** }
 2977              		.loc 1 887 0
 2978 0074 C046     		nop
 2979 0076 BD46     		mov	sp, r7
 2980 0078 05B0     		add	sp, sp, #20
 2981              		@ sp needed
 2982 007a F0BD     		pop	{r4, r5, r6, r7, pc}
 2983              	.L117:
 2984              		.align	2
 2985              	.L116:
 2986 007c 00000000 		.word	cyBle_state
 2987 0080 00000000 		.word	sensorData
 2988 0084 20140000 		.word	.LC240
 2989 0088 2C040000 		.word	dataString.9754
 2990 008c 00000000 		.word	cyBle_connHandle
 2991              		.cfi_endproc
 2992              	.LFE50:
 2993              		.size	SendGlucoseDataViaBLE, .-SendGlucoseDataViaBLE
 2994              		.section	.rodata
 2995 1432 0000     		.align	2
 2996              	.LC246:
 2997 1434 5265673A 		.ascii	"Reg:0x%lX\000"
 2997      3078256C 
 2997      5800
 2998 143e 0000     		.align	2
 2999              	.LC250:
 3000 1440 496E6974 		.ascii	"Init:%d\000"
 3000      3A256400 
 3001              		.align	2
 3002              	.LC252:
 3003 1448 4649464F 		.ascii	"FIFO:%lu\000"
 3003      3A256C75 
 3003      00
 3004 1451 000000   		.align	2
 3005              	.LC254:
 3006 1454 41313A25 		.ascii	"A1:%d A2:%d A3:%d\000"
 3006      64204132 
 3006      3A256420 
 3006      41333A25 
 3006      6400
 3007              		.section	.text.SendLactateDataViaBLE,"ax",%progbits
 3008              		.align	2
 3009              		.global	SendLactateDataViaBLE
ARM GAS  C:\Users\13740\AppData\Local\Temp\ccN8S1qO.s 			page 81


 3010              		.code	16
 3011              		.thumb_func
 3012              		.type	SendLactateDataViaBLE, %function
 3013              	SendLactateDataViaBLE:
 3014              	.LFB51:
 888:main.c        **** 
 889:main.c        **** // ÂèëÈÄÅ‰π≥ÈÖ∏Êï∞ÊçÆÔºàÊîπ‰∏∫ËØäÊñ≠Êó•ÂøóËæìÂá∫Ôºâ
 890:main.c        **** void SendLactateDataViaBLE(void)
 891:main.c        **** {
 3015              		.loc 1 891 0
 3016              		.cfi_startproc
 3017              		@ args = 0, pretend = 0, frame = 24
 3018              		@ frame_needed = 1, uses_anonymous_args = 0
 3019 0000 B0B5     		push	{r4, r5, r7, lr}
 3020              		.cfi_def_cfa_offset 16
 3021              		.cfi_offset 4, -16
 3022              		.cfi_offset 5, -12
 3023              		.cfi_offset 7, -8
 3024              		.cfi_offset 14, -4
 3025 0002 88B0     		sub	sp, sp, #32
 3026              		.cfi_def_cfa_offset 48
 3027 0004 02AF     		add	r7, sp, #8
 3028              		.cfi_def_cfa 7, 40
 892:main.c        ****     CYBLE_GATTS_HANDLE_VALUE_NTF_T notificationHandle;
 893:main.c        ****     static char dataString[40];
 894:main.c        ****     static uint8 diagStep = 0;
 895:main.c        ****     uint32 regValue;
 896:main.c        ****     uint8 initStatus;
 897:main.c        ****     uint32 fifoCount;
 898:main.c        ****     
 899:main.c        ****     if(CyBle_GetState() == CYBLE_STATE_CONNECTED)
 3029              		.loc 1 899 0
 3030 0006 424B     		ldr	r3, .L131
 3031 0008 1B78     		ldrb	r3, [r3]
 3032 000a 022B     		cmp	r3, #2
 3033 000c 00D0     		beq	.LCB2183
 3034 000e 7BE0     		b	.L130	@long jump
 3035              	.LCB2183:
 900:main.c        ****     {
 901:main.c        ****         // ËΩÆÊµÅÊòæÁ§∫‰∏çÂêåÁöÑËØäÊñ≠‰ø°ÊÅØ
 902:main.c        ****         switch(diagStep % 4)
 3036              		.loc 1 902 0
 3037 0010 404B     		ldr	r3, .L131+4
 3038 0012 1B78     		ldrb	r3, [r3]
 3039 0014 1A00     		movs	r2, r3
 3040 0016 0323     		movs	r3, #3
 3041 0018 1340     		ands	r3, r2
 3042 001a 012B     		cmp	r3, #1
 3043 001c 16D0     		beq	.L121
 3044 001e 02DC     		bgt	.L122
 3045 0020 002B     		cmp	r3, #0
 3046 0022 05D0     		beq	.L123
 3047 0024 4DE0     		b	.L120
 3048              	.L122:
 3049 0026 022B     		cmp	r3, #2
 3050 0028 26D0     		beq	.L124
 3051 002a 032B     		cmp	r3, #3
ARM GAS  C:\Users\13740\AppData\Local\Temp\ccN8S1qO.s 			page 82


 3052 002c 36D0     		beq	.L125
 3053 002e 48E0     		b	.L120
 3054              	.L123:
 903:main.c        ****         {
 904:main.c        ****             case 0:
 905:main.c        ****                 // ÊòæÁ§∫ÂéüÂßãÂØÑÂ≠òÂô®ÂÄºÔºà‰∏çÂÅö & 0xFFFFFFÔºâ
 906:main.c        ****                 regValue = AD5940_ReadReg(REG_AFE_AFECON);
 3055              		.loc 1 906 0
 3056 0030 8023     		movs	r3, #128
 3057 0032 9B01     		lsls	r3, r3, #6
 3058 0034 1800     		movs	r0, r3
 3059 0036 FFF7FEFF 		bl	AD5940_ReadReg
 3060 003a 0300     		movs	r3, r0
 3061 003c 7B61     		str	r3, [r7, #20]
 907:main.c        ****                 sprintf(dataString, "Reg:0x%lX", (unsigned long)regValue);
 3062              		.loc 1 907 0
 3063 003e 7A69     		ldr	r2, [r7, #20]
 3064 0040 3549     		ldr	r1, .L131+8
 3065 0042 364B     		ldr	r3, .L131+12
 3066 0044 1800     		movs	r0, r3
 3067 0046 FFF7FEFF 		bl	sprintf
 908:main.c        ****                 break;
 3068              		.loc 1 908 0
 3069 004a 3AE0     		b	.L120
 3070              	.L121:
 909:main.c        ****             case 1:
 910:main.c        ****                 // ÊòæÁ§∫ÂàùÂßãÂåñÁä∂ÊÄÅ
 911:main.c        ****                 initStatus = (pAmpCfg != NULL) ? (uint8)pAmpCfg->AMPInited : 99;
 3071              		.loc 1 911 0
 3072 004c 344B     		ldr	r3, .L131+16
 3073 004e 1B68     		ldr	r3, [r3]
 3074 0050 002B     		cmp	r3, #0
 3075 0052 04D0     		beq	.L126
 3076              		.loc 1 911 0 is_stmt 0 discriminator 1
 3077 0054 324B     		ldr	r3, .L131+16
 3078 0056 1B68     		ldr	r3, [r3]
 3079 0058 6C22     		movs	r2, #108
 3080 005a 9A5C     		ldrb	r2, [r3, r2]
 3081 005c 00E0     		b	.L127
 3082              	.L126:
 3083              		.loc 1 911 0 discriminator 2
 3084 005e 6322     		movs	r2, #99
 3085              	.L127:
 3086              		.loc 1 911 0 discriminator 4
 3087 0060 1323     		movs	r3, #19
 3088 0062 FB18     		adds	r3, r7, r3
 3089 0064 1A70     		strb	r2, [r3]
 912:main.c        ****                 sprintf(dataString, "Init:%d", (int)initStatus);
 3090              		.loc 1 912 0 is_stmt 1 discriminator 4
 3091 0066 1323     		movs	r3, #19
 3092 0068 FB18     		adds	r3, r7, r3
 3093 006a 1A78     		ldrb	r2, [r3]
 3094 006c 2D49     		ldr	r1, .L131+20
 3095 006e 2B4B     		ldr	r3, .L131+12
 3096 0070 1800     		movs	r0, r3
 3097 0072 FFF7FEFF 		bl	sprintf
 913:main.c        ****                 break;
ARM GAS  C:\Users\13740\AppData\Local\Temp\ccN8S1qO.s 			page 83


 3098              		.loc 1 913 0 discriminator 4
 3099 0076 24E0     		b	.L120
 3100              	.L124:
 914:main.c        ****             case 2:
 915:main.c        ****                 // ÊòæÁ§∫ FIFO ËÆ°Êï∞
 916:main.c        ****                 fifoCount = (pAmpCfg != NULL) ? pAmpCfg->FifoDataCount : 0;
 3101              		.loc 1 916 0
 3102 0078 294B     		ldr	r3, .L131+16
 3103 007a 1B68     		ldr	r3, [r3]
 3104 007c 002B     		cmp	r3, #0
 3105 007e 04D0     		beq	.L128
 3106              		.loc 1 916 0 is_stmt 0 discriminator 1
 3107 0080 274B     		ldr	r3, .L131+16
 3108 0082 1B68     		ldr	r3, [r3]
 3109 0084 9C22     		movs	r2, #156
 3110 0086 9B58     		ldr	r3, [r3, r2]
 3111 0088 00E0     		b	.L129
 3112              	.L128:
 3113              		.loc 1 916 0 discriminator 2
 3114 008a 0023     		movs	r3, #0
 3115              	.L129:
 3116              		.loc 1 916 0 discriminator 4
 3117 008c FB60     		str	r3, [r7, #12]
 917:main.c        ****                 sprintf(dataString, "FIFO:%lu", fifoCount);
 3118              		.loc 1 917 0 is_stmt 1 discriminator 4
 3119 008e FA68     		ldr	r2, [r7, #12]
 3120 0090 2549     		ldr	r1, .L131+24
 3121 0092 224B     		ldr	r3, .L131+12
 3122 0094 1800     		movs	r0, r3
 3123 0096 FFF7FEFF 		bl	sprintf
 918:main.c        ****                 break;
 3124              		.loc 1 918 0 discriminator 4
 3125 009a 12E0     		b	.L120
 3126              	.L125:
 919:main.c        ****             case 3:
 920:main.c        ****                 // ÊòæÁ§∫ÁîµÊûÅÂºïËÑöÁä∂ÊÄÅ
 921:main.c        ****                 sprintf(dataString, "A1:%d A2:%d A3:%d", 
 922:main.c        ****                         (int)AMP1_EN_Read(), 
 3127              		.loc 1 922 0
 3128 009c FFF7FEFF 		bl	AMP1_EN_Read
 3129 00a0 0300     		movs	r3, r0
 921:main.c        ****                         (int)AMP1_EN_Read(), 
 3130              		.loc 1 921 0
 3131 00a2 1C00     		movs	r4, r3
 923:main.c        ****                         (int)AMP2_EN_Read(), 
 3132              		.loc 1 923 0
 3133 00a4 FFF7FEFF 		bl	AMP2_EN_Read
 3134 00a8 0300     		movs	r3, r0
 921:main.c        ****                         (int)AMP1_EN_Read(), 
 3135              		.loc 1 921 0
 3136 00aa 1D00     		movs	r5, r3
 924:main.c        ****                         (int)AMP3_EN_Read());
 3137              		.loc 1 924 0
 3138 00ac FFF7FEFF 		bl	AMP3_EN_Read
 3139 00b0 0300     		movs	r3, r0
 921:main.c        ****                         (int)AMP1_EN_Read(), 
 3140              		.loc 1 921 0
ARM GAS  C:\Users\13740\AppData\Local\Temp\ccN8S1qO.s 			page 84


 3141 00b2 1E49     		ldr	r1, .L131+28
 3142 00b4 1948     		ldr	r0, .L131+12
 3143 00b6 0093     		str	r3, [sp]
 3144 00b8 2B00     		movs	r3, r5
 3145 00ba 2200     		movs	r2, r4
 3146 00bc FFF7FEFF 		bl	sprintf
 925:main.c        ****                 break;
 3147              		.loc 1 925 0
 3148 00c0 C046     		nop
 3149              	.L120:
 926:main.c        ****         }
 927:main.c        ****         diagStep++;
 3150              		.loc 1 927 0
 3151 00c2 144B     		ldr	r3, .L131+4
 3152 00c4 1B78     		ldrb	r3, [r3]
 3153 00c6 0133     		adds	r3, r3, #1
 3154 00c8 DAB2     		uxtb	r2, r3
 3155 00ca 124B     		ldr	r3, .L131+4
 3156 00cc 1A70     		strb	r2, [r3]
 928:main.c        ****         
 929:main.c        ****         notificationHandle.attrHandle = CYBLE_CUSTOM_SERVICE_LACTATE_CHAR_HANDLE;
 3157              		.loc 1 929 0
 3158 00ce 3B00     		movs	r3, r7
 3159 00d0 1222     		movs	r2, #18
 3160 00d2 1A81     		strh	r2, [r3, #8]
 930:main.c        ****         notificationHandle.value.val = (uint8*)dataString;
 3161              		.loc 1 930 0
 3162 00d4 3B00     		movs	r3, r7
 3163 00d6 114A     		ldr	r2, .L131+12
 3164 00d8 1A60     		str	r2, [r3]
 931:main.c        ****         notificationHandle.value.len = strlen(dataString);
 3165              		.loc 1 931 0
 3166 00da 104B     		ldr	r3, .L131+12
 3167 00dc 1800     		movs	r0, r3
 3168 00de FFF7FEFF 		bl	strlen
 3169 00e2 0300     		movs	r3, r0
 3170 00e4 9AB2     		uxth	r2, r3
 3171 00e6 3B00     		movs	r3, r7
 3172 00e8 9A80     		strh	r2, [r3, #4]
 932:main.c        ****         
 933:main.c        ****         if(CyBle_GattsNotification(cyBle_connHandle, &notificationHandle) == CYBLE_ERROR_OK)
 3173              		.loc 1 933 0
 3174 00ea 3900     		movs	r1, r7
 3175 00ec 104B     		ldr	r3, .L131+32
 3176 00ee 1A78     		ldrb	r2, [r3]
 3177 00f0 5B78     		ldrb	r3, [r3, #1]
 3178 00f2 1B02     		lsls	r3, r3, #8
 3179 00f4 1A43     		orrs	r2, r3
 3180 00f6 0023     		movs	r3, #0
 3181 00f8 1204     		lsls	r2, r2, #16
 3182 00fa 120C     		lsrs	r2, r2, #16
 3183 00fc 1B0C     		lsrs	r3, r3, #16
 3184 00fe 1B04     		lsls	r3, r3, #16
 3185 0100 1343     		orrs	r3, r2
 3186 0102 1800     		movs	r0, r3
 3187 0104 FFF7FEFF 		bl	CyBle_GattsNotification
 3188              	.L130:
ARM GAS  C:\Users\13740\AppData\Local\Temp\ccN8S1qO.s 			page 85


 934:main.c        ****         {
 935:main.c        ****         }
 936:main.c        ****     }
 937:main.c        **** }
 3189              		.loc 1 937 0
 3190 0108 C046     		nop
 3191 010a BD46     		mov	sp, r7
 3192 010c 06B0     		add	sp, sp, #24
 3193              		@ sp needed
 3194 010e B0BD     		pop	{r4, r5, r7, pc}
 3195              	.L132:
 3196              		.align	2
 3197              	.L131:
 3198 0110 00000000 		.word	cyBle_state
 3199 0114 4A040000 		.word	diagStep.9760
 3200 0118 34140000 		.word	.LC246
 3201 011c 4C040000 		.word	dataString.9759
 3202 0120 00000000 		.word	pAmpCfg
 3203 0124 40140000 		.word	.LC250
 3204 0128 48140000 		.word	.LC252
 3205 012c 54140000 		.word	.LC254
 3206 0130 00000000 		.word	cyBle_connHandle
 3207              		.cfi_endproc
 3208              	.LFE51:
 3209              		.size	SendLactateDataViaBLE, .-SendLactateDataViaBLE
 3210              		.section	.rodata
 3211 1466 0000     		.align	2
 3212              	.LC259:
 3213 1468 5350493A 		.ascii	"SPI:0x%lX Init:%d\000"
 3213      3078256C 
 3213      5820496E 
 3213      69743A25 
 3213      6400
 3214              		.section	.text.SendTemperatureViaBLE,"ax",%progbits
 3215              		.align	2
 3216              		.global	SendTemperatureViaBLE
 3217              		.code	16
 3218              		.thumb_func
 3219              		.type	SendTemperatureViaBLE, %function
 3220              	SendTemperatureViaBLE:
 3221              	.LFB52:
 938:main.c        **** 
 939:main.c        **** // ÂèëÈÄÅÊ∏©Â∫¶Êï∞ÊçÆÔºàÊîπ‰∏∫ËäØÁâáÁä∂ÊÄÅËØäÊñ≠Ôºâ
 940:main.c        **** void SendTemperatureViaBLE(void)
 941:main.c        **** {
 3222              		.loc 1 941 0
 3223              		.cfi_startproc
 3224              		@ args = 0, pretend = 0, frame = 24
 3225              		@ frame_needed = 1, uses_anonymous_args = 0
 3226 0000 80B5     		push	{r7, lr}
 3227              		.cfi_def_cfa_offset 8
 3228              		.cfi_offset 7, -8
 3229              		.cfi_offset 14, -4
 3230 0002 86B0     		sub	sp, sp, #24
 3231              		.cfi_def_cfa_offset 32
 3232 0004 00AF     		add	r7, sp, #0
 3233              		.cfi_def_cfa_register 7
ARM GAS  C:\Users\13740\AppData\Local\Temp\ccN8S1qO.s 			page 86


 942:main.c        ****     CYBLE_GATTS_HANDLE_VALUE_NTF_T notificationHandle;
 943:main.c        ****     static char tempString[40];
 944:main.c        ****     
 945:main.c        ****     if(CyBle_GetState() == CYBLE_STATE_CONNECTED)
 3234              		.loc 1 945 0
 3235 0006 214B     		ldr	r3, .L137
 3236 0008 1B78     		ldrb	r3, [r3]
 3237 000a 022B     		cmp	r3, #2
 3238 000c 3AD1     		bne	.L136
 3239              	.LBB4:
 946:main.c        ****     {
 947:main.c        ****         // ËØªÂèñ SPI ÂØÑÂ≠òÂô®Ê£ÄÊü•ËäØÁâáÁä∂ÊÄÅ
 948:main.c        ****         uint32 regValue = AD5940_ReadReg(REG_AFE_AFECON);
 3240              		.loc 1 948 0
 3241 000e 8023     		movs	r3, #128
 3242 0010 9B01     		lsls	r3, r3, #6
 3243 0012 1800     		movs	r0, r3
 3244 0014 FFF7FEFF 		bl	AD5940_ReadReg
 3245 0018 0300     		movs	r3, r0
 3246 001a 3B61     		str	r3, [r7, #16]
 949:main.c        ****         uint8 initStatus = 0;
 3247              		.loc 1 949 0
 3248 001c 1723     		movs	r3, #23
 3249 001e FB18     		adds	r3, r7, r3
 3250 0020 0022     		movs	r2, #0
 3251 0022 1A70     		strb	r2, [r3]
 950:main.c        ****         
 951:main.c        ****         // Ê£ÄÊü• pAmpCfg ÊåáÈíàÊòØÂê¶ÊúâÊïà
 952:main.c        ****         if(pAmpCfg != NULL)
 3252              		.loc 1 952 0
 3253 0024 1A4B     		ldr	r3, .L137+4
 3254 0026 1B68     		ldr	r3, [r3]
 3255 0028 002B     		cmp	r3, #0
 3256 002a 06D0     		beq	.L135
 953:main.c        ****         {
 954:main.c        ****             initStatus = (uint8)pAmpCfg->AMPInited;
 3257              		.loc 1 954 0
 3258 002c 184B     		ldr	r3, .L137+4
 3259 002e 1A68     		ldr	r2, [r3]
 3260 0030 1723     		movs	r3, #23
 3261 0032 FB18     		adds	r3, r7, r3
 3262 0034 6C21     		movs	r1, #108
 3263 0036 525C     		ldrb	r2, [r2, r1]
 3264 0038 1A70     		strb	r2, [r3]
 3265              	.L135:
 955:main.c        ****         }
 956:main.c        ****         
 957:main.c        ****         // ÊòæÁ§∫ SPI ÂØÑÂ≠òÂô®ÂÄº + ÂàùÂßãÂåñÁä∂ÊÄÅ
 958:main.c        ****         sprintf(tempString, "SPI:0x%lX Init:%d", 
 3266              		.loc 1 958 0
 3267 003a 1723     		movs	r3, #23
 3268 003c FB18     		adds	r3, r7, r3
 3269 003e 1B78     		ldrb	r3, [r3]
 3270 0040 3A69     		ldr	r2, [r7, #16]
 3271 0042 1449     		ldr	r1, .L137+8
 3272 0044 1448     		ldr	r0, .L137+12
 3273 0046 FFF7FEFF 		bl	sprintf
ARM GAS  C:\Users\13740\AppData\Local\Temp\ccN8S1qO.s 			page 87


 959:main.c        ****                 (unsigned long)regValue,
 960:main.c        ****                 (int)initStatus);
 961:main.c        ****         
 962:main.c        ****         notificationHandle.attrHandle = CYBLE_CUSTOM_SERVICE_LACTATE_CHAR_HANDLE;
 3274              		.loc 1 962 0
 3275 004a 3B1D     		adds	r3, r7, #4
 3276 004c 1222     		movs	r2, #18
 3277 004e 1A81     		strh	r2, [r3, #8]
 963:main.c        ****         notificationHandle.value.val = (uint8*)tempString;
 3278              		.loc 1 963 0
 3279 0050 3B1D     		adds	r3, r7, #4
 3280 0052 114A     		ldr	r2, .L137+12
 3281 0054 1A60     		str	r2, [r3]
 964:main.c        ****         notificationHandle.value.len = strlen(tempString);
 3282              		.loc 1 964 0
 3283 0056 104B     		ldr	r3, .L137+12
 3284 0058 1800     		movs	r0, r3
 3285 005a FFF7FEFF 		bl	strlen
 3286 005e 0300     		movs	r3, r0
 3287 0060 9AB2     		uxth	r2, r3
 3288 0062 3B1D     		adds	r3, r7, #4
 3289 0064 9A80     		strh	r2, [r3, #4]
 965:main.c        ****         
 966:main.c        ****         CyBle_GattsNotification(cyBle_connHandle, &notificationHandle);
 3290              		.loc 1 966 0
 3291 0066 391D     		adds	r1, r7, #4
 3292 0068 0C4B     		ldr	r3, .L137+16
 3293 006a 1A78     		ldrb	r2, [r3]
 3294 006c 5B78     		ldrb	r3, [r3, #1]
 3295 006e 1B02     		lsls	r3, r3, #8
 3296 0070 1A43     		orrs	r2, r3
 3297 0072 0023     		movs	r3, #0
 3298 0074 1204     		lsls	r2, r2, #16
 3299 0076 120C     		lsrs	r2, r2, #16
 3300 0078 1B0C     		lsrs	r3, r3, #16
 3301 007a 1B04     		lsls	r3, r3, #16
 3302 007c 1343     		orrs	r3, r2
 3303 007e 1800     		movs	r0, r3
 3304 0080 FFF7FEFF 		bl	CyBle_GattsNotification
 3305              	.L136:
 3306              	.LBE4:
 967:main.c        ****     }
 968:main.c        **** }
 3307              		.loc 1 968 0
 3308 0084 C046     		nop
 3309 0086 BD46     		mov	sp, r7
 3310 0088 06B0     		add	sp, sp, #24
 3311              		@ sp needed
 3312 008a 80BD     		pop	{r7, pc}
 3313              	.L138:
 3314              		.align	2
 3315              	.L137:
 3316 008c 00000000 		.word	cyBle_state
 3317 0090 00000000 		.word	pAmpCfg
 3318 0094 68140000 		.word	.LC259
 3319 0098 74040000 		.word	tempString.9773
 3320 009c 00000000 		.word	cyBle_connHandle
ARM GAS  C:\Users\13740\AppData\Local\Temp\ccN8S1qO.s 			page 88


 3321              		.cfi_endproc
 3322              	.LFE52:
 3323              		.size	SendTemperatureViaBLE, .-SendTemperatureViaBLE
 3324              		.section	.text.SendAllSensorDataViaBLE,"ax",%progbits
 3325              		.align	2
 3326              		.global	SendAllSensorDataViaBLE
 3327              		.code	16
 3328              		.thumb_func
 3329              		.type	SendAllSensorDataViaBLE, %function
 3330              	SendAllSensorDataViaBLE:
 3331              	.LFB53:
 969:main.c        **** 
 970:main.c        **** 
 971:main.c        **** 
 972:main.c        **** 
 973:main.c        **** 
 974:main.c        **** 
 975:main.c        **** 
 976:main.c        **** 
 977:main.c        **** /*******************************************************************************
 978:main.c        **** * Function Name: SendAllSensorDataViaBLE
 979:main.c        **** ********************************************************************************
 980:main.c        **** * Summary:
 981:main.c        **** *   ÂèëÈÄÅÊâÄÊúâ‰º†ÊÑüÂô®Êï∞ÊçÆÔºàÂåÖÂê´ÁîµÊµÅÂÄºÔºâ
 982:main.c        **** *******************************************************************************/
 983:main.c        **** void SendAllSensorDataViaBLE(void)
 984:main.c        **** {
 3332              		.loc 1 984 0
 3333              		.cfi_startproc
 3334              		@ args = 0, pretend = 0, frame = 0
 3335              		@ frame_needed = 1, uses_anonymous_args = 0
 3336 0000 80B5     		push	{r7, lr}
 3337              		.cfi_def_cfa_offset 8
 3338              		.cfi_offset 7, -8
 3339              		.cfi_offset 14, -4
 3340 0002 00AF     		add	r7, sp, #0
 3341              		.cfi_def_cfa_register 7
 985:main.c        ****     if(CyBle_GetState() == CYBLE_STATE_CONNECTED)
 3342              		.loc 1 985 0
 3343 0004 0A4B     		ldr	r3, .L142
 3344 0006 1B78     		ldrb	r3, [r3]
 3345 0008 022B     		cmp	r3, #2
 3346 000a 0ED1     		bne	.L141
 986:main.c        ****     {
 987:main.c        ****         
 988:main.c        ****         SendTemperatureViaBLE();
 3347              		.loc 1 988 0
 3348 000c FFF7FEFF 		bl	SendTemperatureViaBLE
 989:main.c        ****         CyDelay(50);
 3349              		.loc 1 989 0
 3350 0010 3220     		movs	r0, #50
 3351 0012 FFF7FEFF 		bl	CyDelay
 990:main.c        ****         
 991:main.c        ****         SendGlucoseDataViaBLE();  // ÂåÖÂê´ÁîµÊµÅÂÄº
 3352              		.loc 1 991 0
 3353 0016 FFF7FEFF 		bl	SendGlucoseDataViaBLE
 992:main.c        ****         CyDelay(50);
ARM GAS  C:\Users\13740\AppData\Local\Temp\ccN8S1qO.s 			page 89


 3354              		.loc 1 992 0
 3355 001a 3220     		movs	r0, #50
 3356 001c FFF7FEFF 		bl	CyDelay
 993:main.c        ****         
 994:main.c        ****         SendLactateDataViaBLE();  // ÂåÖÂê´ÁîµÊµÅÂÄº
 3357              		.loc 1 994 0
 3358 0020 FFF7FEFF 		bl	SendLactateDataViaBLE
 995:main.c        ****         CyDelay(50);
 3359              		.loc 1 995 0
 3360 0024 3220     		movs	r0, #50
 3361 0026 FFF7FEFF 		bl	CyDelay
 3362              	.L141:
 996:main.c        ****         
 997:main.c        ****        
 998:main.c        ****     }
 999:main.c        **** }
 3363              		.loc 1 999 0
 3364 002a C046     		nop
 3365 002c BD46     		mov	sp, r7
 3366              		@ sp needed
 3367 002e 80BD     		pop	{r7, pc}
 3368              	.L143:
 3369              		.align	2
 3370              	.L142:
 3371 0030 00000000 		.word	cyBle_state
 3372              		.cfi_endproc
 3373              	.LFE53:
 3374              		.size	SendAllSensorDataViaBLE, .-SendAllSensorDataViaBLE
 3375              		.section	.text.Timer_Interrupt,"ax",%progbits
 3376              		.align	2
 3377              		.global	Timer_Interrupt
 3378              		.code	16
 3379              		.thumb_func
 3380              		.type	Timer_Interrupt, %function
 3381              	Timer_Interrupt:
 3382              	.LFB54:
1000:main.c        **** 
1001:main.c        **** /*******************************************************************************
1002:main.c        **** * Function Name: Timer_Interrupt
1003:main.c        **** ********************************************************************************
1004:main.c        **** * Summary:
1005:main.c        **** *   ÂÆöÊó∂Âô®‰∏≠Êñ≠ - ÊØèÁßíËß¶Âèë‰∏ÄÊ¨°
1006:main.c        **** *******************************************************************************/
1007:main.c        **** CY_ISR(Timer_Interrupt)
1008:main.c        **** {
 3383              		.loc 1 1008 0
 3384              		.cfi_startproc
 3385              		@ args = 0, pretend = 0, frame = 0
 3386              		@ frame_needed = 1, uses_anonymous_args = 0
 3387 0000 80B5     		push	{r7, lr}
 3388              		.cfi_def_cfa_offset 8
 3389              		.cfi_offset 7, -8
 3390              		.cfi_offset 14, -4
 3391 0002 00AF     		add	r7, sp, #0
 3392              		.cfi_def_cfa_register 7
1009:main.c        ****     static uint8 led = LED_OFF;
1010:main.c        ****     
ARM GAS  C:\Users\13740\AppData\Local\Temp\ccN8S1qO.s 			page 90


1011:main.c        ****     if(CYBLE_STATE_ADVERTISING == CyBle_GetState())
 3393              		.loc 1 1011 0
 3394 0004 0D4B     		ldr	r3, .L146
 3395 0006 1B78     		ldrb	r3, [r3]
 3396 0008 032B     		cmp	r3, #3
 3397 000a 0BD1     		bne	.L145
1012:main.c        ****     {
1013:main.c        ****         led ^= LED_OFF;
 3398              		.loc 1 1013 0
 3399 000c 0C4B     		ldr	r3, .L146+4
 3400 000e 1B78     		ldrb	r3, [r3]
 3401 0010 0122     		movs	r2, #1
 3402 0012 5340     		eors	r3, r2
 3403 0014 DAB2     		uxtb	r2, r3
 3404 0016 0A4B     		ldr	r3, .L146+4
 3405 0018 1A70     		strb	r2, [r3]
1014:main.c        ****         Advertising_LED_Write(led);
 3406              		.loc 1 1014 0
 3407 001a 094B     		ldr	r3, .L146+4
 3408 001c 1B78     		ldrb	r3, [r3]
 3409 001e 1800     		movs	r0, r3
 3410 0020 FFF7FEFF 		bl	Advertising_LED_Write
 3411              	.L145:
1015:main.c        ****     }
1016:main.c        ****     
1017:main.c        ****     mainTimer++;
 3412              		.loc 1 1017 0
 3413 0024 074B     		ldr	r3, .L146+8
 3414 0026 1B68     		ldr	r3, [r3]
 3415 0028 5A1C     		adds	r2, r3, #1
 3416 002a 064B     		ldr	r3, .L146+8
 3417 002c 1A60     		str	r2, [r3]
1018:main.c        ****     measurementFlag = 1;  // ÊØèÁßíËÆæÁΩÆÊµãÈáèÊ†áÂøó
 3418              		.loc 1 1018 0
 3419 002e 064B     		ldr	r3, .L146+12
 3420 0030 0122     		movs	r2, #1
 3421 0032 1A70     		strb	r2, [r3]
1019:main.c        **** }
 3422              		.loc 1 1019 0
 3423 0034 C046     		nop
 3424 0036 BD46     		mov	sp, r7
 3425              		@ sp needed
 3426 0038 80BD     		pop	{r7, pc}
 3427              	.L147:
 3428 003a C046     		.align	2
 3429              	.L146:
 3430 003c 00000000 		.word	cyBle_state
 3431 0040 00000000 		.word	led.9782
 3432 0044 00000000 		.word	mainTimer
 3433 0048 00000000 		.word	measurementFlag
 3434              		.cfi_endproc
 3435              	.LFE54:
 3436              		.size	Timer_Interrupt, .-Timer_Interrupt
 3437              		.section	.text.AppCallBack,"ax",%progbits
 3438              		.align	2
 3439              		.global	AppCallBack
 3440              		.code	16
ARM GAS  C:\Users\13740\AppData\Local\Temp\ccN8S1qO.s 			page 91


 3441              		.thumb_func
 3442              		.type	AppCallBack, %function
 3443              	AppCallBack:
 3444              	.LFB55:
1020:main.c        **** 
1021:main.c        **** /*******************************************************************************
1022:main.c        **** * Function Name: AppCallBack
1023:main.c        **** ********************************************************************************
1024:main.c        **** * Summary:
1025:main.c        **** *   BLE‰∫ã‰ª∂ÂõûË∞ÉÂáΩÊï∞
1026:main.c        **** *******************************************************************************/
1027:main.c        **** void AppCallBack(uint32 event, void* eventParam)
1028:main.c        **** {
 3445              		.loc 1 1028 0
 3446              		.cfi_startproc
 3447              		@ args = 0, pretend = 0, frame = 8
 3448              		@ frame_needed = 1, uses_anonymous_args = 0
 3449 0000 80B5     		push	{r7, lr}
 3450              		.cfi_def_cfa_offset 8
 3451              		.cfi_offset 7, -8
 3452              		.cfi_offset 14, -4
 3453 0002 82B0     		sub	sp, sp, #8
 3454              		.cfi_def_cfa_offset 16
 3455 0004 00AF     		add	r7, sp, #0
 3456              		.cfi_def_cfa_register 7
 3457 0006 7860     		str	r0, [r7, #4]
 3458 0008 3960     		str	r1, [r7]
1029:main.c        ****     uint16 i;
1030:main.c        ****     
1031:main.c        ****     switch(event)
 3459              		.loc 1 1031 0
 3460 000a 7B68     		ldr	r3, [r7, #4]
 3461 000c 272B     		cmp	r3, #39
 3462 000e 0DD0     		beq	.L150
 3463 0010 04D8     		bhi	.L151
 3464 0012 012B     		cmp	r3, #1
 3465 0014 07D0     		beq	.L152
 3466 0016 262B     		cmp	r3, #38
 3467 0018 12D0     		beq	.L153
1032:main.c        ****     {
1033:main.c        ****         case CYBLE_EVT_STACK_ON:
1034:main.c        ****             StartAdvertisement();
1035:main.c        ****             break;
1036:main.c        **** 
1037:main.c        ****         case CYBLE_EVT_GAP_DEVICE_CONNECTED:
1038:main.c        ****             Advertising_LED_Write(LED_OFF);
1039:main.c        ****             break;
1040:main.c        **** 
1041:main.c        ****         case CYBLE_EVT_GAP_DEVICE_DISCONNECTED:
1042:main.c        ****             StartAdvertisement();
1043:main.c        ****             LowPower_LED_Write(LED_OFF);
1044:main.c        ****             break;
1045:main.c        ****             
1046:main.c        ****         case CYBLE_EVT_GAPP_ADVERTISEMENT_START_STOP:
1047:main.c        ****             if(CYBLE_STATE_DISCONNECTED == CyBle_GetState())
1048:main.c        ****             {
1049:main.c        ****                 Advertising_LED_Write(LED_OFF);
ARM GAS  C:\Users\13740\AppData\Local\Temp\ccN8S1qO.s 			page 92


1050:main.c        ****                 Disconnect_LED_Write(LED_ON);
1051:main.c        ****                 LowPower_LED_Write(LED_OFF);
1052:main.c        ****                 
1053:main.c        ****                 // Ê∏ÖÈô§‰∏≠Êñ≠Âπ∂ËøõÂÖ•‰ºëÁú†
1054:main.c        ****                 AD5940_EXTI_ClearInterrupt();
1055:main.c        ****                 AD5940_Interrupt_ClearPending();
1056:main.c        ****                 AD5940_Interrupt_Start();
1057:main.c        ****                 CySysPmHibernate();
1058:main.c        ****             }
1059:main.c        ****             break;
1060:main.c        **** 
1061:main.c        ****         case CYBLE_EVT_PENDING_FLASH_WRITE:
1062:main.c        ****             break;
1063:main.c        **** 
1064:main.c        ****         default:
1065:main.c        ****             break;
 3468              		.loc 1 1065 0
 3469 001a 2AE0     		b	.L156
 3470              	.L151:
1031:main.c        ****     {
 3471              		.loc 1 1031 0
 3472 001c 282B     		cmp	r3, #40
 3473 001e 09D0     		beq	.L154
 3474 0020 FA2B     		cmp	r3, #250
 3475 0022 23D0     		beq	.L158
 3476              		.loc 1 1065 0
 3477 0024 25E0     		b	.L156
 3478              	.L152:
1034:main.c        ****             break;
 3479              		.loc 1 1034 0
 3480 0026 FFF7FEFF 		bl	StartAdvertisement
1035:main.c        **** 
 3481              		.loc 1 1035 0
 3482 002a 22E0     		b	.L156
 3483              	.L150:
1038:main.c        ****             break;
 3484              		.loc 1 1038 0
 3485 002c 0120     		movs	r0, #1
 3486 002e FFF7FEFF 		bl	Advertising_LED_Write
1039:main.c        **** 
 3487              		.loc 1 1039 0
 3488 0032 1EE0     		b	.L156
 3489              	.L154:
1042:main.c        ****             LowPower_LED_Write(LED_OFF);
 3490              		.loc 1 1042 0
 3491 0034 FFF7FEFF 		bl	StartAdvertisement
1043:main.c        ****             break;
 3492              		.loc 1 1043 0
 3493 0038 0120     		movs	r0, #1
 3494 003a FFF7FEFF 		bl	LowPower_LED_Write
1044:main.c        ****             
 3495              		.loc 1 1044 0
 3496 003e 18E0     		b	.L156
 3497              	.L153:
1047:main.c        ****             {
 3498              		.loc 1 1047 0
 3499 0040 0E4B     		ldr	r3, .L160
ARM GAS  C:\Users\13740\AppData\Local\Temp\ccN8S1qO.s 			page 93


 3500 0042 1B78     		ldrb	r3, [r3]
 3501 0044 042B     		cmp	r3, #4
 3502 0046 13D1     		bne	.L159
1049:main.c        ****                 Disconnect_LED_Write(LED_ON);
 3503              		.loc 1 1049 0
 3504 0048 0120     		movs	r0, #1
 3505 004a FFF7FEFF 		bl	Advertising_LED_Write
1050:main.c        ****                 LowPower_LED_Write(LED_OFF);
 3506              		.loc 1 1050 0
 3507 004e 0020     		movs	r0, #0
 3508 0050 FFF7FEFF 		bl	Disconnect_LED_Write
1051:main.c        ****                 
 3509              		.loc 1 1051 0
 3510 0054 0120     		movs	r0, #1
 3511 0056 FFF7FEFF 		bl	LowPower_LED_Write
1054:main.c        ****                 AD5940_Interrupt_ClearPending();
 3512              		.loc 1 1054 0
 3513 005a FFF7FEFF 		bl	AD5940_EXTI_ClearInterrupt
1055:main.c        ****                 AD5940_Interrupt_Start();
 3514              		.loc 1 1055 0
 3515 005e FFF7FEFF 		bl	AD5940_Interrupt_ClearPending
1056:main.c        ****                 CySysPmHibernate();
 3516              		.loc 1 1056 0
 3517 0062 FFF7FEFF 		bl	AD5940_Interrupt_Start
1057:main.c        ****             }
 3518              		.loc 1 1057 0
 3519 0066 FFF7FEFF 		bl	CySysPmHibernate
1059:main.c        **** 
 3520              		.loc 1 1059 0
 3521 006a 01E0     		b	.L159
 3522              	.L158:
1062:main.c        **** 
 3523              		.loc 1 1062 0
 3524 006c C046     		nop
 3525 006e 00E0     		b	.L156
 3526              	.L159:
1059:main.c        **** 
 3527              		.loc 1 1059 0
 3528 0070 C046     		nop
 3529              	.L156:
1066:main.c        ****     }
1067:main.c        **** }
 3530              		.loc 1 1067 0
 3531 0072 C046     		nop
 3532 0074 BD46     		mov	sp, r7
 3533 0076 02B0     		add	sp, sp, #8
 3534              		@ sp needed
 3535 0078 80BD     		pop	{r7, pc}
 3536              	.L161:
 3537 007a C046     		.align	2
 3538              	.L160:
 3539 007c 00000000 		.word	cyBle_state
 3540              		.cfi_endproc
 3541              	.LFE55:
 3542              		.size	AppCallBack, .-AppCallBack
 3543              		.section	.text.LowPowerImplementation,"ax",%progbits
 3544              		.align	2
ARM GAS  C:\Users\13740\AppData\Local\Temp\ccN8S1qO.s 			page 94


 3545              		.code	16
 3546              		.thumb_func
 3547              		.type	LowPowerImplementation, %function
 3548              	LowPowerImplementation:
 3549              	.LFB56:
1068:main.c        **** 
1069:main.c        **** /*******************************************************************************
1070:main.c        **** * Function Name: LowPowerImplementation
1071:main.c        **** ********************************************************************************
1072:main.c        **** * Summary:
1073:main.c        **** *   ‰ΩéÂäüËÄóÂÆûÁé∞
1074:main.c        **** *******************************************************************************/
1075:main.c        **** static void LowPowerImplementation(void)
1076:main.c        **** {
 3550              		.loc 1 1076 0
 3551              		.cfi_startproc
 3552              		@ args = 0, pretend = 0, frame = 8
 3553              		@ frame_needed = 1, uses_anonymous_args = 0
 3554 0000 90B5     		push	{r4, r7, lr}
 3555              		.cfi_def_cfa_offset 12
 3556              		.cfi_offset 4, -12
 3557              		.cfi_offset 7, -8
 3558              		.cfi_offset 14, -4
 3559 0002 83B0     		sub	sp, sp, #12
 3560              		.cfi_def_cfa_offset 24
 3561 0004 00AF     		add	r7, sp, #0
 3562              		.cfi_def_cfa_register 7
1077:main.c        ****     CYBLE_LP_MODE_T bleMode;
1078:main.c        ****     uint8 interruptStatus;
1079:main.c        ****     
1080:main.c        ****     if((CyBle_GetState() == CYBLE_STATE_ADVERTISING) || 
 3563              		.loc 1 1080 0
 3564 0006 1A4B     		ldr	r3, .L170
 3565 0008 1B78     		ldrb	r3, [r3]
 3566 000a 032B     		cmp	r3, #3
 3567 000c 03D0     		beq	.L163
1081:main.c        ****        (CyBle_GetState() == CYBLE_STATE_CONNECTED))
 3568              		.loc 1 1081 0 discriminator 1
 3569 000e 184B     		ldr	r3, .L170
 3570 0010 1B78     		ldrb	r3, [r3]
1080:main.c        ****        (CyBle_GetState() == CYBLE_STATE_CONNECTED))
 3571              		.loc 1 1080 0 discriminator 1
 3572 0012 022B     		cmp	r3, #2
 3573 0014 27D1     		bne	.L169
 3574              	.L163:
1082:main.c        ****     {
1083:main.c        ****         bleMode = CyBle_EnterLPM(CYBLE_BLESS_DEEPSLEEP);
 3575              		.loc 1 1083 0
 3576 0016 FC1D     		adds	r4, r7, #7
 3577 0018 0320     		movs	r0, #3
 3578 001a FFF7FEFF 		bl	CyBle_EnterLPM
 3579 001e 0300     		movs	r3, r0
 3580 0020 2370     		strb	r3, [r4]
1084:main.c        ****         interruptStatus = CyEnterCriticalSection();
 3581              		.loc 1 1084 0
 3582 0022 BC1D     		adds	r4, r7, #6
 3583 0024 FFF7FEFF 		bl	CyEnterCriticalSection
ARM GAS  C:\Users\13740\AppData\Local\Temp\ccN8S1qO.s 			page 95


 3584 0028 0300     		movs	r3, r0
 3585 002a 2370     		strb	r3, [r4]
1085:main.c        ****         
1086:main.c        ****         if(bleMode == CYBLE_BLESS_DEEPSLEEP)
 3586              		.loc 1 1086 0
 3587 002c FB1D     		adds	r3, r7, #7
 3588 002e 1B78     		ldrb	r3, [r3]
 3589 0030 032B     		cmp	r3, #3
 3590 0032 0CD1     		bne	.L165
1087:main.c        ****         {
1088:main.c        ****             if((CyBle_GetBleSsState() == CYBLE_BLESS_STATE_ECO_ON) || 
 3591              		.loc 1 1088 0
 3592 0034 FFF7FEFF 		bl	CyBle_GetBleSsState
 3593 0038 0300     		movs	r3, r0
 3594 003a 042B     		cmp	r3, #4
 3595 003c 04D0     		beq	.L166
1089:main.c        ****                (CyBle_GetBleSsState() == CYBLE_BLESS_STATE_DEEPSLEEP))
 3596              		.loc 1 1089 0 discriminator 1
 3597 003e FFF7FEFF 		bl	CyBle_GetBleSsState
 3598 0042 0300     		movs	r3, r0
1088:main.c        ****                (CyBle_GetBleSsState() == CYBLE_BLESS_STATE_DEEPSLEEP))
 3599              		.loc 1 1088 0 discriminator 1
 3600 0044 062B     		cmp	r3, #6
 3601 0046 09D1     		bne	.L168
 3602              	.L166:
1090:main.c        ****             {
1091:main.c        ****                 CySysPmDeepSleep();
 3603              		.loc 1 1091 0
 3604 0048 FFF7FEFF 		bl	CySysPmDeepSleep
 3605 004c 06E0     		b	.L168
 3606              	.L165:
1092:main.c        ****             }
1093:main.c        ****         }
1094:main.c        ****         else
1095:main.c        ****         {
1096:main.c        ****             if(CyBle_GetBleSsState() != CYBLE_BLESS_STATE_EVENT_CLOSE)
 3607              		.loc 1 1096 0
 3608 004e FFF7FEFF 		bl	CyBle_GetBleSsState
 3609 0052 0300     		movs	r3, r0
 3610 0054 022B     		cmp	r3, #2
 3611 0056 01D0     		beq	.L168
1097:main.c        ****             {
1098:main.c        ****                 CySysPmSleep();
 3612              		.loc 1 1098 0
 3613 0058 FFF7FEFF 		bl	CySysPmSleep
 3614              	.L168:
1099:main.c        ****             }
1100:main.c        ****         }
1101:main.c        ****         
1102:main.c        ****         CyExitCriticalSection(interruptStatus);
 3615              		.loc 1 1102 0
 3616 005c BB1D     		adds	r3, r7, #6
 3617 005e 1B78     		ldrb	r3, [r3]
 3618 0060 1800     		movs	r0, r3
 3619 0062 FFF7FEFF 		bl	CyExitCriticalSection
 3620              	.L169:
1103:main.c        ****     }
ARM GAS  C:\Users\13740\AppData\Local\Temp\ccN8S1qO.s 			page 96


1104:main.c        **** }
 3621              		.loc 1 1104 0
 3622 0066 C046     		nop
 3623 0068 BD46     		mov	sp, r7
 3624 006a 03B0     		add	sp, sp, #12
 3625              		@ sp needed
 3626 006c 90BD     		pop	{r4, r7, pc}
 3627              	.L171:
 3628 006e C046     		.align	2
 3629              	.L170:
 3630 0070 00000000 		.word	cyBle_state
 3631              		.cfi_endproc
 3632              	.LFE56:
 3633              		.size	LowPowerImplementation, .-LowPowerImplementation
 3634              		.section	.rodata
 3635 147a 0000     		.align	2
 3636              	.LC270:
 3637 147c 0A2A2A2A 		.ascii	"\012*** SYSTEM STARTUP ***\000"
 3637      20535953 
 3637      54454D20 
 3637      53544152 
 3637      54555020 
 3638              		.align	2
 3639              	.LC274:
 3640 1494 5B455252 		.ascii	"[ERROR] BLE initialization failed\000"
 3640      4F525D20 
 3640      424C4520 
 3640      696E6974 
 3640      69616C69 
 3641 14b6 0000     		.align	2
 3642              	.LC276:
 3643 14b8 5B4F4B5D 		.ascii	"[OK] BLE initialized\000"
 3643      20424C45 
 3643      20696E69 
 3643      7469616C 
 3643      697A6564 
 3644 14cd 000000   		.align	2
 3645              	.LC278:
 3646 14d0 5B494E46 		.ascii	"[INFO] Initializing SPI...\000"
 3646      4F5D2049 
 3646      6E697469 
 3646      616C697A 
 3646      696E6720 
 3647 14eb 00       		.align	2
 3648              	.LC280:
 3649 14ec 5B4F4B5D 		.ascii	"[OK] SPI initialized\000"
 3649      20535049 
 3649      20696E69 
 3649      7469616C 
 3649      697A6564 
 3650 1501 000000   		.align	2
 3651              	.LC282:
 3652 1504 0A5B5645 		.ascii	"\012[VERIFY] Quick CHIPID test BEFORE AD5941_Initia"
 3652      52494659 
 3652      5D205175 
 3652      69636B20 
 3652      43484950 
ARM GAS  C:\Users\13740\AppData\Local\Temp\ccN8S1qO.s 			page 97


 3653 1534 6C697A65 		.ascii	"lize...\000"
 3653      2E2E2E00 
 3654              		.align	2
 3655              	.LC284:
 3656 153c 5B444542 		.ascii	"[DEBUG] CHIPID (raw read): 0x%08lX\012\000"
 3656      55475D20 
 3656      43484950 
 3656      49442028 
 3656      72617720 
 3657              		.align	2
 3658              	.LC286:
 3659 1560 5B4F4B5D 		.ascii	"[OK] \342\234\205 CHIPID VALID! SPI communication w"
 3659      20E29C85 
 3659      20434849 
 3659      50494420 
 3659      56414C49 
 3660 158a 6F726B69 		.ascii	"orking correctly.\000"
 3660      6E672063 
 3660      6F727265 
 3660      63746C79 
 3660      2E00
 3661              		.align	2
 3662              	.LC288:
 3663 159c 5B455252 		.ascii	"[ERROR] \342\235\214 CHIPID INVALID! Expected 0x550"
 3663      4F525D20 
 3663      E29D8C20 
 3663      43484950 
 3663      49442049 
 3664 15c6 312F3078 		.ascii	"1/0x5502, got 0x%08lX\012\000"
 3664      35353032 
 3664      2C20676F 
 3664      74203078 
 3664      2530386C 
 3665 15dd 000000   		.align	2
 3666              	.LC290:
 3667 15e0 5B455252 		.ascii	"[ERROR] This indicates SPI read/write problem. Cont"
 3667      4F525D20 
 3667      54686973 
 3667      20696E64 
 3667      69636174 
 3668 1613 696E7569 		.ascii	"inuing anyway...\000"
 3668      6E672061 
 3668      6E797761 
 3668      792E2E2E 
 3668      00
 3669              		.align	2
 3670              	.LC292:
 3671 1624 5B494E46 		.ascii	"[INFO] Initializing control pins...\000"
 3671      4F5D2049 
 3671      6E697469 
 3671      616C697A 
 3671      696E6720 
 3672              		.align	2
 3673              	.LC294:
 3674 1648 5B4F4B5D 		.ascii	"[OK] Control pins initialized\000"
 3674      20436F6E 
 3674      74726F6C 
ARM GAS  C:\Users\13740\AppData\Local\Temp\ccN8S1qO.s 			page 98


 3674      2070696E 
 3674      7320696E 
 3675 1666 0000     		.align	2
 3676              	.LC296:
 3677 1668 5B494E46 		.ascii	"[INFO] Initializing AD5941...\000"
 3677      4F5D2049 
 3677      6E697469 
 3677      616C697A 
 3677      696E6720 
 3678 1686 0000     		.align	2
 3679              	.LC298:
 3680 1688 5B494E46 		.ascii	"[INFO] Starting timer interrupt...\000"
 3680      4F5D2053 
 3680      74617274 
 3680      696E6720 
 3680      74696D65 
 3681 16ab 00       		.align	2
 3682              	.LC301:
 3683 16ac 5B4F4B5D 		.ascii	"[OK] Timer started\000"
 3683      2054696D 
 3683      65722073 
 3683      74617274 
 3683      656400
 3684 16bf 00       		.align	2
 3685              	.LC303:
 3686 16c0 0A5B4449 		.ascii	"\012[DIAGNOSTIC] Running full system diagnostics..."
 3686      41474E4F 
 3686      53544943 
 3686      5D205275 
 3686      6E6E696E 
 3687 16f0 00       		.ascii	"\000"
 3688 16f1 000000   		.align	2
 3689              	.LC305:
 3690 16f4 5B494E46 		.ascii	"[INFO] Waiting for AD5941 initialization...\000"
 3690      4F5D2057 
 3690      61697469 
 3690      6E672066 
 3690      6F722041 
 3691              		.align	2
 3692              	.LC308:
 3693 1720 5B494E46 		.ascii	"[INFO] Init status: %d (waited %lu ms)\012\000"
 3693      4F5D2049 
 3693      6E697420 
 3693      73746174 
 3693      75733A20 
 3694              		.align	2
 3695              	.LC310:
 3696 1748 5B494E46 		.ascii	"[INFO] Enabling electrode channels...\000"
 3696      4F5D2045 
 3696      6E61626C 
 3696      696E6720 
 3696      656C6563 
 3697 176e 0000     		.align	2
 3698              	.LC312:
 3699 1770 5B4F4B5D 		.ascii	"[OK] AD5941 initialization COMPLETE!\000"
 3699      20414435 
 3699      39343120 
ARM GAS  C:\Users\13740\AppData\Local\Temp\ccN8S1qO.s 			page 99


 3699      696E6974 
 3699      69616C69 
 3700 1795 000000   		.align	2
 3701              	.LC314:
 3702 1798 5B574152 		.ascii	"[WARNING] AD5941 initialization timeout or failed\000"
 3702      4E494E47 
 3702      5D204144 
 3702      35393431 
 3702      20696E69 
 3703 17ca 0000     		.align	2
 3704              	.LC316:
 3705 17cc 5B494E46 		.ascii	"[INFO] Entering main loop...\000"
 3705      4F5D2045 
 3705      6E746572 
 3705      696E6720 
 3705      6D61696E 
 3706 17e9 000000   		.align	2
 3707              	.LC318:
 3708 17ec 2A2A2A20 		.ascii	"*** SYSTEM READY ***\012\000"
 3708      53595354 
 3708      454D2052 
 3708      45414459 
 3708      202A2A2A 
 3709              		.global	__aeabi_fcmpgt
 3710              		.section	.text.main,"ax",%progbits
 3711              		.align	2
 3712              		.global	main
 3713              		.code	16
 3714              		.thumb_func
 3715              		.type	main, %function
 3716              	main:
 3717              	.LFB57:
1105:main.c        **** 
1106:main.c        **** /*******************************************************************************
1107:main.c        **** * Function Name: main
1108:main.c        **** ********************************************************************************
1109:main.c        **** * Summary:
1110:main.c        **** *   ‰∏ªÂáΩÊï∞
1111:main.c        **** *******************************************************************************/
1112:main.c        **** int main()
1113:main.c        **** {
 3718              		.loc 1 1113 0
 3719              		.cfi_startproc
 3720              		@ args = 0, pretend = 0, frame = 16
 3721              		@ frame_needed = 1, uses_anonymous_args = 0
 3722 0000 80B5     		push	{r7, lr}
 3723              		.cfi_def_cfa_offset 8
 3724              		.cfi_offset 7, -8
 3725              		.cfi_offset 14, -4
 3726 0002 84B0     		sub	sp, sp, #16
 3727              		.cfi_def_cfa_offset 24
 3728 0004 00AF     		add	r7, sp, #0
 3729              		.cfi_def_cfa_register 7
1114:main.c        ****     CyGlobalIntEnable;
 3730              		.loc 1 1114 0
 3731              		.syntax divided
 3732              	@ 1114 "main.c" 1
ARM GAS  C:\Users\13740\AppData\Local\Temp\ccN8S1qO.s 			page 100


 3733 0006 62B6     		CPSIE   i
 3734              	@ 0 "" 2
1115:main.c        ****     
1116:main.c        ****     // ÂàùÂßãÂåñLED
1117:main.c        ****     Disconnect_LED_Write(LED_OFF);
 3735              		.loc 1 1117 0
 3736              		.thumb
 3737              		.syntax unified
 3738 0008 0120     		movs	r0, #1
 3739 000a FFF7FEFF 		bl	Disconnect_LED_Write
1118:main.c        ****     Advertising_LED_Write(LED_OFF);
 3740              		.loc 1 1118 0
 3741 000e 0120     		movs	r0, #1
 3742 0010 FFF7FEFF 		bl	Advertising_LED_Write
1119:main.c        ****     LowPower_LED_Write(LED_OFF);
 3743              		.loc 1 1119 0
 3744 0014 0120     		movs	r0, #1
 3745 0016 FFF7FEFF 		bl	LowPower_LED_Write
1120:main.c        ****     
1121:main.c        ****     printf("\n*** SYSTEM STARTUP ***\n");
 3746              		.loc 1 1121 0
 3747 001a 954B     		ldr	r3, .L195
 3748 001c 1800     		movs	r0, r3
 3749 001e FFF7FEFF 		bl	puts
1122:main.c        ****     
1123:main.c        ****     // ÂàùÂßãÂåñBLE
1124:main.c        ****     apiResult = CyBle_Start(AppCallBack);
 3750              		.loc 1 1124 0
 3751 0022 944B     		ldr	r3, .L195+4
 3752 0024 1800     		movs	r0, r3
 3753 0026 FFF7FEFF 		bl	CyBle_Start
 3754 002a 0300     		movs	r3, r0
 3755 002c 1A00     		movs	r2, r3
 3756 002e 924B     		ldr	r3, .L195+8
 3757 0030 1A80     		strh	r2, [r3]
1125:main.c        ****     if(apiResult != CYBLE_ERROR_OK)
 3758              		.loc 1 1125 0
 3759 0032 914B     		ldr	r3, .L195+8
 3760 0034 1B88     		ldrh	r3, [r3]
 3761 0036 002B     		cmp	r3, #0
 3762 0038 04D0     		beq	.L173
1126:main.c        ****     {
1127:main.c        ****         printf("[ERROR] BLE initialization failed\n");
 3763              		.loc 1 1127 0
 3764 003a 904B     		ldr	r3, .L195+12
 3765 003c 1800     		movs	r0, r3
 3766 003e FFF7FEFF 		bl	puts
 3767 0042 03E0     		b	.L174
 3768              	.L173:
1128:main.c        ****     }
1129:main.c        ****     else
1130:main.c        ****     {
1131:main.c        ****         printf("[OK] BLE initialized\n");
 3769              		.loc 1 1131 0
 3770 0044 8E4B     		ldr	r3, .L195+16
 3771 0046 1800     		movs	r0, r3
 3772 0048 FFF7FEFF 		bl	puts
ARM GAS  C:\Users\13740\AppData\Local\Temp\ccN8S1qO.s 			page 101


 3773              	.L174:
1132:main.c        ****     }
1133:main.c        ****     
1134:main.c        ****     // ÂàùÂßãÂåñSPI
1135:main.c        ****     printf("[INFO] Initializing SPI...\n");
 3774              		.loc 1 1135 0
 3775 004c 8D4B     		ldr	r3, .L195+20
 3776 004e 1800     		movs	r0, r3
 3777 0050 FFF7FEFF 		bl	puts
1136:main.c        ****     SPI_1_Start();
 3778              		.loc 1 1136 0
 3779 0054 FFF7FEFF 		bl	SPI_1_Start
1137:main.c        ****     CyDelay(10);
 3780              		.loc 1 1137 0
 3781 0058 0A20     		movs	r0, #10
 3782 005a FFF7FEFF 		bl	CyDelay
1138:main.c        ****     printf("[OK] SPI initialized\n");
 3783              		.loc 1 1138 0
 3784 005e 8A4B     		ldr	r3, .L195+24
 3785 0060 1800     		movs	r0, r3
 3786 0062 FFF7FEFF 		bl	puts
1139:main.c        ****     
1140:main.c        ****     // üîç Âø´ÈÄüÈ™åËØÅ CHIPID - Âú® AD5941_Initialize ÂâçËøõË°åÁÆÄÂçïÊµãËØï
1141:main.c        ****     printf("\n[VERIFY] Quick CHIPID test BEFORE AD5941_Initialize...\n");
 3787              		.loc 1 1141 0
 3788 0066 894B     		ldr	r3, .L195+28
 3789 0068 1800     		movs	r0, r3
 3790 006a FFF7FEFF 		bl	puts
1142:main.c        ****     uint32_t testChipID = AD5940_ReadReg(REG_AFECON_CHIPID);
 3791              		.loc 1 1142 0
 3792 006e 884B     		ldr	r3, .L195+32
 3793 0070 1800     		movs	r0, r3
 3794 0072 FFF7FEFF 		bl	AD5940_ReadReg
 3795 0076 0300     		movs	r3, r0
 3796 0078 7B60     		str	r3, [r7, #4]
1143:main.c        ****     printf("[DEBUG] CHIPID (raw read): 0x%08lX\n", testChipID);
 3797              		.loc 1 1143 0
 3798 007a 7A68     		ldr	r2, [r7, #4]
 3799 007c 854B     		ldr	r3, .L195+36
 3800 007e 1100     		movs	r1, r2
 3801 0080 1800     		movs	r0, r3
 3802 0082 FFF7FEFF 		bl	printf
1144:main.c        ****     if(testChipID == 0x5502 || testChipID == 0x5501)
 3803              		.loc 1 1144 0
 3804 0086 7B68     		ldr	r3, [r7, #4]
 3805 0088 834A     		ldr	r2, .L195+40
 3806 008a 9342     		cmp	r3, r2
 3807 008c 03D0     		beq	.L175
 3808              		.loc 1 1144 0 is_stmt 0 discriminator 1
 3809 008e 7B68     		ldr	r3, [r7, #4]
 3810 0090 824A     		ldr	r2, .L195+44
 3811 0092 9342     		cmp	r3, r2
 3812 0094 04D1     		bne	.L176
 3813              	.L175:
1145:main.c        ****     {
1146:main.c        ****         printf("[OK] ‚úÖ CHIPID VALID! SPI communication working correctly.\n");
 3814              		.loc 1 1146 0 is_stmt 1
ARM GAS  C:\Users\13740\AppData\Local\Temp\ccN8S1qO.s 			page 102


 3815 0096 824B     		ldr	r3, .L195+48
 3816 0098 1800     		movs	r0, r3
 3817 009a FFF7FEFF 		bl	puts
 3818 009e 09E0     		b	.L177
 3819              	.L176:
1147:main.c        ****     }
1148:main.c        ****     else
1149:main.c        ****     {
1150:main.c        ****         printf("[ERROR] ‚ùå CHIPID INVALID! Expected 0x5501/0x5502, got 0x%08lX\n", testChipID);
 3820              		.loc 1 1150 0
 3821 00a0 7A68     		ldr	r2, [r7, #4]
 3822 00a2 804B     		ldr	r3, .L195+52
 3823 00a4 1100     		movs	r1, r2
 3824 00a6 1800     		movs	r0, r3
 3825 00a8 FFF7FEFF 		bl	printf
1151:main.c        ****         printf("[ERROR] This indicates SPI read/write problem. Continuing anyway...\n");
 3826              		.loc 1 1151 0
 3827 00ac 7E4B     		ldr	r3, .L195+56
 3828 00ae 1800     		movs	r0, r3
 3829 00b0 FFF7FEFF 		bl	puts
 3830              	.L177:
1152:main.c        ****     }
1153:main.c        ****     printf("\n");
 3831              		.loc 1 1153 0
 3832 00b4 0A20     		movs	r0, #10
 3833 00b6 FFF7FEFF 		bl	putchar
1154:main.c        ****     
1155:main.c        ****     // ÂàùÂßãÂåñÊéßÂà∂ÂºïËÑö
1156:main.c        ****     printf("[INFO] Initializing control pins...\n");
 3834              		.loc 1 1156 0
 3835 00ba 7C4B     		ldr	r3, .L195+60
 3836 00bc 1800     		movs	r0, r3
 3837 00be FFF7FEFF 		bl	puts
1157:main.c        ****     DRUG_EN_1_Write(0);
 3838              		.loc 1 1157 0
 3839 00c2 0020     		movs	r0, #0
 3840 00c4 FFF7FEFF 		bl	DRUG_EN_1_Write
1158:main.c        ****     STIM_EN_A_Write(0);
 3841              		.loc 1 1158 0
 3842 00c8 0020     		movs	r0, #0
 3843 00ca FFF7FEFF 		bl	STIM_EN_A_Write
1159:main.c        ****     AMP1_EN_Write(0);
 3844              		.loc 1 1159 0
 3845 00ce 0020     		movs	r0, #0
 3846 00d0 FFF7FEFF 		bl	AMP1_EN_Write
1160:main.c        ****     AMP2_EN_Write(0);
 3847              		.loc 1 1160 0
 3848 00d4 0020     		movs	r0, #0
 3849 00d6 FFF7FEFF 		bl	AMP2_EN_Write
1161:main.c        ****     AMP3_EN_Write(0);
 3850              		.loc 1 1161 0
 3851 00da 0020     		movs	r0, #0
 3852 00dc FFF7FEFF 		bl	AMP3_EN_Write
1162:main.c        ****     printf("[OK] Control pins initialized\n");
 3853              		.loc 1 1162 0
 3854 00e0 734B     		ldr	r3, .L195+64
 3855 00e2 1800     		movs	r0, r3
ARM GAS  C:\Users\13740\AppData\Local\Temp\ccN8S1qO.s 			page 103


 3856 00e4 FFF7FEFF 		bl	puts
1163:main.c        ****         // ÂàùÂßãÂåñAD5941
1164:main.c        ****     printf("[INFO] Initializing AD5941...\n");
 3857              		.loc 1 1164 0
 3858 00e8 724B     		ldr	r3, .L195+68
 3859 00ea 1800     		movs	r0, r3
 3860 00ec FFF7FEFF 		bl	puts
1165:main.c        ****     AD5941_Initialize();
 3861              		.loc 1 1165 0
 3862 00f0 FFF7FEFF 		bl	AD5941_Initialize
1166:main.c        ****     // ÂêØÂä®ÂÆöÊó∂Âô®‰∏≠Êñ≠
1167:main.c        ****     printf("[INFO] Starting timer interrupt...\n");
 3863              		.loc 1 1167 0
 3864 00f4 704B     		ldr	r3, .L195+72
 3865 00f6 1800     		movs	r0, r3
 3866 00f8 FFF7FEFF 		bl	puts
1168:main.c        ****     CySysWdtSetInterruptCallback(CY_SYS_WDT_COUNTER2, Timer_Interrupt);
 3867              		.loc 1 1168 0
 3868 00fc 6F4B     		ldr	r3, .L195+76
 3869 00fe 1900     		movs	r1, r3
 3870 0100 0220     		movs	r0, #2
 3871 0102 FFF7FEFF 		bl	CySysWdtSetInterruptCallback
1169:main.c        ****     CySysWdtEnableCounterIsr(CY_SYS_WDT_COUNTER2);
 3872              		.loc 1 1169 0
 3873 0106 0220     		movs	r0, #2
 3874 0108 FFF7FEFF 		bl	CySysWdtEnableCounterIsr
1170:main.c        ****     printf("[OK] Timer started\n");
 3875              		.loc 1 1170 0
 3876 010c 6C4B     		ldr	r3, .L195+80
 3877 010e 1800     		movs	r0, r3
 3878 0110 FFF7FEFF 		bl	puts
1171:main.c        ****     
1172:main.c        ****     // ===== ÂÆåÊï¥ËØäÊñ≠ =====
1173:main.c        ****     printf("\n[DIAGNOSTIC] Running full system diagnostics...\n");
 3879              		.loc 1 1173 0
 3880 0114 6B4B     		ldr	r3, .L195+84
 3881 0116 1800     		movs	r0, r3
 3882 0118 FFF7FEFF 		bl	puts
1174:main.c        ****     CyDelay(500);
 3883              		.loc 1 1174 0
 3884 011c FA23     		movs	r3, #250
 3885 011e 5B00     		lsls	r3, r3, #1
 3886 0120 1800     		movs	r0, r3
 3887 0122 FFF7FEFF 		bl	CyDelay
1175:main.c        ****     FullDiagnostics();
 3888              		.loc 1 1175 0
 3889 0126 FFF7FEFF 		bl	FullDiagnostics
1176:main.c        ****     CyDelay(500);
 3890              		.loc 1 1176 0
 3891 012a FA23     		movs	r3, #250
 3892 012c 5B00     		lsls	r3, r3, #1
 3893 012e 1800     		movs	r0, r3
 3894 0130 FFF7FEFF 		bl	CyDelay
1177:main.c        ****     
1178:main.c        ****     // Á≠âÂæÖÂàùÂßãÂåñÂÆåÊàê
1179:main.c        ****     printf("[INFO] Waiting for AD5941 initialization...\n");
 3895              		.loc 1 1179 0
ARM GAS  C:\Users\13740\AppData\Local\Temp\ccN8S1qO.s 			page 104


 3896 0134 644B     		ldr	r3, .L195+88
 3897 0136 1800     		movs	r0, r3
 3898 0138 FFF7FEFF 		bl	puts
1180:main.c        ****     uint32 initWaitTime = 0;
 3899              		.loc 1 1180 0
 3900 013c 0023     		movs	r3, #0
 3901 013e FB60     		str	r3, [r7, #12]
1181:main.c        ****     while((pAmpCfg->AMPInited == bFALSE) && (initWaitTime < 5000))
 3902              		.loc 1 1181 0
 3903 0140 0FE0     		b	.L178
 3904              	.L180:
1182:main.c        ****     {
1183:main.c        ****         CyDelay(100);
 3905              		.loc 1 1183 0
 3906 0142 6420     		movs	r0, #100
 3907 0144 FFF7FEFF 		bl	CyDelay
1184:main.c        ****         initWaitTime += 100;
 3908              		.loc 1 1184 0
 3909 0148 FB68     		ldr	r3, [r7, #12]
 3910 014a 6433     		adds	r3, r3, #100
 3911 014c FB60     		str	r3, [r7, #12]
1185:main.c        ****         printf("[INFO] Init status: %d (waited %lu ms)\n", (int)pAmpCfg->AMPInited, initWaitTime);
 3912              		.loc 1 1185 0
 3913 014e 5F4B     		ldr	r3, .L195+92
 3914 0150 1B68     		ldr	r3, [r3]
 3915 0152 6C22     		movs	r2, #108
 3916 0154 9B5C     		ldrb	r3, [r3, r2]
 3917 0156 1900     		movs	r1, r3
 3918 0158 FA68     		ldr	r2, [r7, #12]
 3919 015a 5D4B     		ldr	r3, .L195+96
 3920 015c 1800     		movs	r0, r3
 3921 015e FFF7FEFF 		bl	printf
 3922              	.L178:
1181:main.c        ****     {
 3923              		.loc 1 1181 0
 3924 0162 5A4B     		ldr	r3, .L195+92
 3925 0164 1B68     		ldr	r3, [r3]
 3926 0166 6C22     		movs	r2, #108
 3927 0168 9B5C     		ldrb	r3, [r3, r2]
 3928 016a 002B     		cmp	r3, #0
 3929 016c 03D1     		bne	.L179
1181:main.c        ****     {
 3930              		.loc 1 1181 0 is_stmt 0 discriminator 1
 3931 016e FB68     		ldr	r3, [r7, #12]
 3932 0170 584A     		ldr	r2, .L195+100
 3933 0172 9342     		cmp	r3, r2
 3934 0174 E5D9     		bls	.L180
 3935              	.L179:
1186:main.c        ****     }
1187:main.c        ****         if(pAmpCfg->AMPInited == bTRUE)
 3936              		.loc 1 1187 0 is_stmt 1
 3937 0176 554B     		ldr	r3, .L195+92
 3938 0178 1B68     		ldr	r3, [r3]
 3939 017a 6C22     		movs	r2, #108
 3940 017c 9B5C     		ldrb	r3, [r3, r2]
 3941 017e 012B     		cmp	r3, #1
 3942 0180 0CD1     		bne	.L181
ARM GAS  C:\Users\13740\AppData\Local\Temp\ccN8S1qO.s 			page 105


1188:main.c        ****     {
1189:main.c        ****         printf("[INFO] Enabling electrode channels...\n");
 3943              		.loc 1 1189 0
 3944 0182 554B     		ldr	r3, .L195+104
 3945 0184 1800     		movs	r0, r3
 3946 0186 FFF7FEFF 		bl	puts
1190:main.c        ****         AMP1_EN_Write(1);
 3947              		.loc 1 1190 0
 3948 018a 0120     		movs	r0, #1
 3949 018c FFF7FEFF 		bl	AMP1_EN_Write
1191:main.c        ****         AMP2_EN_Write(1);
 3950              		.loc 1 1191 0
 3951 0190 0120     		movs	r0, #1
 3952 0192 FFF7FEFF 		bl	AMP2_EN_Write
1192:main.c        ****         AMP3_EN_Write(1);
 3953              		.loc 1 1192 0
 3954 0196 0120     		movs	r0, #1
 3955 0198 FFF7FEFF 		bl	AMP3_EN_Write
 3956              	.L181:
1193:main.c        ****     }
1194:main.c        ****     if(pAmpCfg->AMPInited == bTRUE)
 3957              		.loc 1 1194 0
 3958 019c 4B4B     		ldr	r3, .L195+92
 3959 019e 1B68     		ldr	r3, [r3]
 3960 01a0 6C22     		movs	r2, #108
 3961 01a2 9B5C     		ldrb	r3, [r3, r2]
 3962 01a4 012B     		cmp	r3, #1
 3963 01a6 04D1     		bne	.L182
1195:main.c        ****     {
1196:main.c        ****         printf("[OK] AD5941 initialization COMPLETE!\n");
 3964              		.loc 1 1196 0
 3965 01a8 4C4B     		ldr	r3, .L195+108
 3966 01aa 1800     		movs	r0, r3
 3967 01ac FFF7FEFF 		bl	puts
 3968 01b0 03E0     		b	.L183
 3969              	.L182:
1197:main.c        ****     }
1198:main.c        ****     else
1199:main.c        ****     {
1200:main.c        ****         printf("[WARNING] AD5941 initialization timeout or failed\n");
 3970              		.loc 1 1200 0
 3971 01b2 4B4B     		ldr	r3, .L195+112
 3972 01b4 1800     		movs	r0, r3
 3973 01b6 FFF7FEFF 		bl	puts
 3974              	.L183:
1201:main.c        ****     }
1202:main.c        ****     
1203:main.c        ****     uint32 lastSendTime = 0;
 3975              		.loc 1 1203 0
 3976 01ba 0023     		movs	r3, #0
 3977 01bc BB60     		str	r3, [r7, #8]
1204:main.c        ****     #define SEND_INTERVAL 3  // ÊØè3ÁßíÂà∑Êñ∞‰∏ÄÊ¨°
1205:main.c        ****     
1206:main.c        ****     printf("[INFO] Entering main loop...\n");
 3978              		.loc 1 1206 0
 3979 01be 494B     		ldr	r3, .L195+116
 3980 01c0 1800     		movs	r0, r3
ARM GAS  C:\Users\13740\AppData\Local\Temp\ccN8S1qO.s 			page 106


 3981 01c2 FFF7FEFF 		bl	puts
1207:main.c        ****     printf("*** SYSTEM READY ***\n\n");
 3982              		.loc 1 1207 0
 3983 01c6 484B     		ldr	r3, .L195+120
 3984 01c8 1800     		movs	r0, r3
 3985 01ca FFF7FEFF 		bl	puts
 3986              	.L192:
1208:main.c        ****     /***************************************************************************
1209:main.c        ****     * ‰∏ªÂæ™ÁéØ
1210:main.c        ****     ***************************************************************************/
1211:main.c        ****     while(1)
1212:main.c        ****     {
1213:main.c        ****         // Â§ÑÁêÜBLE‰∫ã‰ª∂
1214:main.c        ****         CyBle_ProcessEvents();
 3987              		.loc 1 1214 0
 3988 01ce FFF7FEFF 		bl	CyBle_ProcessEvents
1215:main.c        ****         
1216:main.c        ****         // ‰ΩéÂäüËÄóÁÆ°ÁêÜ
1217:main.c        ****         //LowPowerImplementation();
1218:main.c        ****         
1219:main.c        ****         // ÊØèÁßíÊâßË°å‰∏ÄÊ¨°‰º†ÊÑüÂô®ÊµãÈáè
1220:main.c        ****         if(measurementFlag)
 3989              		.loc 1 1220 0
 3990 01d2 464B     		ldr	r3, .L195+124
 3991 01d4 1B78     		ldrb	r3, [r3]
 3992 01d6 DBB2     		uxtb	r3, r3
 3993 01d8 002B     		cmp	r3, #0
 3994 01da 3CD0     		beq	.L184
1221:main.c        ****         {
1222:main.c        ****             measurementFlag = 0;
 3995              		.loc 1 1222 0
 3996 01dc 434B     		ldr	r3, .L195+124
 3997 01de 0022     		movs	r2, #0
 3998 01e0 1A70     		strb	r2, [r3]
1223:main.c        ****             
1224:main.c        ****             // ÊµãÈáèÊâÄÊúâ‰º†ÊÑüÂô®
1225:main.c        ****             MeasureAllSensorsWithCurrent();
 3999              		.loc 1 1225 0
 4000 01e2 FFF7FEFF 		bl	MeasureAllSensorsWithCurrent
1226:main.c        ****             
1227:main.c        ****             // ÊØè3ÁßíÂèëÈÄÅ‰∏ÄÊ¨°Êï∞ÊçÆÔºàËá™Âä®Âà∑Êñ∞Ôºâ
1228:main.c        ****             if((mainTimer - lastSendTime) >= SEND_INTERVAL)
 4001              		.loc 1 1228 0
 4002 01e6 424B     		ldr	r3, .L195+128
 4003 01e8 1A68     		ldr	r2, [r3]
 4004 01ea BB68     		ldr	r3, [r7, #8]
 4005 01ec D31A     		subs	r3, r2, r3
 4006 01ee 022B     		cmp	r3, #2
 4007 01f0 08D9     		bls	.L185
1229:main.c        ****             {
1230:main.c        ****                 lastSendTime = mainTimer;
 4008              		.loc 1 1230 0
 4009 01f2 3F4B     		ldr	r3, .L195+128
 4010 01f4 1B68     		ldr	r3, [r3]
 4011 01f6 BB60     		str	r3, [r7, #8]
1231:main.c        ****                 
1232:main.c        ****                 if(CyBle_GetState() == CYBLE_STATE_CONNECTED)
ARM GAS  C:\Users\13740\AppData\Local\Temp\ccN8S1qO.s 			page 107


 4012              		.loc 1 1232 0
 4013 01f8 3E4B     		ldr	r3, .L195+132
 4014 01fa 1B78     		ldrb	r3, [r3]
 4015 01fc 022B     		cmp	r3, #2
 4016 01fe 01D1     		bne	.L185
1233:main.c        ****                 {
1234:main.c        ****                     SendAllSensorDataViaBLE();  // ‰ΩøÁî®Êñ∞ÁöÑÂèëÈÄÅÂáΩÊï∞
 4017              		.loc 1 1234 0
 4018 0200 FFF7FEFF 		bl	SendAllSensorDataViaBLE
 4019              	.L185:
1235:main.c        ****                 }
1236:main.c        ****             }
1237:main.c        ****             
1238:main.c        ****             // Êô∫ËÉΩÊ≤ªÁñóÂÜ≥Á≠ñ
1239:main.c        ****             // 1. Ê£ÄÊµãÊÑüÊüìÔºàÊ∏©Â∫¶ÂçáÈ´òÊàñ‰π≥ÈÖ∏ÂçáÈ´òÔºâ
1240:main.c        ****             if(sensorData.temperature > 38.5 || sensorData.lactate > 5.0)
 4020              		.loc 1 1240 0
 4021 0204 3C4B     		ldr	r3, .L195+136
 4022 0206 1B68     		ldr	r3, [r3]
 4023 0208 3C49     		ldr	r1, .L195+140
 4024 020a 181C     		adds	r0, r3, #0
 4025 020c FFF7FEFF 		bl	__aeabi_fcmpgt
 4026 0210 031E     		subs	r3, r0, #0
 4027 0212 07D1     		bne	.L186
 4028              		.loc 1 1240 0 is_stmt 0 discriminator 1
 4029 0214 384B     		ldr	r3, .L195+136
 4030 0216 9B68     		ldr	r3, [r3, #8]
 4031 0218 3949     		ldr	r1, .L195+144
 4032 021a 181C     		adds	r0, r3, #0
 4033 021c FFF7FEFF 		bl	__aeabi_fcmpgt
 4034 0220 031E     		subs	r3, r0, #0
 4035 0222 09D0     		beq	.L187
 4036              	.L186:
1241:main.c        ****             {
1242:main.c        ****                 ControlDrugRelease(1);
 4037              		.loc 1 1242 0 is_stmt 1
 4038 0224 0120     		movs	r0, #1
 4039 0226 FFF7FEFF 		bl	ControlDrugRelease
1243:main.c        ****                 CyDelay(10000);  // ÈáäÊîæ10ÁßíÔºàÂÆûÈôÖÂ∫îËØ•ÊòØ10ÂàÜÈíüÔºåËøôÈáåÁº©Áü≠Áî®‰∫éÊµãËØ
 4040              		.loc 1 1243 0
 4041 022a 364B     		ldr	r3, .L195+148
 4042 022c 1800     		movs	r0, r3
 4043 022e FFF7FEFF 		bl	CyDelay
1244:main.c        ****                 ControlDrugRelease(0);
 4044              		.loc 1 1244 0
 4045 0232 0020     		movs	r0, #0
 4046 0234 FFF7FEFF 		bl	ControlDrugRelease
 4047              	.L187:
1245:main.c        ****             }
1246:main.c        ****             
1247:main.c        ****             // 2. ‰øÉËøõÊÑàÂêàÔºàÁîµÂà∫ÊøÄÔºâ
1248:main.c        ****             if(sensorData.glucose > 10.0)
 4048              		.loc 1 1248 0
 4049 0238 2F4B     		ldr	r3, .L195+136
 4050 023a 5B68     		ldr	r3, [r3, #4]
 4051 023c 3249     		ldr	r1, .L195+152
 4052 023e 181C     		adds	r0, r3, #0
ARM GAS  C:\Users\13740\AppData\Local\Temp\ccN8S1qO.s 			page 108


 4053 0240 FFF7FEFF 		bl	__aeabi_fcmpgt
 4054 0244 031E     		subs	r3, r0, #0
 4055 0246 03D0     		beq	.L194
1249:main.c        ****             {
1250:main.c        ****                 ControlElectricalStimulation(1);
 4056              		.loc 1 1250 0
 4057 0248 0120     		movs	r0, #1
 4058 024a FFF7FEFF 		bl	ControlElectricalStimulation
 4059 024e 02E0     		b	.L184
 4060              	.L194:
1251:main.c        ****             }
1252:main.c        ****             else
1253:main.c        ****             {
1254:main.c        ****                 ControlElectricalStimulation(0);
 4061              		.loc 1 1254 0
 4062 0250 0020     		movs	r0, #0
 4063 0252 FFF7FEFF 		bl	ControlElectricalStimulation
 4064              	.L184:
1255:main.c        ****             }
1256:main.c        ****         }
1257:main.c        ****         
1258:main.c        ****         // FlashÂÜôÂÖ•
1259:main.c        ****         if(cyBle_pendingFlashWrite != 0u)
 4065              		.loc 1 1259 0
 4066 0256 2D4B     		ldr	r3, .L195+156
 4067 0258 1B78     		ldrb	r3, [r3]
 4068 025a 002B     		cmp	r3, #0
 4069 025c B7D0     		beq	.L192
1260:main.c        ****         {
1261:main.c        ****             apiResult = CyBle_StoreBondingData(0u);
 4070              		.loc 1 1261 0
 4071 025e 0020     		movs	r0, #0
 4072 0260 FFF7FEFF 		bl	CyBle_StoreBondingData
 4073 0264 0300     		movs	r3, r0
 4074 0266 1A00     		movs	r2, r3
 4075 0268 034B     		ldr	r3, .L195+8
 4076 026a 1A80     		strh	r2, [r3]
1262:main.c        ****         }
1263:main.c        ****     }
 4077              		.loc 1 1263 0
 4078 026c AFE7     		b	.L192
 4079              	.L196:
 4080 026e C046     		.align	2
 4081              	.L195:
 4082 0270 7C140000 		.word	.LC270
 4083 0274 00000000 		.word	AppCallBack
 4084 0278 00000000 		.word	apiResult
 4085 027c 94140000 		.word	.LC274
 4086 0280 B8140000 		.word	.LC276
 4087 0284 D0140000 		.word	.LC278
 4088 0288 EC140000 		.word	.LC280
 4089 028c 04150000 		.word	.LC282
 4090 0290 04040000 		.word	1028
 4091 0294 3C150000 		.word	.LC284
 4092 0298 02550000 		.word	21762
 4093 029c 01550000 		.word	21761
 4094 02a0 60150000 		.word	.LC286
ARM GAS  C:\Users\13740\AppData\Local\Temp\ccN8S1qO.s 			page 109


 4095 02a4 9C150000 		.word	.LC288
 4096 02a8 E0150000 		.word	.LC290
 4097 02ac 24160000 		.word	.LC292
 4098 02b0 48160000 		.word	.LC294
 4099 02b4 68160000 		.word	.LC296
 4100 02b8 88160000 		.word	.LC298
 4101 02bc 00000000 		.word	Timer_Interrupt
 4102 02c0 AC160000 		.word	.LC301
 4103 02c4 C0160000 		.word	.LC303
 4104 02c8 F4160000 		.word	.LC305
 4105 02cc 00000000 		.word	pAmpCfg
 4106 02d0 20170000 		.word	.LC308
 4107 02d4 87130000 		.word	4999
 4108 02d8 48170000 		.word	.LC310
 4109 02dc 70170000 		.word	.LC312
 4110 02e0 98170000 		.word	.LC314
 4111 02e4 CC170000 		.word	.LC316
 4112 02e8 EC170000 		.word	.LC318
 4113 02ec 00000000 		.word	measurementFlag
 4114 02f0 00000000 		.word	mainTimer
 4115 02f4 00000000 		.word	cyBle_state
 4116 02f8 00000000 		.word	sensorData
 4117 02fc 00001A42 		.word	1109000192
 4118 0300 0000A040 		.word	1084227584
 4119 0304 10270000 		.word	10000
 4120 0308 00002041 		.word	1092616192
 4121 030c 00000000 		.word	cyBle_pendingFlashWrite
 4122              		.cfi_endproc
 4123              	.LFE57:
 4124              		.size	main, .-main
 4125              		.section	.rodata
 4126 1802 0000     		.align	2
 4127              	.LC326:
 4128 1804 E5B9BFE6 		.ascii	"\345\271\277\346\222\255\345\220\257\345\212\250\345"
 4128      92ADE590 
 4128      AFE58AA8 
 4128      E5
 4129 1811 A4B1E8B4 		.ascii	"\244\261\350\264\245: %d\015\012\000"
 4129      A53A2025 
 4129      640D0A00 
 4130 181d 000000   		.align	2
 4131              	.LC328:
 4132 1820 E5BC80E5 		.ascii	"\345\274\200\345\247\213\345\271\277\346\222\255, \345"
 4132      A78BE5B9 
 4132      BFE692AD 
 4132      2C20E5
 4133 182f 9CB0E59D 		.ascii	"\234\260\345\235\200: \000"
 4133      803A2000 
 4134 1837 00       		.align	2
 4135              	.LC330:
 4136 1838 25322E32 		.ascii	"%2.2x\000"
 4136      7800
 4137 183e 0000     		.align	2
 4138              	.LC332:
 4139 1840 0D00     		.ascii	"\015\000"
 4140              		.section	.text.StartAdvertisement,"ax",%progbits
 4141              		.align	2
ARM GAS  C:\Users\13740\AppData\Local\Temp\ccN8S1qO.s 			page 110


 4142              		.global	StartAdvertisement
 4143              		.code	16
 4144              		.thumb_func
 4145              		.type	StartAdvertisement, %function
 4146              	StartAdvertisement:
 4147              	.LFB58:
1264:main.c        **** }
1265:main.c        **** 
1266:main.c        **** /*******************************************************************************
1267:main.c        **** * Function Name: StartAdvertisement
1268:main.c        **** ********************************************************************************
1269:main.c        **** * Summary:
1270:main.c        **** *   ÂêØÂä®BLEÂπøÊí≠
1271:main.c        **** *******************************************************************************/
1272:main.c        **** void StartAdvertisement(void)
1273:main.c        **** {
 4148              		.loc 1 1273 0
 4149              		.cfi_startproc
 4150              		@ args = 0, pretend = 0, frame = 16
 4151              		@ frame_needed = 1, uses_anonymous_args = 0
 4152 0000 80B5     		push	{r7, lr}
 4153              		.cfi_def_cfa_offset 8
 4154              		.cfi_offset 7, -8
 4155              		.cfi_offset 14, -4
 4156 0002 84B0     		sub	sp, sp, #16
 4157              		.cfi_def_cfa_offset 24
 4158 0004 00AF     		add	r7, sp, #0
 4159              		.cfi_def_cfa_register 7
1274:main.c        ****     uint16 i;
1275:main.c        ****     CYBLE_GAP_BD_ADDR_T localAddr;
1276:main.c        ****     
1277:main.c        ****     apiResult = CyBle_GappStartAdvertisement(CYBLE_ADVERTISING_FAST);
 4160              		.loc 1 1277 0
 4161 0006 0020     		movs	r0, #0
 4162 0008 FFF7FEFF 		bl	CyBle_GappStartAdvertisement
 4163 000c 0300     		movs	r3, r0
 4164 000e 1A00     		movs	r2, r3
 4165 0010 1F4B     		ldr	r3, .L203
 4166 0012 1A80     		strh	r2, [r3]
1278:main.c        ****     if(apiResult != CYBLE_ERROR_OK)
 4167              		.loc 1 1278 0
 4168 0014 1E4B     		ldr	r3, .L203
 4169 0016 1B88     		ldrh	r3, [r3]
 4170 0018 002B     		cmp	r3, #0
 4171 001a 08D0     		beq	.L198
1279:main.c        ****     {
1280:main.c        ****         DBG_PRINTF("ÂπøÊí≠ÂêØÂä®Â§±Ë¥•: %d\r\n", apiResult);
 4172              		.loc 1 1280 0
 4173 001c 1C4B     		ldr	r3, .L203
 4174 001e 1B88     		ldrh	r3, [r3]
 4175 0020 1A00     		movs	r2, r3
 4176 0022 1C4B     		ldr	r3, .L203+4
 4177 0024 1100     		movs	r1, r2
 4178 0026 1800     		movs	r0, r3
 4179 0028 FFF7FEFF 		bl	printf
1281:main.c        ****     }
1282:main.c        ****     else
ARM GAS  C:\Users\13740\AppData\Local\Temp\ccN8S1qO.s 			page 111


1283:main.c        ****     {
1284:main.c        ****         DBG_PRINTF("ÂºÄÂßãÂπøÊí≠, Âú∞ÂùÄ: ");
1285:main.c        ****         localAddr.type = 0u;
1286:main.c        ****         CyBle_GetDeviceAddress(&localAddr);
1287:main.c        ****         for(i = CYBLE_GAP_BD_ADDR_SIZE; i > 0u; i--)
1288:main.c        ****         {
1289:main.c        ****             DBG_PRINTF("%2.2x", localAddr.bdAddr[i-1]);
1290:main.c        ****         }
1291:main.c        ****         DBG_PRINTF("\r\n");
1292:main.c        ****     }
1293:main.c        **** }
 4180              		.loc 1 1293 0
 4181 002c 2BE0     		b	.L202
 4182              	.L198:
1284:main.c        ****         localAddr.type = 0u;
 4183              		.loc 1 1284 0
 4184 002e 1A4B     		ldr	r3, .L203+8
 4185 0030 1800     		movs	r0, r3
 4186 0032 FFF7FEFF 		bl	printf
1285:main.c        ****         CyBle_GetDeviceAddress(&localAddr);
 4187              		.loc 1 1285 0
 4188 0036 3B1D     		adds	r3, r7, #4
 4189 0038 0022     		movs	r2, #0
 4190 003a 9A71     		strb	r2, [r3, #6]
1286:main.c        ****         for(i = CYBLE_GAP_BD_ADDR_SIZE; i > 0u; i--)
 4191              		.loc 1 1286 0
 4192 003c 3B1D     		adds	r3, r7, #4
 4193 003e 1800     		movs	r0, r3
 4194 0040 FFF7FEFF 		bl	CyBle_GetDeviceAddress
1287:main.c        ****         {
 4195              		.loc 1 1287 0
 4196 0044 0E23     		movs	r3, #14
 4197 0046 FB18     		adds	r3, r7, r3
 4198 0048 0622     		movs	r2, #6
 4199 004a 1A80     		strh	r2, [r3]
 4200 004c 12E0     		b	.L200
 4201              	.L201:
1289:main.c        ****         }
 4202              		.loc 1 1289 0 discriminator 3
 4203 004e 0E23     		movs	r3, #14
 4204 0050 FB18     		adds	r3, r7, r3
 4205 0052 1B88     		ldrh	r3, [r3]
 4206 0054 013B     		subs	r3, r3, #1
 4207 0056 3A1D     		adds	r2, r7, #4
 4208 0058 D35C     		ldrb	r3, [r2, r3]
 4209 005a 1A00     		movs	r2, r3
 4210 005c 0F4B     		ldr	r3, .L203+12
 4211 005e 1100     		movs	r1, r2
 4212 0060 1800     		movs	r0, r3
 4213 0062 FFF7FEFF 		bl	printf
1287:main.c        ****         {
 4214              		.loc 1 1287 0 discriminator 3
 4215 0066 0E23     		movs	r3, #14
 4216 0068 FB18     		adds	r3, r7, r3
 4217 006a 1A88     		ldrh	r2, [r3]
 4218 006c 0E23     		movs	r3, #14
 4219 006e FB18     		adds	r3, r7, r3
ARM GAS  C:\Users\13740\AppData\Local\Temp\ccN8S1qO.s 			page 112


 4220 0070 013A     		subs	r2, r2, #1
 4221 0072 1A80     		strh	r2, [r3]
 4222              	.L200:
1287:main.c        ****         {
 4223              		.loc 1 1287 0 is_stmt 0 discriminator 1
 4224 0074 0E23     		movs	r3, #14
 4225 0076 FB18     		adds	r3, r7, r3
 4226 0078 1B88     		ldrh	r3, [r3]
 4227 007a 002B     		cmp	r3, #0
 4228 007c E7D1     		bne	.L201
1291:main.c        ****     }
 4229              		.loc 1 1291 0 is_stmt 1
 4230 007e 084B     		ldr	r3, .L203+16
 4231 0080 1800     		movs	r0, r3
 4232 0082 FFF7FEFF 		bl	puts
 4233              	.L202:
 4234              		.loc 1 1293 0
 4235 0086 C046     		nop
 4236 0088 BD46     		mov	sp, r7
 4237 008a 04B0     		add	sp, sp, #16
 4238              		@ sp needed
 4239 008c 80BD     		pop	{r7, pc}
 4240              	.L204:
 4241 008e C046     		.align	2
 4242              	.L203:
 4243 0090 00000000 		.word	apiResult
 4244 0094 04180000 		.word	.LC326
 4245 0098 20180000 		.word	.LC328
 4246 009c 38180000 		.word	.LC330
 4247 00a0 40180000 		.word	.LC332
 4248              		.cfi_endproc
 4249              	.LFE58:
 4250              		.size	StartAdvertisement, .-StartAdvertisement
 4251              		.bss
 4252              		.align	2
 4253              	ampFifoBuffer.9723:
 4254 002c 00000000 		.space	1024
 4254      00000000 
 4254      00000000 
 4254      00000000 
 4254      00000000 
 4255              		.align	2
 4256              	dataString.9754:
 4257 042c 00000000 		.space	30
 4257      00000000 
 4257      00000000 
 4257      00000000 
 4257      00000000 
 4258              	diagStep.9760:
 4259 044a 00       		.space	1
 4260 044b 00       		.align	2
 4261              	dataString.9759:
 4262 044c 00000000 		.space	40
 4262      00000000 
 4262      00000000 
 4262      00000000 
 4262      00000000 
ARM GAS  C:\Users\13740\AppData\Local\Temp\ccN8S1qO.s 			page 113


 4263              		.align	2
 4264              	tempString.9773:
 4265 0474 00000000 		.space	40
 4265      00000000 
 4265      00000000 
 4265      00000000 
 4265      00000000 
 4266              		.data
 4267              		.type	led.9782, %object
 4268              		.size	led.9782, 1
 4269              	led.9782:
 4270 0000 01       		.byte	1
 4271              		.text
 4272              	.Letext0:
 4273              		.file 2 "f:\\infineon\\psoc creator\\4.4\\psoc creator\\import\\gnu\\arm\\5.4.1\\arm-none-eabi\\in
 4274              		.file 3 "f:\\infineon\\psoc creator\\4.4\\psoc creator\\import\\gnu\\arm\\5.4.1\\arm-none-eabi\\in
 4275              		.file 4 "Generated_Source\\PSoC4/cytypes.h"
 4276              		.file 5 "Generated_Source\\PSoC4/CYBLE_Stack.h"
 4277              		.file 6 "Generated_Source\\PSoC4/CYBLE_StackGatt.h"
 4278              		.file 7 "Generated_Source\\PSoC4/CYBLE_StackGattServer.h"
 4279              		.file 8 "Generated_Source\\PSoC4/CYBLE_eventHandler.h"
 4280              		.file 9 "ad5940.h"
 4281              		.file 10 "Amperometric.h"
 4282              		.file 11 "Generated_Source\\PSoC4/CYBLE.h"
 4283              		.section	.debug_info,"",%progbits
 4284              	.Ldebug_info0:
 4285 0000 1A0F0000 		.4byte	0xf1a
 4286 0004 0400     		.2byte	0x4
 4287 0006 00000000 		.4byte	.Ldebug_abbrev0
 4288 000a 04       		.byte	0x4
 4289 000b 01       		.uleb128 0x1
 4290 000c A6020000 		.4byte	.LASF294
 4291 0010 0C       		.byte	0xc
 4292 0011 3B0C0000 		.4byte	.LASF295
 4293 0015 54160000 		.4byte	.LASF296
 4294 0019 00000000 		.4byte	.Ldebug_ranges0+0
 4295 001d 00000000 		.4byte	0
 4296 0021 00000000 		.4byte	.Ldebug_line0
 4297 0025 02       		.uleb128 0x2
 4298 0026 01       		.byte	0x1
 4299 0027 06       		.byte	0x6
 4300 0028 2D160000 		.4byte	.LASF0
 4301 002c 03       		.uleb128 0x3
 4302 002d 66120000 		.4byte	.LASF4
 4303 0031 02       		.byte	0x2
 4304 0032 1D       		.byte	0x1d
 4305 0033 37000000 		.4byte	0x37
 4306 0037 02       		.uleb128 0x2
 4307 0038 01       		.byte	0x1
 4308 0039 08       		.byte	0x8
 4309 003a 7D140000 		.4byte	.LASF1
 4310 003e 02       		.uleb128 0x2
 4311 003f 02       		.byte	0x2
 4312 0040 05       		.byte	0x5
 4313 0041 36100000 		.4byte	.LASF2
 4314 0045 02       		.uleb128 0x2
 4315 0046 02       		.byte	0x2
ARM GAS  C:\Users\13740\AppData\Local\Temp\ccN8S1qO.s 			page 114


 4316 0047 07       		.byte	0x7
 4317 0048 41160000 		.4byte	.LASF3
 4318 004c 03       		.uleb128 0x3
 4319 004d 67020000 		.4byte	.LASF5
 4320 0051 02       		.byte	0x2
 4321 0052 3F       		.byte	0x3f
 4322 0053 57000000 		.4byte	0x57
 4323 0057 02       		.uleb128 0x2
 4324 0058 04       		.byte	0x4
 4325 0059 05       		.byte	0x5
 4326 005a 58100000 		.4byte	.LASF6
 4327 005e 03       		.uleb128 0x3
 4328 005f 8B140000 		.4byte	.LASF7
 4329 0063 02       		.byte	0x2
 4330 0064 41       		.byte	0x41
 4331 0065 69000000 		.4byte	0x69
 4332 0069 02       		.uleb128 0x2
 4333 006a 04       		.byte	0x4
 4334 006b 07       		.byte	0x7
 4335 006c 110E0000 		.4byte	.LASF8
 4336 0070 02       		.uleb128 0x2
 4337 0071 08       		.byte	0x8
 4338 0072 05       		.byte	0x5
 4339 0073 110C0000 		.4byte	.LASF9
 4340 0077 02       		.uleb128 0x2
 4341 0078 08       		.byte	0x8
 4342 0079 07       		.byte	0x7
 4343 007a 5D050000 		.4byte	.LASF10
 4344 007e 04       		.uleb128 0x4
 4345 007f 04       		.byte	0x4
 4346 0080 05       		.byte	0x5
 4347 0081 696E7400 		.ascii	"int\000"
 4348 0085 02       		.uleb128 0x2
 4349 0086 04       		.byte	0x4
 4350 0087 07       		.byte	0x7
 4351 0088 DE010000 		.4byte	.LASF11
 4352 008c 03       		.uleb128 0x3
 4353 008d 1E0B0000 		.4byte	.LASF12
 4354 0091 03       		.byte	0x3
 4355 0092 18       		.byte	0x18
 4356 0093 2C000000 		.4byte	0x2c
 4357 0097 03       		.uleb128 0x3
 4358 0098 B9130000 		.4byte	.LASF13
 4359 009c 03       		.byte	0x3
 4360 009d 2C       		.byte	0x2c
 4361 009e 4C000000 		.4byte	0x4c
 4362 00a2 03       		.uleb128 0x3
 4363 00a3 76040000 		.4byte	.LASF14
 4364 00a7 03       		.byte	0x3
 4365 00a8 30       		.byte	0x30
 4366 00a9 5E000000 		.4byte	0x5e
 4367 00ad 05       		.uleb128 0x5
 4368 00ae DE160000 		.4byte	.LASF15
 4369 00b2 04       		.byte	0x4
 4370 00b3 D201     		.2byte	0x1d2
 4371 00b5 37000000 		.4byte	0x37
 4372 00b9 05       		.uleb128 0x5
ARM GAS  C:\Users\13740\AppData\Local\Temp\ccN8S1qO.s 			page 115


 4373 00ba D50A0000 		.4byte	.LASF16
 4374 00be 04       		.byte	0x4
 4375 00bf D301     		.2byte	0x1d3
 4376 00c1 45000000 		.4byte	0x45
 4377 00c5 05       		.uleb128 0x5
 4378 00c6 C60D0000 		.4byte	.LASF17
 4379 00ca 04       		.byte	0x4
 4380 00cb D401     		.2byte	0x1d4
 4381 00cd 69000000 		.4byte	0x69
 4382 00d1 02       		.uleb128 0x2
 4383 00d2 04       		.byte	0x4
 4384 00d3 04       		.byte	0x4
 4385 00d4 B7040000 		.4byte	.LASF18
 4386 00d8 02       		.uleb128 0x2
 4387 00d9 08       		.byte	0x8
 4388 00da 04       		.byte	0x4
 4389 00db 8D070000 		.4byte	.LASF19
 4390 00df 02       		.uleb128 0x2
 4391 00e0 01       		.byte	0x1
 4392 00e1 08       		.byte	0x8
 4393 00e2 160A0000 		.4byte	.LASF20
 4394 00e6 06       		.uleb128 0x6
 4395 00e7 AD000000 		.4byte	0xad
 4396 00eb 06       		.uleb128 0x6
 4397 00ec C5000000 		.4byte	0xc5
 4398 00f0 02       		.uleb128 0x2
 4399 00f1 08       		.byte	0x8
 4400 00f2 04       		.byte	0x4
 4401 00f3 F50E0000 		.4byte	.LASF21
 4402 00f7 02       		.uleb128 0x2
 4403 00f8 04       		.byte	0x4
 4404 00f9 07       		.byte	0x7
 4405 00fa E90F0000 		.4byte	.LASF22
 4406 00fe 07       		.uleb128 0x7
 4407 00ff 04       		.byte	0x4
 4408 0100 08       		.uleb128 0x8
 4409 0101 01       		.byte	0x1
 4410 0102 37000000 		.4byte	0x37
 4411 0106 05       		.byte	0x5
 4412 0107 4D01     		.2byte	0x14d
 4413 0109 BE020000 		.4byte	0x2be
 4414 010d 09       		.uleb128 0x9
 4415 010e ED140000 		.4byte	.LASF23
 4416 0112 00       		.byte	0
 4417 0113 09       		.uleb128 0x9
 4418 0114 C20A0000 		.4byte	.LASF24
 4419 0118 01       		.byte	0x1
 4420 0119 09       		.uleb128 0x9
 4421 011a AB0F0000 		.4byte	.LASF25
 4422 011e 02       		.byte	0x2
 4423 011f 09       		.uleb128 0x9
 4424 0120 C5010000 		.4byte	.LASF26
 4425 0124 03       		.byte	0x3
 4426 0125 09       		.uleb128 0x9
 4427 0126 EA090000 		.4byte	.LASF27
 4428 012a 04       		.byte	0x4
 4429 012b 09       		.uleb128 0x9
ARM GAS  C:\Users\13740\AppData\Local\Temp\ccN8S1qO.s 			page 116


 4430 012c E5040000 		.4byte	.LASF28
 4431 0130 05       		.byte	0x5
 4432 0131 09       		.uleb128 0x9
 4433 0132 2E140000 		.4byte	.LASF29
 4434 0136 06       		.byte	0x6
 4435 0137 09       		.uleb128 0x9
 4436 0138 51110000 		.4byte	.LASF30
 4437 013c 20       		.byte	0x20
 4438 013d 09       		.uleb128 0x9
 4439 013e 87000000 		.4byte	.LASF31
 4440 0142 21       		.byte	0x21
 4441 0143 09       		.uleb128 0x9
 4442 0144 4F030000 		.4byte	.LASF32
 4443 0148 22       		.byte	0x22
 4444 0149 09       		.uleb128 0x9
 4445 014a 56130000 		.4byte	.LASF33
 4446 014e 23       		.byte	0x23
 4447 014f 09       		.uleb128 0x9
 4448 0150 2D070000 		.4byte	.LASF34
 4449 0154 24       		.byte	0x24
 4450 0155 09       		.uleb128 0x9
 4451 0156 14140000 		.4byte	.LASF35
 4452 015a 25       		.byte	0x25
 4453 015b 09       		.uleb128 0x9
 4454 015c 8E0D0000 		.4byte	.LASF36
 4455 0160 26       		.byte	0x26
 4456 0161 09       		.uleb128 0x9
 4457 0162 70150000 		.4byte	.LASF37
 4458 0166 27       		.byte	0x27
 4459 0167 09       		.uleb128 0x9
 4460 0168 70120000 		.4byte	.LASF38
 4461 016c 28       		.byte	0x28
 4462 016d 09       		.uleb128 0x9
 4463 016e BD0F0000 		.4byte	.LASF39
 4464 0172 29       		.byte	0x29
 4465 0173 09       		.uleb128 0x9
 4466 0174 D2030000 		.4byte	.LASF40
 4467 0178 2A       		.byte	0x2a
 4468 0179 09       		.uleb128 0x9
 4469 017a 88170000 		.4byte	.LASF41
 4470 017e 2B       		.byte	0x2b
 4471 017f 09       		.uleb128 0x9
 4472 0180 32130000 		.4byte	.LASF42
 4473 0184 2C       		.byte	0x2c
 4474 0185 09       		.uleb128 0x9
 4475 0186 31040000 		.4byte	.LASF43
 4476 018a 2D       		.byte	0x2d
 4477 018b 09       		.uleb128 0x9
 4478 018c 59140000 		.4byte	.LASF44
 4479 0190 2E       		.byte	0x2e
 4480 0191 09       		.uleb128 0x9
 4481 0192 B8110000 		.4byte	.LASF45
 4482 0196 2F       		.byte	0x2f
 4483 0197 09       		.uleb128 0x9
 4484 0198 760B0000 		.4byte	.LASF46
 4485 019c 30       		.byte	0x30
 4486 019d 09       		.uleb128 0x9
ARM GAS  C:\Users\13740\AppData\Local\Temp\ccN8S1qO.s 			page 117


 4487 019e 9A100000 		.4byte	.LASF47
 4488 01a2 31       		.byte	0x31
 4489 01a3 09       		.uleb128 0x9
 4490 01a4 97110000 		.4byte	.LASF48
 4491 01a8 32       		.byte	0x32
 4492 01a9 09       		.uleb128 0x9
 4493 01aa BA0E0000 		.4byte	.LASF49
 4494 01ae 33       		.byte	0x33
 4495 01af 09       		.uleb128 0x9
 4496 01b0 D6150000 		.4byte	.LASF50
 4497 01b4 34       		.byte	0x34
 4498 01b5 09       		.uleb128 0x9
 4499 01b6 2F010000 		.4byte	.LASF51
 4500 01ba 35       		.byte	0x35
 4501 01bb 09       		.uleb128 0x9
 4502 01bc EE150000 		.4byte	.LASF52
 4503 01c0 36       		.byte	0x36
 4504 01c1 09       		.uleb128 0x9
 4505 01c2 1A150000 		.4byte	.LASF53
 4506 01c6 37       		.byte	0x37
 4507 01c7 09       		.uleb128 0x9
 4508 01c8 660C0000 		.4byte	.LASF54
 4509 01cc 40       		.byte	0x40
 4510 01cd 09       		.uleb128 0x9
 4511 01ce 71100000 		.4byte	.LASF55
 4512 01d2 41       		.byte	0x41
 4513 01d3 09       		.uleb128 0x9
 4514 01d4 DB000000 		.4byte	.LASF56
 4515 01d8 42       		.byte	0x42
 4516 01d9 09       		.uleb128 0x9
 4517 01da 5A010000 		.4byte	.LASF57
 4518 01de 43       		.byte	0x43
 4519 01df 09       		.uleb128 0x9
 4520 01e0 C5070000 		.4byte	.LASF58
 4521 01e4 44       		.byte	0x44
 4522 01e5 09       		.uleb128 0x9
 4523 01e6 E1110000 		.4byte	.LASF59
 4524 01ea 45       		.byte	0x45
 4525 01eb 09       		.uleb128 0x9
 4526 01ec 15100000 		.4byte	.LASF60
 4527 01f0 46       		.byte	0x46
 4528 01f1 09       		.uleb128 0x9
 4529 01f2 D3050000 		.4byte	.LASF61
 4530 01f6 47       		.byte	0x47
 4531 01f7 09       		.uleb128 0x9
 4532 01f8 31060000 		.4byte	.LASF62
 4533 01fc 48       		.byte	0x48
 4534 01fd 09       		.uleb128 0x9
 4535 01fe 9A070000 		.4byte	.LASF63
 4536 0202 49       		.byte	0x49
 4537 0203 09       		.uleb128 0x9
 4538 0204 74080000 		.4byte	.LASF64
 4539 0208 4A       		.byte	0x4a
 4540 0209 09       		.uleb128 0x9
 4541 020a BE100000 		.4byte	.LASF65
 4542 020e 4B       		.byte	0x4b
 4543 020f 09       		.uleb128 0x9
ARM GAS  C:\Users\13740\AppData\Local\Temp\ccN8S1qO.s 			page 118


 4544 0210 74050000 		.4byte	.LASF66
 4545 0214 4C       		.byte	0x4c
 4546 0215 09       		.uleb128 0x9
 4547 0216 9D040000 		.4byte	.LASF67
 4548 021a 4D       		.byte	0x4d
 4549 021b 09       		.uleb128 0x9
 4550 021c 35020000 		.4byte	.LASF68
 4551 0220 4E       		.byte	0x4e
 4552 0221 09       		.uleb128 0x9
 4553 0222 99150000 		.4byte	.LASF69
 4554 0226 4F       		.byte	0x4f
 4555 0227 09       		.uleb128 0x9
 4556 0228 6D060000 		.4byte	.LASF70
 4557 022c 50       		.byte	0x50
 4558 022d 09       		.uleb128 0x9
 4559 022e 8C060000 		.4byte	.LASF71
 4560 0232 51       		.byte	0x51
 4561 0233 09       		.uleb128 0x9
 4562 0234 3A000000 		.4byte	.LASF72
 4563 0238 52       		.byte	0x52
 4564 0239 09       		.uleb128 0x9
 4565 023a 140F0000 		.4byte	.LASF73
 4566 023e 53       		.byte	0x53
 4567 023f 09       		.uleb128 0x9
 4568 0240 FE160000 		.4byte	.LASF74
 4569 0244 54       		.byte	0x54
 4570 0245 09       		.uleb128 0x9
 4571 0246 83010000 		.4byte	.LASF75
 4572 024a 55       		.byte	0x55
 4573 024b 09       		.uleb128 0x9
 4574 024c 18000000 		.4byte	.LASF76
 4575 0250 56       		.byte	0x56
 4576 0251 09       		.uleb128 0x9
 4577 0252 04070000 		.4byte	.LASF77
 4578 0256 57       		.byte	0x57
 4579 0257 09       		.uleb128 0x9
 4580 0258 7C130000 		.4byte	.LASF78
 4581 025c 58       		.byte	0x58
 4582 025d 09       		.uleb128 0x9
 4583 025e F80A0000 		.4byte	.LASF79
 4584 0262 70       		.byte	0x70
 4585 0263 09       		.uleb128 0x9
 4586 0264 B0080000 		.4byte	.LASF80
 4587 0268 71       		.byte	0x71
 4588 0269 09       		.uleb128 0x9
 4589 026a 01050000 		.4byte	.LASF81
 4590 026e 72       		.byte	0x72
 4591 026f 09       		.uleb128 0x9
 4592 0270 A6120000 		.4byte	.LASF82
 4593 0274 73       		.byte	0x73
 4594 0275 09       		.uleb128 0x9
 4595 0276 1F090000 		.4byte	.LASF83
 4596 027a 74       		.byte	0x74
 4597 027b 09       		.uleb128 0x9
 4598 027c DD100000 		.4byte	.LASF84
 4599 0280 75       		.byte	0x75
 4600 0281 09       		.uleb128 0x9
ARM GAS  C:\Users\13740\AppData\Local\Temp\ccN8S1qO.s 			page 119


 4601 0282 4F150000 		.4byte	.LASF85
 4602 0286 76       		.byte	0x76
 4603 0287 09       		.uleb128 0x9
 4604 0288 D90D0000 		.4byte	.LASF86
 4605 028c 77       		.byte	0x77
 4606 028d 09       		.uleb128 0x9
 4607 028e D6080000 		.4byte	.LASF87
 4608 0292 78       		.byte	0x78
 4609 0293 09       		.uleb128 0x9
 4610 0294 0A020000 		.4byte	.LASF88
 4611 0298 79       		.byte	0x79
 4612 0299 09       		.uleb128 0x9
 4613 029a E0130000 		.4byte	.LASF89
 4614 029e 7A       		.byte	0x7a
 4615 029f 09       		.uleb128 0x9
 4616 02a0 7F040000 		.4byte	.LASF90
 4617 02a4 FA       		.byte	0xfa
 4618 02a5 09       		.uleb128 0x9
 4619 02a6 EB010000 		.4byte	.LASF91
 4620 02aa FB       		.byte	0xfb
 4621 02ab 09       		.uleb128 0x9
 4622 02ac 4A0E0000 		.4byte	.LASF92
 4623 02b0 FC       		.byte	0xfc
 4624 02b1 09       		.uleb128 0x9
 4625 02b2 F0070000 		.4byte	.LASF93
 4626 02b6 FD       		.byte	0xfd
 4627 02b7 09       		.uleb128 0x9
 4628 02b8 8C100000 		.4byte	.LASF94
 4629 02bc FF       		.byte	0xff
 4630 02bd 00       		.byte	0
 4631 02be 08       		.uleb128 0x8
 4632 02bf 02       		.byte	0x2
 4633 02c0 45000000 		.4byte	0x45
 4634 02c4 05       		.byte	0x5
 4635 02c5 0204     		.2byte	0x402
 4636 02c7 97030000 		.4byte	0x397
 4637 02cb 09       		.uleb128 0x9
 4638 02cc E4160000 		.4byte	.LASF95
 4639 02d0 00       		.byte	0
 4640 02d1 09       		.uleb128 0x9
 4641 02d2 33110000 		.4byte	.LASF96
 4642 02d6 01       		.byte	0x1
 4643 02d7 09       		.uleb128 0x9
 4644 02d8 A7010000 		.4byte	.LASF97
 4645 02dc 02       		.byte	0x2
 4646 02dd 09       		.uleb128 0x9
 4647 02de 87090000 		.4byte	.LASF98
 4648 02e2 03       		.byte	0x3
 4649 02e3 09       		.uleb128 0x9
 4650 02e4 6A0A0000 		.4byte	.LASF99
 4651 02e8 04       		.byte	0x4
 4652 02e9 09       		.uleb128 0x9
 4653 02ea 92080000 		.4byte	.LASF100
 4654 02ee 05       		.byte	0x5
 4655 02ef 09       		.uleb128 0x9
 4656 02f0 9F130000 		.4byte	.LASF101
 4657 02f4 06       		.byte	0x6
ARM GAS  C:\Users\13740\AppData\Local\Temp\ccN8S1qO.s 			page 120


 4658 02f5 09       		.uleb128 0x9
 4659 02f6 71020000 		.4byte	.LASF102
 4660 02fa 07       		.byte	0x7
 4661 02fb 09       		.uleb128 0x9
 4662 02fc 750F0000 		.4byte	.LASF103
 4663 0300 08       		.byte	0x8
 4664 0301 09       		.uleb128 0x9
 4665 0302 A9000000 		.4byte	.LASF104
 4666 0306 09       		.byte	0x9
 4667 0307 09       		.uleb128 0x9
 4668 0308 350F0000 		.4byte	.LASF105
 4669 030c 0A       		.byte	0xa
 4670 030d 09       		.uleb128 0x9
 4671 030e 49070000 		.4byte	.LASF106
 4672 0312 0B       		.byte	0xb
 4673 0313 09       		.uleb128 0x9
 4674 0314 FF090000 		.4byte	.LASF107
 4675 0318 0C       		.byte	0xc
 4676 0319 09       		.uleb128 0x9
 4677 031a 4C0D0000 		.4byte	.LASF108
 4678 031e 0D       		.byte	0xd
 4679 031f 09       		.uleb128 0x9
 4680 0320 09130000 		.4byte	.LASF109
 4681 0324 0E       		.byte	0xe
 4682 0325 09       		.uleb128 0x9
 4683 0326 6F0E0000 		.4byte	.LASF110
 4684 032a 0F       		.byte	0xf
 4685 032b 09       		.uleb128 0x9
 4686 032c FA0C0000 		.4byte	.LASF111
 4687 0330 10       		.byte	0x10
 4688 0331 09       		.uleb128 0x9
 4689 0332 42120000 		.4byte	.LASF112
 4690 0336 11       		.byte	0x11
 4691 0337 09       		.uleb128 0x9
 4692 0338 BB160000 		.4byte	.LASF113
 4693 033c 12       		.byte	0x12
 4694 033d 09       		.uleb128 0x9
 4695 033e 8C0C0000 		.4byte	.LASF114
 4696 0342 13       		.byte	0x13
 4697 0343 09       		.uleb128 0x9
 4698 0344 260B0000 		.4byte	.LASF115
 4699 0348 27       		.byte	0x27
 4700 0349 09       		.uleb128 0x9
 4701 034a 3D0A0000 		.4byte	.LASF116
 4702 034e 28       		.byte	0x28
 4703 034f 09       		.uleb128 0x9
 4704 0350 930A0000 		.4byte	.LASF117
 4705 0354 29       		.byte	0x29
 4706 0355 09       		.uleb128 0x9
 4707 0356 BE000000 		.4byte	.LASF118
 4708 035a 2A       		.byte	0x2a
 4709 035b 09       		.uleb128 0x9
 4710 035c AC090000 		.4byte	.LASF119
 4711 0360 2B       		.byte	0x2b
 4712 0361 09       		.uleb128 0x9
 4713 0362 930F0000 		.4byte	.LASF120
 4714 0366 2C       		.byte	0x2c
ARM GAS  C:\Users\13740\AppData\Local\Temp\ccN8S1qO.s 			page 121


 4715 0367 09       		.uleb128 0x9
 4716 0368 9F160000 		.4byte	.LASF121
 4717 036c FE       		.byte	0xfe
 4718 036d 09       		.uleb128 0x9
 4719 036e CD0C0000 		.4byte	.LASF122
 4720 0372 FF       		.byte	0xff
 4721 0373 0A       		.uleb128 0xa
 4722 0374 C20B0000 		.4byte	.LASF123
 4723 0378 0001     		.2byte	0x100
 4724 037a 0A       		.uleb128 0xa
 4725 037b 69070000 		.4byte	.LASF124
 4726 037f 0101     		.2byte	0x101
 4727 0381 0A       		.uleb128 0xa
 4728 0382 F20F0000 		.4byte	.LASF125
 4729 0386 0201     		.2byte	0x102
 4730 0388 0A       		.uleb128 0xa
 4731 0389 8E030000 		.4byte	.LASF126
 4732 038d 0301     		.2byte	0x103
 4733 038f 0A       		.uleb128 0xa
 4734 0390 DB0B0000 		.4byte	.LASF127
 4735 0394 0401     		.2byte	0x104
 4736 0396 00       		.byte	0
 4737 0397 05       		.uleb128 0x5
 4738 0398 5C0E0000 		.4byte	.LASF128
 4739 039c 05       		.byte	0x5
 4740 039d 7104     		.2byte	0x471
 4741 039f BE020000 		.4byte	0x2be
 4742 03a3 08       		.uleb128 0x8
 4743 03a4 01       		.byte	0x1
 4744 03a5 37000000 		.4byte	0x37
 4745 03a9 05       		.byte	0x5
 4746 03aa 7504     		.2byte	0x475
 4747 03ac CF030000 		.4byte	0x3cf
 4748 03b0 09       		.uleb128 0x9
 4749 03b1 42050000 		.4byte	.LASF129
 4750 03b5 01       		.byte	0x1
 4751 03b6 09       		.uleb128 0x9
 4752 03b7 29170000 		.4byte	.LASF130
 4753 03bb 02       		.byte	0x2
 4754 03bc 09       		.uleb128 0x9
 4755 03bd 75110000 		.4byte	.LASF131
 4756 03c1 03       		.byte	0x3
 4757 03c2 09       		.uleb128 0x9
 4758 03c3 04150000 		.4byte	.LASF132
 4759 03c7 04       		.byte	0x4
 4760 03c8 09       		.uleb128 0x9
 4761 03c9 360E0000 		.4byte	.LASF133
 4762 03cd FF       		.byte	0xff
 4763 03ce 00       		.byte	0
 4764 03cf 05       		.uleb128 0x5
 4765 03d0 8E020000 		.4byte	.LASF134
 4766 03d4 05       		.byte	0x5
 4767 03d5 9104     		.2byte	0x491
 4768 03d7 A3030000 		.4byte	0x3a3
 4769 03db 08       		.uleb128 0x8
 4770 03dc 01       		.byte	0x1
 4771 03dd 37000000 		.4byte	0x37
ARM GAS  C:\Users\13740\AppData\Local\Temp\ccN8S1qO.s 			page 122


 4772 03e1 05       		.byte	0x5
 4773 03e2 9504     		.2byte	0x495
 4774 03e4 19040000 		.4byte	0x419
 4775 03e8 09       		.uleb128 0x9
 4776 03e9 51170000 		.4byte	.LASF135
 4777 03ed 01       		.byte	0x1
 4778 03ee 09       		.uleb128 0x9
 4779 03ef 6A170000 		.4byte	.LASF136
 4780 03f3 02       		.byte	0x2
 4781 03f4 09       		.uleb128 0x9
 4782 03f5 F1050000 		.4byte	.LASF137
 4783 03f9 03       		.byte	0x3
 4784 03fa 09       		.uleb128 0x9
 4785 03fb FE100000 		.4byte	.LASF138
 4786 03ff 04       		.byte	0x4
 4787 0400 09       		.uleb128 0x9
 4788 0401 BD140000 		.4byte	.LASF139
 4789 0405 05       		.byte	0x5
 4790 0406 09       		.uleb128 0x9
 4791 0407 1F0C0000 		.4byte	.LASF140
 4792 040b 06       		.byte	0x6
 4793 040c 09       		.uleb128 0x9
 4794 040d 12120000 		.4byte	.LASF141
 4795 0411 07       		.byte	0x7
 4796 0412 09       		.uleb128 0x9
 4797 0413 5B0F0000 		.4byte	.LASF142
 4798 0417 FF       		.byte	0xff
 4799 0418 00       		.byte	0
 4800 0419 0B       		.uleb128 0xb
 4801 041a 07       		.byte	0x7
 4802 041b 05       		.byte	0x5
 4803 041c 3F05     		.2byte	0x53f
 4804 041e 3D040000 		.4byte	0x43d
 4805 0422 0C       		.uleb128 0xc
 4806 0423 F8120000 		.4byte	.LASF143
 4807 0427 05       		.byte	0x5
 4808 0428 4205     		.2byte	0x542
 4809 042a 3D040000 		.4byte	0x43d
 4810 042e 00       		.byte	0
 4811 042f 0C       		.uleb128 0xc
 4812 0430 54140000 		.4byte	.LASF144
 4813 0434 05       		.byte	0x5
 4814 0435 4405     		.2byte	0x544
 4815 0437 AD000000 		.4byte	0xad
 4816 043b 06       		.byte	0x6
 4817 043c 00       		.byte	0
 4818 043d 0D       		.uleb128 0xd
 4819 043e AD000000 		.4byte	0xad
 4820 0442 4D040000 		.4byte	0x44d
 4821 0446 0E       		.uleb128 0xe
 4822 0447 F7000000 		.4byte	0xf7
 4823 044b 05       		.byte	0x5
 4824 044c 00       		.byte	0
 4825 044d 05       		.uleb128 0x5
 4826 044e 2E120000 		.4byte	.LASF145
 4827 0452 05       		.byte	0x5
 4828 0453 4505     		.2byte	0x545
ARM GAS  C:\Users\13740\AppData\Local\Temp\ccN8S1qO.s 			page 123


 4829 0455 19040000 		.4byte	0x419
 4830 0459 0F       		.uleb128 0xf
 4831 045a 04       		.byte	0x4
 4832 045b AD000000 		.4byte	0xad
 4833 045f 05       		.uleb128 0x5
 4834 0460 DC0A0000 		.4byte	.LASF146
 4835 0464 06       		.byte	0x6
 4836 0465 8901     		.2byte	0x189
 4837 0467 B9000000 		.4byte	0xb9
 4838 046b 0B       		.uleb128 0xb
 4839 046c 02       		.byte	0x2
 4840 046d 06       		.byte	0x6
 4841 046e 9301     		.2byte	0x193
 4842 0470 8F040000 		.4byte	0x48f
 4843 0474 0C       		.uleb128 0xc
 4844 0475 BD0D0000 		.4byte	.LASF147
 4845 0479 06       		.byte	0x6
 4846 047a 9A01     		.2byte	0x19a
 4847 047c AD000000 		.4byte	0xad
 4848 0480 00       		.byte	0
 4849 0481 0C       		.uleb128 0xc
 4850 0482 4B170000 		.4byte	.LASF148
 4851 0486 06       		.byte	0x6
 4852 0487 A001     		.2byte	0x1a0
 4853 0489 AD000000 		.4byte	0xad
 4854 048d 01       		.byte	0x1
 4855 048e 00       		.byte	0
 4856 048f 05       		.uleb128 0x5
 4857 0490 B7060000 		.4byte	.LASF149
 4858 0494 06       		.byte	0x6
 4859 0495 A201     		.2byte	0x1a2
 4860 0497 6B040000 		.4byte	0x46b
 4861 049b 0B       		.uleb128 0xb
 4862 049c 08       		.byte	0x8
 4863 049d 06       		.byte	0x6
 4864 049e BE01     		.2byte	0x1be
 4865 04a0 CC040000 		.4byte	0x4cc
 4866 04a4 10       		.uleb128 0x10
 4867 04a5 76616C00 		.ascii	"val\000"
 4868 04a9 06       		.byte	0x6
 4869 04aa C101     		.2byte	0x1c1
 4870 04ac 59040000 		.4byte	0x459
 4871 04b0 00       		.byte	0
 4872 04b1 10       		.uleb128 0x10
 4873 04b2 6C656E00 		.ascii	"len\000"
 4874 04b6 06       		.byte	0x6
 4875 04b7 C401     		.2byte	0x1c4
 4876 04b9 B9000000 		.4byte	0xb9
 4877 04bd 04       		.byte	0x4
 4878 04be 0C       		.uleb128 0xc
 4879 04bf 08120000 		.4byte	.LASF150
 4880 04c3 06       		.byte	0x6
 4881 04c4 CB01     		.2byte	0x1cb
 4882 04c6 B9000000 		.4byte	0xb9
 4883 04ca 06       		.byte	0x6
 4884 04cb 00       		.byte	0
 4885 04cc 05       		.uleb128 0x5
ARM GAS  C:\Users\13740\AppData\Local\Temp\ccN8S1qO.s 			page 124


 4886 04cd AF0A0000 		.4byte	.LASF151
 4887 04d1 06       		.byte	0x6
 4888 04d2 CD01     		.2byte	0x1cd
 4889 04d4 9B040000 		.4byte	0x49b
 4890 04d8 0B       		.uleb128 0xb
 4891 04d9 0C       		.byte	0xc
 4892 04da 06       		.byte	0x6
 4893 04db D001     		.2byte	0x1d0
 4894 04dd FC040000 		.4byte	0x4fc
 4895 04e1 0C       		.uleb128 0xc
 4896 04e2 58060000 		.4byte	.LASF152
 4897 04e6 06       		.byte	0x6
 4898 04e7 D301     		.2byte	0x1d3
 4899 04e9 CC040000 		.4byte	0x4cc
 4900 04ed 00       		.byte	0
 4901 04ee 0C       		.uleb128 0xc
 4902 04ef 38080000 		.4byte	.LASF153
 4903 04f3 06       		.byte	0x6
 4904 04f4 D601     		.2byte	0x1d6
 4905 04f6 5F040000 		.4byte	0x45f
 4906 04fa 08       		.byte	0x8
 4907 04fb 00       		.byte	0
 4908 04fc 05       		.uleb128 0x5
 4909 04fd C1130000 		.4byte	.LASF154
 4910 0501 06       		.byte	0x6
 4911 0502 D801     		.2byte	0x1d8
 4912 0504 D8040000 		.4byte	0x4d8
 4913 0508 03       		.uleb128 0x3
 4914 0509 CB060000 		.4byte	.LASF155
 4915 050d 07       		.byte	0x7
 4916 050e 34       		.byte	0x34
 4917 050f FC040000 		.4byte	0x4fc
 4918 0513 08       		.uleb128 0x8
 4919 0514 01       		.byte	0x1
 4920 0515 37000000 		.4byte	0x37
 4921 0519 08       		.byte	0x8
 4922 051a 5008     		.2byte	0x850
 4923 051c 3F050000 		.4byte	0x53f
 4924 0520 09       		.uleb128 0x9
 4925 0521 99050000 		.4byte	.LASF156
 4926 0525 00       		.byte	0
 4927 0526 09       		.uleb128 0x9
 4928 0527 B40C0000 		.4byte	.LASF157
 4929 052b 01       		.byte	0x1
 4930 052c 09       		.uleb128 0x9
 4931 052d 09060000 		.4byte	.LASF158
 4932 0531 02       		.byte	0x2
 4933 0532 09       		.uleb128 0x9
 4934 0533 BC170000 		.4byte	.LASF159
 4935 0537 03       		.byte	0x3
 4936 0538 09       		.uleb128 0x9
 4937 0539 F80D0000 		.4byte	.LASF160
 4938 053d 04       		.byte	0x4
 4939 053e 00       		.byte	0
 4940 053f 05       		.uleb128 0x5
 4941 0540 3D090000 		.4byte	.LASF161
 4942 0544 08       		.byte	0x8
ARM GAS  C:\Users\13740\AppData\Local\Temp\ccN8S1qO.s 			page 125


 4943 0545 5E08     		.2byte	0x85e
 4944 0547 13050000 		.4byte	0x513
 4945 054b 05       		.uleb128 0x5
 4946 054c 95160000 		.4byte	.LASF162
 4947 0550 09       		.byte	0x9
 4948 0551 7110     		.2byte	0x1071
 4949 0553 97000000 		.4byte	0x97
 4950 0557 08       		.uleb128 0x8
 4951 0558 01       		.byte	0x1
 4952 0559 37000000 		.4byte	0x37
 4953 055d 09       		.byte	0x9
 4954 055e 7710     		.2byte	0x1077
 4955 0560 71050000 		.4byte	0x571
 4956 0564 09       		.uleb128 0x9
 4957 0565 B60D0000 		.4byte	.LASF163
 4958 0569 00       		.byte	0
 4959 056a 09       		.uleb128 0x9
 4960 056b 8D0A0000 		.4byte	.LASF164
 4961 056f 01       		.byte	0x1
 4962 0570 00       		.byte	0
 4963 0571 05       		.uleb128 0x5
 4964 0572 940E0000 		.4byte	.LASF165
 4965 0576 09       		.byte	0x9
 4966 0577 7910     		.2byte	0x1079
 4967 0579 57050000 		.4byte	0x557
 4968 057d 0B       		.uleb128 0xb
 4969 057e 14       		.byte	0x14
 4970 057f 09       		.byte	0x9
 4971 0580 9B11     		.2byte	0x119b
 4972 0582 C8050000 		.4byte	0x5c8
 4973 0586 0C       		.uleb128 0xc
 4974 0587 94070000 		.4byte	.LASF166
 4975 058b 09       		.byte	0x9
 4976 058c 9D11     		.2byte	0x119d
 4977 058e A2000000 		.4byte	0xa2
 4978 0592 00       		.byte	0
 4979 0593 0C       		.uleb128 0xc
 4980 0594 8E050000 		.4byte	.LASF167
 4981 0598 09       		.byte	0x9
 4982 0599 9E11     		.2byte	0x119e
 4983 059b A2000000 		.4byte	0xa2
 4984 059f 04       		.byte	0x4
 4985 05a0 0C       		.uleb128 0xc
 4986 05a1 E10E0000 		.4byte	.LASF168
 4987 05a5 09       		.byte	0x9
 4988 05a6 9F11     		.2byte	0x119f
 4989 05a8 A2000000 		.4byte	0xa2
 4990 05ac 08       		.byte	0x8
 4991 05ad 0C       		.uleb128 0xc
 4992 05ae 29110000 		.4byte	.LASF169
 4993 05b2 09       		.byte	0x9
 4994 05b3 A011     		.2byte	0x11a0
 4995 05b5 71050000 		.4byte	0x571
 4996 05b9 0C       		.byte	0xc
 4997 05ba 0C       		.uleb128 0xc
 4998 05bb D4170000 		.4byte	.LASF170
 4999 05bf 09       		.byte	0x9
ARM GAS  C:\Users\13740\AppData\Local\Temp\ccN8S1qO.s 			page 126


 5000 05c0 A111     		.2byte	0x11a1
 5001 05c2 C8050000 		.4byte	0x5c8
 5002 05c6 10       		.byte	0x10
 5003 05c7 00       		.byte	0
 5004 05c8 0F       		.uleb128 0xf
 5005 05c9 04       		.byte	0x4
 5006 05ca CE050000 		.4byte	0x5ce
 5007 05ce 11       		.uleb128 0x11
 5008 05cf A2000000 		.4byte	0xa2
 5009 05d3 05       		.uleb128 0x5
 5010 05d4 50080000 		.4byte	.LASF171
 5011 05d8 09       		.byte	0x9
 5012 05d9 A211     		.2byte	0x11a2
 5013 05db 7D050000 		.4byte	0x57d
 5014 05df 0B       		.uleb128 0xb
 5015 05e0 08       		.byte	0x8
 5016 05e1 09       		.byte	0x9
 5017 05e2 7312     		.2byte	0x1273
 5018 05e4 03060000 		.4byte	0x603
 5019 05e8 0C       		.uleb128 0xc
 5020 05e9 E9120000 		.4byte	.LASF172
 5021 05ed 09       		.byte	0x9
 5022 05ee 7512     		.2byte	0x1275
 5023 05f0 D1000000 		.4byte	0xd1
 5024 05f4 00       		.byte	0
 5025 05f5 0C       		.uleb128 0xc
 5026 05f6 70040000 		.4byte	.LASF173
 5027 05fa 09       		.byte	0x9
 5028 05fb 7612     		.2byte	0x1276
 5029 05fd D1000000 		.4byte	0xd1
 5030 0601 04       		.byte	0x4
 5031 0602 00       		.byte	0
 5032 0603 05       		.uleb128 0x5
 5033 0604 560B0000 		.4byte	.LASF174
 5034 0608 09       		.byte	0x9
 5035 0609 7712     		.2byte	0x1277
 5036 060b DF050000 		.4byte	0x5df
 5037 060f 12       		.uleb128 0x12
 5038 0610 A0       		.byte	0xa0
 5039 0611 0A       		.byte	0xa
 5040 0612 1F       		.byte	0x1f
 5041 0613 98070000 		.4byte	0x798
 5042 0617 13       		.uleb128 0x13
 5043 0618 1D050000 		.4byte	.LASF175
 5044 061c 0A       		.byte	0xa
 5045 061d 22       		.byte	0x22
 5046 061e 71050000 		.4byte	0x571
 5047 0622 00       		.byte	0
 5048 0623 13       		.uleb128 0x13
 5049 0624 A7170000 		.4byte	.LASF176
 5050 0628 0A       		.byte	0xa
 5051 0629 23       		.byte	0x23
 5052 062a A2000000 		.4byte	0xa2
 5053 062e 04       		.byte	0x4
 5054 062f 13       		.uleb128 0x13
 5055 0630 BB070000 		.4byte	.LASF177
 5056 0634 0A       		.byte	0xa
ARM GAS  C:\Users\13740\AppData\Local\Temp\ccN8S1qO.s 			page 127


 5057 0635 24       		.byte	0x24
 5058 0636 A2000000 		.4byte	0xa2
 5059 063a 08       		.byte	0x8
 5060 063b 13       		.uleb128 0x13
 5061 063c 61100000 		.4byte	.LASF178
 5062 0640 0A       		.byte	0xa
 5063 0641 25       		.byte	0x25
 5064 0642 A2000000 		.4byte	0xa2
 5065 0646 0C       		.byte	0xc
 5066 0647 13       		.uleb128 0x13
 5067 0648 4B100000 		.4byte	.LASF179
 5068 064c 0A       		.byte	0xa
 5069 064d 26       		.byte	0x26
 5070 064e A2000000 		.4byte	0xa2
 5071 0652 10       		.byte	0x10
 5072 0653 13       		.uleb128 0x13
 5073 0654 8B110000 		.4byte	.LASF180
 5074 0658 0A       		.byte	0xa
 5075 0659 29       		.byte	0x29
 5076 065a 71050000 		.4byte	0x571
 5077 065e 14       		.byte	0x14
 5078 065f 13       		.uleb128 0x13
 5079 0660 65040000 		.4byte	.LASF181
 5080 0664 0A       		.byte	0xa
 5081 0665 2A       		.byte	0x2a
 5082 0666 D1000000 		.4byte	0xd1
 5083 066a 18       		.byte	0x18
 5084 066b 13       		.uleb128 0x13
 5085 066c EE0C0000 		.4byte	.LASF182
 5086 0670 0A       		.byte	0xa
 5087 0671 2B       		.byte	0x2b
 5088 0672 D1000000 		.4byte	0xd1
 5089 0676 1C       		.byte	0x1c
 5090 0677 13       		.uleb128 0x13
 5091 0678 5A040000 		.4byte	.LASF183
 5092 067c 0A       		.byte	0xa
 5093 067d 2C       		.byte	0x2c
 5094 067e D1000000 		.4byte	0xd1
 5095 0682 20       		.byte	0x20
 5096 0683 13       		.uleb128 0x13
 5097 0684 DF090000 		.4byte	.LASF184
 5098 0688 0A       		.byte	0xa
 5099 0689 2D       		.byte	0x2d
 5100 068a A2000000 		.4byte	0xa2
 5101 068e 24       		.byte	0x24
 5102 068f 13       		.uleb128 0x13
 5103 0690 54090000 		.4byte	.LASF185
 5104 0694 0A       		.byte	0xa
 5105 0695 2E       		.byte	0x2e
 5106 0696 D1000000 		.4byte	0xd1
 5107 069a 28       		.byte	0x28
 5108 069b 13       		.uleb128 0x13
 5109 069c 5D080000 		.4byte	.LASF186
 5110 06a0 0A       		.byte	0xa
 5111 06a1 2F       		.byte	0x2f
 5112 06a2 97000000 		.4byte	0x97
 5113 06a6 2C       		.byte	0x2c
ARM GAS  C:\Users\13740\AppData\Local\Temp\ccN8S1qO.s 			page 128


 5114 06a7 13       		.uleb128 0x13
 5115 06a8 55050000 		.4byte	.LASF187
 5116 06ac 0A       		.byte	0xa
 5117 06ad 30       		.byte	0x30
 5118 06ae D1000000 		.4byte	0xd1
 5119 06b2 30       		.byte	0x30
 5120 06b3 13       		.uleb128 0x13
 5121 06b4 9B120000 		.4byte	.LASF188
 5122 06b8 0A       		.byte	0xa
 5123 06b9 31       		.byte	0x31
 5124 06ba D1000000 		.4byte	0xd1
 5125 06be 34       		.byte	0x34
 5126 06bf 13       		.uleb128 0x13
 5127 06c0 A8030000 		.4byte	.LASF189
 5128 06c4 0A       		.byte	0xa
 5129 06c5 32       		.byte	0x32
 5130 06c6 A2000000 		.4byte	0xa2
 5131 06ca 38       		.byte	0x38
 5132 06cb 13       		.uleb128 0x13
 5133 06cc 83030000 		.4byte	.LASF190
 5134 06d0 0A       		.byte	0xa
 5135 06d1 33       		.byte	0x33
 5136 06d2 A2000000 		.4byte	0xa2
 5137 06d6 3C       		.byte	0x3c
 5138 06d7 13       		.uleb128 0x13
 5139 06d8 D3040000 		.4byte	.LASF191
 5140 06dc 0A       		.byte	0xa
 5141 06dd 34       		.byte	0x34
 5142 06de 8C000000 		.4byte	0x8c
 5143 06e2 40       		.byte	0x40
 5144 06e3 13       		.uleb128 0x13
 5145 06e4 4F0F0000 		.4byte	.LASF192
 5146 06e8 0A       		.byte	0xa
 5147 06e9 35       		.byte	0x35
 5148 06ea 8C000000 		.4byte	0x8c
 5149 06ee 41       		.byte	0x41
 5150 06ef 13       		.uleb128 0x13
 5151 06f0 AF030000 		.4byte	.LASF193
 5152 06f4 0A       		.byte	0xa
 5153 06f5 36       		.byte	0x36
 5154 06f6 A2000000 		.4byte	0xa2
 5155 06fa 44       		.byte	0x44
 5156 06fb 13       		.uleb128 0x13
 5157 06fc 67080000 		.4byte	.LASF194
 5158 0700 0A       		.byte	0xa
 5159 0701 37       		.byte	0x37
 5160 0702 A2000000 		.4byte	0xa2
 5161 0706 48       		.byte	0x48
 5162 0707 13       		.uleb128 0x13
 5163 0708 F4060000 		.4byte	.LASF195
 5164 070c 0A       		.byte	0xa
 5165 070d 38       		.byte	0x38
 5166 070e A2000000 		.4byte	0xa2
 5167 0712 4C       		.byte	0x4c
 5168 0713 13       		.uleb128 0x13
 5169 0714 39160000 		.4byte	.LASF196
 5170 0718 0A       		.byte	0xa
ARM GAS  C:\Users\13740\AppData\Local\Temp\ccN8S1qO.s 			page 129


 5171 0719 39       		.byte	0x39
 5172 071a A2000000 		.4byte	0xa2
 5173 071e 50       		.byte	0x50
 5174 071f 13       		.uleb128 0x13
 5175 0720 01010000 		.4byte	.LASF197
 5176 0724 0A       		.byte	0xa
 5177 0725 3A       		.byte	0x3a
 5178 0726 03060000 		.4byte	0x603
 5179 072a 54       		.byte	0x54
 5180 072b 13       		.uleb128 0x13
 5181 072c 5B000000 		.4byte	.LASF198
 5182 0730 0A       		.byte	0xa
 5183 0731 3B       		.byte	0x3b
 5184 0732 D1000000 		.4byte	0xd1
 5185 0736 5C       		.byte	0x5c
 5186 0737 13       		.uleb128 0x13
 5187 0738 40100000 		.4byte	.LASF199
 5188 073c 0A       		.byte	0xa
 5189 073d 3C       		.byte	0x3c
 5190 073e D1000000 		.4byte	0xd1
 5191 0742 60       		.byte	0x60
 5192 0743 13       		.uleb128 0x13
 5193 0744 970B0000 		.4byte	.LASF200
 5194 0748 0A       		.byte	0xa
 5195 0749 3D       		.byte	0x3d
 5196 074a 71050000 		.4byte	0x571
 5197 074e 64       		.byte	0x64
 5198 074f 13       		.uleb128 0x13
 5199 0750 9E000000 		.4byte	.LASF201
 5200 0754 0A       		.byte	0xa
 5201 0755 3E       		.byte	0x3e
 5202 0756 D1000000 		.4byte	0xd1
 5203 075a 68       		.byte	0x68
 5204 075b 13       		.uleb128 0x13
 5205 075c 5B090000 		.4byte	.LASF202
 5206 0760 0A       		.byte	0xa
 5207 0761 3F       		.byte	0x3f
 5208 0762 71050000 		.4byte	0x571
 5209 0766 6C       		.byte	0x6c
 5210 0767 13       		.uleb128 0x13
 5211 0768 43030000 		.4byte	.LASF203
 5212 076c 0A       		.byte	0xa
 5213 076d 40       		.byte	0x40
 5214 076e D3050000 		.4byte	0x5d3
 5215 0772 70       		.byte	0x70
 5216 0773 13       		.uleb128 0x13
 5217 0774 DA0F0000 		.4byte	.LASF204
 5218 0778 0A       		.byte	0xa
 5219 0779 41       		.byte	0x41
 5220 077a D3050000 		.4byte	0x5d3
 5221 077e 84       		.byte	0x84
 5222 077f 13       		.uleb128 0x13
 5223 0780 BB030000 		.4byte	.LASF205
 5224 0784 0A       		.byte	0xa
 5225 0785 42       		.byte	0x42
 5226 0786 71050000 		.4byte	0x571
 5227 078a 98       		.byte	0x98
ARM GAS  C:\Users\13740\AppData\Local\Temp\ccN8S1qO.s 			page 130


 5228 078b 13       		.uleb128 0x13
 5229 078c 4C010000 		.4byte	.LASF206
 5230 0790 0A       		.byte	0xa
 5231 0791 43       		.byte	0x43
 5232 0792 A2000000 		.4byte	0xa2
 5233 0796 9C       		.byte	0x9c
 5234 0797 00       		.byte	0
 5235 0798 03       		.uleb128 0x3
 5236 0799 34030000 		.4byte	.LASF207
 5237 079d 0A       		.byte	0xa
 5238 079e 45       		.byte	0x45
 5239 079f 0F060000 		.4byte	0x60f
 5240 07a3 12       		.uleb128 0x12
 5241 07a4 08       		.byte	0x8
 5242 07a5 0A       		.byte	0xa
 5243 07a6 4A       		.byte	0x4a
 5244 07a7 C4070000 		.4byte	0x7c4
 5245 07ab 13       		.uleb128 0x13
 5246 07ac 2D020000 		.4byte	.LASF208
 5247 07b0 0A       		.byte	0xa
 5248 07b1 4C       		.byte	0x4c
 5249 07b2 D1000000 		.4byte	0xd1
 5250 07b6 00       		.byte	0
 5251 07b7 13       		.uleb128 0x13
 5252 07b8 AD050000 		.4byte	.LASF209
 5253 07bc 0A       		.byte	0xa
 5254 07bd 4D       		.byte	0x4d
 5255 07be D1000000 		.4byte	0xd1
 5256 07c2 04       		.byte	0x4
 5257 07c3 00       		.byte	0
 5258 07c4 03       		.uleb128 0x3
 5259 07c5 B5050000 		.4byte	.LASF210
 5260 07c9 0A       		.byte	0xa
 5261 07ca 4E       		.byte	0x4e
 5262 07cb A3070000 		.4byte	0x7a3
 5263 07cf 12       		.uleb128 0x12
 5264 07d0 20       		.byte	0x20
 5265 07d1 01       		.byte	0x1
 5266 07d2 20       		.byte	0x20
 5267 07d3 38080000 		.4byte	0x838
 5268 07d7 13       		.uleb128 0x13
 5269 07d8 65090000 		.4byte	.LASF211
 5270 07dc 01       		.byte	0x1
 5271 07dd 21       		.byte	0x21
 5272 07de D1000000 		.4byte	0xd1
 5273 07e2 00       		.byte	0
 5274 07e3 13       		.uleb128 0x13
 5275 07e4 B3070000 		.4byte	.LASF212
 5276 07e8 01       		.byte	0x1
 5277 07e9 22       		.byte	0x22
 5278 07ea D1000000 		.4byte	0xd1
 5279 07ee 04       		.byte	0x4
 5280 07ef 13       		.uleb128 0x13
 5281 07f0 F9000000 		.4byte	.LASF213
 5282 07f4 01       		.byte	0x1
 5283 07f5 23       		.byte	0x23
 5284 07f6 D1000000 		.4byte	0xd1
ARM GAS  C:\Users\13740\AppData\Local\Temp\ccN8S1qO.s 			page 131


 5285 07fa 08       		.byte	0x8
 5286 07fb 13       		.uleb128 0x13
 5287 07fc 280D0000 		.4byte	.LASF214
 5288 0800 01       		.byte	0x1
 5289 0801 24       		.byte	0x24
 5290 0802 D1000000 		.4byte	0xd1
 5291 0806 0C       		.byte	0xc
 5292 0807 13       		.uleb128 0x13
 5293 0808 0F160000 		.4byte	.LASF215
 5294 080c 01       		.byte	0x1
 5295 080d 25       		.byte	0x25
 5296 080e C5000000 		.4byte	0xc5
 5297 0812 10       		.byte	0x10
 5298 0813 13       		.uleb128 0x13
 5299 0814 630B0000 		.4byte	.LASF216
 5300 0818 01       		.byte	0x1
 5301 0819 28       		.byte	0x28
 5302 081a D1000000 		.4byte	0xd1
 5303 081e 14       		.byte	0x14
 5304 081f 13       		.uleb128 0x13
 5305 0820 010F0000 		.4byte	.LASF217
 5306 0824 01       		.byte	0x1
 5307 0825 29       		.byte	0x29
 5308 0826 D1000000 		.4byte	0xd1
 5309 082a 18       		.byte	0x18
 5310 082b 13       		.uleb128 0x13
 5311 082c 560C0000 		.4byte	.LASF218
 5312 0830 01       		.byte	0x1
 5313 0831 2A       		.byte	0x2a
 5314 0832 D1000000 		.4byte	0xd1
 5315 0836 1C       		.byte	0x1c
 5316 0837 00       		.byte	0
 5317 0838 03       		.uleb128 0x3
 5318 0839 B0140000 		.4byte	.LASF219
 5319 083d 01       		.byte	0x1
 5320 083e 2B       		.byte	0x2b
 5321 083f CF070000 		.4byte	0x7cf
 5322 0843 14       		.uleb128 0x14
 5323 0844 01       		.byte	0x1
 5324 0845 37000000 		.4byte	0x37
 5325 0849 01       		.byte	0x1
 5326 084a 30       		.byte	0x30
 5327 084b 68080000 		.4byte	0x868
 5328 084f 09       		.uleb128 0x9
 5329 0850 5E060000 		.4byte	.LASF220
 5330 0854 00       		.byte	0
 5331 0855 09       		.uleb128 0x9
 5332 0856 00000000 		.4byte	.LASF221
 5333 085a 01       		.byte	0x1
 5334 085b 09       		.uleb128 0x9
 5335 085c DD0C0000 		.4byte	.LASF222
 5336 0860 02       		.byte	0x2
 5337 0861 09       		.uleb128 0x9
 5338 0862 47140000 		.4byte	.LASF223
 5339 0866 03       		.byte	0x3
 5340 0867 00       		.byte	0
 5341 0868 03       		.uleb128 0x3
ARM GAS  C:\Users\13740\AppData\Local\Temp\ccN8S1qO.s 			page 132


 5342 0869 08080000 		.4byte	.LASF224
 5343 086d 01       		.byte	0x1
 5344 086e 35       		.byte	0x35
 5345 086f 43080000 		.4byte	0x843
 5346 0873 15       		.uleb128 0x15
 5347 0874 17110000 		.4byte	.LASF229
 5348 0878 01       		.byte	0x1
 5349 0879 46       		.byte	0x46
 5350 087a 00000000 		.4byte	.LFB36
 5351 087e 6C030000 		.4byte	.LFE36-.LFB36
 5352 0882 01       		.uleb128 0x1
 5353 0883 9C       		.byte	0x9c
 5354 0884 C1080000 		.4byte	0x8c1
 5355 0888 16       		.uleb128 0x16
 5356 0889 7D030000 		.4byte	.LASF225
 5357 088d 01       		.byte	0x1
 5358 088e 48       		.byte	0x48
 5359 088f 4B050000 		.4byte	0x54b
 5360 0893 02       		.uleb128 0x2
 5361 0894 91       		.byte	0x91
 5362 0895 70       		.sleb128 -16
 5363 0896 16       		.uleb128 0x16
 5364 0897 2A040000 		.4byte	.LASF226
 5365 089b 01       		.byte	0x1
 5366 089c 5E       		.byte	0x5e
 5367 089d C5000000 		.4byte	0xc5
 5368 08a1 02       		.uleb128 0x2
 5369 08a2 91       		.byte	0x91
 5370 08a3 74       		.sleb128 -12
 5371 08a4 16       		.uleb128 0x16
 5372 08a5 4B090000 		.4byte	.LASF227
 5373 08a9 01       		.byte	0x1
 5374 08aa B3       		.byte	0xb3
 5375 08ab C5000000 		.4byte	0xc5
 5376 08af 02       		.uleb128 0x2
 5377 08b0 91       		.byte	0x91
 5378 08b1 6C       		.sleb128 -20
 5379 08b2 16       		.uleb128 0x16
 5380 08b3 0A040000 		.4byte	.LASF228
 5381 08b7 01       		.byte	0x1
 5382 08b8 B4       		.byte	0xb4
 5383 08b9 C5000000 		.4byte	0xc5
 5384 08bd 02       		.uleb128 0x2
 5385 08be 91       		.byte	0x91
 5386 08bf 68       		.sleb128 -24
 5387 08c0 00       		.byte	0
 5388 08c1 15       		.uleb128 0x15
 5389 08c2 FB030000 		.4byte	.LASF230
 5390 08c6 01       		.byte	0x1
 5391 08c7 CB       		.byte	0xcb
 5392 08c8 00000000 		.4byte	.LFB37
 5393 08cc 4C020000 		.4byte	.LFE37-.LFB37
 5394 08d0 01       		.uleb128 0x1
 5395 08d1 9C       		.byte	0x9c
 5396 08d2 1D090000 		.4byte	0x91d
 5397 08d6 16       		.uleb128 0x16
 5398 08d7 5E020000 		.4byte	.LASF231
ARM GAS  C:\Users\13740\AppData\Local\Temp\ccN8S1qO.s 			page 133


 5399 08db 01       		.byte	0x1
 5400 08dc CF       		.byte	0xcf
 5401 08dd C5000000 		.4byte	0xc5
 5402 08e1 02       		.uleb128 0x2
 5403 08e2 91       		.byte	0x91
 5404 08e3 70       		.sleb128 -16
 5405 08e4 16       		.uleb128 0x16
 5406 08e5 8F150000 		.4byte	.LASF232
 5407 08e9 01       		.byte	0x1
 5408 08ea D0       		.byte	0xd0
 5409 08eb C5000000 		.4byte	0xc5
 5410 08ef 02       		.uleb128 0x2
 5411 08f0 91       		.byte	0x91
 5412 08f1 6C       		.sleb128 -20
 5413 08f2 16       		.uleb128 0x16
 5414 08f3 420C0000 		.4byte	.LASF233
 5415 08f7 01       		.byte	0x1
 5416 08f8 D1       		.byte	0xd1
 5417 08f9 C5000000 		.4byte	0xc5
 5418 08fd 02       		.uleb128 0x2
 5419 08fe 91       		.byte	0x91
 5420 08ff 68       		.sleb128 -24
 5421 0900 16       		.uleb128 0x16
 5422 0901 4C0C0000 		.4byte	.LASF234
 5423 0905 01       		.byte	0x1
 5424 0906 D2       		.byte	0xd2
 5425 0907 C5000000 		.4byte	0xc5
 5426 090b 02       		.uleb128 0x2
 5427 090c 91       		.byte	0x91
 5428 090d 64       		.sleb128 -28
 5429 090e 16       		.uleb128 0x16
 5430 090f FF120000 		.4byte	.LASF235
 5431 0913 01       		.byte	0x1
 5432 0914 D3       		.byte	0xd3
 5433 0915 7E000000 		.4byte	0x7e
 5434 0919 02       		.uleb128 0x2
 5435 091a 91       		.byte	0x91
 5436 091b 74       		.sleb128 -12
 5437 091c 00       		.byte	0
 5438 091d 17       		.uleb128 0x17
 5439 091e A0140000 		.4byte	.LASF236
 5440 0922 01       		.byte	0x1
 5441 0923 1B01     		.2byte	0x11b
 5442 0925 00000000 		.4byte	.LFB38
 5443 0929 2C010000 		.4byte	.LFE38-.LFB38
 5444 092d 01       		.uleb128 0x1
 5445 092e 9C       		.byte	0x9c
 5446 092f 43090000 		.4byte	0x943
 5447 0933 18       		.uleb128 0x18
 5448 0934 1F170000 		.4byte	.LASF237
 5449 0938 01       		.byte	0x1
 5450 0939 1F01     		.2byte	0x11f
 5451 093b C5000000 		.4byte	0xc5
 5452 093f 02       		.uleb128 0x2
 5453 0940 91       		.byte	0x91
 5454 0941 74       		.sleb128 -12
 5455 0942 00       		.byte	0
ARM GAS  C:\Users\13740\AppData\Local\Temp\ccN8S1qO.s 			page 134


 5456 0943 19       		.uleb128 0x19
 5457 0944 19010000 		.4byte	.LASF241
 5458 0948 01       		.byte	0x1
 5459 0949 4E01     		.2byte	0x14e
 5460 094b 00000000 		.4byte	.LFB39
 5461 094f E4000000 		.4byte	.LFE39-.LFB39
 5462 0953 01       		.uleb128 0x1
 5463 0954 9C       		.byte	0x9c
 5464 0955 17       		.uleb128 0x17
 5465 0956 26060000 		.4byte	.LASF238
 5466 095a 01       		.byte	0x1
 5467 095b 6801     		.2byte	0x168
 5468 095d 00000000 		.4byte	.LFB40
 5469 0961 B0020000 		.4byte	.LFE40-.LFB40
 5470 0965 01       		.uleb128 0x1
 5471 0966 9C       		.byte	0x9c
 5472 0967 97090000 		.4byte	0x997
 5473 096b 18       		.uleb128 0x18
 5474 096c 19160000 		.4byte	.LASF239
 5475 0970 01       		.byte	0x1
 5476 0971 6C01     		.2byte	0x16c
 5477 0973 97090000 		.4byte	0x997
 5478 0977 02       		.uleb128 0x2
 5479 0978 91       		.byte	0x91
 5480 0979 64       		.sleb128 -28
 5481 097a 18       		.uleb128 0x18
 5482 097b 0F000000 		.4byte	.LASF240
 5483 097f 01       		.byte	0x1
 5484 0980 6D01     		.2byte	0x16d
 5485 0982 97090000 		.4byte	0x997
 5486 0986 02       		.uleb128 0x2
 5487 0987 91       		.byte	0x91
 5488 0988 5C       		.sleb128 -36
 5489 0989 1A       		.uleb128 0x1a
 5490 098a 6900     		.ascii	"i\000"
 5491 098c 01       		.byte	0x1
 5492 098d 6E01     		.2byte	0x16e
 5493 098f 7E000000 		.4byte	0x7e
 5494 0993 02       		.uleb128 0x2
 5495 0994 91       		.byte	0x91
 5496 0995 6C       		.sleb128 -20
 5497 0996 00       		.byte	0
 5498 0997 0D       		.uleb128 0xd
 5499 0998 AD000000 		.4byte	0xad
 5500 099c A7090000 		.4byte	0x9a7
 5501 09a0 0E       		.uleb128 0xe
 5502 09a1 F7000000 		.4byte	0xf7
 5503 09a5 07       		.byte	0x7
 5504 09a6 00       		.byte	0
 5505 09a7 19       		.uleb128 0x19
 5506 09a8 3B170000 		.4byte	.LASF242
 5507 09ac 01       		.byte	0x1
 5508 09ad C601     		.2byte	0x1c6
 5509 09af 00000000 		.4byte	.LFB41
 5510 09b3 BC000000 		.4byte	.LFE41-.LFB41
 5511 09b7 01       		.uleb128 0x1
 5512 09b8 9C       		.byte	0x9c
ARM GAS  C:\Users\13740\AppData\Local\Temp\ccN8S1qO.s 			page 135


 5513 09b9 1B       		.uleb128 0x1b
 5514 09ba 320D0000 		.4byte	.LASF245
 5515 09be 01       		.byte	0x1
 5516 09bf EC01     		.2byte	0x1ec
 5517 09c1 D1000000 		.4byte	0xd1
 5518 09c5 00000000 		.4byte	.LFB42
 5519 09c9 7C000000 		.4byte	.LFE42-.LFB42
 5520 09cd 01       		.uleb128 0x1
 5521 09ce 9C       		.byte	0x9c
 5522 09cf 100A0000 		.4byte	0xa10
 5523 09d3 1C       		.uleb128 0x1c
 5524 09d4 F20B0000 		.4byte	.LASF247
 5525 09d8 01       		.byte	0x1
 5526 09d9 EC01     		.2byte	0x1ec
 5527 09db 68080000 		.4byte	0x868
 5528 09df 02       		.uleb128 0x2
 5529 09e0 91       		.byte	0x91
 5530 09e1 67       		.sleb128 -25
 5531 09e2 18       		.uleb128 0x18
 5532 09e3 1B0A0000 		.4byte	.LASF243
 5533 09e7 01       		.byte	0x1
 5534 09e8 EE01     		.2byte	0x1ee
 5535 09ea D1000000 		.4byte	0xd1
 5536 09ee 02       		.uleb128 0x2
 5537 09ef 91       		.byte	0x91
 5538 09f0 74       		.sleb128 -12
 5539 09f1 18       		.uleb128 0x18
 5540 09f2 96140000 		.4byte	.LASF244
 5541 09f6 01       		.byte	0x1
 5542 09f7 EF01     		.2byte	0x1ef
 5543 09f9 A2000000 		.4byte	0xa2
 5544 09fd 02       		.uleb128 0x2
 5545 09fe 91       		.byte	0x91
 5546 09ff 6C       		.sleb128 -20
 5547 0a00 18       		.uleb128 0x18
 5548 0a01 7D030000 		.4byte	.LASF225
 5549 0a05 01       		.byte	0x1
 5550 0a06 F001     		.2byte	0x1f0
 5551 0a08 4B050000 		.4byte	0x54b
 5552 0a0c 02       		.uleb128 0x2
 5553 0a0d 91       		.byte	0x91
 5554 0a0e 70       		.sleb128 -16
 5555 0a0f 00       		.byte	0
 5556 0a10 1B       		.uleb128 0x1b
 5557 0a11 B8150000 		.4byte	.LASF246
 5558 0a15 01       		.byte	0x1
 5559 0a16 1802     		.2byte	0x218
 5560 0a18 D1000000 		.4byte	0xd1
 5561 0a1c 00000000 		.4byte	.LFB43
 5562 0a20 AC000000 		.4byte	.LFE43-.LFB43
 5563 0a24 01       		.uleb128 0x1
 5564 0a25 9C       		.byte	0x9c
 5565 0a26 580A0000 		.4byte	0xa58
 5566 0a2a 1C       		.uleb128 0x1c
 5567 0a2b F3160000 		.4byte	.LASF248
 5568 0a2f 01       		.byte	0x1
 5569 0a30 1802     		.2byte	0x218
ARM GAS  C:\Users\13740\AppData\Local\Temp\ccN8S1qO.s 			page 136


 5570 0a32 D1000000 		.4byte	0xd1
 5571 0a36 02       		.uleb128 0x2
 5572 0a37 91       		.byte	0x91
 5573 0a38 64       		.sleb128 -28
 5574 0a39 1C       		.uleb128 0x1c
 5575 0a3a F20B0000 		.4byte	.LASF247
 5576 0a3e 01       		.byte	0x1
 5577 0a3f 1802     		.2byte	0x218
 5578 0a41 AD000000 		.4byte	0xad
 5579 0a45 02       		.uleb128 0x2
 5580 0a46 91       		.byte	0x91
 5581 0a47 63       		.sleb128 -29
 5582 0a48 18       		.uleb128 0x18
 5583 0a49 480B0000 		.4byte	.LASF249
 5584 0a4d 01       		.byte	0x1
 5585 0a4e 1A02     		.2byte	0x21a
 5586 0a50 D1000000 		.4byte	0xd1
 5587 0a54 02       		.uleb128 0x2
 5588 0a55 91       		.byte	0x91
 5589 0a56 6C       		.sleb128 -20
 5590 0a57 00       		.byte	0
 5591 0a58 1D       		.uleb128 0x1d
 5592 0a59 82160000 		.4byte	.LASF250
 5593 0a5d 01       		.byte	0x1
 5594 0a5e 3902     		.2byte	0x239
 5595 0a60 D1000000 		.4byte	0xd1
 5596 0a64 00000000 		.4byte	.LFB44
 5597 0a68 20000000 		.4byte	.LFE44-.LFB44
 5598 0a6c 01       		.uleb128 0x1
 5599 0a6d 9C       		.byte	0x9c
 5600 0a6e A60A0000 		.4byte	0xaa6
 5601 0a72 18       		.uleb128 0x18
 5602 0a73 65090000 		.4byte	.LASF211
 5603 0a77 01       		.byte	0x1
 5604 0a78 3B02     		.2byte	0x23b
 5605 0a7a D1000000 		.4byte	0xd1
 5606 0a7e 02       		.uleb128 0x2
 5607 0a7f 91       		.byte	0x91
 5608 0a80 74       		.sleb128 -12
 5609 0a81 1E       		.uleb128 0x1e
 5610 0a82 B4170000 		.4byte	.LASF251
 5611 0a86 01       		.byte	0x1
 5612 0a87 3C02     		.2byte	0x23c
 5613 0a89 A2000000 		.4byte	0xa2
 5614 0a8d 1E       		.uleb128 0x1e
 5615 0a8e 9E020000 		.4byte	.LASF252
 5616 0a92 01       		.byte	0x1
 5617 0a93 3D02     		.2byte	0x23d
 5618 0a95 D1000000 		.4byte	0xd1
 5619 0a99 1E       		.uleb128 0x1e
 5620 0a9a 22160000 		.4byte	.LASF253
 5621 0a9e 01       		.byte	0x1
 5622 0a9f 3D02     		.2byte	0x23d
 5623 0aa1 D1000000 		.4byte	0xd1
 5624 0aa5 00       		.byte	0
 5625 0aa6 1B       		.uleb128 0x1b
 5626 0aa7 71090000 		.4byte	.LASF254
ARM GAS  C:\Users\13740\AppData\Local\Temp\ccN8S1qO.s 			page 137


 5627 0aab 01       		.byte	0x1
 5628 0aac 6D02     		.2byte	0x26d
 5629 0aae D1000000 		.4byte	0xd1
 5630 0ab2 00000000 		.4byte	.LFB45
 5631 0ab6 4C010000 		.4byte	.LFE45-.LFB45
 5632 0aba 01       		.uleb128 0x1
 5633 0abb 9C       		.byte	0x9c
 5634 0abc 280B0000 		.4byte	0xb28
 5635 0ac0 1C       		.uleb128 0x1c
 5636 0ac1 F20B0000 		.4byte	.LASF247
 5637 0ac5 01       		.byte	0x1
 5638 0ac6 6D02     		.2byte	0x26d
 5639 0ac8 68080000 		.4byte	0x868
 5640 0acc 02       		.uleb128 0x2
 5641 0acd 91       		.byte	0x91
 5642 0ace 67       		.sleb128 -25
 5643 0acf 18       		.uleb128 0x18
 5644 0ad0 F3160000 		.4byte	.LASF248
 5645 0ad4 01       		.byte	0x1
 5646 0ad5 6F02     		.2byte	0x26f
 5647 0ad7 D1000000 		.4byte	0xd1
 5648 0adb 02       		.uleb128 0x2
 5649 0adc 91       		.byte	0x91
 5650 0add 74       		.sleb128 -12
 5651 0ade 18       		.uleb128 0x18
 5652 0adf 96140000 		.4byte	.LASF244
 5653 0ae3 01       		.byte	0x1
 5654 0ae4 7002     		.2byte	0x270
 5655 0ae6 A2000000 		.4byte	0xa2
 5656 0aea 02       		.uleb128 0x2
 5657 0aeb 91       		.byte	0x91
 5658 0aec 68       		.sleb128 -24
 5659 0aed 18       		.uleb128 0x18
 5660 0aee 7D030000 		.4byte	.LASF225
 5661 0af2 01       		.byte	0x1
 5662 0af3 7102     		.2byte	0x271
 5663 0af5 4B050000 		.4byte	0x54b
 5664 0af9 02       		.uleb128 0x2
 5665 0afa 91       		.byte	0x91
 5666 0afb 70       		.sleb128 -16
 5667 0afc 18       		.uleb128 0x18
 5668 0afd 79000000 		.4byte	.LASF255
 5669 0b01 01       		.byte	0x1
 5670 0b02 7202     		.2byte	0x272
 5671 0b04 280B0000 		.4byte	0xb28
 5672 0b08 05       		.uleb128 0x5
 5673 0b09 03       		.byte	0x3
 5674 0b0a 2C000000 		.4byte	ampFifoBuffer.9723
 5675 0b0e 1F       		.uleb128 0x1f
 5676 0b0f AC000000 		.4byte	.LBB2
 5677 0b13 14000000 		.4byte	.LBE2-.LBB2
 5678 0b17 18       		.uleb128 0x18
 5679 0b18 E3070000 		.4byte	.LASF256
 5680 0b1c 01       		.byte	0x1
 5681 0b1d A302     		.2byte	0x2a3
 5682 0b1f 380B0000 		.4byte	0xb38
 5683 0b23 02       		.uleb128 0x2
ARM GAS  C:\Users\13740\AppData\Local\Temp\ccN8S1qO.s 			page 138


 5684 0b24 91       		.byte	0x91
 5685 0b25 6C       		.sleb128 -20
 5686 0b26 00       		.byte	0
 5687 0b27 00       		.byte	0
 5688 0b28 0D       		.uleb128 0xd
 5689 0b29 A2000000 		.4byte	0xa2
 5690 0b2d 380B0000 		.4byte	0xb38
 5691 0b31 0E       		.uleb128 0xe
 5692 0b32 F7000000 		.4byte	0xf7
 5693 0b36 FF       		.byte	0xff
 5694 0b37 00       		.byte	0
 5695 0b38 0F       		.uleb128 0xf
 5696 0b39 04       		.byte	0x4
 5697 0b3a D1000000 		.4byte	0xd1
 5698 0b3e 1B       		.uleb128 0x1b
 5699 0b3f C4120000 		.4byte	.LASF257
 5700 0b43 01       		.byte	0x1
 5701 0b44 E002     		.2byte	0x2e0
 5702 0b46 D1000000 		.4byte	0xd1
 5703 0b4a 00000000 		.4byte	.LFB46
 5704 0b4e D4000000 		.4byte	.LFE46-.LFB46
 5705 0b52 01       		.uleb128 0x1
 5706 0b53 9C       		.byte	0x9c
 5707 0b54 8F0B0000 		.4byte	0xb8f
 5708 0b58 1C       		.uleb128 0x1c
 5709 0b59 F20B0000 		.4byte	.LASF247
 5710 0b5d 01       		.byte	0x1
 5711 0b5e E002     		.2byte	0x2e0
 5712 0b60 68080000 		.4byte	0x868
 5713 0b64 02       		.uleb128 0x2
 5714 0b65 91       		.byte	0x91
 5715 0b66 67       		.sleb128 -25
 5716 0b67 18       		.uleb128 0x18
 5717 0b68 F3160000 		.4byte	.LASF248
 5718 0b6c 01       		.byte	0x1
 5719 0b6d E202     		.2byte	0x2e2
 5720 0b6f D1000000 		.4byte	0xd1
 5721 0b73 02       		.uleb128 0x2
 5722 0b74 91       		.byte	0x91
 5723 0b75 6C       		.sleb128 -20
 5724 0b76 1F       		.uleb128 0x1f
 5725 0b77 20000000 		.4byte	.LBB3
 5726 0b7b 9C000000 		.4byte	.LBE3-.LBB3
 5727 0b7f 20       		.uleb128 0x20
 5728 0b80 61000000 		.4byte	.LASF297
 5729 0b84 01       		.byte	0x1
 5730 0b85 E902     		.2byte	0x2e9
 5731 0b87 7E000000 		.4byte	0x7e
 5732 0b8b 21       		.uleb128 0x21
 5733 0b8c 00       		.byte	0
 5734 0b8d 00       		.byte	0
 5735 0b8e 00       		.byte	0
 5736 0b8f 17       		.uleb128 0x17
 5737 0b90 9D0E0000 		.4byte	.LASF258
 5738 0b94 01       		.byte	0x1
 5739 0b95 0703     		.2byte	0x307
 5740 0b97 00000000 		.4byte	.LFB47
ARM GAS  C:\Users\13740\AppData\Local\Temp\ccN8S1qO.s 			page 139


 5741 0b9b 10010000 		.4byte	.LFE47-.LFB47
 5742 0b9f 01       		.uleb128 0x1
 5743 0ba0 9C       		.byte	0x9c
 5744 0ba1 B50B0000 		.4byte	0xbb5
 5745 0ba5 18       		.uleb128 0x18
 5746 0ba6 800C0000 		.4byte	.LASF259
 5747 0baa 01       		.byte	0x1
 5748 0bab 2E03     		.2byte	0x32e
 5749 0bad D1000000 		.4byte	0xd1
 5750 0bb1 02       		.uleb128 0x2
 5751 0bb2 91       		.byte	0x91
 5752 0bb3 6C       		.sleb128 -20
 5753 0bb4 00       		.byte	0
 5754 0bb5 17       		.uleb128 0x17
 5755 0bb6 230E0000 		.4byte	.LASF260
 5756 0bba 01       		.byte	0x1
 5757 0bbb 3E03     		.2byte	0x33e
 5758 0bbd 00000000 		.4byte	.LFB48
 5759 0bc1 2A000000 		.4byte	.LFE48-.LFB48
 5760 0bc5 01       		.uleb128 0x1
 5761 0bc6 9C       		.byte	0x9c
 5762 0bc7 DB0B0000 		.4byte	0xbdb
 5763 0bcb 1C       		.uleb128 0x1c
 5764 0bcc 1F060000 		.4byte	.LASF261
 5765 0bd0 01       		.byte	0x1
 5766 0bd1 3E03     		.2byte	0x33e
 5767 0bd3 AD000000 		.4byte	0xad
 5768 0bd7 02       		.uleb128 0x2
 5769 0bd8 91       		.byte	0x91
 5770 0bd9 77       		.sleb128 -9
 5771 0bda 00       		.byte	0
 5772 0bdb 17       		.uleb128 0x17
 5773 0bdc 710D0000 		.4byte	.LASF262
 5774 0be0 01       		.byte	0x1
 5775 0be1 5003     		.2byte	0x350
 5776 0be3 00000000 		.4byte	.LFB49
 5777 0be7 2A000000 		.4byte	.LFE49-.LFB49
 5778 0beb 01       		.uleb128 0x1
 5779 0bec 9C       		.byte	0x9c
 5780 0bed 010C0000 		.4byte	0xc01
 5781 0bf1 1C       		.uleb128 0x1c
 5782 0bf2 1F060000 		.4byte	.LASF261
 5783 0bf6 01       		.byte	0x1
 5784 0bf7 5003     		.2byte	0x350
 5785 0bf9 AD000000 		.4byte	0xad
 5786 0bfd 02       		.uleb128 0x2
 5787 0bfe 91       		.byte	0x91
 5788 0bff 77       		.sleb128 -9
 5789 0c00 00       		.byte	0
 5790 0c01 17       		.uleb128 0x17
 5791 0c02 F9080000 		.4byte	.LASF263
 5792 0c06 01       		.byte	0x1
 5793 0c07 6403     		.2byte	0x364
 5794 0c09 00000000 		.4byte	.LFB50
 5795 0c0d 90000000 		.4byte	.LFE50-.LFB50
 5796 0c11 01       		.uleb128 0x1
 5797 0c12 9C       		.byte	0x9c
ARM GAS  C:\Users\13740\AppData\Local\Temp\ccN8S1qO.s 			page 140


 5798 0c13 390C0000 		.4byte	0xc39
 5799 0c17 18       		.uleb128 0x18
 5800 0c18 66000000 		.4byte	.LASF264
 5801 0c1c 01       		.byte	0x1
 5802 0c1d 6603     		.2byte	0x366
 5803 0c1f 08050000 		.4byte	0x508
 5804 0c23 02       		.uleb128 0x2
 5805 0c24 91       		.byte	0x91
 5806 0c25 5C       		.sleb128 -36
 5807 0c26 18       		.uleb128 0x18
 5808 0c27 78010000 		.4byte	.LASF265
 5809 0c2b 01       		.byte	0x1
 5810 0c2c 6703     		.2byte	0x367
 5811 0c2e 390C0000 		.4byte	0xc39
 5812 0c32 05       		.uleb128 0x5
 5813 0c33 03       		.byte	0x3
 5814 0c34 2C040000 		.4byte	dataString.9754
 5815 0c38 00       		.byte	0
 5816 0c39 0D       		.uleb128 0xd
 5817 0c3a DF000000 		.4byte	0xdf
 5818 0c3e 490C0000 		.4byte	0xc49
 5819 0c42 0E       		.uleb128 0xe
 5820 0c43 F7000000 		.4byte	0xf7
 5821 0c47 1D       		.byte	0x1d
 5822 0c48 00       		.byte	0
 5823 0c49 17       		.uleb128 0x17
 5824 0c4a 14040000 		.4byte	.LASF266
 5825 0c4e 01       		.byte	0x1
 5826 0c4f 7A03     		.2byte	0x37a
 5827 0c51 00000000 		.4byte	.LFB51
 5828 0c55 34010000 		.4byte	.LFE51-.LFB51
 5829 0c59 01       		.uleb128 0x1
 5830 0c5a 9C       		.byte	0x9c
 5831 0c5b C00C0000 		.4byte	0xcc0
 5832 0c5f 18       		.uleb128 0x18
 5833 0c60 66000000 		.4byte	.LASF264
 5834 0c64 01       		.byte	0x1
 5835 0c65 7C03     		.2byte	0x37c
 5836 0c67 08050000 		.4byte	0x508
 5837 0c6b 02       		.uleb128 0x2
 5838 0c6c 91       		.byte	0x91
 5839 0c6d 58       		.sleb128 -40
 5840 0c6e 18       		.uleb128 0x18
 5841 0c6f 78010000 		.4byte	.LASF265
 5842 0c73 01       		.byte	0x1
 5843 0c74 7D03     		.2byte	0x37d
 5844 0c76 C00C0000 		.4byte	0xcc0
 5845 0c7a 05       		.uleb128 0x5
 5846 0c7b 03       		.byte	0x3
 5847 0c7c 4C040000 		.4byte	dataString.9759
 5848 0c80 18       		.uleb128 0x18
 5849 0c81 92120000 		.4byte	.LASF267
 5850 0c85 01       		.byte	0x1
 5851 0c86 7E03     		.2byte	0x37e
 5852 0c88 AD000000 		.4byte	0xad
 5853 0c8c 05       		.uleb128 0x5
 5854 0c8d 03       		.byte	0x3
ARM GAS  C:\Users\13740\AppData\Local\Temp\ccN8S1qO.s 			page 141


 5855 0c8e 4A040000 		.4byte	diagStep.9760
 5856 0c92 18       		.uleb128 0x18
 5857 0c93 5E020000 		.4byte	.LASF231
 5858 0c97 01       		.byte	0x1
 5859 0c98 7F03     		.2byte	0x37f
 5860 0c9a C5000000 		.4byte	0xc5
 5861 0c9e 02       		.uleb128 0x2
 5862 0c9f 91       		.byte	0x91
 5863 0ca0 6C       		.sleb128 -20
 5864 0ca1 18       		.uleb128 0x18
 5865 0ca2 53020000 		.4byte	.LASF268
 5866 0ca6 01       		.byte	0x1
 5867 0ca7 8003     		.2byte	0x380
 5868 0ca9 AD000000 		.4byte	0xad
 5869 0cad 02       		.uleb128 0x2
 5870 0cae 91       		.byte	0x91
 5871 0caf 6B       		.sleb128 -21
 5872 0cb0 18       		.uleb128 0x18
 5873 0cb1 1F170000 		.4byte	.LASF237
 5874 0cb5 01       		.byte	0x1
 5875 0cb6 8103     		.2byte	0x381
 5876 0cb8 C5000000 		.4byte	0xc5
 5877 0cbc 02       		.uleb128 0x2
 5878 0cbd 91       		.byte	0x91
 5879 0cbe 64       		.sleb128 -28
 5880 0cbf 00       		.byte	0
 5881 0cc0 0D       		.uleb128 0xd
 5882 0cc1 DF000000 		.4byte	0xdf
 5883 0cc5 D00C0000 		.4byte	0xcd0
 5884 0cc9 0E       		.uleb128 0xe
 5885 0cca F7000000 		.4byte	0xf7
 5886 0cce 27       		.byte	0x27
 5887 0ccf 00       		.byte	0
 5888 0cd0 17       		.uleb128 0x17
 5889 0cd1 BD040000 		.4byte	.LASF269
 5890 0cd5 01       		.byte	0x1
 5891 0cd6 AC03     		.2byte	0x3ac
 5892 0cd8 00000000 		.4byte	.LFB52
 5893 0cdc A0000000 		.4byte	.LFE52-.LFB52
 5894 0ce0 01       		.uleb128 0x1
 5895 0ce1 9C       		.byte	0x9c
 5896 0ce2 300D0000 		.4byte	0xd30
 5897 0ce6 18       		.uleb128 0x18
 5898 0ce7 66000000 		.4byte	.LASF264
 5899 0ceb 01       		.byte	0x1
 5900 0cec AE03     		.2byte	0x3ae
 5901 0cee 08050000 		.4byte	0x508
 5902 0cf2 02       		.uleb128 0x2
 5903 0cf3 91       		.byte	0x91
 5904 0cf4 64       		.sleb128 -28
 5905 0cf5 18       		.uleb128 0x18
 5906 0cf6 82070000 		.4byte	.LASF270
 5907 0cfa 01       		.byte	0x1
 5908 0cfb AF03     		.2byte	0x3af
 5909 0cfd C00C0000 		.4byte	0xcc0
 5910 0d01 05       		.uleb128 0x5
 5911 0d02 03       		.byte	0x3
ARM GAS  C:\Users\13740\AppData\Local\Temp\ccN8S1qO.s 			page 142


 5912 0d03 74040000 		.4byte	tempString.9773
 5913 0d07 1F       		.uleb128 0x1f
 5914 0d08 0E000000 		.4byte	.LBB4
 5915 0d0c 76000000 		.4byte	.LBE4-.LBB4
 5916 0d10 18       		.uleb128 0x18
 5917 0d11 5E020000 		.4byte	.LASF231
 5918 0d15 01       		.byte	0x1
 5919 0d16 B403     		.2byte	0x3b4
 5920 0d18 C5000000 		.4byte	0xc5
 5921 0d1c 02       		.uleb128 0x2
 5922 0d1d 91       		.byte	0x91
 5923 0d1e 70       		.sleb128 -16
 5924 0d1f 18       		.uleb128 0x18
 5925 0d20 53020000 		.4byte	.LASF268
 5926 0d24 01       		.byte	0x1
 5927 0d25 B503     		.2byte	0x3b5
 5928 0d27 AD000000 		.4byte	0xad
 5929 0d2b 02       		.uleb128 0x2
 5930 0d2c 91       		.byte	0x91
 5931 0d2d 77       		.sleb128 -9
 5932 0d2e 00       		.byte	0
 5933 0d2f 00       		.byte	0
 5934 0d30 19       		.uleb128 0x19
 5935 0d31 2A050000 		.4byte	.LASF271
 5936 0d35 01       		.byte	0x1
 5937 0d36 D703     		.2byte	0x3d7
 5938 0d38 00000000 		.4byte	.LFB53
 5939 0d3c 34000000 		.4byte	.LFE53-.LFB53
 5940 0d40 01       		.uleb128 0x1
 5941 0d41 9C       		.byte	0x9c
 5942 0d42 17       		.uleb128 0x17
 5943 0d43 04140000 		.4byte	.LASF272
 5944 0d47 01       		.byte	0x1
 5945 0d48 EF03     		.2byte	0x3ef
 5946 0d4a 00000000 		.4byte	.LFB54
 5947 0d4e 4C000000 		.4byte	.LFE54-.LFB54
 5948 0d52 01       		.uleb128 0x1
 5949 0d53 9C       		.byte	0x9c
 5950 0d54 6B0D0000 		.4byte	0xd6b
 5951 0d58 1A       		.uleb128 0x1a
 5952 0d59 6C656400 		.ascii	"led\000"
 5953 0d5d 01       		.byte	0x1
 5954 0d5e F103     		.2byte	0x3f1
 5955 0d60 AD000000 		.4byte	0xad
 5956 0d64 05       		.uleb128 0x5
 5957 0d65 03       		.byte	0x3
 5958 0d66 00000000 		.4byte	led.9782
 5959 0d6a 00       		.byte	0
 5960 0d6b 17       		.uleb128 0x17
 5961 0d6c CD0D0000 		.4byte	.LASF273
 5962 0d70 01       		.byte	0x1
 5963 0d71 0304     		.2byte	0x403
 5964 0d73 00000000 		.4byte	.LFB55
 5965 0d77 80000000 		.4byte	.LFE55-.LFB55
 5966 0d7b 01       		.uleb128 0x1
 5967 0d7c 9C       		.byte	0x9c
 5968 0d7d AA0D0000 		.4byte	0xdaa
ARM GAS  C:\Users\13740\AppData\Local\Temp\ccN8S1qO.s 			page 143


 5969 0d81 1C       		.uleb128 0x1c
 5970 0d82 DF040000 		.4byte	.LASF274
 5971 0d86 01       		.byte	0x1
 5972 0d87 0304     		.2byte	0x403
 5973 0d89 C5000000 		.4byte	0xc5
 5974 0d8d 02       		.uleb128 0x2
 5975 0d8e 91       		.byte	0x91
 5976 0d8f 74       		.sleb128 -12
 5977 0d90 1C       		.uleb128 0x1c
 5978 0d91 0E010000 		.4byte	.LASF275
 5979 0d95 01       		.byte	0x1
 5980 0d96 0304     		.2byte	0x403
 5981 0d98 FE000000 		.4byte	0xfe
 5982 0d9c 02       		.uleb128 0x2
 5983 0d9d 91       		.byte	0x91
 5984 0d9e 70       		.sleb128 -16
 5985 0d9f 22       		.uleb128 0x22
 5986 0da0 6900     		.ascii	"i\000"
 5987 0da2 01       		.byte	0x1
 5988 0da3 0504     		.2byte	0x405
 5989 0da5 B9000000 		.4byte	0xb9
 5990 0da9 00       		.byte	0
 5991 0daa 23       		.uleb128 0x23
 5992 0dab 260A0000 		.4byte	.LASF298
 5993 0daf 01       		.byte	0x1
 5994 0db0 3304     		.2byte	0x433
 5995 0db2 00000000 		.4byte	.LFB56
 5996 0db6 74000000 		.4byte	.LFE56-.LFB56
 5997 0dba 01       		.uleb128 0x1
 5998 0dbb 9C       		.byte	0x9c
 5999 0dbc DF0D0000 		.4byte	0xddf
 6000 0dc0 18       		.uleb128 0x18
 6001 0dc1 620A0000 		.4byte	.LASF276
 6002 0dc5 01       		.byte	0x1
 6003 0dc6 3504     		.2byte	0x435
 6004 0dc8 CF030000 		.4byte	0x3cf
 6005 0dcc 02       		.uleb128 0x2
 6006 0dcd 91       		.byte	0x91
 6007 0dce 6F       		.sleb128 -17
 6008 0dcf 18       		.uleb128 0x18
 6009 0dd0 0F090000 		.4byte	.LASF277
 6010 0dd4 01       		.byte	0x1
 6011 0dd5 3604     		.2byte	0x436
 6012 0dd7 AD000000 		.4byte	0xad
 6013 0ddb 02       		.uleb128 0x2
 6014 0ddc 91       		.byte	0x91
 6015 0ddd 6E       		.sleb128 -18
 6016 0dde 00       		.byte	0
 6017 0ddf 24       		.uleb128 0x24
 6018 0de0 F3120000 		.4byte	.LASF278
 6019 0de4 01       		.byte	0x1
 6020 0de5 5804     		.2byte	0x458
 6021 0de7 7E000000 		.4byte	0x7e
 6022 0deb 00000000 		.4byte	.LFB57
 6023 0def 10030000 		.4byte	.LFE57-.LFB57
 6024 0df3 01       		.uleb128 0x1
 6025 0df4 9C       		.byte	0x9c
ARM GAS  C:\Users\13740\AppData\Local\Temp\ccN8S1qO.s 			page 144


 6026 0df5 270E0000 		.4byte	0xe27
 6027 0df9 18       		.uleb128 0x18
 6028 0dfa 1D080000 		.4byte	.LASF279
 6029 0dfe 01       		.byte	0x1
 6030 0dff 7604     		.2byte	0x476
 6031 0e01 A2000000 		.4byte	0xa2
 6032 0e05 02       		.uleb128 0x2
 6033 0e06 91       		.byte	0x91
 6034 0e07 6C       		.sleb128 -20
 6035 0e08 18       		.uleb128 0x18
 6036 0e09 43080000 		.4byte	.LASF280
 6037 0e0d 01       		.byte	0x1
 6038 0e0e 9C04     		.2byte	0x49c
 6039 0e10 C5000000 		.4byte	0xc5
 6040 0e14 02       		.uleb128 0x2
 6041 0e15 91       		.byte	0x91
 6042 0e16 74       		.sleb128 -12
 6043 0e17 18       		.uleb128 0x18
 6044 0e18 E80E0000 		.4byte	.LASF281
 6045 0e1c 01       		.byte	0x1
 6046 0e1d B304     		.2byte	0x4b3
 6047 0e1f C5000000 		.4byte	0xc5
 6048 0e23 02       		.uleb128 0x2
 6049 0e24 91       		.byte	0x91
 6050 0e25 70       		.sleb128 -16
 6051 0e26 00       		.byte	0
 6052 0e27 17       		.uleb128 0x17
 6053 0e28 DA140000 		.4byte	.LASF282
 6054 0e2c 01       		.byte	0x1
 6055 0e2d F804     		.2byte	0x4f8
 6056 0e2f 00000000 		.4byte	.LFB58
 6057 0e33 A4000000 		.4byte	.LFE58-.LFB58
 6058 0e37 01       		.uleb128 0x1
 6059 0e38 9C       		.byte	0x9c
 6060 0e39 5A0E0000 		.4byte	0xe5a
 6061 0e3d 1A       		.uleb128 0x1a
 6062 0e3e 6900     		.ascii	"i\000"
 6063 0e40 01       		.byte	0x1
 6064 0e41 FA04     		.2byte	0x4fa
 6065 0e43 B9000000 		.4byte	0xb9
 6066 0e47 02       		.uleb128 0x2
 6067 0e48 91       		.byte	0x91
 6068 0e49 76       		.sleb128 -10
 6069 0e4a 18       		.uleb128 0x18
 6070 0e4b FD0B0000 		.4byte	.LASF283
 6071 0e4f 01       		.byte	0x1
 6072 0e50 FB04     		.2byte	0x4fb
 6073 0e52 4D040000 		.4byte	0x44d
 6074 0e56 02       		.uleb128 0x2
 6075 0e57 91       		.byte	0x91
 6076 0e58 6C       		.sleb128 -20
 6077 0e59 00       		.byte	0
 6078 0e5a 25       		.uleb128 0x25
 6079 0e5b AA0B0000 		.4byte	.LASF284
 6080 0e5f 0B       		.byte	0xb
 6081 0e60 C202     		.2byte	0x2c2
 6082 0e62 AD000000 		.4byte	0xad
ARM GAS  C:\Users\13740\AppData\Local\Temp\ccN8S1qO.s 			page 145


 6083 0e66 25       		.uleb128 0x25
 6084 0e67 AB060000 		.4byte	.LASF285
 6085 0e6b 08       		.byte	0x8
 6086 0e6c A90A     		.2byte	0xaa9
 6087 0e6e 3F050000 		.4byte	0x53f
 6088 0e72 25       		.uleb128 0x25
 6089 0e73 C2050000 		.4byte	.LASF286
 6090 0e77 08       		.byte	0x8
 6091 0e78 AA0A     		.2byte	0xaaa
 6092 0e7a 8F040000 		.4byte	0x48f
 6093 0e7e 26       		.uleb128 0x26
 6094 0e7f 070C0000 		.4byte	.LASF287
 6095 0e83 01       		.byte	0x1
 6096 0e84 1D       		.byte	0x1d
 6097 0e85 97030000 		.4byte	0x397
 6098 0e89 05       		.uleb128 0x5
 6099 0e8a 03       		.byte	0x3
 6100 0e8b 00000000 		.4byte	apiResult
 6101 0e8f 26       		.uleb128 0x26
 6102 0e90 C8030000 		.4byte	.LASF288
 6103 0e94 01       		.byte	0x1
 6104 0e95 1B       		.byte	0x1b
 6105 0e96 EB000000 		.4byte	0xeb
 6106 0e9a 05       		.uleb128 0x5
 6107 0e9b 03       		.byte	0x3
 6108 0e9c 00000000 		.4byte	mainTimer
 6109 0ea0 26       		.uleb128 0x26
 6110 0ea1 28080000 		.4byte	.LASF289
 6111 0ea5 01       		.byte	0x1
 6112 0ea6 1C       		.byte	0x1c
 6113 0ea7 E6000000 		.4byte	0xe6
 6114 0eab 05       		.uleb128 0x5
 6115 0eac 03       		.byte	0x3
 6116 0ead 00000000 		.4byte	measurementFlag
 6117 0eb1 26       		.uleb128 0x26
 6118 0eb2 E80E0000 		.4byte	.LASF281
 6119 0eb6 01       		.byte	0x1
 6120 0eb7 15       		.byte	0x15
 6121 0eb8 C5000000 		.4byte	0xc5
 6122 0ebc 05       		.uleb128 0x5
 6123 0ebd 03       		.byte	0x3
 6124 0ebe 00000000 		.4byte	lastSendTime
 6125 0ec2 26       		.uleb128 0x26
 6126 0ec3 9F0B0000 		.4byte	.LASF290
 6127 0ec7 01       		.byte	0x1
 6128 0ec8 2E       		.byte	0x2e
 6129 0ec9 38080000 		.4byte	0x838
 6130 0ecd 05       		.uleb128 0x5
 6131 0ece 03       		.byte	0x3
 6132 0ecf 00000000 		.4byte	sensorData
 6133 0ed3 26       		.uleb128 0x26
 6134 0ed4 FC060000 		.4byte	.LASF291
 6135 0ed8 01       		.byte	0x1
 6136 0ed9 3C       		.byte	0x3c
 6137 0eda E40E0000 		.4byte	0xee4
 6138 0ede 05       		.uleb128 0x5
 6139 0edf 03       		.byte	0x3
ARM GAS  C:\Users\13740\AppData\Local\Temp\ccN8S1qO.s 			page 146


 6140 0ee0 00000000 		.4byte	pAmpCfg
 6141 0ee4 0F       		.uleb128 0xf
 6142 0ee5 04       		.byte	0x4
 6143 0ee6 98070000 		.4byte	0x798
 6144 0eea 0D       		.uleb128 0xd
 6145 0eeb C5000000 		.4byte	0xc5
 6146 0eef FB0E0000 		.4byte	0xefb
 6147 0ef3 27       		.uleb128 0x27
 6148 0ef4 F7000000 		.4byte	0xf7
 6149 0ef8 FF01     		.2byte	0x1ff
 6150 0efa 00       		.byte	0
 6151 0efb 26       		.uleb128 0x26
 6152 0efc 73030000 		.4byte	.LASF292
 6153 0f00 01       		.byte	0x1
 6154 0f01 3D       		.byte	0x3d
 6155 0f02 EA0E0000 		.4byte	0xeea
 6156 0f06 05       		.uleb128 0x5
 6157 0f07 03       		.byte	0x3
 6158 0f08 00000000 		.4byte	ampBuffer
 6159 0f0c 26       		.uleb128 0x26
 6160 0f0d EA060000 		.4byte	.LASF293
 6161 0f11 01       		.byte	0x1
 6162 0f12 3E       		.byte	0x3e
 6163 0f13 C4070000 		.4byte	0x7c4
 6164 0f17 05       		.uleb128 0x5
 6165 0f18 03       		.byte	0x3
 6166 0f19 00000000 		.4byte	ampResult
 6167 0f1d 00       		.byte	0
 6168              		.section	.debug_abbrev,"",%progbits
 6169              	.Ldebug_abbrev0:
 6170 0000 01       		.uleb128 0x1
 6171 0001 11       		.uleb128 0x11
 6172 0002 01       		.byte	0x1
 6173 0003 25       		.uleb128 0x25
 6174 0004 0E       		.uleb128 0xe
 6175 0005 13       		.uleb128 0x13
 6176 0006 0B       		.uleb128 0xb
 6177 0007 03       		.uleb128 0x3
 6178 0008 0E       		.uleb128 0xe
 6179 0009 1B       		.uleb128 0x1b
 6180 000a 0E       		.uleb128 0xe
 6181 000b 55       		.uleb128 0x55
 6182 000c 17       		.uleb128 0x17
 6183 000d 11       		.uleb128 0x11
 6184 000e 01       		.uleb128 0x1
 6185 000f 10       		.uleb128 0x10
 6186 0010 17       		.uleb128 0x17
 6187 0011 00       		.byte	0
 6188 0012 00       		.byte	0
 6189 0013 02       		.uleb128 0x2
 6190 0014 24       		.uleb128 0x24
 6191 0015 00       		.byte	0
 6192 0016 0B       		.uleb128 0xb
 6193 0017 0B       		.uleb128 0xb
 6194 0018 3E       		.uleb128 0x3e
 6195 0019 0B       		.uleb128 0xb
 6196 001a 03       		.uleb128 0x3
ARM GAS  C:\Users\13740\AppData\Local\Temp\ccN8S1qO.s 			page 147


 6197 001b 0E       		.uleb128 0xe
 6198 001c 00       		.byte	0
 6199 001d 00       		.byte	0
 6200 001e 03       		.uleb128 0x3
 6201 001f 16       		.uleb128 0x16
 6202 0020 00       		.byte	0
 6203 0021 03       		.uleb128 0x3
 6204 0022 0E       		.uleb128 0xe
 6205 0023 3A       		.uleb128 0x3a
 6206 0024 0B       		.uleb128 0xb
 6207 0025 3B       		.uleb128 0x3b
 6208 0026 0B       		.uleb128 0xb
 6209 0027 49       		.uleb128 0x49
 6210 0028 13       		.uleb128 0x13
 6211 0029 00       		.byte	0
 6212 002a 00       		.byte	0
 6213 002b 04       		.uleb128 0x4
 6214 002c 24       		.uleb128 0x24
 6215 002d 00       		.byte	0
 6216 002e 0B       		.uleb128 0xb
 6217 002f 0B       		.uleb128 0xb
 6218 0030 3E       		.uleb128 0x3e
 6219 0031 0B       		.uleb128 0xb
 6220 0032 03       		.uleb128 0x3
 6221 0033 08       		.uleb128 0x8
 6222 0034 00       		.byte	0
 6223 0035 00       		.byte	0
 6224 0036 05       		.uleb128 0x5
 6225 0037 16       		.uleb128 0x16
 6226 0038 00       		.byte	0
 6227 0039 03       		.uleb128 0x3
 6228 003a 0E       		.uleb128 0xe
 6229 003b 3A       		.uleb128 0x3a
 6230 003c 0B       		.uleb128 0xb
 6231 003d 3B       		.uleb128 0x3b
 6232 003e 05       		.uleb128 0x5
 6233 003f 49       		.uleb128 0x49
 6234 0040 13       		.uleb128 0x13
 6235 0041 00       		.byte	0
 6236 0042 00       		.byte	0
 6237 0043 06       		.uleb128 0x6
 6238 0044 35       		.uleb128 0x35
 6239 0045 00       		.byte	0
 6240 0046 49       		.uleb128 0x49
 6241 0047 13       		.uleb128 0x13
 6242 0048 00       		.byte	0
 6243 0049 00       		.byte	0
 6244 004a 07       		.uleb128 0x7
 6245 004b 0F       		.uleb128 0xf
 6246 004c 00       		.byte	0
 6247 004d 0B       		.uleb128 0xb
 6248 004e 0B       		.uleb128 0xb
 6249 004f 00       		.byte	0
 6250 0050 00       		.byte	0
 6251 0051 08       		.uleb128 0x8
 6252 0052 04       		.uleb128 0x4
 6253 0053 01       		.byte	0x1
ARM GAS  C:\Users\13740\AppData\Local\Temp\ccN8S1qO.s 			page 148


 6254 0054 0B       		.uleb128 0xb
 6255 0055 0B       		.uleb128 0xb
 6256 0056 49       		.uleb128 0x49
 6257 0057 13       		.uleb128 0x13
 6258 0058 3A       		.uleb128 0x3a
 6259 0059 0B       		.uleb128 0xb
 6260 005a 3B       		.uleb128 0x3b
 6261 005b 05       		.uleb128 0x5
 6262 005c 01       		.uleb128 0x1
 6263 005d 13       		.uleb128 0x13
 6264 005e 00       		.byte	0
 6265 005f 00       		.byte	0
 6266 0060 09       		.uleb128 0x9
 6267 0061 28       		.uleb128 0x28
 6268 0062 00       		.byte	0
 6269 0063 03       		.uleb128 0x3
 6270 0064 0E       		.uleb128 0xe
 6271 0065 1C       		.uleb128 0x1c
 6272 0066 0B       		.uleb128 0xb
 6273 0067 00       		.byte	0
 6274 0068 00       		.byte	0
 6275 0069 0A       		.uleb128 0xa
 6276 006a 28       		.uleb128 0x28
 6277 006b 00       		.byte	0
 6278 006c 03       		.uleb128 0x3
 6279 006d 0E       		.uleb128 0xe
 6280 006e 1C       		.uleb128 0x1c
 6281 006f 05       		.uleb128 0x5
 6282 0070 00       		.byte	0
 6283 0071 00       		.byte	0
 6284 0072 0B       		.uleb128 0xb
 6285 0073 13       		.uleb128 0x13
 6286 0074 01       		.byte	0x1
 6287 0075 0B       		.uleb128 0xb
 6288 0076 0B       		.uleb128 0xb
 6289 0077 3A       		.uleb128 0x3a
 6290 0078 0B       		.uleb128 0xb
 6291 0079 3B       		.uleb128 0x3b
 6292 007a 05       		.uleb128 0x5
 6293 007b 01       		.uleb128 0x1
 6294 007c 13       		.uleb128 0x13
 6295 007d 00       		.byte	0
 6296 007e 00       		.byte	0
 6297 007f 0C       		.uleb128 0xc
 6298 0080 0D       		.uleb128 0xd
 6299 0081 00       		.byte	0
 6300 0082 03       		.uleb128 0x3
 6301 0083 0E       		.uleb128 0xe
 6302 0084 3A       		.uleb128 0x3a
 6303 0085 0B       		.uleb128 0xb
 6304 0086 3B       		.uleb128 0x3b
 6305 0087 05       		.uleb128 0x5
 6306 0088 49       		.uleb128 0x49
 6307 0089 13       		.uleb128 0x13
 6308 008a 38       		.uleb128 0x38
 6309 008b 0B       		.uleb128 0xb
 6310 008c 00       		.byte	0
ARM GAS  C:\Users\13740\AppData\Local\Temp\ccN8S1qO.s 			page 149


 6311 008d 00       		.byte	0
 6312 008e 0D       		.uleb128 0xd
 6313 008f 01       		.uleb128 0x1
 6314 0090 01       		.byte	0x1
 6315 0091 49       		.uleb128 0x49
 6316 0092 13       		.uleb128 0x13
 6317 0093 01       		.uleb128 0x1
 6318 0094 13       		.uleb128 0x13
 6319 0095 00       		.byte	0
 6320 0096 00       		.byte	0
 6321 0097 0E       		.uleb128 0xe
 6322 0098 21       		.uleb128 0x21
 6323 0099 00       		.byte	0
 6324 009a 49       		.uleb128 0x49
 6325 009b 13       		.uleb128 0x13
 6326 009c 2F       		.uleb128 0x2f
 6327 009d 0B       		.uleb128 0xb
 6328 009e 00       		.byte	0
 6329 009f 00       		.byte	0
 6330 00a0 0F       		.uleb128 0xf
 6331 00a1 0F       		.uleb128 0xf
 6332 00a2 00       		.byte	0
 6333 00a3 0B       		.uleb128 0xb
 6334 00a4 0B       		.uleb128 0xb
 6335 00a5 49       		.uleb128 0x49
 6336 00a6 13       		.uleb128 0x13
 6337 00a7 00       		.byte	0
 6338 00a8 00       		.byte	0
 6339 00a9 10       		.uleb128 0x10
 6340 00aa 0D       		.uleb128 0xd
 6341 00ab 00       		.byte	0
 6342 00ac 03       		.uleb128 0x3
 6343 00ad 08       		.uleb128 0x8
 6344 00ae 3A       		.uleb128 0x3a
 6345 00af 0B       		.uleb128 0xb
 6346 00b0 3B       		.uleb128 0x3b
 6347 00b1 05       		.uleb128 0x5
 6348 00b2 49       		.uleb128 0x49
 6349 00b3 13       		.uleb128 0x13
 6350 00b4 38       		.uleb128 0x38
 6351 00b5 0B       		.uleb128 0xb
 6352 00b6 00       		.byte	0
 6353 00b7 00       		.byte	0
 6354 00b8 11       		.uleb128 0x11
 6355 00b9 26       		.uleb128 0x26
 6356 00ba 00       		.byte	0
 6357 00bb 49       		.uleb128 0x49
 6358 00bc 13       		.uleb128 0x13
 6359 00bd 00       		.byte	0
 6360 00be 00       		.byte	0
 6361 00bf 12       		.uleb128 0x12
 6362 00c0 13       		.uleb128 0x13
 6363 00c1 01       		.byte	0x1
 6364 00c2 0B       		.uleb128 0xb
 6365 00c3 0B       		.uleb128 0xb
 6366 00c4 3A       		.uleb128 0x3a
 6367 00c5 0B       		.uleb128 0xb
ARM GAS  C:\Users\13740\AppData\Local\Temp\ccN8S1qO.s 			page 150


 6368 00c6 3B       		.uleb128 0x3b
 6369 00c7 0B       		.uleb128 0xb
 6370 00c8 01       		.uleb128 0x1
 6371 00c9 13       		.uleb128 0x13
 6372 00ca 00       		.byte	0
 6373 00cb 00       		.byte	0
 6374 00cc 13       		.uleb128 0x13
 6375 00cd 0D       		.uleb128 0xd
 6376 00ce 00       		.byte	0
 6377 00cf 03       		.uleb128 0x3
 6378 00d0 0E       		.uleb128 0xe
 6379 00d1 3A       		.uleb128 0x3a
 6380 00d2 0B       		.uleb128 0xb
 6381 00d3 3B       		.uleb128 0x3b
 6382 00d4 0B       		.uleb128 0xb
 6383 00d5 49       		.uleb128 0x49
 6384 00d6 13       		.uleb128 0x13
 6385 00d7 38       		.uleb128 0x38
 6386 00d8 0B       		.uleb128 0xb
 6387 00d9 00       		.byte	0
 6388 00da 00       		.byte	0
 6389 00db 14       		.uleb128 0x14
 6390 00dc 04       		.uleb128 0x4
 6391 00dd 01       		.byte	0x1
 6392 00de 0B       		.uleb128 0xb
 6393 00df 0B       		.uleb128 0xb
 6394 00e0 49       		.uleb128 0x49
 6395 00e1 13       		.uleb128 0x13
 6396 00e2 3A       		.uleb128 0x3a
 6397 00e3 0B       		.uleb128 0xb
 6398 00e4 3B       		.uleb128 0x3b
 6399 00e5 0B       		.uleb128 0xb
 6400 00e6 01       		.uleb128 0x1
 6401 00e7 13       		.uleb128 0x13
 6402 00e8 00       		.byte	0
 6403 00e9 00       		.byte	0
 6404 00ea 15       		.uleb128 0x15
 6405 00eb 2E       		.uleb128 0x2e
 6406 00ec 01       		.byte	0x1
 6407 00ed 3F       		.uleb128 0x3f
 6408 00ee 19       		.uleb128 0x19
 6409 00ef 03       		.uleb128 0x3
 6410 00f0 0E       		.uleb128 0xe
 6411 00f1 3A       		.uleb128 0x3a
 6412 00f2 0B       		.uleb128 0xb
 6413 00f3 3B       		.uleb128 0x3b
 6414 00f4 0B       		.uleb128 0xb
 6415 00f5 27       		.uleb128 0x27
 6416 00f6 19       		.uleb128 0x19
 6417 00f7 11       		.uleb128 0x11
 6418 00f8 01       		.uleb128 0x1
 6419 00f9 12       		.uleb128 0x12
 6420 00fa 06       		.uleb128 0x6
 6421 00fb 40       		.uleb128 0x40
 6422 00fc 18       		.uleb128 0x18
 6423 00fd 9642     		.uleb128 0x2116
 6424 00ff 19       		.uleb128 0x19
ARM GAS  C:\Users\13740\AppData\Local\Temp\ccN8S1qO.s 			page 151


 6425 0100 01       		.uleb128 0x1
 6426 0101 13       		.uleb128 0x13
 6427 0102 00       		.byte	0
 6428 0103 00       		.byte	0
 6429 0104 16       		.uleb128 0x16
 6430 0105 34       		.uleb128 0x34
 6431 0106 00       		.byte	0
 6432 0107 03       		.uleb128 0x3
 6433 0108 0E       		.uleb128 0xe
 6434 0109 3A       		.uleb128 0x3a
 6435 010a 0B       		.uleb128 0xb
 6436 010b 3B       		.uleb128 0x3b
 6437 010c 0B       		.uleb128 0xb
 6438 010d 49       		.uleb128 0x49
 6439 010e 13       		.uleb128 0x13
 6440 010f 02       		.uleb128 0x2
 6441 0110 18       		.uleb128 0x18
 6442 0111 00       		.byte	0
 6443 0112 00       		.byte	0
 6444 0113 17       		.uleb128 0x17
 6445 0114 2E       		.uleb128 0x2e
 6446 0115 01       		.byte	0x1
 6447 0116 3F       		.uleb128 0x3f
 6448 0117 19       		.uleb128 0x19
 6449 0118 03       		.uleb128 0x3
 6450 0119 0E       		.uleb128 0xe
 6451 011a 3A       		.uleb128 0x3a
 6452 011b 0B       		.uleb128 0xb
 6453 011c 3B       		.uleb128 0x3b
 6454 011d 05       		.uleb128 0x5
 6455 011e 27       		.uleb128 0x27
 6456 011f 19       		.uleb128 0x19
 6457 0120 11       		.uleb128 0x11
 6458 0121 01       		.uleb128 0x1
 6459 0122 12       		.uleb128 0x12
 6460 0123 06       		.uleb128 0x6
 6461 0124 40       		.uleb128 0x40
 6462 0125 18       		.uleb128 0x18
 6463 0126 9642     		.uleb128 0x2116
 6464 0128 19       		.uleb128 0x19
 6465 0129 01       		.uleb128 0x1
 6466 012a 13       		.uleb128 0x13
 6467 012b 00       		.byte	0
 6468 012c 00       		.byte	0
 6469 012d 18       		.uleb128 0x18
 6470 012e 34       		.uleb128 0x34
 6471 012f 00       		.byte	0
 6472 0130 03       		.uleb128 0x3
 6473 0131 0E       		.uleb128 0xe
 6474 0132 3A       		.uleb128 0x3a
 6475 0133 0B       		.uleb128 0xb
 6476 0134 3B       		.uleb128 0x3b
 6477 0135 05       		.uleb128 0x5
 6478 0136 49       		.uleb128 0x49
 6479 0137 13       		.uleb128 0x13
 6480 0138 02       		.uleb128 0x2
 6481 0139 18       		.uleb128 0x18
ARM GAS  C:\Users\13740\AppData\Local\Temp\ccN8S1qO.s 			page 152


 6482 013a 00       		.byte	0
 6483 013b 00       		.byte	0
 6484 013c 19       		.uleb128 0x19
 6485 013d 2E       		.uleb128 0x2e
 6486 013e 00       		.byte	0
 6487 013f 3F       		.uleb128 0x3f
 6488 0140 19       		.uleb128 0x19
 6489 0141 03       		.uleb128 0x3
 6490 0142 0E       		.uleb128 0xe
 6491 0143 3A       		.uleb128 0x3a
 6492 0144 0B       		.uleb128 0xb
 6493 0145 3B       		.uleb128 0x3b
 6494 0146 05       		.uleb128 0x5
 6495 0147 27       		.uleb128 0x27
 6496 0148 19       		.uleb128 0x19
 6497 0149 11       		.uleb128 0x11
 6498 014a 01       		.uleb128 0x1
 6499 014b 12       		.uleb128 0x12
 6500 014c 06       		.uleb128 0x6
 6501 014d 40       		.uleb128 0x40
 6502 014e 18       		.uleb128 0x18
 6503 014f 9642     		.uleb128 0x2116
 6504 0151 19       		.uleb128 0x19
 6505 0152 00       		.byte	0
 6506 0153 00       		.byte	0
 6507 0154 1A       		.uleb128 0x1a
 6508 0155 34       		.uleb128 0x34
 6509 0156 00       		.byte	0
 6510 0157 03       		.uleb128 0x3
 6511 0158 08       		.uleb128 0x8
 6512 0159 3A       		.uleb128 0x3a
 6513 015a 0B       		.uleb128 0xb
 6514 015b 3B       		.uleb128 0x3b
 6515 015c 05       		.uleb128 0x5
 6516 015d 49       		.uleb128 0x49
 6517 015e 13       		.uleb128 0x13
 6518 015f 02       		.uleb128 0x2
 6519 0160 18       		.uleb128 0x18
 6520 0161 00       		.byte	0
 6521 0162 00       		.byte	0
 6522 0163 1B       		.uleb128 0x1b
 6523 0164 2E       		.uleb128 0x2e
 6524 0165 01       		.byte	0x1
 6525 0166 3F       		.uleb128 0x3f
 6526 0167 19       		.uleb128 0x19
 6527 0168 03       		.uleb128 0x3
 6528 0169 0E       		.uleb128 0xe
 6529 016a 3A       		.uleb128 0x3a
 6530 016b 0B       		.uleb128 0xb
 6531 016c 3B       		.uleb128 0x3b
 6532 016d 05       		.uleb128 0x5
 6533 016e 27       		.uleb128 0x27
 6534 016f 19       		.uleb128 0x19
 6535 0170 49       		.uleb128 0x49
 6536 0171 13       		.uleb128 0x13
 6537 0172 11       		.uleb128 0x11
 6538 0173 01       		.uleb128 0x1
ARM GAS  C:\Users\13740\AppData\Local\Temp\ccN8S1qO.s 			page 153


 6539 0174 12       		.uleb128 0x12
 6540 0175 06       		.uleb128 0x6
 6541 0176 40       		.uleb128 0x40
 6542 0177 18       		.uleb128 0x18
 6543 0178 9642     		.uleb128 0x2116
 6544 017a 19       		.uleb128 0x19
 6545 017b 01       		.uleb128 0x1
 6546 017c 13       		.uleb128 0x13
 6547 017d 00       		.byte	0
 6548 017e 00       		.byte	0
 6549 017f 1C       		.uleb128 0x1c
 6550 0180 05       		.uleb128 0x5
 6551 0181 00       		.byte	0
 6552 0182 03       		.uleb128 0x3
 6553 0183 0E       		.uleb128 0xe
 6554 0184 3A       		.uleb128 0x3a
 6555 0185 0B       		.uleb128 0xb
 6556 0186 3B       		.uleb128 0x3b
 6557 0187 05       		.uleb128 0x5
 6558 0188 49       		.uleb128 0x49
 6559 0189 13       		.uleb128 0x13
 6560 018a 02       		.uleb128 0x2
 6561 018b 18       		.uleb128 0x18
 6562 018c 00       		.byte	0
 6563 018d 00       		.byte	0
 6564 018e 1D       		.uleb128 0x1d
 6565 018f 2E       		.uleb128 0x2e
 6566 0190 01       		.byte	0x1
 6567 0191 3F       		.uleb128 0x3f
 6568 0192 19       		.uleb128 0x19
 6569 0193 03       		.uleb128 0x3
 6570 0194 0E       		.uleb128 0xe
 6571 0195 3A       		.uleb128 0x3a
 6572 0196 0B       		.uleb128 0xb
 6573 0197 3B       		.uleb128 0x3b
 6574 0198 05       		.uleb128 0x5
 6575 0199 27       		.uleb128 0x27
 6576 019a 19       		.uleb128 0x19
 6577 019b 49       		.uleb128 0x49
 6578 019c 13       		.uleb128 0x13
 6579 019d 11       		.uleb128 0x11
 6580 019e 01       		.uleb128 0x1
 6581 019f 12       		.uleb128 0x12
 6582 01a0 06       		.uleb128 0x6
 6583 01a1 40       		.uleb128 0x40
 6584 01a2 18       		.uleb128 0x18
 6585 01a3 9742     		.uleb128 0x2117
 6586 01a5 19       		.uleb128 0x19
 6587 01a6 01       		.uleb128 0x1
 6588 01a7 13       		.uleb128 0x13
 6589 01a8 00       		.byte	0
 6590 01a9 00       		.byte	0
 6591 01aa 1E       		.uleb128 0x1e
 6592 01ab 34       		.uleb128 0x34
 6593 01ac 00       		.byte	0
 6594 01ad 03       		.uleb128 0x3
 6595 01ae 0E       		.uleb128 0xe
ARM GAS  C:\Users\13740\AppData\Local\Temp\ccN8S1qO.s 			page 154


 6596 01af 3A       		.uleb128 0x3a
 6597 01b0 0B       		.uleb128 0xb
 6598 01b1 3B       		.uleb128 0x3b
 6599 01b2 05       		.uleb128 0x5
 6600 01b3 49       		.uleb128 0x49
 6601 01b4 13       		.uleb128 0x13
 6602 01b5 00       		.byte	0
 6603 01b6 00       		.byte	0
 6604 01b7 1F       		.uleb128 0x1f
 6605 01b8 0B       		.uleb128 0xb
 6606 01b9 01       		.byte	0x1
 6607 01ba 11       		.uleb128 0x11
 6608 01bb 01       		.uleb128 0x1
 6609 01bc 12       		.uleb128 0x12
 6610 01bd 06       		.uleb128 0x6
 6611 01be 00       		.byte	0
 6612 01bf 00       		.byte	0
 6613 01c0 20       		.uleb128 0x20
 6614 01c1 2E       		.uleb128 0x2e
 6615 01c2 01       		.byte	0x1
 6616 01c3 3F       		.uleb128 0x3f
 6617 01c4 19       		.uleb128 0x19
 6618 01c5 03       		.uleb128 0x3
 6619 01c6 0E       		.uleb128 0xe
 6620 01c7 3A       		.uleb128 0x3a
 6621 01c8 0B       		.uleb128 0xb
 6622 01c9 3B       		.uleb128 0x3b
 6623 01ca 05       		.uleb128 0x5
 6624 01cb 49       		.uleb128 0x49
 6625 01cc 13       		.uleb128 0x13
 6626 01cd 3C       		.uleb128 0x3c
 6627 01ce 19       		.uleb128 0x19
 6628 01cf 00       		.byte	0
 6629 01d0 00       		.byte	0
 6630 01d1 21       		.uleb128 0x21
 6631 01d2 18       		.uleb128 0x18
 6632 01d3 00       		.byte	0
 6633 01d4 00       		.byte	0
 6634 01d5 00       		.byte	0
 6635 01d6 22       		.uleb128 0x22
 6636 01d7 34       		.uleb128 0x34
 6637 01d8 00       		.byte	0
 6638 01d9 03       		.uleb128 0x3
 6639 01da 08       		.uleb128 0x8
 6640 01db 3A       		.uleb128 0x3a
 6641 01dc 0B       		.uleb128 0xb
 6642 01dd 3B       		.uleb128 0x3b
 6643 01de 05       		.uleb128 0x5
 6644 01df 49       		.uleb128 0x49
 6645 01e0 13       		.uleb128 0x13
 6646 01e1 00       		.byte	0
 6647 01e2 00       		.byte	0
 6648 01e3 23       		.uleb128 0x23
 6649 01e4 2E       		.uleb128 0x2e
 6650 01e5 01       		.byte	0x1
 6651 01e6 03       		.uleb128 0x3
 6652 01e7 0E       		.uleb128 0xe
ARM GAS  C:\Users\13740\AppData\Local\Temp\ccN8S1qO.s 			page 155


 6653 01e8 3A       		.uleb128 0x3a
 6654 01e9 0B       		.uleb128 0xb
 6655 01ea 3B       		.uleb128 0x3b
 6656 01eb 05       		.uleb128 0x5
 6657 01ec 27       		.uleb128 0x27
 6658 01ed 19       		.uleb128 0x19
 6659 01ee 11       		.uleb128 0x11
 6660 01ef 01       		.uleb128 0x1
 6661 01f0 12       		.uleb128 0x12
 6662 01f1 06       		.uleb128 0x6
 6663 01f2 40       		.uleb128 0x40
 6664 01f3 18       		.uleb128 0x18
 6665 01f4 9642     		.uleb128 0x2116
 6666 01f6 19       		.uleb128 0x19
 6667 01f7 01       		.uleb128 0x1
 6668 01f8 13       		.uleb128 0x13
 6669 01f9 00       		.byte	0
 6670 01fa 00       		.byte	0
 6671 01fb 24       		.uleb128 0x24
 6672 01fc 2E       		.uleb128 0x2e
 6673 01fd 01       		.byte	0x1
 6674 01fe 3F       		.uleb128 0x3f
 6675 01ff 19       		.uleb128 0x19
 6676 0200 03       		.uleb128 0x3
 6677 0201 0E       		.uleb128 0xe
 6678 0202 3A       		.uleb128 0x3a
 6679 0203 0B       		.uleb128 0xb
 6680 0204 3B       		.uleb128 0x3b
 6681 0205 05       		.uleb128 0x5
 6682 0206 49       		.uleb128 0x49
 6683 0207 13       		.uleb128 0x13
 6684 0208 11       		.uleb128 0x11
 6685 0209 01       		.uleb128 0x1
 6686 020a 12       		.uleb128 0x12
 6687 020b 06       		.uleb128 0x6
 6688 020c 40       		.uleb128 0x40
 6689 020d 18       		.uleb128 0x18
 6690 020e 9642     		.uleb128 0x2116
 6691 0210 19       		.uleb128 0x19
 6692 0211 01       		.uleb128 0x1
 6693 0212 13       		.uleb128 0x13
 6694 0213 00       		.byte	0
 6695 0214 00       		.byte	0
 6696 0215 25       		.uleb128 0x25
 6697 0216 34       		.uleb128 0x34
 6698 0217 00       		.byte	0
 6699 0218 03       		.uleb128 0x3
 6700 0219 0E       		.uleb128 0xe
 6701 021a 3A       		.uleb128 0x3a
 6702 021b 0B       		.uleb128 0xb
 6703 021c 3B       		.uleb128 0x3b
 6704 021d 05       		.uleb128 0x5
 6705 021e 49       		.uleb128 0x49
 6706 021f 13       		.uleb128 0x13
 6707 0220 3F       		.uleb128 0x3f
 6708 0221 19       		.uleb128 0x19
 6709 0222 3C       		.uleb128 0x3c
ARM GAS  C:\Users\13740\AppData\Local\Temp\ccN8S1qO.s 			page 156


 6710 0223 19       		.uleb128 0x19
 6711 0224 00       		.byte	0
 6712 0225 00       		.byte	0
 6713 0226 26       		.uleb128 0x26
 6714 0227 34       		.uleb128 0x34
 6715 0228 00       		.byte	0
 6716 0229 03       		.uleb128 0x3
 6717 022a 0E       		.uleb128 0xe
 6718 022b 3A       		.uleb128 0x3a
 6719 022c 0B       		.uleb128 0xb
 6720 022d 3B       		.uleb128 0x3b
 6721 022e 0B       		.uleb128 0xb
 6722 022f 49       		.uleb128 0x49
 6723 0230 13       		.uleb128 0x13
 6724 0231 3F       		.uleb128 0x3f
 6725 0232 19       		.uleb128 0x19
 6726 0233 02       		.uleb128 0x2
 6727 0234 18       		.uleb128 0x18
 6728 0235 00       		.byte	0
 6729 0236 00       		.byte	0
 6730 0237 27       		.uleb128 0x27
 6731 0238 21       		.uleb128 0x21
 6732 0239 00       		.byte	0
 6733 023a 49       		.uleb128 0x49
 6734 023b 13       		.uleb128 0x13
 6735 023c 2F       		.uleb128 0x2f
 6736 023d 05       		.uleb128 0x5
 6737 023e 00       		.byte	0
 6738 023f 00       		.byte	0
 6739 0240 00       		.byte	0
 6740              		.section	.debug_aranges,"",%progbits
 6741 0000 CC000000 		.4byte	0xcc
 6742 0004 0200     		.2byte	0x2
 6743 0006 00000000 		.4byte	.Ldebug_info0
 6744 000a 04       		.byte	0x4
 6745 000b 00       		.byte	0
 6746 000c 0000     		.2byte	0
 6747 000e 0000     		.2byte	0
 6748 0010 00000000 		.4byte	.LFB36
 6749 0014 6C030000 		.4byte	.LFE36-.LFB36
 6750 0018 00000000 		.4byte	.LFB37
 6751 001c 4C020000 		.4byte	.LFE37-.LFB37
 6752 0020 00000000 		.4byte	.LFB38
 6753 0024 2C010000 		.4byte	.LFE38-.LFB38
 6754 0028 00000000 		.4byte	.LFB39
 6755 002c E4000000 		.4byte	.LFE39-.LFB39
 6756 0030 00000000 		.4byte	.LFB40
 6757 0034 B0020000 		.4byte	.LFE40-.LFB40
 6758 0038 00000000 		.4byte	.LFB41
 6759 003c BC000000 		.4byte	.LFE41-.LFB41
 6760 0040 00000000 		.4byte	.LFB42
 6761 0044 7C000000 		.4byte	.LFE42-.LFB42
 6762 0048 00000000 		.4byte	.LFB43
 6763 004c AC000000 		.4byte	.LFE43-.LFB43
 6764 0050 00000000 		.4byte	.LFB44
 6765 0054 20000000 		.4byte	.LFE44-.LFB44
 6766 0058 00000000 		.4byte	.LFB45
ARM GAS  C:\Users\13740\AppData\Local\Temp\ccN8S1qO.s 			page 157


 6767 005c 4C010000 		.4byte	.LFE45-.LFB45
 6768 0060 00000000 		.4byte	.LFB46
 6769 0064 D4000000 		.4byte	.LFE46-.LFB46
 6770 0068 00000000 		.4byte	.LFB47
 6771 006c 10010000 		.4byte	.LFE47-.LFB47
 6772 0070 00000000 		.4byte	.LFB48
 6773 0074 2A000000 		.4byte	.LFE48-.LFB48
 6774 0078 00000000 		.4byte	.LFB49
 6775 007c 2A000000 		.4byte	.LFE49-.LFB49
 6776 0080 00000000 		.4byte	.LFB50
 6777 0084 90000000 		.4byte	.LFE50-.LFB50
 6778 0088 00000000 		.4byte	.LFB51
 6779 008c 34010000 		.4byte	.LFE51-.LFB51
 6780 0090 00000000 		.4byte	.LFB52
 6781 0094 A0000000 		.4byte	.LFE52-.LFB52
 6782 0098 00000000 		.4byte	.LFB53
 6783 009c 34000000 		.4byte	.LFE53-.LFB53
 6784 00a0 00000000 		.4byte	.LFB54
 6785 00a4 4C000000 		.4byte	.LFE54-.LFB54
 6786 00a8 00000000 		.4byte	.LFB55
 6787 00ac 80000000 		.4byte	.LFE55-.LFB55
 6788 00b0 00000000 		.4byte	.LFB56
 6789 00b4 74000000 		.4byte	.LFE56-.LFB56
 6790 00b8 00000000 		.4byte	.LFB57
 6791 00bc 10030000 		.4byte	.LFE57-.LFB57
 6792 00c0 00000000 		.4byte	.LFB58
 6793 00c4 A4000000 		.4byte	.LFE58-.LFB58
 6794 00c8 00000000 		.4byte	0
 6795 00cc 00000000 		.4byte	0
 6796              		.section	.debug_ranges,"",%progbits
 6797              	.Ldebug_ranges0:
 6798 0000 00000000 		.4byte	.LFB36
 6799 0004 6C030000 		.4byte	.LFE36
 6800 0008 00000000 		.4byte	.LFB37
 6801 000c 4C020000 		.4byte	.LFE37
 6802 0010 00000000 		.4byte	.LFB38
 6803 0014 2C010000 		.4byte	.LFE38
 6804 0018 00000000 		.4byte	.LFB39
 6805 001c E4000000 		.4byte	.LFE39
 6806 0020 00000000 		.4byte	.LFB40
 6807 0024 B0020000 		.4byte	.LFE40
 6808 0028 00000000 		.4byte	.LFB41
 6809 002c BC000000 		.4byte	.LFE41
 6810 0030 00000000 		.4byte	.LFB42
 6811 0034 7C000000 		.4byte	.LFE42
 6812 0038 00000000 		.4byte	.LFB43
 6813 003c AC000000 		.4byte	.LFE43
 6814 0040 00000000 		.4byte	.LFB44
 6815 0044 20000000 		.4byte	.LFE44
 6816 0048 00000000 		.4byte	.LFB45
 6817 004c 4C010000 		.4byte	.LFE45
 6818 0050 00000000 		.4byte	.LFB46
 6819 0054 D4000000 		.4byte	.LFE46
 6820 0058 00000000 		.4byte	.LFB47
 6821 005c 10010000 		.4byte	.LFE47
 6822 0060 00000000 		.4byte	.LFB48
 6823 0064 2A000000 		.4byte	.LFE48
ARM GAS  C:\Users\13740\AppData\Local\Temp\ccN8S1qO.s 			page 158


 6824 0068 00000000 		.4byte	.LFB49
 6825 006c 2A000000 		.4byte	.LFE49
 6826 0070 00000000 		.4byte	.LFB50
 6827 0074 90000000 		.4byte	.LFE50
 6828 0078 00000000 		.4byte	.LFB51
 6829 007c 34010000 		.4byte	.LFE51
 6830 0080 00000000 		.4byte	.LFB52
 6831 0084 A0000000 		.4byte	.LFE52
 6832 0088 00000000 		.4byte	.LFB53
 6833 008c 34000000 		.4byte	.LFE53
 6834 0090 00000000 		.4byte	.LFB54
 6835 0094 4C000000 		.4byte	.LFE54
 6836 0098 00000000 		.4byte	.LFB55
 6837 009c 80000000 		.4byte	.LFE55
 6838 00a0 00000000 		.4byte	.LFB56
 6839 00a4 74000000 		.4byte	.LFE56
 6840 00a8 00000000 		.4byte	.LFB57
 6841 00ac 10030000 		.4byte	.LFE57
 6842 00b0 00000000 		.4byte	.LFB58
 6843 00b4 A4000000 		.4byte	.LFE58
 6844 00b8 00000000 		.4byte	0
 6845 00bc 00000000 		.4byte	0
 6846              		.section	.debug_line,"",%progbits
 6847              	.Ldebug_line0:
 6848 0000 56060000 		.section	.debug_str,"MS",%progbits,1
 6848      02009A01 
 6848      00000201 
 6848      FB0E0D00 
 6848      01010101 
 6849              	.LASF221:
 6850 0000 53454E53 		.ascii	"SENSOR_LACTATE\000"
 6850      4F525F4C 
 6850      41435441 
 6850      544500
 6851              	.LASF240:
 6852 000f 72784275 		.ascii	"rxBuffer\000"
 6852      66666572 
 6852      00
 6853              	.LASF76:
 6854 0018 4359424C 		.ascii	"CYBLE_EVT_GATTC_STOP_CMD_COMPLETE\000"
 6854      455F4556 
 6854      545F4741 
 6854      5454435F 
 6854      53544F50 
 6855              	.LASF72:
 6856 003a 4359424C 		.ascii	"CYBLE_EVT_GATTC_HANDLE_VALUE_NTF\000"
 6856      455F4556 
 6856      545F4741 
 6856      5454435F 
 6856      48414E44 
 6857              	.LASF198:
 6858 005b 567A6572 		.ascii	"Vzero\000"
 6858      6F00
 6859              	.LASF297:
 6860 0061 72616E64 		.ascii	"rand\000"
 6860      00
 6861              	.LASF264:
ARM GAS  C:\Users\13740\AppData\Local\Temp\ccN8S1qO.s 			page 159


 6862 0066 6E6F7469 		.ascii	"notificationHandle\000"
 6862      66696361 
 6862      74696F6E 
 6862      48616E64 
 6862      6C6500
 6863              	.LASF255:
 6864 0079 616D7046 		.ascii	"ampFifoBuffer\000"
 6864      69666F42 
 6864      75666665 
 6864      7200
 6865              	.LASF31:
 6866 0087 4359424C 		.ascii	"CYBLE_EVT_GAP_AUTH_REQ\000"
 6866      455F4556 
 6866      545F4741 
 6866      505F4155 
 6866      54485F52 
 6867              	.LASF201:
 6868 009e 45787452 		.ascii	"ExtRtiaVal\000"
 6868      74696156 
 6868      616C00
 6869              	.LASF104:
 6870 00a9 4359424C 		.ascii	"CYBLE_ERROR_GAP_ROLE\000"
 6870      455F4552 
 6870      524F525F 
 6870      4741505F 
 6870      524F4C45 
 6871              	.LASF118:
 6872 00be 4359424C 		.ascii	"CYBLE_ERROR_HARDWARE_FAILURE\000"
 6872      455F4552 
 6872      524F525F 
 6872      48415244 
 6872      57415245 
 6873              	.LASF56:
 6874 00db 4359424C 		.ascii	"CYBLE_EVT_GATT_DISCONNECT_IND\000"
 6874      455F4556 
 6874      545F4741 
 6874      54545F44 
 6874      4953434F 
 6875              	.LASF213:
 6876 00f9 6C616374 		.ascii	"lactate\000"
 6876      61746500 
 6877              	.LASF197:
 6878 0101 52746961 		.ascii	"RtiaCalValue\000"
 6878      43616C56 
 6878      616C7565 
 6878      00
 6879              	.LASF275:
 6880 010e 6576656E 		.ascii	"eventParam\000"
 6880      74506172 
 6880      616D00
 6881              	.LASF241:
 6882 0119 44696167 		.ascii	"DiagnosticsElectrodes\000"
 6882      6E6F7374 
 6882      69637345 
 6882      6C656374 
 6882      726F6465 
 6883              	.LASF51:
ARM GAS  C:\Users\13740\AppData\Local\Temp\ccN8S1qO.s 			page 160


 6884 012f 4359424C 		.ascii	"CYBLE_EVT_GAP_SCAN_REQ_RECVD\000"
 6884      455F4556 
 6884      545F4741 
 6884      505F5343 
 6884      414E5F52 
 6885              	.LASF206:
 6886 014c 4669666F 		.ascii	"FifoDataCount\000"
 6886      44617461 
 6886      436F756E 
 6886      7400
 6887              	.LASF57:
 6888 015a 4359424C 		.ascii	"CYBLE_EVT_GATTS_XCNHG_MTU_REQ\000"
 6888      455F4556 
 6888      545F4741 
 6888      5454535F 
 6888      58434E48 
 6889              	.LASF265:
 6890 0178 64617461 		.ascii	"dataString\000"
 6890      53747269 
 6890      6E6700
 6891              	.LASF75:
 6892 0183 4359424C 		.ascii	"CYBLE_EVT_GATTS_DATA_SIGNED_CMD_REQ\000"
 6892      455F4556 
 6892      545F4741 
 6892      5454535F 
 6892      44415441 
 6893              	.LASF97:
 6894 01a7 4359424C 		.ascii	"CYBLE_ERROR_INVALID_OPERATION\000"
 6894      455F4552 
 6894      524F525F 
 6894      494E5641 
 6894      4C49445F 
 6895              	.LASF26:
 6896 01c5 4359424C 		.ascii	"CYBLE_EVT_HARDWARE_ERROR\000"
 6896      455F4556 
 6896      545F4841 
 6896      52445741 
 6896      52455F45 
 6897              	.LASF11:
 6898 01de 756E7369 		.ascii	"unsigned int\000"
 6898      676E6564 
 6898      20696E74 
 6898      00
 6899              	.LASF91:
 6900 01eb 4359424C 		.ascii	"CYBLE_EVT_LE_PING_AUTH_TIMEOUT\000"
 6900      455F4556 
 6900      545F4C45 
 6900      5F50494E 
 6900      475F4155 
 6901              	.LASF88:
 6902 020a 4359424C 		.ascii	"CYBLE_EVT_L2CAP_CBFC_TX_CREDIT_IND\000"
 6902      455F4556 
 6902      545F4C32 
 6902      4341505F 
 6902      43424643 
 6903              	.LASF208:
 6904 022d 43757272 		.ascii	"Current\000"
ARM GAS  C:\Users\13740\AppData\Local\Temp\ccN8S1qO.s 			page 161


 6904      656E7400 
 6905              	.LASF68:
 6906 0235 4359424C 		.ascii	"CYBLE_EVT_GATTS_WRITE_CMD_REQ\000"
 6906      455F4556 
 6906      545F4741 
 6906      5454535F 
 6906      57524954 
 6907              	.LASF268:
 6908 0253 696E6974 		.ascii	"initStatus\000"
 6908      53746174 
 6908      757300
 6909              	.LASF231:
 6910 025e 72656756 		.ascii	"regValue\000"
 6910      616C7565 
 6910      00
 6911              	.LASF5:
 6912 0267 5F5F696E 		.ascii	"__int32_t\000"
 6912      7433325F 
 6912      7400
 6913              	.LASF102:
 6914 0271 4359424C 		.ascii	"CYBLE_ERROR_NO_DEVICE_ENTITY\000"
 6914      455F4552 
 6914      524F525F 
 6914      4E4F5F44 
 6914      45564943 
 6915              	.LASF134:
 6916 028e 4359424C 		.ascii	"CYBLE_LP_MODE_T\000"
 6916      455F4C50 
 6916      5F4D4F44 
 6916      455F5400 
 6917              	.LASF252:
 6918 029e 766F6C74 		.ascii	"voltage\000"
 6918      61676500 
 6919              	.LASF294:
 6920 02a6 474E5520 		.ascii	"GNU C11 5.4.1 20160609 (release) [ARM/embedded-5-br"
 6920      43313120 
 6920      352E342E 
 6920      31203230 
 6920      31363036 
 6921 02d9 616E6368 		.ascii	"anch revision 237715] -mcpu=cortex-m0 -mthumb -g -O"
 6921      20726576 
 6921      6973696F 
 6921      6E203233 
 6921      37373135 
 6922 030c 30202D66 		.ascii	"0 -ffunction-sections -ffat-lto-objects\000"
 6922      66756E63 
 6922      74696F6E 
 6922      2D736563 
 6922      74696F6E 
 6923              	.LASF207:
 6924 0334 41707041 		.ascii	"AppAMPCfg_Type\000"
 6924      4D504366 
 6924      675F5479 
 6924      706500
 6925              	.LASF203:
 6926 0343 496E6974 		.ascii	"InitSeqInfo\000"
 6926      53657149 
ARM GAS  C:\Users\13740\AppData\Local\Temp\ccN8S1qO.s 			page 162


 6926      6E666F00 
 6927              	.LASF32:
 6928 034f 4359424C 		.ascii	"CYBLE_EVT_GAP_PASSKEY_ENTRY_REQUEST\000"
 6928      455F4556 
 6928      545F4741 
 6928      505F5041 
 6928      53534B45 
 6929              	.LASF292:
 6930 0373 616D7042 		.ascii	"ampBuffer\000"
 6930      75666665 
 6930      7200
 6931              	.LASF225:
 6932 037d 6572726F 		.ascii	"error\000"
 6932      7200
 6933              	.LASF190:
 6934 0383 41444350 		.ascii	"ADCPgaGain\000"
 6934      67614761 
 6934      696E00
 6935              	.LASF126:
 6936 038e 4359424C 		.ascii	"CYBLE_ERROR_INVALID_STATE\000"
 6936      455F4552 
 6936      524F525F 
 6936      494E5641 
 6936      4C49445F 
 6937              	.LASF189:
 6938 03a8 5077724D 		.ascii	"PwrMod\000"
 6938      6F6400
 6939              	.LASF193:
 6940 03af 44617461 		.ascii	"DataFifoSrc\000"
 6940      4669666F 
 6940      53726300 
 6941              	.LASF205:
 6942 03bb 53746F70 		.ascii	"StopRequired\000"
 6942      52657175 
 6942      69726564 
 6942      00
 6943              	.LASF288:
 6944 03c8 6D61696E 		.ascii	"mainTimer\000"
 6944      54696D65 
 6944      7200
 6945              	.LASF40:
 6946 03d2 4359424C 		.ascii	"CYBLE_EVT_GAP_CONNECTION_UPDATE_COMPLETE\000"
 6946      455F4556 
 6946      545F4741 
 6946      505F434F 
 6946      4E4E4543 
 6947              	.LASF230:
 6948 03fb 44696167 		.ascii	"DiagnosticsSPI\000"
 6948      6E6F7374 
 6948      69637353 
 6948      504900
 6949              	.LASF228:
 6950 040a 69645F63 		.ascii	"id_chipid\000"
 6950      68697069 
 6950      6400
 6951              	.LASF266:
 6952 0414 53656E64 		.ascii	"SendLactateDataViaBLE\000"
ARM GAS  C:\Users\13740\AppData\Local\Temp\ccN8S1qO.s 			page 163


 6952      4C616374 
 6952      61746544 
 6952      61746156 
 6952      6961424C 
 6953              	.LASF226:
 6954 042a 63686970 		.ascii	"chipid\000"
 6954      696400
 6955              	.LASF43:
 6956 0431 4359424C 		.ascii	"CYBLE_EVT_GAP_NUMERIC_COMPARISON_REQUEST\000"
 6956      455F4556 
 6956      545F4741 
 6956      505F4E55 
 6956      4D455249 
 6957              	.LASF183:
 6958 045a 41646343 		.ascii	"AdcClkFreq\000"
 6958      6C6B4672 
 6958      657100
 6959              	.LASF181:
 6960 0465 53797343 		.ascii	"SysClkFreq\000"
 6960      6C6B4672 
 6960      657100
 6961              	.LASF173:
 6962 0470 50686173 		.ascii	"Phase\000"
 6962      6500
 6963              	.LASF14:
 6964 0476 75696E74 		.ascii	"uint32_t\000"
 6964      33325F74 
 6964      00
 6965              	.LASF90:
 6966 047f 4359424C 		.ascii	"CYBLE_EVT_PENDING_FLASH_WRITE\000"
 6966      455F4556 
 6966      545F5045 
 6966      4E44494E 
 6966      475F464C 
 6967              	.LASF67:
 6968 049d 4359424C 		.ascii	"CYBLE_EVT_GATTC_WRITE_RSP\000"
 6968      455F4556 
 6968      545F4741 
 6968      5454435F 
 6968      57524954 
 6969              	.LASF18:
 6970 04b7 666C6F61 		.ascii	"float\000"
 6970      7400
 6971              	.LASF269:
 6972 04bd 53656E64 		.ascii	"SendTemperatureViaBLE\000"
 6972      54656D70 
 6972      65726174 
 6972      75726556 
 6972      6961424C 
 6973              	.LASF191:
 6974 04d3 41444353 		.ascii	"ADCSinc3Osr\000"
 6974      696E6333 
 6974      4F737200 
 6975              	.LASF274:
 6976 04df 6576656E 		.ascii	"event\000"
 6976      7400
 6977              	.LASF28:
ARM GAS  C:\Users\13740\AppData\Local\Temp\ccN8S1qO.s 			page 164


 6978 04e5 4359424C 		.ascii	"CYBLE_EVT_STACK_BUSY_STATUS\000"
 6978      455F4556 
 6978      545F5354 
 6978      41434B5F 
 6978      42555359 
 6979              	.LASF81:
 6980 0501 4359424C 		.ascii	"CYBLE_EVT_L2CAP_COMMAND_REJ\000"
 6980      455F4556 
 6980      545F4C32 
 6980      4341505F 
 6980      434F4D4D 
 6981              	.LASF175:
 6982 051d 62506172 		.ascii	"bParaChanged\000"
 6982      61436861 
 6982      6E676564 
 6982      00
 6983              	.LASF271:
 6984 052a 53656E64 		.ascii	"SendAllSensorDataViaBLE\000"
 6984      416C6C53 
 6984      656E736F 
 6984      72446174 
 6984      61566961 
 6985              	.LASF129:
 6986 0542 4359424C 		.ascii	"CYBLE_BLESS_ACTIVE\000"
 6986      455F424C 
 6986      4553535F 
 6986      41435449 
 6986      564500
 6987              	.LASF187:
 6988 0555 5263616C 		.ascii	"RcalVal\000"
 6988      56616C00 
 6989              	.LASF10:
 6990 055d 6C6F6E67 		.ascii	"long long unsigned int\000"
 6990      206C6F6E 
 6990      6720756E 
 6990      7369676E 
 6990      65642069 
 6991              	.LASF66:
 6992 0574 4359424C 		.ascii	"CYBLE_EVT_GATTS_WRITE_REQ\000"
 6992      455F4556 
 6992      545F4741 
 6992      5454535F 
 6992      57524954 
 6993              	.LASF167:
 6994 058e 53657152 		.ascii	"SeqRamAddr\000"
 6994      616D4164 
 6994      647200
 6995              	.LASF156:
 6996 0599 4359424C 		.ascii	"CYBLE_STATE_STOPPED\000"
 6996      455F5354 
 6996      4154455F 
 6996      53544F50 
 6996      50454400 
 6997              	.LASF209:
 6998 05ad 566F6C74 		.ascii	"Voltage\000"
 6998      61676500 
 6999              	.LASF210:
ARM GAS  C:\Users\13740\AppData\Local\Temp\ccN8S1qO.s 			page 165


 7000 05b5 66416D70 		.ascii	"fAmpRes_Type\000"
 7000      5265735F 
 7000      54797065 
 7000      00
 7001              	.LASF286:
 7002 05c2 6379426C 		.ascii	"cyBle_connHandle\000"
 7002      655F636F 
 7002      6E6E4861 
 7002      6E646C65 
 7002      00
 7003              	.LASF61:
 7004 05d3 4359424C 		.ascii	"CYBLE_EVT_GATTC_FIND_INFO_RSP\000"
 7004      455F4556 
 7004      545F4741 
 7004      5454435F 
 7004      46494E44 
 7005              	.LASF137:
 7006 05f1 4359424C 		.ascii	"CYBLE_BLESS_STATE_SLEEP\000"
 7006      455F424C 
 7006      4553535F 
 7006      53544154 
 7006      455F534C 
 7007              	.LASF158:
 7008 0609 4359424C 		.ascii	"CYBLE_STATE_CONNECTED\000"
 7008      455F5354 
 7008      4154455F 
 7008      434F4E4E 
 7008      45435445 
 7009              	.LASF261:
 7010 061f 656E6162 		.ascii	"enable\000"
 7010      6C6500
 7011              	.LASF238:
 7012 0626 54657374 		.ascii	"TestRawSPI\000"
 7012      52617753 
 7012      504900
 7013              	.LASF62:
 7014 0631 4359424C 		.ascii	"CYBLE_EVT_GATTC_FIND_BY_TYPE_VALUE_RSP\000"
 7014      455F4556 
 7014      545F4741 
 7014      5454435F 
 7014      46494E44 
 7015              	.LASF152:
 7016 0658 76616C75 		.ascii	"value\000"
 7016      6500
 7017              	.LASF220:
 7018 065e 53454E53 		.ascii	"SENSOR_GLUCOSE\000"
 7018      4F525F47 
 7018      4C55434F 
 7018      534500
 7019              	.LASF70:
 7020 066d 4359424C 		.ascii	"CYBLE_EVT_GATTS_EXEC_WRITE_REQ\000"
 7020      455F4556 
 7020      545F4741 
 7020      5454535F 
 7020      45584543 
 7021              	.LASF71:
 7022 068c 4359424C 		.ascii	"CYBLE_EVT_GATTC_EXEC_WRITE_RSP\000"
ARM GAS  C:\Users\13740\AppData\Local\Temp\ccN8S1qO.s 			page 166


 7022      455F4556 
 7022      545F4741 
 7022      5454435F 
 7022      45584543 
 7023              	.LASF285:
 7024 06ab 6379426C 		.ascii	"cyBle_state\000"
 7024      655F7374 
 7024      61746500 
 7025              	.LASF149:
 7026 06b7 4359424C 		.ascii	"CYBLE_CONN_HANDLE_T\000"
 7026      455F434F 
 7026      4E4E5F48 
 7026      414E444C 
 7026      455F5400 
 7027              	.LASF155:
 7028 06cb 4359424C 		.ascii	"CYBLE_GATTS_HANDLE_VALUE_NTF_T\000"
 7028      455F4741 
 7028      5454535F 
 7028      48414E44 
 7028      4C455F56 
 7029              	.LASF293:
 7030 06ea 616D7052 		.ascii	"ampResult\000"
 7030      6573756C 
 7030      7400
 7031              	.LASF195:
 7032 06f4 4C705469 		.ascii	"LpTiaRf\000"
 7032      61526600 
 7033              	.LASF291:
 7034 06fc 70416D70 		.ascii	"pAmpCfg\000"
 7034      43666700 
 7035              	.LASF77:
 7036 0704 4359424C 		.ascii	"CYBLE_EVT_GATTS_READ_CHAR_VAL_ACCESS_REQ\000"
 7036      455F4556 
 7036      545F4741 
 7036      5454535F 
 7036      52454144 
 7037              	.LASF34:
 7038 072d 4359424C 		.ascii	"CYBLE_EVT_GAP_AUTH_COMPLETE\000"
 7038      455F4556 
 7038      545F4741 
 7038      505F4155 
 7038      54485F43 
 7039              	.LASF106:
 7040 0749 4359424C 		.ascii	"CYBLE_ERROR_BT_ON_NOT_COMPLETED\000"
 7040      455F4552 
 7040      524F525F 
 7040      42545F4F 
 7040      4E5F4E4F 
 7041              	.LASF124:
 7042 0769 4359424C 		.ascii	"CYBLE_ERROR_IND_DISABLED\000"
 7042      455F4552 
 7042      524F525F 
 7042      494E445F 
 7042      44495341 
 7043              	.LASF270:
 7044 0782 74656D70 		.ascii	"tempString\000"
 7044      53747269 
ARM GAS  C:\Users\13740\AppData\Local\Temp\ccN8S1qO.s 			page 167


 7044      6E6700
 7045              	.LASF19:
 7046 078d 646F7562 		.ascii	"double\000"
 7046      6C6500
 7047              	.LASF166:
 7048 0794 53657149 		.ascii	"SeqId\000"
 7048      6400
 7049              	.LASF63:
 7050 079a 4359424C 		.ascii	"CYBLE_EVT_GATTC_READ_RSP\000"
 7050      455F4556 
 7050      545F4741 
 7050      5454435F 
 7050      52454144 
 7051              	.LASF212:
 7052 07b3 676C7563 		.ascii	"glucose\000"
 7052      6F736500 
 7053              	.LASF177:
 7054 07bb 4D617853 		.ascii	"MaxSeqLen\000"
 7054      65714C65 
 7054      6E00
 7055              	.LASF58:
 7056 07c5 4359424C 		.ascii	"CYBLE_EVT_GATTC_XCHNG_MTU_RSP\000"
 7056      455F4556 
 7056      545F4741 
 7056      5454435F 
 7056      5843484E 
 7057              	.LASF256:
 7058 07e3 70437572 		.ascii	"pCurrentData\000"
 7058      72656E74 
 7058      44617461 
 7058      00
 7059              	.LASF93:
 7060 07f0 4359424C 		.ascii	"CYBLE_EVT_FLASH_CORRUPT\000"
 7060      455F4556 
 7060      545F464C 
 7060      4153485F 
 7060      434F5252 
 7061              	.LASF224:
 7062 0808 416D7065 		.ascii	"AmperometricSensor_t\000"
 7062      726F6D65 
 7062      74726963 
 7062      53656E73 
 7062      6F725F74 
 7063              	.LASF279:
 7064 081d 74657374 		.ascii	"testChipID\000"
 7064      43686970 
 7064      494400
 7065              	.LASF289:
 7066 0828 6D656173 		.ascii	"measurementFlag\000"
 7066      7572656D 
 7066      656E7446 
 7066      6C616700 
 7067              	.LASF153:
 7068 0838 61747472 		.ascii	"attrHandle\000"
 7068      48616E64 
 7068      6C6500
 7069              	.LASF280:
ARM GAS  C:\Users\13740\AppData\Local\Temp\ccN8S1qO.s 			page 168


 7070 0843 696E6974 		.ascii	"initWaitTime\000"
 7070      57616974 
 7070      54696D65 
 7070      00
 7071              	.LASF171:
 7072 0850 53455149 		.ascii	"SEQInfo_Type\000"
 7072      6E666F5F 
 7072      54797065 
 7072      00
 7073              	.LASF186:
 7074 085d 4E756D4F 		.ascii	"NumOfData\000"
 7074      66446174 
 7074      6100
 7075              	.LASF194:
 7076 0867 4C707469 		.ascii	"LptiaRtiaSel\000"
 7076      61527469 
 7076      6153656C 
 7076      00
 7077              	.LASF64:
 7078 0874 4359424C 		.ascii	"CYBLE_EVT_GATTC_READ_BLOB_RSP\000"
 7078      455F4556 
 7078      545F4741 
 7078      5454435F 
 7078      52454144 
 7079              	.LASF100:
 7080 0892 4359424C 		.ascii	"CYBLE_ERROR_OOB_NOT_AVAILABLE\000"
 7080      455F4552 
 7080      524F525F 
 7080      4F4F425F 
 7080      4E4F545F 
 7081              	.LASF80:
 7082 08b0 4359424C 		.ascii	"CYBLE_EVT_L2CAP_CONN_PARAM_UPDATE_RSP\000"
 7082      455F4556 
 7082      545F4C32 
 7082      4341505F 
 7082      434F4E4E 
 7083              	.LASF87:
 7084 08d6 4359424C 		.ascii	"CYBLE_EVT_L2CAP_CBFC_RX_CREDIT_IND\000"
 7084      455F4556 
 7084      545F4C32 
 7084      4341505F 
 7084      43424643 
 7085              	.LASF263:
 7086 08f9 53656E64 		.ascii	"SendGlucoseDataViaBLE\000"
 7086      476C7563 
 7086      6F736544 
 7086      61746156 
 7086      6961424C 
 7087              	.LASF277:
 7088 090f 696E7465 		.ascii	"interruptStatus\000"
 7088      72727570 
 7088      74537461 
 7088      74757300 
 7089              	.LASF83:
 7090 091f 4359424C 		.ascii	"CYBLE_EVT_L2CAP_CBFC_CONN_CNF\000"
 7090      455F4556 
 7090      545F4C32 
ARM GAS  C:\Users\13740\AppData\Local\Temp\ccN8S1qO.s 			page 169


 7090      4341505F 
 7090      43424643 
 7091              	.LASF161:
 7092 093d 4359424C 		.ascii	"CYBLE_STATE_T\000"
 7092      455F5354 
 7092      4154455F 
 7092      5400
 7093              	.LASF227:
 7094 094b 69645F61 		.ascii	"id_adiid\000"
 7094      64696964 
 7094      00
 7095              	.LASF185:
 7096 0954 416D704F 		.ascii	"AmpODR\000"
 7096      445200
 7097              	.LASF202:
 7098 095b 414D5049 		.ascii	"AMPInited\000"
 7098      6E697465 
 7098      6400
 7099              	.LASF211:
 7100 0965 74656D70 		.ascii	"temperature\000"
 7100      65726174 
 7100      75726500 
 7101              	.LASF254:
 7102 0971 52656164 		.ascii	"ReadCurrentFromAD5940\000"
 7102      43757272 
 7102      656E7446 
 7102      726F6D41 
 7102      44353934 
 7103              	.LASF98:
 7104 0987 4359424C 		.ascii	"CYBLE_ERROR_MEMORY_ALLOCATION_FAILED\000"
 7104      455F4552 
 7104      524F525F 
 7104      4D454D4F 
 7104      52595F41 
 7105              	.LASF119:
 7106 09ac 4359424C 		.ascii	"CYBLE_ERROR_UNSUPPORTED_FEATURE_OR_PARAMETER_VALUE\000"
 7106      455F4552 
 7106      524F525F 
 7106      554E5355 
 7106      50504F52 
 7107              	.LASF184:
 7108 09df 4669666F 		.ascii	"FifoThresh\000"
 7108      54687265 
 7108      736800
 7109              	.LASF27:
 7110 09ea 4359424C 		.ascii	"CYBLE_EVT_HCI_STATUS\000"
 7110      455F4556 
 7110      545F4843 
 7110      495F5354 
 7110      41545553 
 7111              	.LASF107:
 7112 09ff 4359424C 		.ascii	"CYBLE_ERROR_SEC_FAILED\000"
 7112      455F4552 
 7112      524F525F 
 7112      5345435F 
 7112      4641494C 
 7113              	.LASF20:
ARM GAS  C:\Users\13740\AppData\Local\Temp\ccN8S1qO.s 			page 170


 7114 0a16 63686172 		.ascii	"char\000"
 7114      00
 7115              	.LASF243:
 7116 0a1b 63757272 		.ascii	"current_uA\000"
 7116      656E745F 
 7116      754100
 7117              	.LASF298:
 7118 0a26 4C6F7750 		.ascii	"LowPowerImplementation\000"
 7118      6F776572 
 7118      496D706C 
 7118      656D656E 
 7118      74617469 
 7119              	.LASF116:
 7120 0a3d 4359424C 		.ascii	"CYBLE_ERROR_FLASH_WRITE_NOT_PERMITED\000"
 7120      455F4552 
 7120      524F525F 
 7120      464C4153 
 7120      485F5752 
 7121              	.LASF276:
 7122 0a62 626C654D 		.ascii	"bleMode\000"
 7122      6F646500 
 7123              	.LASF99:
 7124 0a6a 4359424C 		.ascii	"CYBLE_ERROR_INSUFFICIENT_RESOURCES\000"
 7124      455F4552 
 7124      524F525F 
 7124      494E5355 
 7124      46464943 
 7125              	.LASF164:
 7126 0a8d 62545255 		.ascii	"bTRUE\000"
 7126      4500
 7127              	.LASF117:
 7128 0a93 4359424C 		.ascii	"CYBLE_ERROR_MIC_AUTH_FAILED\000"
 7128      455F4552 
 7128      524F525F 
 7128      4D49435F 
 7128      41555448 
 7129              	.LASF151:
 7130 0aaf 4359424C 		.ascii	"CYBLE_GATT_VALUE_T\000"
 7130      455F4741 
 7130      54545F56 
 7130      414C5545 
 7130      5F5400
 7131              	.LASF24:
 7132 0ac2 4359424C 		.ascii	"CYBLE_EVT_STACK_ON\000"
 7132      455F4556 
 7132      545F5354 
 7132      41434B5F 
 7132      4F4E00
 7133              	.LASF16:
 7134 0ad5 75696E74 		.ascii	"uint16\000"
 7134      313600
 7135              	.LASF146:
 7136 0adc 4359424C 		.ascii	"CYBLE_GATT_DB_ATTR_HANDLE_T\000"
 7136      455F4741 
 7136      54545F44 
 7136      425F4154 
 7136      54525F48 
ARM GAS  C:\Users\13740\AppData\Local\Temp\ccN8S1qO.s 			page 171


 7137              	.LASF79:
 7138 0af8 4359424C 		.ascii	"CYBLE_EVT_L2CAP_CONN_PARAM_UPDATE_REQ\000"
 7138      455F4556 
 7138      545F4C32 
 7138      4341505F 
 7138      434F4E4E 
 7139              	.LASF12:
 7140 0b1e 75696E74 		.ascii	"uint8_t\000"
 7140      385F7400 
 7141              	.LASF115:
 7142 0b26 4359424C 		.ascii	"CYBLE_ERROR_DEVICE_ALREADY_EXISTS\000"
 7142      455F4552 
 7142      524F525F 
 7142      44455649 
 7142      43455F41 
 7143              	.LASF249:
 7144 0b48 636F6E63 		.ascii	"concentration\000"
 7144      656E7472 
 7144      6174696F 
 7144      6E00
 7145              	.LASF174:
 7146 0b56 66496D70 		.ascii	"fImpPol_Type\000"
 7146      506F6C5F 
 7146      54797065 
 7146      00
 7147              	.LASF216:
 7148 0b63 63757272 		.ascii	"current_glucose_nA\000"
 7148      656E745F 
 7148      676C7563 
 7148      6F73655F 
 7148      6E4100
 7149              	.LASF46:
 7150 0b76 4359424C 		.ascii	"CYBLE_EVT_GAP_DATA_LENGTH_CHANGE\000"
 7150      455F4556 
 7150      545F4741 
 7150      505F4441 
 7150      54415F4C 
 7151              	.LASF200:
 7152 0b97 45787452 		.ascii	"ExtRtia\000"
 7152      74696100 
 7153              	.LASF290:
 7154 0b9f 73656E73 		.ascii	"sensorData\000"
 7154      6F724461 
 7154      746100
 7155              	.LASF284:
 7156 0baa 6379426C 		.ascii	"cyBle_pendingFlashWrite\000"
 7156      655F7065 
 7156      6E64696E 
 7156      67466C61 
 7156      73685772 
 7157              	.LASF123:
 7158 0bc2 4359424C 		.ascii	"CYBLE_ERROR_NTF_DISABLED\000"
 7158      455F4552 
 7158      524F525F 
 7158      4E54465F 
 7158      44495341 
 7159              	.LASF127:
ARM GAS  C:\Users\13740\AppData\Local\Temp\ccN8S1qO.s 			page 172


 7160 0bdb 4359424C 		.ascii	"CYBLE_ERROR_STACK_BUSY\000"
 7160      455F4552 
 7160      524F525F 
 7160      53544143 
 7160      4B5F4255 
 7161              	.LASF247:
 7162 0bf2 73656E73 		.ascii	"sensorType\000"
 7162      6F725479 
 7162      706500
 7163              	.LASF283:
 7164 0bfd 6C6F6361 		.ascii	"localAddr\000"
 7164      6C416464 
 7164      7200
 7165              	.LASF287:
 7166 0c07 61706952 		.ascii	"apiResult\000"
 7166      6573756C 
 7166      7400
 7167              	.LASF9:
 7168 0c11 6C6F6E67 		.ascii	"long long int\000"
 7168      206C6F6E 
 7168      6720696E 
 7168      7400
 7169              	.LASF140:
 7170 0c1f 4359424C 		.ascii	"CYBLE_BLESS_STATE_DEEPSLEEP\000"
 7170      455F424C 
 7170      4553535F 
 7170      53544154 
 7170      455F4445 
 7171              	.LASF295:
 7172 0c3b 6D61696E 		.ascii	"main.c\000"
 7172      2E6300
 7173              	.LASF233:
 7174 0c42 72656756 		.ascii	"regValue3\000"
 7174      616C7565 
 7174      3300
 7175              	.LASF234:
 7176 0c4c 72656756 		.ascii	"regValue4\000"
 7176      616C7565 
 7176      3400
 7177              	.LASF218:
 7178 0c56 63757272 		.ascii	"current_uric_nA\000"
 7178      656E745F 
 7178      75726963 
 7178      5F6E4100 
 7179              	.LASF54:
 7180 0c66 4359424C 		.ascii	"CYBLE_EVT_GATTC_ERROR_RSP\000"
 7180      455F4556 
 7180      545F4741 
 7180      5454435F 
 7180      4552524F 
 7181              	.LASF259:
 7182 0c80 74656D70 		.ascii	"temp_factor\000"
 7182      5F666163 
 7182      746F7200 
 7183              	.LASF114:
 7184 0c8c 4359424C 		.ascii	"CYBLE_ERROR_GATT_DB_INVALID_ATTR_HANDLE\000"
 7184      455F4552 
ARM GAS  C:\Users\13740\AppData\Local\Temp\ccN8S1qO.s 			page 173


 7184      524F525F 
 7184      47415454 
 7184      5F44425F 
 7185              	.LASF157:
 7186 0cb4 4359424C 		.ascii	"CYBLE_STATE_INITIALIZING\000"
 7186      455F5354 
 7186      4154455F 
 7186      494E4954 
 7186      49414C49 
 7187              	.LASF122:
 7188 0ccd 4359424C 		.ascii	"CYBLE_ERROR_MAX\000"
 7188      455F4552 
 7188      524F525F 
 7188      4D415800 
 7189              	.LASF222:
 7190 0cdd 53454E53 		.ascii	"SENSOR_URIC_ACID\000"
 7190      4F525F55 
 7190      5249435F 
 7190      41434944 
 7190      00
 7191              	.LASF182:
 7192 0cee 57757074 		.ascii	"WuptClkFreq\000"
 7192      436C6B46 
 7192      72657100 
 7193              	.LASF111:
 7194 0cfa 4359424C 		.ascii	"CYBLE_ERROR_L2CAP_CONNECTION_ENTITY_NOT_FOUND\000"
 7194      455F4552 
 7194      524F525F 
 7194      4C324341 
 7194      505F434F 
 7195              	.LASF214:
 7196 0d28 75726963 		.ascii	"uric_acid\000"
 7196      5F616369 
 7196      6400
 7197              	.LASF245:
 7198 0d32 4D656173 		.ascii	"MeasureAmperometricSensor\000"
 7198      75726541 
 7198      6D706572 
 7198      6F6D6574 
 7198      72696353 
 7199              	.LASF108:
 7200 0d4c 4359424C 		.ascii	"CYBLE_ERROR_L2CAP_PSM_WRONG_ENCODING\000"
 7200      455F4552 
 7200      524F525F 
 7200      4C324341 
 7200      505F5053 
 7201              	.LASF262:
 7202 0d71 436F6E74 		.ascii	"ControlElectricalStimulation\000"
 7202      726F6C45 
 7202      6C656374 
 7202      72696361 
 7202      6C537469 
 7203              	.LASF36:
 7204 0d8e 4359424C 		.ascii	"CYBLE_EVT_GAPP_ADVERTISEMENT_START_STOP\000"
 7204      455F4556 
 7204      545F4741 
 7204      50505F41 
ARM GAS  C:\Users\13740\AppData\Local\Temp\ccN8S1qO.s 			page 174


 7204      44564552 
 7205              	.LASF163:
 7206 0db6 6246414C 		.ascii	"bFALSE\000"
 7206      534500
 7207              	.LASF147:
 7208 0dbd 62644861 		.ascii	"bdHandle\000"
 7208      6E646C65 
 7208      00
 7209              	.LASF17:
 7210 0dc6 75696E74 		.ascii	"uint32\000"
 7210      333200
 7211              	.LASF273:
 7212 0dcd 41707043 		.ascii	"AppCallBack\000"
 7212      616C6C42 
 7212      61636B00 
 7213              	.LASF86:
 7214 0dd9 4359424C 		.ascii	"CYBLE_EVT_L2CAP_CBFC_DATA_READ\000"
 7214      455F4556 
 7214      545F4C32 
 7214      4341505F 
 7214      43424643 
 7215              	.LASF160:
 7216 0df8 4359424C 		.ascii	"CYBLE_STATE_DISCONNECTED\000"
 7216      455F5354 
 7216      4154455F 
 7216      44495343 
 7216      4F4E4E45 
 7217              	.LASF8:
 7218 0e11 6C6F6E67 		.ascii	"long unsigned int\000"
 7218      20756E73 
 7218      69676E65 
 7218      6420696E 
 7218      7400
 7219              	.LASF260:
 7220 0e23 436F6E74 		.ascii	"ControlDrugRelease\000"
 7220      726F6C44 
 7220      72756752 
 7220      656C6561 
 7220      736500
 7221              	.LASF133:
 7222 0e36 4359424C 		.ascii	"CYBLE_BLESS_INVALID\000"
 7222      455F424C 
 7222      4553535F 
 7222      494E5641 
 7222      4C494400 
 7223              	.LASF92:
 7224 0e4a 4359424C 		.ascii	"CYBLE_EVT_HCI_PKT\000"
 7224      455F4556 
 7224      545F4843 
 7224      495F504B 
 7224      5400
 7225              	.LASF128:
 7226 0e5c 4359424C 		.ascii	"CYBLE_API_RESULT_T\000"
 7226      455F4150 
 7226      495F5245 
 7226      53554C54 
 7226      5F5400
ARM GAS  C:\Users\13740\AppData\Local\Temp\ccN8S1qO.s 			page 175


 7227              	.LASF110:
 7228 0e6f 4359424C 		.ascii	"CYBLE_ERROR_L2CAP_PSM_NOT_REGISTERED\000"
 7228      455F4552 
 7228      524F525F 
 7228      4C324341 
 7228      505F5053 
 7229              	.LASF165:
 7230 0e94 426F6F6C 		.ascii	"BoolFlag\000"
 7230      466C6167 
 7230      00
 7231              	.LASF258:
 7232 0e9d 4D656173 		.ascii	"MeasureAllSensorsWithCurrent\000"
 7232      75726541 
 7232      6C6C5365 
 7232      6E736F72 
 7232      73576974 
 7233              	.LASF49:
 7234 0eba 4359424C 		.ascii	"CYBLE_EVT_GAP_SMP_NEGOTIATED_AUTH_INFO\000"
 7234      455F4556 
 7234      545F4741 
 7234      505F534D 
 7234      505F4E45 
 7235              	.LASF168:
 7236 0ee1 5365714C 		.ascii	"SeqLen\000"
 7236      656E00
 7237              	.LASF281:
 7238 0ee8 6C617374 		.ascii	"lastSendTime\000"
 7238      53656E64 
 7238      54696D65 
 7238      00
 7239              	.LASF21:
 7240 0ef5 6C6F6E67 		.ascii	"long double\000"
 7240      20646F75 
 7240      626C6500 
 7241              	.LASF217:
 7242 0f01 63757272 		.ascii	"current_lactate_nA\000"
 7242      656E745F 
 7242      6C616374 
 7242      6174655F 
 7242      6E4100
 7243              	.LASF73:
 7244 0f14 4359424C 		.ascii	"CYBLE_EVT_GATTC_HANDLE_VALUE_IND\000"
 7244      455F4556 
 7244      545F4741 
 7244      5454435F 
 7244      48414E44 
 7245              	.LASF105:
 7246 0f35 4359424C 		.ascii	"CYBLE_ERROR_TX_POWER_READ\000"
 7246      455F4552 
 7246      524F525F 
 7246      54585F50 
 7246      4F574552 
 7247              	.LASF192:
 7248 0f4f 41444353 		.ascii	"ADCSinc2Osr\000"
 7248      696E6332 
 7248      4F737200 
 7249              	.LASF142:
ARM GAS  C:\Users\13740\AppData\Local\Temp\ccN8S1qO.s 			page 176


 7250 0f5b 4359424C 		.ascii	"CYBLE_BLESS_STATE_INVALID\000"
 7250      455F424C 
 7250      4553535F 
 7250      53544154 
 7250      455F494E 
 7251              	.LASF103:
 7252 0f75 4359424C 		.ascii	"CYBLE_ERROR_REPEATED_ATTEMPTS\000"
 7252      455F4552 
 7252      524F525F 
 7252      52455045 
 7252      41544544 
 7253              	.LASF120:
 7254 0f93 4359424C 		.ascii	"CYBLE_ERROR_FLASH_WRITE\000"
 7254      455F4552 
 7254      524F525F 
 7254      464C4153 
 7254      485F5752 
 7255              	.LASF25:
 7256 0fab 4359424C 		.ascii	"CYBLE_EVT_TIMEOUT\000"
 7256      455F4556 
 7256      545F5449 
 7256      4D454F55 
 7256      5400
 7257              	.LASF39:
 7258 0fbd 4359424C 		.ascii	"CYBLE_EVT_GAP_ENCRYPT_CHANGE\000"
 7258      455F4556 
 7258      545F4741 
 7258      505F454E 
 7258      43525950 
 7259              	.LASF204:
 7260 0fda 4D656173 		.ascii	"MeasureSeqInfo\000"
 7260      75726553 
 7260      6571496E 
 7260      666F00
 7261              	.LASF22:
 7262 0fe9 73697A65 		.ascii	"sizetype\000"
 7262      74797065 
 7262      00
 7263              	.LASF125:
 7264 0ff2 4359424C 		.ascii	"CYBLE_ERROR_CHAR_IS_NOT_DISCOVERED\000"
 7264      455F4552 
 7264      524F525F 
 7264      43484152 
 7264      5F49535F 
 7265              	.LASF60:
 7266 1015 4359424C 		.ascii	"CYBLE_EVT_GATTC_READ_BY_TYPE_RSP\000"
 7266      455F4556 
 7266      545F4741 
 7266      5454435F 
 7266      52454144 
 7267              	.LASF2:
 7268 1036 73686F72 		.ascii	"short int\000"
 7268      7420696E 
 7268      7400
 7269              	.LASF199:
 7270 1040 53656E73 		.ascii	"SensorBias\000"
 7270      6F724269 
ARM GAS  C:\Users\13740\AppData\Local\Temp\ccN8S1qO.s 			page 177


 7270      617300
 7271              	.LASF179:
 7272 104b 4D617853 		.ascii	"MaxSeqLenCal\000"
 7272      65714C65 
 7272      6E43616C 
 7272      00
 7273              	.LASF6:
 7274 1058 6C6F6E67 		.ascii	"long int\000"
 7274      20696E74 
 7274      00
 7275              	.LASF178:
 7276 1061 53657153 		.ascii	"SeqStartAddrCal\000"
 7276      74617274 
 7276      41646472 
 7276      43616C00 
 7277              	.LASF55:
 7278 1071 4359424C 		.ascii	"CYBLE_EVT_GATT_CONNECT_IND\000"
 7278      455F4556 
 7278      545F4741 
 7278      54545F43 
 7278      4F4E4E45 
 7279              	.LASF94:
 7280 108c 4359424C 		.ascii	"CYBLE_EVT_MAX\000"
 7280      455F4556 
 7280      545F4D41 
 7280      5800
 7281              	.LASF47:
 7282 109a 4359424C 		.ascii	"CYBLE_EVT_GAP_ENHANCE_CONN_COMPLETE\000"
 7282      455F4556 
 7282      545F4741 
 7282      505F454E 
 7282      48414E43 
 7283              	.LASF65:
 7284 10be 4359424C 		.ascii	"CYBLE_EVT_GATTC_READ_MULTI_RSP\000"
 7284      455F4556 
 7284      545F4741 
 7284      5454435F 
 7284      52454144 
 7285              	.LASF84:
 7286 10dd 4359424C 		.ascii	"CYBLE_EVT_L2CAP_CBFC_DISCONN_IND\000"
 7286      455F4556 
 7286      545F4C32 
 7286      4341505F 
 7286      43424643 
 7287              	.LASF138:
 7288 10fe 4359424C 		.ascii	"CYBLE_BLESS_STATE_ECO_ON\000"
 7288      455F424C 
 7288      4553535F 
 7288      53544154 
 7288      455F4543 
 7289              	.LASF229:
 7290 1117 41443539 		.ascii	"AD5941_Initialize\000"
 7290      34315F49 
 7290      6E697469 
 7290      616C697A 
 7290      6500
 7291              	.LASF169:
ARM GAS  C:\Users\13740\AppData\Local\Temp\ccN8S1qO.s 			page 178


 7292 1129 57726974 		.ascii	"WriteSRAM\000"
 7292      65535241 
 7292      4D00
 7293              	.LASF96:
 7294 1133 4359424C 		.ascii	"CYBLE_ERROR_INVALID_PARAMETER\000"
 7294      455F4552 
 7294      524F525F 
 7294      494E5641 
 7294      4C49445F 
 7295              	.LASF30:
 7296 1151 4359424C 		.ascii	"CYBLE_EVT_GAPC_SCAN_PROGRESS_RESULT\000"
 7296      455F4556 
 7296      545F4741 
 7296      50435F53 
 7296      43414E5F 
 7297              	.LASF131:
 7298 1175 4359424C 		.ascii	"CYBLE_BLESS_DEEPSLEEP\000"
 7298      455F424C 
 7298      4553535F 
 7298      44454550 
 7298      534C4545 
 7299              	.LASF180:
 7300 118b 5265446F 		.ascii	"ReDoRtiaCal\000"
 7300      52746961 
 7300      43616C00 
 7301              	.LASF48:
 7302 1197 4359424C 		.ascii	"CYBLE_EVT_GAPC_DIRECT_ADV_REPORT\000"
 7302      455F4556 
 7302      545F4741 
 7302      50435F44 
 7302      49524543 
 7303              	.LASF45:
 7304 11b8 4359424C 		.ascii	"CYBLE_EVT_GAP_OOB_GENERATED_NOTIFICATION\000"
 7304      455F4556 
 7304      545F4741 
 7304      505F4F4F 
 7304      425F4745 
 7305              	.LASF59:
 7306 11e1 4359424C 		.ascii	"CYBLE_EVT_GATTC_READ_BY_GROUP_TYPE_RSP\000"
 7306      455F4556 
 7306      545F4741 
 7306      5454435F 
 7306      52454144 
 7307              	.LASF150:
 7308 1208 61637475 		.ascii	"actualLen\000"
 7308      616C4C65 
 7308      6E00
 7309              	.LASF141:
 7310 1212 4359424C 		.ascii	"CYBLE_BLESS_STATE_HIBERNATE\000"
 7310      455F424C 
 7310      4553535F 
 7310      53544154 
 7310      455F4849 
 7311              	.LASF145:
 7312 122e 4359424C 		.ascii	"CYBLE_GAP_BD_ADDR_T\000"
 7312      455F4741 
 7312      505F4244 
ARM GAS  C:\Users\13740\AppData\Local\Temp\ccN8S1qO.s 			page 179


 7312      5F414444 
 7312      525F5400 
 7313              	.LASF112:
 7314 1242 4359424C 		.ascii	"CYBLE_ERROR_L2CAP_CHANNEL_NOT_FOUND\000"
 7314      455F4552 
 7314      524F525F 
 7314      4C324341 
 7314      505F4348 
 7315              	.LASF4:
 7316 1266 5F5F7569 		.ascii	"__uint8_t\000"
 7316      6E74385F 
 7316      7400
 7317              	.LASF38:
 7318 1270 4359424C 		.ascii	"CYBLE_EVT_GAP_DEVICE_DISCONNECTED\000"
 7318      455F4556 
 7318      545F4741 
 7318      505F4445 
 7318      56494345 
 7319              	.LASF267:
 7320 1292 64696167 		.ascii	"diagStep\000"
 7320      53746570 
 7320      00
 7321              	.LASF188:
 7322 129b 41444352 		.ascii	"ADCRefVolt\000"
 7322      6566566F 
 7322      6C7400
 7323              	.LASF82:
 7324 12a6 4359424C 		.ascii	"CYBLE_EVT_L2CAP_CBFC_CONN_IND\000"
 7324      455F4556 
 7324      545F4C32 
 7324      4341505F 
 7324      43424643 
 7325              	.LASF257:
 7326 12c4 52656164 		.ascii	"ReadCurrentFromSourceMeter_Simulated\000"
 7326      43757272 
 7326      656E7446 
 7326      726F6D53 
 7326      6F757263 
 7327              	.LASF172:
 7328 12e9 4D61676E 		.ascii	"Magnitude\000"
 7328      69747564 
 7328      6500
 7329              	.LASF278:
 7330 12f3 6D61696E 		.ascii	"main\000"
 7330      00
 7331              	.LASF143:
 7332 12f8 62644164 		.ascii	"bdAddr\000"
 7332      647200
 7333              	.LASF235:
 7334 12ff 74657374 		.ascii	"testCount\000"
 7334      436F756E 
 7334      7400
 7335              	.LASF109:
 7336 1309 4359424C 		.ascii	"CYBLE_ERROR_L2CAP_PSM_ALREADY_REGISTERED\000"
 7336      455F4552 
 7336      524F525F 
 7336      4C324341 
ARM GAS  C:\Users\13740\AppData\Local\Temp\ccN8S1qO.s 			page 180


 7336      505F5053 
 7337              	.LASF42:
 7338 1332 4359424C 		.ascii	"CYBLE_EVT_GAP_KEYINFO_EXCHNGE_CMPLT\000"
 7338      455F4556 
 7338      545F4741 
 7338      505F4B45 
 7338      59494E46 
 7339              	.LASF33:
 7340 1356 4359424C 		.ascii	"CYBLE_EVT_GAP_PASSKEY_DISPLAY_REQUEST\000"
 7340      455F4556 
 7340      545F4741 
 7340      505F5041 
 7340      53534B45 
 7341              	.LASF78:
 7342 137c 4359424C 		.ascii	"CYBLE_EVT_GATTC_LONG_PROCEDURE_END\000"
 7342      455F4556 
 7342      545F4741 
 7342      5454435F 
 7342      4C4F4E47 
 7343              	.LASF101:
 7344 139f 4359424C 		.ascii	"CYBLE_ERROR_NO_CONNECTION\000"
 7344      455F4552 
 7344      524F525F 
 7344      4E4F5F43 
 7344      4F4E4E45 
 7345              	.LASF13:
 7346 13b9 696E7433 		.ascii	"int32_t\000"
 7346      325F7400 
 7347              	.LASF154:
 7348 13c1 4359424C 		.ascii	"CYBLE_GATT_HANDLE_VALUE_PAIR_T\000"
 7348      455F4741 
 7348      54545F48 
 7348      414E444C 
 7348      455F5641 
 7349              	.LASF89:
 7350 13e0 4359424C 		.ascii	"CYBLE_EVT_L2CAP_CBFC_DATA_WRITE_IND\000"
 7350      455F4556 
 7350      545F4C32 
 7350      4341505F 
 7350      43424643 
 7351              	.LASF272:
 7352 1404 54696D65 		.ascii	"Timer_Interrupt\000"
 7352      725F496E 
 7352      74657272 
 7352      75707400 
 7353              	.LASF35:
 7354 1414 4359424C 		.ascii	"CYBLE_EVT_GAP_AUTH_FAILED\000"
 7354      455F4556 
 7354      545F4741 
 7354      505F4155 
 7354      54485F46 
 7355              	.LASF29:
 7356 142e 4359424C 		.ascii	"CYBLE_EVT_MEMORY_REQUEST\000"
 7356      455F4556 
 7356      545F4D45 
 7356      4D4F5259 
 7356      5F524551 
ARM GAS  C:\Users\13740\AppData\Local\Temp\ccN8S1qO.s 			page 181


 7357              	.LASF223:
 7358 1447 53454E53 		.ascii	"SENSOR_COUNT\000"
 7358      4F525F43 
 7358      4F554E54 
 7358      00
 7359              	.LASF144:
 7360 1454 74797065 		.ascii	"type\000"
 7360      00
 7361              	.LASF44:
 7362 1459 4359424C 		.ascii	"CYBLE_EVT_GAP_KEYPRESS_NOTIFICATION\000"
 7362      455F4556 
 7362      545F4741 
 7362      505F4B45 
 7362      59505245 
 7363              	.LASF1:
 7364 147d 756E7369 		.ascii	"unsigned char\000"
 7364      676E6564 
 7364      20636861 
 7364      7200
 7365              	.LASF7:
 7366 148b 5F5F7569 		.ascii	"__uint32_t\000"
 7366      6E743332 
 7366      5F7400
 7367              	.LASF244:
 7368 1496 64617461 		.ascii	"dataCount\000"
 7368      436F756E 
 7368      7400
 7369              	.LASF236:
 7370 14a0 44696167 		.ascii	"DiagnosticsFIFO\000"
 7370      6E6F7374 
 7370      69637346 
 7370      49464F00 
 7371              	.LASF219:
 7372 14b0 53656E73 		.ascii	"SensorData_t\000"
 7372      6F724461 
 7372      74615F74 
 7372      00
 7373              	.LASF139:
 7374 14bd 4359424C 		.ascii	"CYBLE_BLESS_STATE_ECO_STABLE\000"
 7374      455F424C 
 7374      4553535F 
 7374      53544154 
 7374      455F4543 
 7375              	.LASF282:
 7376 14da 53746172 		.ascii	"StartAdvertisement\000"
 7376      74416476 
 7376      65727469 
 7376      73656D65 
 7376      6E7400
 7377              	.LASF23:
 7378 14ed 4359424C 		.ascii	"CYBLE_EVT_HOST_INVALID\000"
 7378      455F4556 
 7378      545F484F 
 7378      53545F49 
 7378      4E56414C 
 7379              	.LASF132:
 7380 1504 4359424C 		.ascii	"CYBLE_BLESS_HIBERNATE\000"
ARM GAS  C:\Users\13740\AppData\Local\Temp\ccN8S1qO.s 			page 182


 7380      455F424C 
 7380      4553535F 
 7380      48494245 
 7380      524E4154 
 7381              	.LASF53:
 7382 151a 4359424C 		.ascii	"CYBLE_EVT_GAP_SMP_LOC_P256_KEYS_GEN_AND_SET_COMPLET"
 7382      455F4556 
 7382      545F4741 
 7382      505F534D 
 7382      505F4C4F 
 7383 154d 4500     		.ascii	"E\000"
 7384              	.LASF85:
 7385 154f 4359424C 		.ascii	"CYBLE_EVT_L2CAP_CBFC_DISCONN_CNF\000"
 7385      455F4556 
 7385      545F4C32 
 7385      4341505F 
 7385      43424643 
 7386              	.LASF37:
 7387 1570 4359424C 		.ascii	"CYBLE_EVT_GAP_DEVICE_CONNECTED\000"
 7387      455F4556 
 7387      545F4741 
 7387      505F4445 
 7387      56494345 
 7388              	.LASF232:
 7389 158f 72656756 		.ascii	"regValue2\000"
 7389      616C7565 
 7389      3200
 7390              	.LASF69:
 7391 1599 4359424C 		.ascii	"CYBLE_EVT_GATTS_PREP_WRITE_REQ\000"
 7391      455F4556 
 7391      545F4741 
 7391      5454535F 
 7391      50524550 
 7392              	.LASF246:
 7393 15b8 436F6E76 		.ascii	"ConvertCurrentToConcentration\000"
 7393      65727443 
 7393      75727265 
 7393      6E74546F 
 7393      436F6E63 
 7394              	.LASF50:
 7395 15d6 4359424C 		.ascii	"CYBLE_EVT_GAP_CONN_ESTB\000"
 7395      455F4556 
 7395      545F4741 
 7395      505F434F 
 7395      4E4E5F45 
 7396              	.LASF52:
 7397 15ee 4359424C 		.ascii	"CYBLE_EVT_GAP_AUTH_REQ_REPLY_ERR\000"
 7397      455F4556 
 7397      545F4741 
 7397      505F4155 
 7397      54485F52 
 7398              	.LASF215:
 7399 160f 74696D65 		.ascii	"timestamp\000"
 7399      7374616D 
 7399      7000
 7400              	.LASF239:
 7401 1619 74784275 		.ascii	"txBuffer\000"
ARM GAS  C:\Users\13740\AppData\Local\Temp\ccN8S1qO.s 			page 183


 7401      66666572 
 7401      00
 7402              	.LASF253:
 7403 1622 72657369 		.ascii	"resistance\000"
 7403      7374616E 
 7403      636500
 7404              	.LASF0:
 7405 162d 7369676E 		.ascii	"signed char\000"
 7405      65642063 
 7405      68617200 
 7406              	.LASF196:
 7407 1639 4C705469 		.ascii	"LpTiaRl\000"
 7407      61526C00 
 7408              	.LASF3:
 7409 1641 73686F72 		.ascii	"short unsigned int\000"
 7409      7420756E 
 7409      7369676E 
 7409      65642069 
 7409      6E7400
 7410              	.LASF296:
 7411 1654 453A5C64 		.ascii	"E:\\desktop\\bu\\eda\\Transistor\\Transistor.cydsn\000"
 7411      65736B74 
 7411      6F705C62 
 7411      755C6564 
 7411      615C5472 
 7412              	.LASF250:
 7413 1682 4D656173 		.ascii	"MeasureTemperature\000"
 7413      75726554 
 7413      656D7065 
 7413      72617475 
 7413      726500
 7414              	.LASF162:
 7415 1695 41443539 		.ascii	"AD5940Err\000"
 7415      34304572 
 7415      7200
 7416              	.LASF121:
 7417 169f 4359424C 		.ascii	"CYBLE_ERROR_CONTROLLER_BUSY\000"
 7417      455F4552 
 7417      524F525F 
 7417      434F4E54 
 7417      524F4C4C 
 7418              	.LASF113:
 7419 16bb 4359424C 		.ascii	"CYBLE_ERROR_L2CAP_PSM_NOT_IN_RANGE\000"
 7419      455F4552 
 7419      524F525F 
 7419      4C324341 
 7419      505F5053 
 7420              	.LASF15:
 7421 16de 75696E74 		.ascii	"uint8\000"
 7421      3800
 7422              	.LASF95:
 7423 16e4 4359424C 		.ascii	"CYBLE_ERROR_OK\000"
 7423      455F4552 
 7423      524F525F 
 7423      4F4B00
 7424              	.LASF248:
 7425 16f3 63757272 		.ascii	"current_nA\000"
ARM GAS  C:\Users\13740\AppData\Local\Temp\ccN8S1qO.s 			page 184


 7425      656E745F 
 7425      6E4100
 7426              	.LASF74:
 7427 16fe 4359424C 		.ascii	"CYBLE_EVT_GATTS_HANDLE_VALUE_CNF\000"
 7427      455F4556 
 7427      545F4741 
 7427      5454535F 
 7427      48414E44 
 7428              	.LASF237:
 7429 171f 6669666F 		.ascii	"fifoCount\000"
 7429      436F756E 
 7429      7400
 7430              	.LASF130:
 7431 1729 4359424C 		.ascii	"CYBLE_BLESS_SLEEP\000"
 7431      455F424C 
 7431      4553535F 
 7431      534C4545 
 7431      5000
 7432              	.LASF242:
 7433 173b 46756C6C 		.ascii	"FullDiagnostics\000"
 7433      44696167 
 7433      6E6F7374 
 7433      69637300 
 7434              	.LASF148:
 7435 174b 61747449 		.ascii	"attId\000"
 7435      6400
 7436              	.LASF135:
 7437 1751 4359424C 		.ascii	"CYBLE_BLESS_STATE_ACTIVE\000"
 7437      455F424C 
 7437      4553535F 
 7437      53544154 
 7437      455F4143 
 7438              	.LASF136:
 7439 176a 4359424C 		.ascii	"CYBLE_BLESS_STATE_EVENT_CLOSE\000"
 7439      455F424C 
 7439      4553535F 
 7439      53544154 
 7439      455F4556 
 7440              	.LASF41:
 7441 1788 4359424C 		.ascii	"CYBLE_EVT_GAPC_SCAN_START_STOP\000"
 7441      455F4556 
 7441      545F4741 
 7441      50435F53 
 7441      43414E5F 
 7442              	.LASF176:
 7443 17a7 53657153 		.ascii	"SeqStartAddr\000"
 7443      74617274 
 7443      41646472 
 7443      00
 7444              	.LASF251:
 7445 17b4 61646343 		.ascii	"adcCode\000"
 7445      6F646500 
 7446              	.LASF159:
 7447 17bc 4359424C 		.ascii	"CYBLE_STATE_ADVERTISING\000"
 7447      455F5354 
 7447      4154455F 
 7447      41445645 
ARM GAS  C:\Users\13740\AppData\Local\Temp\ccN8S1qO.s 			page 185


 7447      52544953 
 7448              	.LASF170:
 7449 17d4 70536571 		.ascii	"pSeqCmd\000"
 7449      436D6400 
 7450              		.ident	"GCC: (GNU Tools for ARM Embedded Processors) 5.4.1 20160609 (release) [ARM/embedded-5-bran
