ARM GAS  C:\Users\13740\AppData\Local\Temp\ccBqru7T.s 			page 1


   1              		.syntax unified
   2              		.cpu cortex-m0
   3              		.fpu softvfp
   4              		.eabi_attribute 20, 1
   5              		.eabi_attribute 21, 1
   6              		.eabi_attribute 23, 3
   7              		.eabi_attribute 24, 1
   8              		.eabi_attribute 25, 1
   9              		.eabi_attribute 26, 1
  10              		.eabi_attribute 30, 6
  11              		.eabi_attribute 34, 0
  12              		.eabi_attribute 18, 4
  13              		.thumb
  14              		.syntax unified
  15              		.file	"main.c"
  16              		.text
  17              	.Ltext0:
  18              		.cfi_sections	.debug_frame
  19              		.global	lastSendTime
  20              		.bss
  21              		.align	2
  22              		.type	lastSendTime, %object
  23              		.size	lastSendTime, 4
  24              	lastSendTime:
  25 0000 00000000 		.space	4
  26              		.global	mainTimer
  27              		.align	2
  28              		.type	mainTimer, %object
  29              		.size	mainTimer, 4
  30              	mainTimer:
  31 0004 00000000 		.space	4
  32              		.global	measurementFlag
  33              		.type	measurementFlag, %object
  34              		.size	measurementFlag, 1
  35              	measurementFlag:
  36 0008 00       		.space	1
  37              		.comm	apiResult,2,2
  38              		.global	sensorData
  39 0009 000000   		.align	2
  40              		.type	sensorData, %object
  41              		.size	sensorData, 20
  42              	sensorData:
  43 000c 00000000 		.space	20
  43      00000000 
  43      00000000 
  43      00000000 
  43      00000000 
  44              		.comm	pAmpCfg,4,4
  45              		.comm	ampBuffer,2048,4
  46              		.comm	ampResult,8,4
  47              		.section	.rodata
  48              		.align	2
  49              	.LC2:
  50 0000 41443539 		.ascii	"AD5941\345\210\235\345\247\213\345\214\226\346\210\220"
  50      3431E588 
  50      9DE5A78B 
  50      E58C96E6 
ARM GAS  C:\Users\13740\AppData\Local\Temp\ccBqru7T.s 			page 2


  50      8890
  51 0012 E58A9F0D 		.ascii	"\345\212\237\015\000"
  51      00
  52 0017 00       		.align	2
  53              	.LC4:
  54 0018 41443539 		.ascii	"AD5941\345\210\235\345\247\213\345\214\226\345\244\261"
  54      3431E588 
  54      9DE5A78B 
  54      E58C96E5 
  54      A4B1
  55 002a E8B4A53A 		.ascii	"\350\264\245: %d\015\012\000"
  55      2025640D 
  55      0A00
  56              		.section	.text.AD5941_Initialize,"ax",%progbits
  57              		.align	2
  58              		.global	AD5941_Initialize
  59              		.code	16
  60              		.thumb_func
  61              		.type	AD5941_Initialize, %function
  62              	AD5941_Initialize:
  63              	.LFB36:
  64              		.file 1 "main.c"
   1:main.c        **** 
   2:main.c        **** /*******************************************************************************
   3:main.c        **** * File Name: main.c
   4:main.c        **** *
   5:main.c        **** * Version 2.0
   6:main.c        **** *
   7:main.c        **** * Description:
   8:main.c        **** *  多路生物传感器系统 - 修复后的完整版本
   9:main.c        **** *  使用AD5940内置ADC，不依赖PSoC ADC模块
  10:main.c        **** *
  11:main.c        **** ********************************************************************************/
  12:main.c        **** 
  13:main.c        **** // /* 链接数学库（GCC编译器） */
  14:main.c        **** // #pragma comment(lib, "libm.a")
  15:main.c        **** 
  16:main.c        **** #include "main.h"
  17:main.c        **** #include "ad5940.h"
  18:main.c        **** #include "Amperometric.h"
  19:main.c        **** 
  20:main.c        **** // 在 main() 函数开头添加变量
  21:main.c        **** uint32 lastSendTime = 0;  // 上次发送数据的时间
  22:main.c        **** #define SEND_INTERVAL 3   // 每3秒发送一次数据
  23:main.c        **** 
  24:main.c        **** /*******************************************************************************
  25:main.c        **** * 全局变量
  26:main.c        **** *******************************************************************************/
  27:main.c        **** volatile uint32 mainTimer = 0;
  28:main.c        **** volatile uint8 measurementFlag = 0;
  29:main.c        **** CYBLE_API_RESULT_T apiResult;
  30:main.c        **** 
  31:main.c        **** // 传感器数据结构
  32:main.c        **** typedef struct {
  33:main.c        ****     float temperature;      // 温度 (°C) - 从AD5940读取
  34:main.c        ****     float glucose;         // 葡萄糖 (mM)
  35:main.c        ****     float lactate;         // 乳酸 (mM)
ARM GAS  C:\Users\13740\AppData\Local\Temp\ccBqru7T.s 			page 3


  36:main.c        ****     float uric_acid;       // 尿酸 (μM)
  37:main.c        ****     uint32 timestamp;      // 时间戳
  38:main.c        **** } SensorData_t;
  39:main.c        **** 
  40:main.c        **** // 传感器数据全局变量（定义在main.h中的SensorData_t结构）
  41:main.c        **** SensorData_t sensorData = {0};
  42:main.c        **** 
  43:main.c        **** typedef enum {
  44:main.c        ****     SENSOR_GLUCOSE = 0,
  45:main.c        ****     SENSOR_LACTATE = 1,
  46:main.c        ****     SENSOR_URIC_ACID = 2,
  47:main.c        ****     SENSOR_COUNT = 3
  48:main.c        **** } AmperometricSensor_t;
  49:main.c        **** 
  50:main.c        **** 
  51:main.c        **** 
  52:main.c        **** 
  53:main.c        **** 
  54:main.c        **** // AD5941相关变量
  55:main.c        **** AppAMPCfg_Type *pAmpCfg;
  56:main.c        **** uint32 ampBuffer[512];  // 用于AppAMPInit的缓冲区
  57:main.c        **** fAmpRes_Type ampResult;
  58:main.c        **** 
  59:main.c        **** /*******************************************************************************
  60:main.c        **** * Function Name: AD5941_Initialize
  61:main.c        **** ********************************************************************************
  62:main.c        **** * Summary:
  63:main.c        **** *   初始化AD5941电化学前端芯片 - 修复后的版本
  64:main.c        **** *******************************************************************************/
  65:main.c        **** void AD5941_Initialize(void)
  66:main.c        **** {
  65              		.loc 1 66 0
  66              		.cfi_startproc
  67              		@ args = 0, pretend = 0, frame = 8
  68              		@ frame_needed = 1, uses_anonymous_args = 0
  69 0000 80B5     		push	{r7, lr}
  70              		.cfi_def_cfa_offset 8
  71              		.cfi_offset 7, -8
  72              		.cfi_offset 14, -4
  73 0002 82B0     		sub	sp, sp, #8
  74              		.cfi_def_cfa_offset 16
  75 0004 00AF     		add	r7, sp, #0
  76              		.cfi_def_cfa_register 7
  67:main.c        ****     AD5940Err error;
  68:main.c        ****     
  69:main.c        ****     // 步骤1: 复位AD5940
  70:main.c        ****     AD5940_RST_Write(0);
  77              		.loc 1 70 0
  78 0006 0020     		movs	r0, #0
  79 0008 FFF7FEFF 		bl	AD5940_RST_Write
  71:main.c        ****     CyDelay(10);
  80              		.loc 1 71 0
  81 000c 0A20     		movs	r0, #10
  82 000e FFF7FEFF 		bl	CyDelay
  72:main.c        ****     AD5940_RST_Write(1);
  83              		.loc 1 72 0
  84 0012 0120     		movs	r0, #1
ARM GAS  C:\Users\13740\AppData\Local\Temp\ccBqru7T.s 			page 4


  85 0014 FFF7FEFF 		bl	AD5940_RST_Write
  73:main.c        ****     CyDelay(100);
  86              		.loc 1 73 0
  87 0018 6420     		movs	r0, #100
  88 001a FFF7FEFF 		bl	CyDelay
  74:main.c        ****     
  75:main.c        ****     // 步骤2: 初始化MCU资源（SPI通信）
  76:main.c        ****     AD5940_MCUResourceInit(NULL);
  89              		.loc 1 76 0
  90 001e 0020     		movs	r0, #0
  91 0020 FFF7FEFF 		bl	AD5940_MCUResourceInit
  77:main.c        ****     
  78:main.c        ****     // 步骤3: 获取配置指针
  79:main.c        ****     AppAMPGetCfg(&pAmpCfg);
  92              		.loc 1 79 0
  93 0024 4D4B     		ldr	r3, .L5
  94 0026 1800     		movs	r0, r3
  95 0028 FFF7FEFF 		bl	AppAMPGetCfg
  80:main.c        ****     
  81:main.c        ****     // 步骤4: 配置安培法测量参数（根据Amperometric.h结构体）
  82:main.c        ****     pAmpCfg->bParaChanged = bTRUE;
  96              		.loc 1 82 0
  97 002c 4B4B     		ldr	r3, .L5
  98 002e 1B68     		ldr	r3, [r3]
  99 0030 0122     		movs	r2, #1
 100 0032 1A70     		strb	r2, [r3]
  83:main.c        ****     pAmpCfg->SeqStartAddr = 0;
 101              		.loc 1 83 0
 102 0034 494B     		ldr	r3, .L5
 103 0036 1B68     		ldr	r3, [r3]
 104 0038 0022     		movs	r2, #0
 105 003a 5A60     		str	r2, [r3, #4]
  84:main.c        ****     pAmpCfg->MaxSeqLen = 512;
 106              		.loc 1 84 0
 107 003c 474B     		ldr	r3, .L5
 108 003e 1B68     		ldr	r3, [r3]
 109 0040 8022     		movs	r2, #128
 110 0042 9200     		lsls	r2, r2, #2
 111 0044 9A60     		str	r2, [r3, #8]
  85:main.c        ****     pAmpCfg->SeqStartAddrCal = 0;
 112              		.loc 1 85 0
 113 0046 454B     		ldr	r3, .L5
 114 0048 1B68     		ldr	r3, [r3]
 115 004a 0022     		movs	r2, #0
 116 004c DA60     		str	r2, [r3, #12]
  86:main.c        ****     pAmpCfg->MaxSeqLenCal = 512;
 117              		.loc 1 86 0
 118 004e 434B     		ldr	r3, .L5
 119 0050 1B68     		ldr	r3, [r3]
 120 0052 8022     		movs	r2, #128
 121 0054 9200     		lsls	r2, r2, #2
 122 0056 1A61     		str	r2, [r3, #16]
  87:main.c        ****     
  88:main.c        ****     pAmpCfg->ReDoRtiaCal = bFALSE;
 123              		.loc 1 88 0
 124 0058 404B     		ldr	r3, .L5
 125 005a 1B68     		ldr	r3, [r3]
ARM GAS  C:\Users\13740\AppData\Local\Temp\ccBqru7T.s 			page 5


 126 005c 0022     		movs	r2, #0
 127 005e 1A75     		strb	r2, [r3, #20]
  89:main.c        ****     pAmpCfg->SysClkFreq = 16000000.0;   // 16MHz系统时钟
 128              		.loc 1 89 0
 129 0060 3E4B     		ldr	r3, .L5
 130 0062 1B68     		ldr	r3, [r3]
 131 0064 3E4A     		ldr	r2, .L5+4
 132 0066 9A61     		str	r2, [r3, #24]
  90:main.c        ****     pAmpCfg->WuptClkFreq = 32000.0;     // 32kHz唤醒时钟
 133              		.loc 1 90 0
 134 0068 3C4B     		ldr	r3, .L5
 135 006a 1B68     		ldr	r3, [r3]
 136 006c 3D4A     		ldr	r2, .L5+8
 137 006e DA61     		str	r2, [r3, #28]
  91:main.c        ****     pAmpCfg->AdcClkFreq = 16000000.0;   // 16MHz ADC时钟
 138              		.loc 1 91 0
 139 0070 3A4B     		ldr	r3, .L5
 140 0072 1B68     		ldr	r3, [r3]
 141 0074 3A4A     		ldr	r2, .L5+4
 142 0076 1A62     		str	r2, [r3, #32]
  92:main.c        ****     pAmpCfg->FifoThresh = 4;            // FIFO阈值
 143              		.loc 1 92 0
 144 0078 384B     		ldr	r3, .L5
 145 007a 1B68     		ldr	r3, [r3]
 146 007c 0422     		movs	r2, #4
 147 007e 5A62     		str	r2, [r3, #36]
  93:main.c        ****     pAmpCfg->AmpODR = 10.0;             // 10Hz采样率
 148              		.loc 1 93 0
 149 0080 364B     		ldr	r3, .L5
 150 0082 1B68     		ldr	r3, [r3]
 151 0084 384A     		ldr	r2, .L5+12
 152 0086 9A62     		str	r2, [r3, #40]
  94:main.c        ****     pAmpCfg->NumOfData = -1;            // 连续测量
 153              		.loc 1 94 0
 154 0088 344B     		ldr	r3, .L5
 155 008a 1B68     		ldr	r3, [r3]
 156 008c 0122     		movs	r2, #1
 157 008e 5242     		rsbs	r2, r2, #0
 158 0090 DA62     		str	r2, [r3, #44]
  95:main.c        ****     
  96:main.c        ****     // 电化学参数
  97:main.c        ****     pAmpCfg->RcalVal = 10000.0;         // 10kΩ校准电阻
 159              		.loc 1 97 0
 160 0092 324B     		ldr	r3, .L5
 161 0094 1B68     		ldr	r3, [r3]
 162 0096 354A     		ldr	r2, .L5+16
 163 0098 1A63     		str	r2, [r3, #48]
  98:main.c        ****     pAmpCfg->ADCRefVolt = 1.82;         // ADC参考电压1.82V
 164              		.loc 1 98 0
 165 009a 304B     		ldr	r3, .L5
 166 009c 1B68     		ldr	r3, [r3]
 167 009e 344A     		ldr	r2, .L5+20
 168 00a0 5A63     		str	r2, [r3, #52]
  99:main.c        ****     pAmpCfg->PwrMod = AFEPWR_LP;        // 低功耗模式
 169              		.loc 1 99 0
 170 00a2 2E4B     		ldr	r3, .L5
 171 00a4 1B68     		ldr	r3, [r3]
ARM GAS  C:\Users\13740\AppData\Local\Temp\ccBqru7T.s 			page 6


 172 00a6 0022     		movs	r2, #0
 173 00a8 9A63     		str	r2, [r3, #56]
 100:main.c        ****     
 101:main.c        ****     // ADC配置
 102:main.c        ****     pAmpCfg->ADCPgaGain = ADCPGA_1P5;   // PGA增益1.5
 174              		.loc 1 102 0
 175 00aa 2C4B     		ldr	r3, .L5
 176 00ac 1B68     		ldr	r3, [r3]
 177 00ae 0122     		movs	r2, #1
 178 00b0 DA63     		str	r2, [r3, #60]
 103:main.c        ****     pAmpCfg->ADCSinc3Osr = ADCSINC3OSR_4;
 179              		.loc 1 103 0
 180 00b2 2A4B     		ldr	r3, .L5
 181 00b4 1B68     		ldr	r3, [r3]
 182 00b6 4022     		movs	r2, #64
 183 00b8 0121     		movs	r1, #1
 184 00ba 9954     		strb	r1, [r3, r2]
 104:main.c        ****     pAmpCfg->ADCSinc2Osr = ADCSINC2OSR_178;
 185              		.loc 1 104 0
 186 00bc 274B     		ldr	r3, .L5
 187 00be 1B68     		ldr	r3, [r3]
 188 00c0 4122     		movs	r2, #65
 189 00c2 0321     		movs	r1, #3
 190 00c4 9954     		strb	r1, [r3, r2]
 105:main.c        ****     pAmpCfg->DataFifoSrc = FIFOSRC_SINC3;
 191              		.loc 1 105 0
 192 00c6 254B     		ldr	r3, .L5
 193 00c8 1B68     		ldr	r3, [r3]
 194 00ca 0022     		movs	r2, #0
 195 00cc 5A64     		str	r2, [r3, #68]
 106:main.c        ****     
 107:main.c        ****     // LPTIA配置（跨阻放大器）
 108:main.c        ****     pAmpCfg->LptiaRtiaSel = LPTIARTIA_10K;  // 10kΩ内部RTIA
 196              		.loc 1 108 0
 197 00ce 234B     		ldr	r3, .L5
 198 00d0 1B68     		ldr	r3, [r3]
 199 00d2 0822     		movs	r2, #8
 200 00d4 9A64     		str	r2, [r3, #72]
 109:main.c        ****     pAmpCfg->LpTiaRf = LPTIARF_1M;          // 1MΩ滤波电阻
 201              		.loc 1 109 0
 202 00d6 214B     		ldr	r3, .L5
 203 00d8 1B68     		ldr	r3, [r3]
 204 00da 0722     		movs	r2, #7
 205 00dc DA64     		str	r2, [r3, #76]
 110:main.c        ****     pAmpCfg->LpTiaRl = LPTIARLOAD_100R;     // 100Ω负载电阻
 206              		.loc 1 110 0
 207 00de 1F4B     		ldr	r3, .L5
 208 00e0 1B68     		ldr	r3, [r3]
 209 00e2 0422     		movs	r2, #4
 210 00e4 1A65     		str	r2, [r3, #80]
 111:main.c        ****     
 112:main.c        ****     // 偏置电压
 113:main.c        ****     pAmpCfg->Vzero = 1100.0;            // SE0偏置电压1.1V
 211              		.loc 1 113 0
 212 00e6 1D4B     		ldr	r3, .L5
 213 00e8 1B68     		ldr	r3, [r3]
 214 00ea 224A     		ldr	r2, .L5+24
ARM GAS  C:\Users\13740\AppData\Local\Temp\ccBqru7T.s 			page 7


 215 00ec DA65     		str	r2, [r3, #92]
 114:main.c        ****     pAmpCfg->SensorBias = 0.0;          // 传感器偏置0V（普鲁士蓝介体）
 216              		.loc 1 114 0
 217 00ee 1B4B     		ldr	r3, .L5
 218 00f0 1B68     		ldr	r3, [r3]
 219 00f2 0022     		movs	r2, #0
 220 00f4 1A66     		str	r2, [r3, #96]
 115:main.c        ****     
 116:main.c        ****     // 外部RTIA（不使用）
 117:main.c        ****     pAmpCfg->ExtRtia = bFALSE;
 221              		.loc 1 117 0
 222 00f6 194B     		ldr	r3, .L5
 223 00f8 1B68     		ldr	r3, [r3]
 224 00fa 6422     		movs	r2, #100
 225 00fc 0021     		movs	r1, #0
 226 00fe 9954     		strb	r1, [r3, r2]
 118:main.c        ****     pAmpCfg->ExtRtiaVal = 0.0;
 227              		.loc 1 118 0
 228 0100 164B     		ldr	r3, .L5
 229 0102 1B68     		ldr	r3, [r3]
 230 0104 0022     		movs	r2, #0
 231 0106 9A66     		str	r2, [r3, #104]
 119:main.c        ****     
 120:main.c        ****     pAmpCfg->AMPInited = bFALSE;
 232              		.loc 1 120 0
 233 0108 144B     		ldr	r3, .L5
 234 010a 1B68     		ldr	r3, [r3]
 235 010c 6C22     		movs	r2, #108
 236 010e 0021     		movs	r1, #0
 237 0110 9954     		strb	r1, [r3, r2]
 121:main.c        ****     pAmpCfg->StopRequired = bFALSE;
 238              		.loc 1 121 0
 239 0112 124B     		ldr	r3, .L5
 240 0114 1B68     		ldr	r3, [r3]
 241 0116 9822     		movs	r2, #152
 242 0118 0021     		movs	r1, #0
 243 011a 9954     		strb	r1, [r3, r2]
 122:main.c        ****     pAmpCfg->FifoDataCount = 0;
 244              		.loc 1 122 0
 245 011c 0F4B     		ldr	r3, .L5
 246 011e 1B68     		ldr	r3, [r3]
 247 0120 9C22     		movs	r2, #156
 248 0122 0021     		movs	r1, #0
 249 0124 9950     		str	r1, [r3, r2]
 123:main.c        ****     
 124:main.c        ****     // 步骤5: 初始化应用（使用缓冲区）
 125:main.c        ****     error = AppAMPInit(ampBuffer, 512);
 250              		.loc 1 125 0
 251 0126 8023     		movs	r3, #128
 252 0128 9A00     		lsls	r2, r3, #2
 253 012a 134B     		ldr	r3, .L5+28
 254 012c 1100     		movs	r1, r2
 255 012e 1800     		movs	r0, r3
 256 0130 FFF7FEFF 		bl	AppAMPInit
 257 0134 0300     		movs	r3, r0
 258 0136 7B60     		str	r3, [r7, #4]
 126:main.c        ****     
ARM GAS  C:\Users\13740\AppData\Local\Temp\ccBqru7T.s 			page 8


 127:main.c        ****     if(error == AD5940ERR_OK)
 259              		.loc 1 127 0
 260 0138 7B68     		ldr	r3, [r7, #4]
 261 013a 002B     		cmp	r3, #0
 262 013c 04D1     		bne	.L2
 128:main.c        ****     {
 129:main.c        ****         DBG_PRINTF("AD5941初始化成功\r\n");
 263              		.loc 1 129 0
 264 013e 0F4B     		ldr	r3, .L5+32
 265 0140 1800     		movs	r0, r3
 266 0142 FFF7FEFF 		bl	puts
 130:main.c        ****     }
 131:main.c        ****     else
 132:main.c        ****     {
 133:main.c        ****         DBG_PRINTF("AD5941初始化失败: %d\r\n", error);
 134:main.c        ****     }
 135:main.c        **** }
 267              		.loc 1 135 0
 268 0146 05E0     		b	.L4
 269              	.L2:
 133:main.c        ****     }
 270              		.loc 1 133 0
 271 0148 7A68     		ldr	r2, [r7, #4]
 272 014a 0D4B     		ldr	r3, .L5+36
 273 014c 1100     		movs	r1, r2
 274 014e 1800     		movs	r0, r3
 275 0150 FFF7FEFF 		bl	printf
 276              	.L4:
 277              		.loc 1 135 0
 278 0154 C046     		nop
 279 0156 BD46     		mov	sp, r7
 280 0158 02B0     		add	sp, sp, #8
 281              		@ sp needed
 282 015a 80BD     		pop	{r7, pc}
 283              	.L6:
 284              		.align	2
 285              	.L5:
 286 015c 00000000 		.word	pAmpCfg
 287 0160 0024744B 		.word	1265902592
 288 0164 0000FA46 		.word	1190789120
 289 0168 00002041 		.word	1092616192
 290 016c 00401C46 		.word	1176256512
 291 0170 C3F5E83F 		.word	1072231875
 292 0174 00808944 		.word	1149861888
 293 0178 00000000 		.word	ampBuffer
 294 017c 00000000 		.word	.LC2
 295 0180 18000000 		.word	.LC4
 296              		.cfi_endproc
 297              	.LFE36:
 298              		.size	AD5941_Initialize, .-AD5941_Initialize
 299              		.section	.rodata
 300              		.align	2
 301              	.LC6:
 302 0034 E6B58BE9 		.ascii	"\346\265\213\351\207\217\344\274\240\346\204\237\345"
 302      878FE4BC 
 302      A0E6849F 
 302      E5
ARM GAS  C:\Users\13740\AppData\Local\Temp\ccBqru7T.s 			page 9


 303 0041 99A82025 		.ascii	"\231\250 %d...\015\012\000"
 303      642E2E2E 
 303      0D0A00
 304              		.align	2
 305              	.LC8:
 306 004c 2020E590 		.ascii	"  \345\220\257\345\212\250\346\265\213\351\207\217\345"
 306      AFE58AA8 
 306      E6B58BE9 
 306      878FE5
 307 005b A4B1E8B4 		.ascii	"\244\261\350\264\245: %d\015\012\000"
 307      A53A2025 
 307      640D0A00 
 308              		.global	__aeabi_fmul
 309              		.global	__aeabi_f2d
 310 0067 00       		.align	2
 311              	.LC11:
 312 0068 2020E794 		.ascii	"  \347\224\265\346\265\201\345\200\274: %.2f nA\015"
 312      B5E6B581 
 312      E580BC3A 
 312      20252E32 
 312      66206E41 
 313 007d 0A00     		.ascii	"\012\000"
 314 007f 00       		.align	2
 315              	.LC13:
 316 0080 2020E6B5 		.ascii	"  \346\265\213\351\207\217\345\244\261\350\264\245\346"
 316      8BE9878F 
 316      E5A4B1E8 
 316      B4A5E6
 317 008f 8896E697 		.ascii	"\210\226\346\227\240\346\225\260\346\215\256: error"
 317      A0E695B0 
 317      E68DAE3A 
 317      20657272 
 317      6F72
 318 00a1 3D25642C 		.ascii	"=%d, count=%d\015\012\000"
 318      20636F75 
 318      6E743D25 
 318      640D0A00 
 319              		.section	.text.MeasureAmperometricSensor,"ax",%progbits
 320              		.align	2
 321              		.global	MeasureAmperometricSensor
 322              		.code	16
 323              		.thumb_func
 324              		.type	MeasureAmperometricSensor, %function
 325              	MeasureAmperometricSensor:
 326              	.LFB37:
 136:main.c        **** 
 137:main.c        **** /*******************************************************************************
 138:main.c        **** * Function Name: MeasureAmperometricSensor
 139:main.c        **** ********************************************************************************
 140:main.c        **** * Summary:
 141:main.c        **** *   测量安培法传感器 - 修复后版本
 142:main.c        **** *   不使用AMux，直接使用AD5941的WE0/WE1/WE2通道
 143:main.c        **** *******************************************************************************/
 144:main.c        **** float MeasureAmperometricSensor(AmperometricSensor_t sensorType)
 145:main.c        **** {
 327              		.loc 1 145 0
 328              		.cfi_startproc
ARM GAS  C:\Users\13740\AppData\Local\Temp\ccBqru7T.s 			page 10


 329              		@ args = 0, pretend = 0, frame = 24
 330              		@ frame_needed = 1, uses_anonymous_args = 0
 331 0000 90B5     		push	{r4, r7, lr}
 332              		.cfi_def_cfa_offset 12
 333              		.cfi_offset 4, -12
 334              		.cfi_offset 7, -8
 335              		.cfi_offset 14, -4
 336 0002 87B0     		sub	sp, sp, #28
 337              		.cfi_def_cfa_offset 40
 338 0004 00AF     		add	r7, sp, #0
 339              		.cfi_def_cfa_register 7
 340 0006 0200     		movs	r2, r0
 341 0008 FB1D     		adds	r3, r7, #7
 342 000a 1A70     		strb	r2, [r3]
 146:main.c        ****     float current_uA = 0;
 343              		.loc 1 146 0
 344 000c 0023     		movs	r3, #0
 345 000e 7B61     		str	r3, [r7, #20]
 147:main.c        ****     uint32_t dataCount = 0;
 346              		.loc 1 147 0
 347 0010 0023     		movs	r3, #0
 348 0012 FB60     		str	r3, [r7, #12]
 148:main.c        ****     AD5940Err error;
 149:main.c        ****     
 150:main.c        ****     DBG_PRINTF("测量传感器 %d...\r\n", sensorType);
 349              		.loc 1 150 0
 350 0014 FB1D     		adds	r3, r7, #7
 351 0016 1A78     		ldrb	r2, [r3]
 352 0018 264B     		ldr	r3, .L13
 353 001a 1100     		movs	r1, r2
 354 001c 1800     		movs	r0, r3
 355 001e FFF7FEFF 		bl	printf
 151:main.c        ****     
 152:main.c        ****     // 注意：如果不使用AMux，AD5941会使用默认的WE0通道
 153:main.c        ****     // 如果需要切换WE通道，需要在配置中修改
 154:main.c        ****     
 155:main.c        ****     // 启动测量
 156:main.c        ****     error = AppAMPCtrl(AMPCTRL_START, NULL);
 356              		.loc 1 156 0
 357 0022 0021     		movs	r1, #0
 358 0024 0020     		movs	r0, #0
 359 0026 FFF7FEFF 		bl	AppAMPCtrl
 360 002a 0300     		movs	r3, r0
 361 002c 3B61     		str	r3, [r7, #16]
 157:main.c        ****     if(error != AD5940ERR_OK)
 362              		.loc 1 157 0
 363 002e 3B69     		ldr	r3, [r7, #16]
 364 0030 002B     		cmp	r3, #0
 365 0032 07D0     		beq	.L8
 158:main.c        ****     {
 159:main.c        ****         DBG_PRINTF("  启动测量失败: %d\r\n", error);
 366              		.loc 1 159 0
 367 0034 3A69     		ldr	r2, [r7, #16]
 368 0036 204B     		ldr	r3, .L13+4
 369 0038 1100     		movs	r1, r2
 370 003a 1800     		movs	r0, r3
 371 003c FFF7FEFF 		bl	printf
ARM GAS  C:\Users\13740\AppData\Local\Temp\ccBqru7T.s 			page 11


 160:main.c        ****         return 0;
 372              		.loc 1 160 0
 373 0040 0023     		movs	r3, #0
 374 0042 32E0     		b	.L12
 375              	.L8:
 161:main.c        ****     }
 162:main.c        ****     
 163:main.c        ****     // 等待测量稳定（安培法需要500ms）
 164:main.c        ****     CyDelay(500);
 376              		.loc 1 164 0
 377 0044 FA23     		movs	r3, #250
 378 0046 5B00     		lsls	r3, r3, #1
 379 0048 1800     		movs	r0, r3
 380 004a FFF7FEFF 		bl	CyDelay
 165:main.c        ****     
 166:main.c        ****     // 读取FIFO数据
 167:main.c        ****     error = AppAMPISR(&ampResult, &dataCount);
 381              		.loc 1 167 0
 382 004e 0C23     		movs	r3, #12
 383 0050 FA18     		adds	r2, r7, r3
 384 0052 1A4B     		ldr	r3, .L13+8
 385 0054 1100     		movs	r1, r2
 386 0056 1800     		movs	r0, r3
 387 0058 FFF7FEFF 		bl	AppAMPISR
 388 005c 0300     		movs	r3, r0
 389 005e 3B61     		str	r3, [r7, #16]
 168:main.c        ****     
 169:main.c        ****     if(error == AD5940ERR_OK && dataCount > 0)
 390              		.loc 1 169 0
 391 0060 3B69     		ldr	r3, [r7, #16]
 392 0062 002B     		cmp	r3, #0
 393 0064 16D1     		bne	.L10
 394              		.loc 1 169 0 is_stmt 0 discriminator 1
 395 0066 FB68     		ldr	r3, [r7, #12]
 396 0068 002B     		cmp	r3, #0
 397 006a 13D0     		beq	.L10
 170:main.c        ****     {
 171:main.c        ****         // 获取电流值（fAmpRes_Type结构体中的Current成员）
 172:main.c        ****         current_uA = ampResult.Current * 1000.0;  // 转换为nA
 398              		.loc 1 172 0 is_stmt 1
 399 006c 134B     		ldr	r3, .L13+8
 400 006e 1B68     		ldr	r3, [r3]
 401 0070 1349     		ldr	r1, .L13+12
 402 0072 181C     		adds	r0, r3, #0
 403 0074 FFF7FEFF 		bl	__aeabi_fmul
 404 0078 031C     		adds	r3, r0, #0
 405 007a 7B61     		str	r3, [r7, #20]
 173:main.c        ****         DBG_PRINTF("  电流值: %.2f nA\r\n", current_uA);
 406              		.loc 1 173 0
 407 007c 7869     		ldr	r0, [r7, #20]
 408 007e FFF7FEFF 		bl	__aeabi_f2d
 409 0082 0300     		movs	r3, r0
 410 0084 0C00     		movs	r4, r1
 411 0086 0F49     		ldr	r1, .L13+16
 412 0088 1A00     		movs	r2, r3
 413 008a 2300     		movs	r3, r4
 414 008c 0800     		movs	r0, r1
ARM GAS  C:\Users\13740\AppData\Local\Temp\ccBqru7T.s 			page 12


 415 008e FFF7FEFF 		bl	printf
 416 0092 05E0     		b	.L11
 417              	.L10:
 174:main.c        ****     }
 175:main.c        ****     else
 176:main.c        ****     {
 177:main.c        ****         DBG_PRINTF("  测量失败或无数据: error=%d, count=%d\r\n", error, dataCount);
 418              		.loc 1 177 0
 419 0094 FA68     		ldr	r2, [r7, #12]
 420 0096 3969     		ldr	r1, [r7, #16]
 421 0098 0B4B     		ldr	r3, .L13+20
 422 009a 1800     		movs	r0, r3
 423 009c FFF7FEFF 		bl	printf
 424              	.L11:
 178:main.c        ****     }
 179:main.c        ****     
 180:main.c        ****     // 停止测量
 181:main.c        ****     AppAMPCtrl(AMPCTRL_STOPNOW, NULL);
 425              		.loc 1 181 0
 426 00a0 0021     		movs	r1, #0
 427 00a2 0120     		movs	r0, #1
 428 00a4 FFF7FEFF 		bl	AppAMPCtrl
 182:main.c        ****     
 183:main.c        ****     return current_uA;
 429              		.loc 1 183 0
 430 00a8 7B69     		ldr	r3, [r7, #20]
 431              	.L12:
 184:main.c        **** }
 432              		.loc 1 184 0 discriminator 1
 433 00aa 181C     		adds	r0, r3, #0
 434 00ac BD46     		mov	sp, r7
 435 00ae 07B0     		add	sp, sp, #28
 436              		@ sp needed
 437 00b0 90BD     		pop	{r4, r7, pc}
 438              	.L14:
 439 00b2 C046     		.align	2
 440              	.L13:
 441 00b4 34000000 		.word	.LC6
 442 00b8 4C000000 		.word	.LC8
 443 00bc 00000000 		.word	ampResult
 444 00c0 00007A44 		.word	1148846080
 445 00c4 68000000 		.word	.LC11
 446 00c8 80000000 		.word	.LC13
 447              		.cfi_endproc
 448              	.LFE37:
 449              		.size	MeasureAmperometricSensor, .-MeasureAmperometricSensor
 450              		.global	__aeabi_ddiv
 451              		.global	__aeabi_d2f
 452              		.section	.text.ConvertCurrentToConcentration,"ax",%progbits
 453              		.align	2
 454              		.global	ConvertCurrentToConcentration
 455              		.code	16
 456              		.thumb_func
 457              		.type	ConvertCurrentToConcentration, %function
 458              	ConvertCurrentToConcentration:
 459              	.LFB38:
 185:main.c        **** 
ARM GAS  C:\Users\13740\AppData\Local\Temp\ccBqru7T.s 			page 13


 186:main.c        **** /*******************************************************************************
 187:main.c        **** * Function Name: ConvertCurrentToConcentration
 188:main.c        **** ********************************************************************************
 189:main.c        **** * Summary:
 190:main.c        **** *   将电流值转换为浓度（根据论文校准系数）
 191:main.c        **** *******************************************************************************/
 192:main.c        **** float ConvertCurrentToConcentration(float current_nA, AmperometricSensor_t sensorType)
 193:main.c        **** {
 460              		.loc 1 193 0
 461              		.cfi_startproc
 462              		@ args = 0, pretend = 0, frame = 16
 463              		@ frame_needed = 1, uses_anonymous_args = 0
 464 0000 90B5     		push	{r4, r7, lr}
 465              		.cfi_def_cfa_offset 12
 466              		.cfi_offset 4, -12
 467              		.cfi_offset 7, -8
 468              		.cfi_offset 14, -4
 469 0002 85B0     		sub	sp, sp, #20
 470              		.cfi_def_cfa_offset 32
 471 0004 00AF     		add	r7, sp, #0
 472              		.cfi_def_cfa_register 7
 473 0006 7860     		str	r0, [r7, #4]
 474 0008 0A00     		movs	r2, r1
 475 000a FB1C     		adds	r3, r7, #3
 476 000c 1A70     		strb	r2, [r3]
 194:main.c        ****     float concentration = 0;
 477              		.loc 1 194 0
 478 000e 0023     		movs	r3, #0
 479 0010 FB60     		str	r3, [r7, #12]
 195:main.c        ****     
 196:main.c        ****     switch(sensorType)
 480              		.loc 1 196 0
 481 0012 FB1C     		adds	r3, r7, #3
 482 0014 1B78     		ldrb	r3, [r3]
 483 0016 012B     		cmp	r3, #1
 484 0018 13D0     		beq	.L17
 485 001a 022B     		cmp	r3, #2
 486 001c 21D0     		beq	.L18
 487 001e 002B     		cmp	r3, #0
 488 0020 2FD1     		bne	.L22
 197:main.c        ****     {
 198:main.c        ****         case SENSOR_GLUCOSE:
 199:main.c        ****             concentration = current_nA / 16.34;  // 16.34 nA/mM
 489              		.loc 1 199 0
 490 0022 7868     		ldr	r0, [r7, #4]
 491 0024 FFF7FEFF 		bl	__aeabi_f2d
 492 0028 1A4A     		ldr	r2, .L23
 493 002a 1B4B     		ldr	r3, .L23+4
 494 002c FFF7FEFF 		bl	__aeabi_ddiv
 495 0030 0300     		movs	r3, r0
 496 0032 0C00     		movs	r4, r1
 497 0034 1800     		movs	r0, r3
 498 0036 2100     		movs	r1, r4
 499 0038 FFF7FEFF 		bl	__aeabi_d2f
 500 003c 031C     		adds	r3, r0, #0
 501 003e FB60     		str	r3, [r7, #12]
 200:main.c        ****             break;
ARM GAS  C:\Users\13740\AppData\Local\Temp\ccBqru7T.s 			page 14


 502              		.loc 1 200 0
 503 0040 22E0     		b	.L20
 504              	.L17:
 201:main.c        ****             
 202:main.c        ****         case SENSOR_LACTATE:
 203:main.c        ****             concentration = current_nA / 41.44;  // 41.44 nA/mM
 505              		.loc 1 203 0
 506 0042 7868     		ldr	r0, [r7, #4]
 507 0044 FFF7FEFF 		bl	__aeabi_f2d
 508 0048 144A     		ldr	r2, .L23+8
 509 004a 154B     		ldr	r3, .L23+12
 510 004c FFF7FEFF 		bl	__aeabi_ddiv
 511 0050 0300     		movs	r3, r0
 512 0052 0C00     		movs	r4, r1
 513 0054 1800     		movs	r0, r3
 514 0056 2100     		movs	r1, r4
 515 0058 FFF7FEFF 		bl	__aeabi_d2f
 516 005c 031C     		adds	r3, r0, #0
 517 005e FB60     		str	r3, [r7, #12]
 204:main.c        ****             break;
 518              		.loc 1 204 0
 519 0060 12E0     		b	.L20
 520              	.L18:
 205:main.c        ****             
 206:main.c        ****         case SENSOR_URIC_ACID:
 207:main.c        ****             concentration = current_nA / 189.60; // 189.60 nA/μM
 521              		.loc 1 207 0
 522 0062 7868     		ldr	r0, [r7, #4]
 523 0064 FFF7FEFF 		bl	__aeabi_f2d
 524 0068 0E4A     		ldr	r2, .L23+16
 525 006a 0F4B     		ldr	r3, .L23+20
 526 006c FFF7FEFF 		bl	__aeabi_ddiv
 527 0070 0300     		movs	r3, r0
 528 0072 0C00     		movs	r4, r1
 529 0074 1800     		movs	r0, r3
 530 0076 2100     		movs	r1, r4
 531 0078 FFF7FEFF 		bl	__aeabi_d2f
 532 007c 031C     		adds	r3, r0, #0
 533 007e FB60     		str	r3, [r7, #12]
 208:main.c        ****             break;
 534              		.loc 1 208 0
 535 0080 02E0     		b	.L20
 536              	.L22:
 209:main.c        ****             
 210:main.c        ****         default:
 211:main.c        ****             concentration = 0;
 537              		.loc 1 211 0
 538 0082 0023     		movs	r3, #0
 539 0084 FB60     		str	r3, [r7, #12]
 212:main.c        ****             break;
 540              		.loc 1 212 0
 541 0086 C046     		nop
 542              	.L20:
 213:main.c        ****     }
 214:main.c        ****     
 215:main.c        ****     return concentration;
 543              		.loc 1 215 0
ARM GAS  C:\Users\13740\AppData\Local\Temp\ccBqru7T.s 			page 15


 544 0088 FB68     		ldr	r3, [r7, #12]
 216:main.c        **** }
 545              		.loc 1 216 0
 546 008a 181C     		adds	r0, r3, #0
 547 008c BD46     		mov	sp, r7
 548 008e 05B0     		add	sp, sp, #20
 549              		@ sp needed
 550 0090 90BD     		pop	{r4, r7, pc}
 551              	.L24:
 552 0092 C046     		.align	2
 553              	.L23:
 554 0094 D7A3703D 		.word	1030792151
 555 0098 0A573040 		.word	1076909834
 556 009c B81E85EB 		.word	-343597384
 557 00a0 51B84440 		.word	1078245457
 558 00a4 33333333 		.word	858993459
 559 00a8 33B36740 		.word	1080537907
 560              		.cfi_endproc
 561              	.LFE38:
 562              		.size	ConvertCurrentToConcentration, .-ConvertCurrentToConcentration
 563              		.section	.rodata
 564 00b1 000000   		.align	2
 565              	.LC15:
 566 00b4 E6B58BE9 		.ascii	"\346\265\213\351\207\217\346\270\251\345\272\246..."
 566      878FE6B8 
 566      A9E5BAA6 
 566      2E2E2E
 567 00c3 0D00     		.ascii	"\015\000"
 568 00c5 000000   		.align	2
 569              	.LC17:
 570 00c8 2020E6B8 		.ascii	"  \346\270\251\345\272\246: %.2f \302\260C\015\012\000"
 570      A9E5BAA6 
 570      3A20252E 
 570      326620C2 
 570      B0430D0A 
 571              		.section	.text.MeasureTemperature,"ax",%progbits
 572              		.align	2
 573              		.global	MeasureTemperature
 574              		.code	16
 575              		.thumb_func
 576              		.type	MeasureTemperature, %function
 577              	MeasureTemperature:
 578              	.LFB39:
 217:main.c        **** 
 218:main.c        **** /*******************************************************************************
 219:main.c        **** * Function Name: MeasureTemperature
 220:main.c        **** ********************************************************************************
 221:main.c        **** * Summary:
 222:main.c        **** *   使用AD5940的ADC测量温度传感器
 223:main.c        **** *   替代PSoC的ADC模块
 224:main.c        **** *******************************************************************************/
 225:main.c        **** float MeasureTemperature(void)
 226:main.c        **** {
 579              		.loc 1 226 0
 580              		.cfi_startproc
 581              		@ args = 0, pretend = 0, frame = 8
 582              		@ frame_needed = 1, uses_anonymous_args = 0
ARM GAS  C:\Users\13740\AppData\Local\Temp\ccBqru7T.s 			page 16


 583 0000 90B5     		push	{r4, r7, lr}
 584              		.cfi_def_cfa_offset 12
 585              		.cfi_offset 4, -12
 586              		.cfi_offset 7, -8
 587              		.cfi_offset 14, -4
 588 0002 83B0     		sub	sp, sp, #12
 589              		.cfi_def_cfa_offset 24
 590 0004 00AF     		add	r7, sp, #0
 591              		.cfi_def_cfa_register 7
 227:main.c        ****     float temperature = 25.0;  // 默认室温
 592              		.loc 1 227 0
 593 0006 0C4B     		ldr	r3, .L27
 594 0008 7B60     		str	r3, [r7, #4]
 228:main.c        ****     uint32_t adcCode;
 229:main.c        ****     float voltage, resistance;
 230:main.c        ****     
 231:main.c        ****     DBG_PRINTF("测量温度...\r\n");
 595              		.loc 1 231 0
 596 000a 0C4B     		ldr	r3, .L27+4
 597 000c 1800     		movs	r0, r3
 598 000e FFF7FEFF 		bl	puts
 232:main.c        ****     
 233:main.c        ****     // 方法1: 使用AD5940的辅助ADC（AUX ADC）测量温度传感器
 234:main.c        ****     // 注意：需要配置AD5940的GPIO或者AUX输入来连接温度传感器
 235:main.c        ****     
 236:main.c        ****     // 这里提供一个简化的实现
 237:main.c        ****     // 实际应用中，你需要：
 238:main.c        ****     // 1. 配置AD5940的GPIO/AUX为ADC输入
 239:main.c        ****     // 2. 读取ADC值
 240:main.c        ****     // 3. 转换为温度
 241:main.c        ****     
 242:main.c        ****     // 示例代码（需要根据实际硬件调整）:
 243:main.c        ****     /*
 244:main.c        ****     AD5940_StructInit(&ADCInit, sizeof(ADCInit));
 245:main.c        ****     ADCInit.ADCMuxP = ADCMUXP_AIN2;  // 假设温度传感器连接到AIN2
 246:main.c        ****     ADCInit.ADCMuxN = ADCMUXN_VSET1P1;
 247:main.c        ****     AD5940_ADCInit(&ADCInit);
 248:main.c        ****     
 249:main.c        ****     AD5940_ADCStart();
 250:main.c        ****     CyDelay(10);
 251:main.c        ****     adcCode = AD5940_ReadADC();
 252:main.c        ****     
 253:main.c        ****     voltage = (adcCode * 1.82) / 32768.0;  // 转换为电压
 254:main.c        ****     resistance = 1000.0 * voltage / (3.3 - voltage);  // 假设分压电路
 255:main.c        ****     temperature = 25.0 + (resistance - 1000.0) / (1000.0 * 0.0021);
 256:main.c        ****     */
 257:main.c        ****     
 258:main.c        ****     // 临时方案：从系统读取或使用固定值
 259:main.c        ****     temperature = 37.0;  // 假设体温
 599              		.loc 1 259 0
 600 0012 0B4B     		ldr	r3, .L27+8
 601 0014 7B60     		str	r3, [r7, #4]
 260:main.c        ****     
 261:main.c        ****     DBG_PRINTF("  温度: %.2f °C\r\n", temperature);
 602              		.loc 1 261 0
 603 0016 7868     		ldr	r0, [r7, #4]
 604 0018 FFF7FEFF 		bl	__aeabi_f2d
ARM GAS  C:\Users\13740\AppData\Local\Temp\ccBqru7T.s 			page 17


 605 001c 0300     		movs	r3, r0
 606 001e 0C00     		movs	r4, r1
 607 0020 0849     		ldr	r1, .L27+12
 608 0022 1A00     		movs	r2, r3
 609 0024 2300     		movs	r3, r4
 610 0026 0800     		movs	r0, r1
 611 0028 FFF7FEFF 		bl	printf
 262:main.c        ****     
 263:main.c        ****     return temperature;
 612              		.loc 1 263 0
 613 002c 7B68     		ldr	r3, [r7, #4]
 264:main.c        **** }
 614              		.loc 1 264 0
 615 002e 181C     		adds	r0, r3, #0
 616 0030 BD46     		mov	sp, r7
 617 0032 03B0     		add	sp, sp, #12
 618              		@ sp needed
 619 0034 90BD     		pop	{r4, r7, pc}
 620              	.L28:
 621 0036 C046     		.align	2
 622              	.L27:
 623 0038 0000C841 		.word	1103626240
 624 003c B4000000 		.word	.LC15
 625 0040 00001442 		.word	1108606976
 626 0044 C8000000 		.word	.LC17
 627              		.cfi_endproc
 628              	.LFE39:
 629              		.size	MeasureTemperature, .-MeasureTemperature
 630              		.section	.rodata
 631 00dd 000000   		.align	2
 632              	.LC19:
 633 00e0 0D0A3D3D 		.ascii	"\015\012========== \345\274\200\345\247\213\344\274"
 633      3D3D3D3D 
 633      3D3D3D3D 
 633      20E5BC80 
 633      E5A78BE4 
 634 00f5 A0E6849F 		.ascii	"\240\346\204\237\345\231\250\346\265\213\351\207\217"
 634      E599A8E6 
 634      B58BE987 
 634      8F
 635 0102 203D3D3D 		.ascii	" ==========\015\000"
 635      3D3D3D3D 
 635      3D3D3D0D 
 635      00
 636 010f 00       		.align	2
 637              	.LC22:
 638 0110 2020E891 		.ascii	"  \350\221\241\350\220\204\347\263\226: %.2f mM\015"
 638      A1E89084 
 638      E7B3963A 
 638      20252E32 
 638      66206D4D 
 639 0125 0A00     		.ascii	"\012\000"
 640 0127 00       		.align	2
 641              	.LC24:
 642 0128 2020E4B9 		.ascii	"  \344\271\263\351\205\270: %.2f mM\015\012\000"
 642      B3E985B8 
 642      3A20252E 
ARM GAS  C:\Users\13740\AppData\Local\Temp\ccBqru7T.s 			page 18


 642      3266206D 
 642      4D0D0A00 
 643              		.align	2
 644              	.LC26:
 645 013c 2020E5B0 		.ascii	"  \345\260\277\351\205\270: %.2f \316\274M\015\012\000"
 645      BFE985B8 
 645      3A20252E 
 645      326620CE 
 645      BC4D0D0A 
 646              		.global	__aeabi_dsub
 647              		.global	__aeabi_dmul
 648              		.global	__aeabi_dadd
 649 0151 000000   		.align	2
 650              	.LC29:
 651 0154 3D3D3D3D 		.ascii	"========== \346\265\213\351\207\217\345\256\214\346"
 651      3D3D3D3D 
 651      3D3D20E6 
 651      B58BE987 
 651      8FE5AE8C 
 652 0169 8890203D 		.ascii	"\210\220 ==========\015\012\015\000"
 652      3D3D3D3D 
 652      3D3D3D3D 
 652      3D0D0A0D 
 652      00
 653              		.section	.text.MeasureAllSensors,"ax",%progbits
 654              		.align	2
 655              		.global	MeasureAllSensors
 656              		.code	16
 657              		.thumb_func
 658              		.type	MeasureAllSensors, %function
 659              	MeasureAllSensors:
 660              	.LFB40:
 265:main.c        **** 
 266:main.c        **** /*******************************************************************************
 267:main.c        **** * Function Name: MeasureAllSensors
 268:main.c        **** ********************************************************************************
 269:main.c        **** * Summary:
 270:main.c        **** *   测量所有传感器（4路：温度 + 3个安培法）
 271:main.c        **** *******************************************************************************/
 272:main.c        **** void MeasureAllSensors(void)
 273:main.c        **** {
 661              		.loc 1 273 0
 662              		.cfi_startproc
 663              		@ args = 0, pretend = 0, frame = 8
 664              		@ frame_needed = 1, uses_anonymous_args = 0
 665 0000 90B5     		push	{r4, r7, lr}
 666              		.cfi_def_cfa_offset 12
 667              		.cfi_offset 4, -12
 668              		.cfi_offset 7, -8
 669              		.cfi_offset 14, -4
 670 0002 83B0     		sub	sp, sp, #12
 671              		.cfi_def_cfa_offset 24
 672 0004 00AF     		add	r7, sp, #0
 673              		.cfi_def_cfa_register 7
 274:main.c        ****     float current_nA;
 275:main.c        ****     
 276:main.c        ****     DBG_PRINTF("\r\n========== 开始传感器测量 ==========\r\n");
ARM GAS  C:\Users\13740\AppData\Local\Temp\ccBqru7T.s 			page 19


 674              		.loc 1 276 0
 675 0006 514B     		ldr	r3, .L30
 676 0008 1800     		movs	r0, r3
 677 000a FFF7FEFF 		bl	puts
 277:main.c        ****     
 278:main.c        ****     // 1. 温度测量
 279:main.c        ****     sensorData.temperature = MeasureTemperature();
 678              		.loc 1 279 0
 679 000e FFF7FEFF 		bl	MeasureTemperature
 680 0012 021C     		adds	r2, r0, #0
 681 0014 4E4B     		ldr	r3, .L30+4
 682 0016 1A60     		str	r2, [r3]
 280:main.c        ****     
 281:main.c        ****     // 2. 葡萄糖测量
 282:main.c        ****     current_nA = MeasureAmperometricSensor(SENSOR_GLUCOSE);
 683              		.loc 1 282 0
 684 0018 0020     		movs	r0, #0
 685 001a FFF7FEFF 		bl	MeasureAmperometricSensor
 686 001e 031C     		adds	r3, r0, #0
 687 0020 7B60     		str	r3, [r7, #4]
 283:main.c        ****     sensorData.glucose = ConvertCurrentToConcentration(current_nA, SENSOR_GLUCOSE);
 688              		.loc 1 283 0
 689 0022 7B68     		ldr	r3, [r7, #4]
 690 0024 0021     		movs	r1, #0
 691 0026 181C     		adds	r0, r3, #0
 692 0028 FFF7FEFF 		bl	ConvertCurrentToConcentration
 693 002c 021C     		adds	r2, r0, #0
 694 002e 484B     		ldr	r3, .L30+4
 695 0030 5A60     		str	r2, [r3, #4]
 284:main.c        ****     DBG_PRINTF("  葡萄糖: %.2f mM\r\n", sensorData.glucose);
 696              		.loc 1 284 0
 697 0032 474B     		ldr	r3, .L30+4
 698 0034 5B68     		ldr	r3, [r3, #4]
 699 0036 181C     		adds	r0, r3, #0
 700 0038 FFF7FEFF 		bl	__aeabi_f2d
 701 003c 0300     		movs	r3, r0
 702 003e 0C00     		movs	r4, r1
 703 0040 4449     		ldr	r1, .L30+8
 704 0042 1A00     		movs	r2, r3
 705 0044 2300     		movs	r3, r4
 706 0046 0800     		movs	r0, r1
 707 0048 FFF7FEFF 		bl	printf
 285:main.c        ****     
 286:main.c        ****     // 3. 乳酸测量
 287:main.c        ****     current_nA = MeasureAmperometricSensor(SENSOR_LACTATE);
 708              		.loc 1 287 0
 709 004c 0120     		movs	r0, #1
 710 004e FFF7FEFF 		bl	MeasureAmperometricSensor
 711 0052 031C     		adds	r3, r0, #0
 712 0054 7B60     		str	r3, [r7, #4]
 288:main.c        ****     sensorData.lactate = ConvertCurrentToConcentration(current_nA, SENSOR_LACTATE);
 713              		.loc 1 288 0
 714 0056 7B68     		ldr	r3, [r7, #4]
 715 0058 0121     		movs	r1, #1
 716 005a 181C     		adds	r0, r3, #0
 717 005c FFF7FEFF 		bl	ConvertCurrentToConcentration
 718 0060 021C     		adds	r2, r0, #0
ARM GAS  C:\Users\13740\AppData\Local\Temp\ccBqru7T.s 			page 20


 719 0062 3B4B     		ldr	r3, .L30+4
 720 0064 9A60     		str	r2, [r3, #8]
 289:main.c        ****     DBG_PRINTF("  乳酸: %.2f mM\r\n", sensorData.lactate);
 721              		.loc 1 289 0
 722 0066 3A4B     		ldr	r3, .L30+4
 723 0068 9B68     		ldr	r3, [r3, #8]
 724 006a 181C     		adds	r0, r3, #0
 725 006c FFF7FEFF 		bl	__aeabi_f2d
 726 0070 0300     		movs	r3, r0
 727 0072 0C00     		movs	r4, r1
 728 0074 3849     		ldr	r1, .L30+12
 729 0076 1A00     		movs	r2, r3
 730 0078 2300     		movs	r3, r4
 731 007a 0800     		movs	r0, r1
 732 007c FFF7FEFF 		bl	printf
 290:main.c        ****     
 291:main.c        ****     // 4. 尿酸测量
 292:main.c        ****     current_nA = MeasureAmperometricSensor(SENSOR_URIC_ACID);
 733              		.loc 1 292 0
 734 0080 0220     		movs	r0, #2
 735 0082 FFF7FEFF 		bl	MeasureAmperometricSensor
 736 0086 031C     		adds	r3, r0, #0
 737 0088 7B60     		str	r3, [r7, #4]
 293:main.c        ****     sensorData.uric_acid = ConvertCurrentToConcentration(current_nA, SENSOR_URIC_ACID);
 738              		.loc 1 293 0
 739 008a 7B68     		ldr	r3, [r7, #4]
 740 008c 0221     		movs	r1, #2
 741 008e 181C     		adds	r0, r3, #0
 742 0090 FFF7FEFF 		bl	ConvertCurrentToConcentration
 743 0094 021C     		adds	r2, r0, #0
 744 0096 2E4B     		ldr	r3, .L30+4
 745 0098 DA60     		str	r2, [r3, #12]
 294:main.c        ****     DBG_PRINTF("  尿酸: %.2f μM\r\n", sensorData.uric_acid);
 746              		.loc 1 294 0
 747 009a 2D4B     		ldr	r3, .L30+4
 748 009c DB68     		ldr	r3, [r3, #12]
 749 009e 181C     		adds	r0, r3, #0
 750 00a0 FFF7FEFF 		bl	__aeabi_f2d
 751 00a4 0300     		movs	r3, r0
 752 00a6 0C00     		movs	r4, r1
 753 00a8 2C49     		ldr	r1, .L30+16
 754 00aa 1A00     		movs	r2, r3
 755 00ac 2300     		movs	r3, r4
 756 00ae 0800     		movs	r0, r1
 757 00b0 FFF7FEFF 		bl	printf
 295:main.c        ****     
 296:main.c        ****     // 温度校准（论文中的温度补偿算法）
 297:main.c        ****     float temp_factor = 1.0 + 0.03 * (sensorData.temperature - 37.0);
 758              		.loc 1 297 0
 759 00b4 264B     		ldr	r3, .L30+4
 760 00b6 1B68     		ldr	r3, [r3]
 761 00b8 181C     		adds	r0, r3, #0
 762 00ba FFF7FEFF 		bl	__aeabi_f2d
 763 00be 0022     		movs	r2, #0
 764 00c0 274B     		ldr	r3, .L30+20
 765 00c2 FFF7FEFF 		bl	__aeabi_dsub
 766 00c6 0300     		movs	r3, r0
ARM GAS  C:\Users\13740\AppData\Local\Temp\ccBqru7T.s 			page 21


 767 00c8 0C00     		movs	r4, r1
 768 00ca 1800     		movs	r0, r3
 769 00cc 2100     		movs	r1, r4
 770 00ce 254A     		ldr	r2, .L30+24
 771 00d0 254B     		ldr	r3, .L30+28
 772 00d2 FFF7FEFF 		bl	__aeabi_dmul
 773 00d6 0300     		movs	r3, r0
 774 00d8 0C00     		movs	r4, r1
 775 00da 1800     		movs	r0, r3
 776 00dc 2100     		movs	r1, r4
 777 00de 0022     		movs	r2, #0
 778 00e0 224B     		ldr	r3, .L30+32
 779 00e2 FFF7FEFF 		bl	__aeabi_dadd
 780 00e6 0300     		movs	r3, r0
 781 00e8 0C00     		movs	r4, r1
 782 00ea 1800     		movs	r0, r3
 783 00ec 2100     		movs	r1, r4
 784 00ee FFF7FEFF 		bl	__aeabi_d2f
 785 00f2 031C     		adds	r3, r0, #0
 786 00f4 3B60     		str	r3, [r7]
 298:main.c        ****     sensorData.glucose *= temp_factor;
 787              		.loc 1 298 0
 788 00f6 164B     		ldr	r3, .L30+4
 789 00f8 5B68     		ldr	r3, [r3, #4]
 790 00fa 3968     		ldr	r1, [r7]
 791 00fc 181C     		adds	r0, r3, #0
 792 00fe FFF7FEFF 		bl	__aeabi_fmul
 793 0102 031C     		adds	r3, r0, #0
 794 0104 1A1C     		adds	r2, r3, #0
 795 0106 124B     		ldr	r3, .L30+4
 796 0108 5A60     		str	r2, [r3, #4]
 299:main.c        ****     sensorData.lactate *= temp_factor;
 797              		.loc 1 299 0
 798 010a 114B     		ldr	r3, .L30+4
 799 010c 9B68     		ldr	r3, [r3, #8]
 800 010e 3968     		ldr	r1, [r7]
 801 0110 181C     		adds	r0, r3, #0
 802 0112 FFF7FEFF 		bl	__aeabi_fmul
 803 0116 031C     		adds	r3, r0, #0
 804 0118 1A1C     		adds	r2, r3, #0
 805 011a 0D4B     		ldr	r3, .L30+4
 806 011c 9A60     		str	r2, [r3, #8]
 300:main.c        ****     sensorData.uric_acid *= temp_factor;
 807              		.loc 1 300 0
 808 011e 0C4B     		ldr	r3, .L30+4
 809 0120 DB68     		ldr	r3, [r3, #12]
 810 0122 3968     		ldr	r1, [r7]
 811 0124 181C     		adds	r0, r3, #0
 812 0126 FFF7FEFF 		bl	__aeabi_fmul
 813 012a 031C     		adds	r3, r0, #0
 814 012c 1A1C     		adds	r2, r3, #0
 815 012e 084B     		ldr	r3, .L30+4
 816 0130 DA60     		str	r2, [r3, #12]
 301:main.c        ****     
 302:main.c        ****     sensorData.timestamp = mainTimer;
 817              		.loc 1 302 0
 818 0132 0F4B     		ldr	r3, .L30+36
ARM GAS  C:\Users\13740\AppData\Local\Temp\ccBqru7T.s 			page 22


 819 0134 1A68     		ldr	r2, [r3]
 820 0136 064B     		ldr	r3, .L30+4
 821 0138 1A61     		str	r2, [r3, #16]
 303:main.c        ****     
 304:main.c        ****     DBG_PRINTF("========== 测量完成 ==========\r\n\r\n");
 822              		.loc 1 304 0
 823 013a 0E4B     		ldr	r3, .L30+40
 824 013c 1800     		movs	r0, r3
 825 013e FFF7FEFF 		bl	puts
 305:main.c        **** }
 826              		.loc 1 305 0
 827 0142 C046     		nop
 828 0144 BD46     		mov	sp, r7
 829 0146 03B0     		add	sp, sp, #12
 830              		@ sp needed
 831 0148 90BD     		pop	{r4, r7, pc}
 832              	.L31:
 833 014a C046     		.align	2
 834              	.L30:
 835 014c E0000000 		.word	.LC19
 836 0150 00000000 		.word	sensorData
 837 0154 10010000 		.word	.LC22
 838 0158 28010000 		.word	.LC24
 839 015c 3C010000 		.word	.LC26
 840 0160 00804240 		.word	1078099968
 841 0164 B81E85EB 		.word	-343597384
 842 0168 51B89E3F 		.word	1067366481
 843 016c 0000F03F 		.word	1072693248
 844 0170 00000000 		.word	mainTimer
 845 0174 54010000 		.word	.LC29
 846              		.cfi_endproc
 847              	.LFE40:
 848              		.size	MeasureAllSensors, .-MeasureAllSensors
 849              		.section	.rodata
 850 017a 0000     		.align	2
 851              	.LC31:
 852 017c E590AFE5 		.ascii	"\345\220\257\345\212\250\350\215\257\347\211\251\351"
 852      8AA8E88D 
 852      AFE789A9 
 852      E9
 853 0189 878AE694 		.ascii	"\207\212\346\224\276\015\000"
 853      BE0D00
 854              		.align	2
 855              	.LC33:
 856 0190 E5819CE6 		.ascii	"\345\201\234\346\255\242\350\215\257\347\211\251\351"
 856      ADA2E88D 
 856      AFE789A9 
 856      E9
 857 019d 878AE694 		.ascii	"\207\212\346\224\276\015\000"
 857      BE0D00
 858              		.section	.text.ControlDrugRelease,"ax",%progbits
 859              		.align	2
 860              		.global	ControlDrugRelease
 861              		.code	16
 862              		.thumb_func
 863              		.type	ControlDrugRelease, %function
 864              	ControlDrugRelease:
ARM GAS  C:\Users\13740\AppData\Local\Temp\ccBqru7T.s 			page 23


 865              	.LFB41:
 306:main.c        **** 
 307:main.c        **** /*******************************************************************************
 308:main.c        **** * Function Name: ControlDrugRelease
 309:main.c        **** ********************************************************************************
 310:main.c        **** * Summary:
 311:main.c        **** *   控制药物释放（电控水凝胶）
 312:main.c        **** *******************************************************************************/
 313:main.c        **** void ControlDrugRelease(uint8 enable)
 314:main.c        **** {
 866              		.loc 1 314 0
 867              		.cfi_startproc
 868              		@ args = 0, pretend = 0, frame = 8
 869              		@ frame_needed = 1, uses_anonymous_args = 0
 870 0000 80B5     		push	{r7, lr}
 871              		.cfi_def_cfa_offset 8
 872              		.cfi_offset 7, -8
 873              		.cfi_offset 14, -4
 874 0002 82B0     		sub	sp, sp, #8
 875              		.cfi_def_cfa_offset 16
 876 0004 00AF     		add	r7, sp, #0
 877              		.cfi_def_cfa_register 7
 878 0006 0200     		movs	r2, r0
 879 0008 FB1D     		adds	r3, r7, #7
 880 000a 1A70     		strb	r2, [r3]
 315:main.c        ****     if(enable)
 881              		.loc 1 315 0
 882 000c FB1D     		adds	r3, r7, #7
 883 000e 1B78     		ldrb	r3, [r3]
 884 0010 002B     		cmp	r3, #0
 885 0012 07D0     		beq	.L33
 316:main.c        ****     {
 317:main.c        ****         DBG_PRINTF("启动药物释放\r\n");
 886              		.loc 1 317 0
 887 0014 094B     		ldr	r3, .L36
 888 0016 1800     		movs	r0, r3
 889 0018 FFF7FEFF 		bl	puts
 318:main.c        ****         DRUG_EN_1_Write(1);
 890              		.loc 1 318 0
 891 001c 0120     		movs	r0, #1
 892 001e FFF7FEFF 		bl	DRUG_EN_1_Write
 319:main.c        ****     }
 320:main.c        ****     else
 321:main.c        ****     {
 322:main.c        ****         DBG_PRINTF("停止药物释放\r\n");
 323:main.c        ****         DRUG_EN_1_Write(0);
 324:main.c        ****     }
 325:main.c        **** }
 893              		.loc 1 325 0
 894 0022 06E0     		b	.L35
 895              	.L33:
 322:main.c        ****         DRUG_EN_1_Write(0);
 896              		.loc 1 322 0
 897 0024 064B     		ldr	r3, .L36+4
 898 0026 1800     		movs	r0, r3
 899 0028 FFF7FEFF 		bl	puts
 323:main.c        ****     }
ARM GAS  C:\Users\13740\AppData\Local\Temp\ccBqru7T.s 			page 24


 900              		.loc 1 323 0
 901 002c 0020     		movs	r0, #0
 902 002e FFF7FEFF 		bl	DRUG_EN_1_Write
 903              	.L35:
 904              		.loc 1 325 0
 905 0032 C046     		nop
 906 0034 BD46     		mov	sp, r7
 907 0036 02B0     		add	sp, sp, #8
 908              		@ sp needed
 909 0038 80BD     		pop	{r7, pc}
 910              	.L37:
 911 003a C046     		.align	2
 912              	.L36:
 913 003c 7C010000 		.word	.LC31
 914 0040 90010000 		.word	.LC33
 915              		.cfi_endproc
 916              	.LFE41:
 917              		.size	ControlDrugRelease, .-ControlDrugRelease
 918              		.section	.rodata
 919              		.align	2
 920              	.LC35:
 921 01a4 E590AFE5 		.ascii	"\345\220\257\345\212\250\347\224\265\345\210\272\346"
 921      8AA8E794 
 921      B5E588BA 
 921      E6
 922 01b1 BF800D00 		.ascii	"\277\200\015\000"
 923 01b5 000000   		.align	2
 924              	.LC37:
 925 01b8 E5819CE6 		.ascii	"\345\201\234\346\255\242\347\224\265\345\210\272\346"
 925      ADA2E794 
 925      B5E588BA 
 925      E6
 926 01c5 BF800D00 		.ascii	"\277\200\015\000"
 927              		.section	.text.ControlElectricalStimulation,"ax",%progbits
 928              		.align	2
 929              		.global	ControlElectricalStimulation
 930              		.code	16
 931              		.thumb_func
 932              		.type	ControlElectricalStimulation, %function
 933              	ControlElectricalStimulation:
 934              	.LFB42:
 326:main.c        **** 
 327:main.c        **** /*******************************************************************************
 328:main.c        **** * Function Name: ControlElectricalStimulation
 329:main.c        **** ********************************************************************************
 330:main.c        **** * Summary:
 331:main.c        **** *   控制电刺激治疗
 332:main.c        **** *******************************************************************************/
 333:main.c        **** void ControlElectricalStimulation(uint8 enable)
 334:main.c        **** {
 935              		.loc 1 334 0
 936              		.cfi_startproc
 937              		@ args = 0, pretend = 0, frame = 8
 938              		@ frame_needed = 1, uses_anonymous_args = 0
 939 0000 80B5     		push	{r7, lr}
 940              		.cfi_def_cfa_offset 8
 941              		.cfi_offset 7, -8
ARM GAS  C:\Users\13740\AppData\Local\Temp\ccBqru7T.s 			page 25


 942              		.cfi_offset 14, -4
 943 0002 82B0     		sub	sp, sp, #8
 944              		.cfi_def_cfa_offset 16
 945 0004 00AF     		add	r7, sp, #0
 946              		.cfi_def_cfa_register 7
 947 0006 0200     		movs	r2, r0
 948 0008 FB1D     		adds	r3, r7, #7
 949 000a 1A70     		strb	r2, [r3]
 335:main.c        ****     if(enable)
 950              		.loc 1 335 0
 951 000c FB1D     		adds	r3, r7, #7
 952 000e 1B78     		ldrb	r3, [r3]
 953 0010 002B     		cmp	r3, #0
 954 0012 07D0     		beq	.L39
 336:main.c        ****     {
 337:main.c        ****         DBG_PRINTF("启动电刺激\r\n");
 955              		.loc 1 337 0
 956 0014 094B     		ldr	r3, .L42
 957 0016 1800     		movs	r0, r3
 958 0018 FFF7FEFF 		bl	puts
 338:main.c        ****         STIM_EN_A_Write(1);
 959              		.loc 1 338 0
 960 001c 0120     		movs	r0, #1
 961 001e FFF7FEFF 		bl	STIM_EN_A_Write
 339:main.c        ****     }
 340:main.c        ****     else
 341:main.c        ****     {
 342:main.c        ****         DBG_PRINTF("停止电刺激\r\n");
 343:main.c        ****         STIM_EN_A_Write(0);
 344:main.c        ****     }
 345:main.c        **** }
 962              		.loc 1 345 0
 963 0022 06E0     		b	.L41
 964              	.L39:
 342:main.c        ****         STIM_EN_A_Write(0);
 965              		.loc 1 342 0
 966 0024 064B     		ldr	r3, .L42+4
 967 0026 1800     		movs	r0, r3
 968 0028 FFF7FEFF 		bl	puts
 343:main.c        ****     }
 969              		.loc 1 343 0
 970 002c 0020     		movs	r0, #0
 971 002e FFF7FEFF 		bl	STIM_EN_A_Write
 972              	.L41:
 973              		.loc 1 345 0
 974 0032 C046     		nop
 975 0034 BD46     		mov	sp, r7
 976 0036 02B0     		add	sp, sp, #8
 977              		@ sp needed
 978 0038 80BD     		pop	{r7, pc}
 979              	.L43:
 980 003a C046     		.align	2
 981              	.L42:
 982 003c A4010000 		.word	.LC35
 983 0040 B8010000 		.word	.LC37
 984              		.cfi_endproc
 985              	.LFE42:
ARM GAS  C:\Users\13740\AppData\Local\Temp\ccBqru7T.s 			page 26


 986              		.size	ControlElectricalStimulation, .-ControlElectricalStimulation
 987              		.section	.rodata
 988 01c9 000000   		.align	2
 989              	.LC46:
 990 01cc E695B0E6 		.ascii	"\346\225\260\346\215\256\345\267\262\345\217\221\351"
 990      8DAEE5B7 
 990      B2E58F91 
 990      E9
 991 01d9 80810D00 		.ascii	"\200\201\015\000"
 992              		.section	.text.SendDataViaBLE,"ax",%progbits
 993              		.align	2
 994              		.global	SendDataViaBLE
 995              		.code	16
 996              		.thumb_func
 997              		.type	SendDataViaBLE, %function
 998              	SendDataViaBLE:
 999              	.LFB43:
 346:main.c        **** 
 347:main.c        **** /*******************************************************************************
 348:main.c        **** * Function Name: SendDataViaBLE
 349:main.c        **** ********************************************************************************
 350:main.c        **** 
 351:main.c        **** 
 352:main.c        **** * Summary:
 353:main.c        **** *   通过BLE发送传感器数据
 354:main.c        **** *   数据包：[温度(4B)][葡萄糖(4B)][乳酸(4B)][尿酸(4B)] = 16字节
 355:main.c        **** 
 356:main.c        **** ********************************************************************************
 357:main.c        **** *******************************************************************************/
 358:main.c        **** 
 359:main.c        **** 
 360:main.c        **** void SendDataViaBLE(void)
 361:main.c        **** {
 1000              		.loc 1 361 0
 1001              		.cfi_startproc
 1002              		@ args = 0, pretend = 0, frame = 32
 1003              		@ frame_needed = 1, uses_anonymous_args = 0
 1004 0000 80B5     		push	{r7, lr}
 1005              		.cfi_def_cfa_offset 8
 1006              		.cfi_offset 7, -8
 1007              		.cfi_offset 14, -4
 1008 0002 88B0     		sub	sp, sp, #32
 1009              		.cfi_def_cfa_offset 40
 1010 0004 00AF     		add	r7, sp, #0
 1011              		.cfi_def_cfa_register 7
 362:main.c        ****     CYBLE_GATTS_HANDLE_VALUE_NTF_T notificationHandle;
 363:main.c        ****     uint8 dataPacket[16];
 364:main.c        ****     
 365:main.c        ****     if(CyBle_GetState() == CYBLE_STATE_CONNECTED)
 1012              		.loc 1 365 0
 1013 0006 254B     		ldr	r3, .L47
 1014 0008 1B78     		ldrb	r3, [r3]
 1015 000a 022B     		cmp	r3, #2
 1016 000c 42D1     		bne	.L46
 366:main.c        ****     {
 367:main.c        ****         // 打包数据
 368:main.c        ****         memcpy(&dataPacket[0], &sensorData.temperature, 4);
ARM GAS  C:\Users\13740\AppData\Local\Temp\ccBqru7T.s 			page 27


 1017              		.loc 1 368 0
 1018 000e 2449     		ldr	r1, .L47+4
 1019 0010 3B1D     		adds	r3, r7, #4
 1020 0012 0422     		movs	r2, #4
 1021 0014 1800     		movs	r0, r3
 1022 0016 FFF7FEFF 		bl	memcpy
 369:main.c        ****         memcpy(&dataPacket[4], &sensorData.glucose, 4);
 1023              		.loc 1 369 0
 1024 001a 2249     		ldr	r1, .L47+8
 1025 001c 3B1D     		adds	r3, r7, #4
 1026 001e 0433     		adds	r3, r3, #4
 1027 0020 0422     		movs	r2, #4
 1028 0022 1800     		movs	r0, r3
 1029 0024 FFF7FEFF 		bl	memcpy
 370:main.c        ****         memcpy(&dataPacket[8], &sensorData.lactate, 4);
 1030              		.loc 1 370 0
 1031 0028 1F49     		ldr	r1, .L47+12
 1032 002a 3B1D     		adds	r3, r7, #4
 1033 002c 0833     		adds	r3, r3, #8
 1034 002e 0422     		movs	r2, #4
 1035 0030 1800     		movs	r0, r3
 1036 0032 FFF7FEFF 		bl	memcpy
 371:main.c        ****         memcpy(&dataPacket[12], &sensorData.uric_acid, 4);
 1037              		.loc 1 371 0
 1038 0036 1D49     		ldr	r1, .L47+16
 1039 0038 3B1D     		adds	r3, r7, #4
 1040 003a 0C33     		adds	r3, r3, #12
 1041 003c 0422     		movs	r2, #4
 1042 003e 1800     		movs	r0, r3
 1043 0040 FFF7FEFF 		bl	memcpy
 372:main.c        ****         
 373:main.c        ****         // 发送通知 - 使用自定义服务的葡萄糖测量特征句柄
 374:main.c        ****         notificationHandle.attrHandle = CYBLE_CUSTOM_SERVICE_GLUCOSE_MEASUREMENT_CHAR_HANDLE;
 1044              		.loc 1 374 0
 1045 0044 1423     		movs	r3, #20
 1046 0046 FB18     		adds	r3, r7, r3
 1047 0048 1722     		movs	r2, #23
 1048 004a 1A81     		strh	r2, [r3, #8]
 375:main.c        ****         notificationHandle.value.val = dataPacket;
 1049              		.loc 1 375 0
 1050 004c 1423     		movs	r3, #20
 1051 004e FB18     		adds	r3, r7, r3
 1052 0050 3A1D     		adds	r2, r7, #4
 1053 0052 1A60     		str	r2, [r3]
 376:main.c        ****         notificationHandle.value.len = 16;
 1054              		.loc 1 376 0
 1055 0054 1423     		movs	r3, #20
 1056 0056 FB18     		adds	r3, r7, r3
 1057 0058 1022     		movs	r2, #16
 1058 005a 9A80     		strh	r2, [r3, #4]
 377:main.c        ****         
 378:main.c        ****         apiResult = CyBle_GattsNotification(cyBle_connHandle, &notificationHandle);
 1059              		.loc 1 378 0
 1060 005c 1423     		movs	r3, #20
 1061 005e F918     		adds	r1, r7, r3
 1062 0060 134B     		ldr	r3, .L47+20
 1063 0062 1A78     		ldrb	r2, [r3]
ARM GAS  C:\Users\13740\AppData\Local\Temp\ccBqru7T.s 			page 28


 1064 0064 5B78     		ldrb	r3, [r3, #1]
 1065 0066 1B02     		lsls	r3, r3, #8
 1066 0068 1A43     		orrs	r2, r3
 1067 006a 0023     		movs	r3, #0
 1068 006c 1204     		lsls	r2, r2, #16
 1069 006e 120C     		lsrs	r2, r2, #16
 1070 0070 1B0C     		lsrs	r3, r3, #16
 1071 0072 1B04     		lsls	r3, r3, #16
 1072 0074 1343     		orrs	r3, r2
 1073 0076 1800     		movs	r0, r3
 1074 0078 FFF7FEFF 		bl	CyBle_GattsNotification
 1075 007c 0300     		movs	r3, r0
 1076 007e 1A00     		movs	r2, r3
 1077 0080 0C4B     		ldr	r3, .L47+24
 1078 0082 1A80     		strh	r2, [r3]
 379:main.c        ****         
 380:main.c        ****         if(apiResult == CYBLE_ERROR_OK)
 1079              		.loc 1 380 0
 1080 0084 0B4B     		ldr	r3, .L47+24
 1081 0086 1B88     		ldrh	r3, [r3]
 1082 0088 002B     		cmp	r3, #0
 1083 008a 03D1     		bne	.L46
 381:main.c        ****         {
 382:main.c        ****             DBG_PRINTF("数据已发送\r\n");
 1084              		.loc 1 382 0
 1085 008c 0A4B     		ldr	r3, .L47+28
 1086 008e 1800     		movs	r0, r3
 1087 0090 FFF7FEFF 		bl	puts
 1088              	.L46:
 383:main.c        ****         }
 384:main.c        ****     }
 385:main.c        **** }
 1089              		.loc 1 385 0
 1090 0094 C046     		nop
 1091 0096 BD46     		mov	sp, r7
 1092 0098 08B0     		add	sp, sp, #32
 1093              		@ sp needed
 1094 009a 80BD     		pop	{r7, pc}
 1095              	.L48:
 1096              		.align	2
 1097              	.L47:
 1098 009c 00000000 		.word	cyBle_state
 1099 00a0 00000000 		.word	sensorData
 1100 00a4 04000000 		.word	sensorData+4
 1101 00a8 08000000 		.word	sensorData+8
 1102 00ac 0C000000 		.word	sensorData+12
 1103 00b0 00000000 		.word	cyBle_connHandle
 1104 00b4 00000000 		.word	apiResult
 1105 00b8 CC010000 		.word	.LC46
 1106              		.cfi_endproc
 1107              	.LFE43:
 1108              		.size	SendDataViaBLE, .-SendDataViaBLE
 1109              		.section	.rodata
 1110 01dd 000000   		.align	2
 1111              	.LC50:
 1112 01e0 252E3166 		.ascii	"%.1f C\000"
 1112      204300
ARM GAS  C:\Users\13740\AppData\Local\Temp\ccBqru7T.s 			page 29


 1113 01e7 00       		.align	2
 1114              	.LC53:
 1115 01e8 E6B8A9E5 		.ascii	"\346\270\251\345\272\246\345\267\262\345\217\221\351"
 1115      BAA6E5B7 
 1115      B2E58F91 
 1115      E9
 1116 01f5 80813A20 		.ascii	"\200\201: %s\015\012\000"
 1116      25730D0A 
 1116      00
 1117              		.section	.text.SendTemperatureViaBLE,"ax",%progbits
 1118              		.align	2
 1119              		.global	SendTemperatureViaBLE
 1120              		.code	16
 1121              		.thumb_func
 1122              		.type	SendTemperatureViaBLE, %function
 1123              	SendTemperatureViaBLE:
 1124              	.LFB44:
 386:main.c        **** 
 387:main.c        **** 
 388:main.c        **** 
 389:main.c        **** /*******************************************************************************
 390:main.c        **** * Function Name: SendTemperatureViaBLE
 391:main.c        **** ********************************************************************************
 392:main.c        **** * Summary:
 393:main.c        **** *   发送温度数据 - 字符串格式，易读
 394:main.c        **** *******************************************************************************/
 395:main.c        **** void SendTemperatureViaBLE(void)
 396:main.c        **** {
 1125              		.loc 1 396 0
 1126              		.cfi_startproc
 1127              		@ args = 0, pretend = 0, frame = 32
 1128              		@ frame_needed = 1, uses_anonymous_args = 0
 1129 0000 90B5     		push	{r4, r7, lr}
 1130              		.cfi_def_cfa_offset 12
 1131              		.cfi_offset 4, -12
 1132              		.cfi_offset 7, -8
 1133              		.cfi_offset 14, -4
 1134 0002 89B0     		sub	sp, sp, #36
 1135              		.cfi_def_cfa_offset 48
 1136 0004 00AF     		add	r7, sp, #0
 1137              		.cfi_def_cfa_register 7
 397:main.c        ****     CYBLE_GATTS_HANDLE_VALUE_NTF_T notificationHandle;
 398:main.c        ****     char tempString[20];
 399:main.c        ****     
 400:main.c        ****     if(CyBle_GetState() == CYBLE_STATE_CONNECTED)
 1138              		.loc 1 400 0
 1139 0006 1F4B     		ldr	r3, .L52
 1140 0008 1B78     		ldrb	r3, [r3]
 1141 000a 022B     		cmp	r3, #2
 1142 000c 35D1     		bne	.L51
 401:main.c        ****     {
 402:main.c        ****         // 格式化为易读字符串: "36.5 °C"
 403:main.c        ****         sprintf(tempString, "%.1f C", sensorData.temperature);
 1143              		.loc 1 403 0
 1144 000e 1E4B     		ldr	r3, .L52+4
 1145 0010 1B68     		ldr	r3, [r3]
 1146 0012 181C     		adds	r0, r3, #0
ARM GAS  C:\Users\13740\AppData\Local\Temp\ccBqru7T.s 			page 30


 1147 0014 FFF7FEFF 		bl	__aeabi_f2d
 1148 0018 0300     		movs	r3, r0
 1149 001a 0C00     		movs	r4, r1
 1150 001c 1B49     		ldr	r1, .L52+8
 1151 001e 3800     		movs	r0, r7
 1152 0020 1A00     		movs	r2, r3
 1153 0022 2300     		movs	r3, r4
 1154 0024 FFF7FEFF 		bl	sprintf
 404:main.c        ****         
 405:main.c        ****         // 发送通知
 406:main.c        ****         notificationHandle.attrHandle = CYBLE_CUSTOM_SERVICE_TEMPERATURE_MEASUREMENT_CHAR_HANDLE;
 1155              		.loc 1 406 0
 1156 0028 1423     		movs	r3, #20
 1157 002a FB18     		adds	r3, r7, r3
 1158 002c 1B22     		movs	r2, #27
 1159 002e 1A81     		strh	r2, [r3, #8]
 407:main.c        ****         notificationHandle.value.val = (uint8*)tempString;
 1160              		.loc 1 407 0
 1161 0030 1423     		movs	r3, #20
 1162 0032 FB18     		adds	r3, r7, r3
 1163 0034 3A00     		movs	r2, r7
 1164 0036 1A60     		str	r2, [r3]
 408:main.c        ****         notificationHandle.value.len = strlen(tempString);
 1165              		.loc 1 408 0
 1166 0038 3B00     		movs	r3, r7
 1167 003a 1800     		movs	r0, r3
 1168 003c FFF7FEFF 		bl	strlen
 1169 0040 0300     		movs	r3, r0
 1170 0042 9AB2     		uxth	r2, r3
 1171 0044 1423     		movs	r3, #20
 1172 0046 FB18     		adds	r3, r7, r3
 1173 0048 9A80     		strh	r2, [r3, #4]
 409:main.c        ****         
 410:main.c        ****         if(CyBle_GattsNotification(cyBle_connHandle, &notificationHandle) == CYBLE_ERROR_OK)
 1174              		.loc 1 410 0
 1175 004a 1423     		movs	r3, #20
 1176 004c F918     		adds	r1, r7, r3
 1177 004e 104B     		ldr	r3, .L52+12
 1178 0050 1A78     		ldrb	r2, [r3]
 1179 0052 5B78     		ldrb	r3, [r3, #1]
 1180 0054 1B02     		lsls	r3, r3, #8
 1181 0056 1A43     		orrs	r2, r3
 1182 0058 0023     		movs	r3, #0
 1183 005a 1204     		lsls	r2, r2, #16
 1184 005c 120C     		lsrs	r2, r2, #16
 1185 005e 1B0C     		lsrs	r3, r3, #16
 1186 0060 1B04     		lsls	r3, r3, #16
 1187 0062 1343     		orrs	r3, r2
 1188 0064 1800     		movs	r0, r3
 1189 0066 FFF7FEFF 		bl	CyBle_GattsNotification
 1190 006a 031E     		subs	r3, r0, #0
 1191 006c 05D1     		bne	.L51
 411:main.c        ****         {
 412:main.c        ****             DBG_PRINTF("温度已发送: %s\r\n", tempString);
 1192              		.loc 1 412 0
 1193 006e 3A00     		movs	r2, r7
 1194 0070 084B     		ldr	r3, .L52+16
ARM GAS  C:\Users\13740\AppData\Local\Temp\ccBqru7T.s 			page 31


 1195 0072 1100     		movs	r1, r2
 1196 0074 1800     		movs	r0, r3
 1197 0076 FFF7FEFF 		bl	printf
 1198              	.L51:
 413:main.c        ****         }
 414:main.c        ****     }
 415:main.c        **** }
 1199              		.loc 1 415 0
 1200 007a C046     		nop
 1201 007c BD46     		mov	sp, r7
 1202 007e 09B0     		add	sp, sp, #36
 1203              		@ sp needed
 1204 0080 90BD     		pop	{r4, r7, pc}
 1205              	.L53:
 1206 0082 C046     		.align	2
 1207              	.L52:
 1208 0084 00000000 		.word	cyBle_state
 1209 0088 00000000 		.word	sensorData
 1210 008c E0010000 		.word	.LC50
 1211 0090 00000000 		.word	cyBle_connHandle
 1212 0094 E8010000 		.word	.LC53
 1213              		.cfi_endproc
 1214              	.LFE44:
 1215              		.size	SendTemperatureViaBLE, .-SendTemperatureViaBLE
 1216              		.section	.rodata
 1217 01fe 0000     		.align	2
 1218              	.LC57:
 1219 0200 252E3266 		.ascii	"%.2f mM\000"
 1219      206D4D00 
 1220              		.align	2
 1221              	.LC60:
 1222 0208 E891A1E8 		.ascii	"\350\221\241\350\220\204\347\263\226\345\267\262\345"
 1222      9084E7B3 
 1222      96E5B7B2 
 1222      E5
 1223 0215 8F91E980 		.ascii	"\217\221\351\200\201: %s\015\012\000"
 1223      813A2025 
 1223      730D0A00 
 1224              		.section	.text.SendGlucoseViaBLE,"ax",%progbits
 1225              		.align	2
 1226              		.global	SendGlucoseViaBLE
 1227              		.code	16
 1228              		.thumb_func
 1229              		.type	SendGlucoseViaBLE, %function
 1230              	SendGlucoseViaBLE:
 1231              	.LFB45:
 416:main.c        **** 
 417:main.c        **** /*******************************************************************************
 418:main.c        **** * Function Name: SendGlucoseViaBLE
 419:main.c        **** ********************************************************************************
 420:main.c        **** * Summary:
 421:main.c        **** *   发送葡萄糖数据
 422:main.c        **** *******************************************************************************/
 423:main.c        **** void SendGlucoseViaBLE(void)
 424:main.c        **** {
 1232              		.loc 1 424 0
 1233              		.cfi_startproc
ARM GAS  C:\Users\13740\AppData\Local\Temp\ccBqru7T.s 			page 32


 1234              		@ args = 0, pretend = 0, frame = 32
 1235              		@ frame_needed = 1, uses_anonymous_args = 0
 1236 0000 90B5     		push	{r4, r7, lr}
 1237              		.cfi_def_cfa_offset 12
 1238              		.cfi_offset 4, -12
 1239              		.cfi_offset 7, -8
 1240              		.cfi_offset 14, -4
 1241 0002 89B0     		sub	sp, sp, #36
 1242              		.cfi_def_cfa_offset 48
 1243 0004 00AF     		add	r7, sp, #0
 1244              		.cfi_def_cfa_register 7
 425:main.c        ****     CYBLE_GATTS_HANDLE_VALUE_NTF_T notificationHandle;
 426:main.c        ****     char glucoseString[20];
 427:main.c        ****     
 428:main.c        ****     if(CyBle_GetState() == CYBLE_STATE_CONNECTED)
 1245              		.loc 1 428 0
 1246 0006 1F4B     		ldr	r3, .L57
 1247 0008 1B78     		ldrb	r3, [r3]
 1248 000a 022B     		cmp	r3, #2
 1249 000c 35D1     		bne	.L56
 429:main.c        ****     {
 430:main.c        ****         // 格式化为易读字符串: "5.2 mM"
 431:main.c        ****         sprintf(glucoseString, "%.2f mM", sensorData.glucose);
 1250              		.loc 1 431 0
 1251 000e 1E4B     		ldr	r3, .L57+4
 1252 0010 5B68     		ldr	r3, [r3, #4]
 1253 0012 181C     		adds	r0, r3, #0
 1254 0014 FFF7FEFF 		bl	__aeabi_f2d
 1255 0018 0300     		movs	r3, r0
 1256 001a 0C00     		movs	r4, r1
 1257 001c 1B49     		ldr	r1, .L57+8
 1258 001e 3800     		movs	r0, r7
 1259 0020 1A00     		movs	r2, r3
 1260 0022 2300     		movs	r3, r4
 1261 0024 FFF7FEFF 		bl	sprintf
 432:main.c        ****         
 433:main.c        ****         // 发送通知
 434:main.c        ****         notificationHandle.attrHandle = CYBLE_CUSTOM_SERVICE_GLUCOSE_MEASUREMENT_CHAR_HANDLE;
 1262              		.loc 1 434 0
 1263 0028 1423     		movs	r3, #20
 1264 002a FB18     		adds	r3, r7, r3
 1265 002c 1722     		movs	r2, #23
 1266 002e 1A81     		strh	r2, [r3, #8]
 435:main.c        ****         notificationHandle.value.val = (uint8*)glucoseString;
 1267              		.loc 1 435 0
 1268 0030 1423     		movs	r3, #20
 1269 0032 FB18     		adds	r3, r7, r3
 1270 0034 3A00     		movs	r2, r7
 1271 0036 1A60     		str	r2, [r3]
 436:main.c        ****         notificationHandle.value.len = strlen(glucoseString);
 1272              		.loc 1 436 0
 1273 0038 3B00     		movs	r3, r7
 1274 003a 1800     		movs	r0, r3
 1275 003c FFF7FEFF 		bl	strlen
 1276 0040 0300     		movs	r3, r0
 1277 0042 9AB2     		uxth	r2, r3
 1278 0044 1423     		movs	r3, #20
ARM GAS  C:\Users\13740\AppData\Local\Temp\ccBqru7T.s 			page 33


 1279 0046 FB18     		adds	r3, r7, r3
 1280 0048 9A80     		strh	r2, [r3, #4]
 437:main.c        ****         
 438:main.c        ****         if(CyBle_GattsNotification(cyBle_connHandle, &notificationHandle) == CYBLE_ERROR_OK)
 1281              		.loc 1 438 0
 1282 004a 1423     		movs	r3, #20
 1283 004c F918     		adds	r1, r7, r3
 1284 004e 104B     		ldr	r3, .L57+12
 1285 0050 1A78     		ldrb	r2, [r3]
 1286 0052 5B78     		ldrb	r3, [r3, #1]
 1287 0054 1B02     		lsls	r3, r3, #8
 1288 0056 1A43     		orrs	r2, r3
 1289 0058 0023     		movs	r3, #0
 1290 005a 1204     		lsls	r2, r2, #16
 1291 005c 120C     		lsrs	r2, r2, #16
 1292 005e 1B0C     		lsrs	r3, r3, #16
 1293 0060 1B04     		lsls	r3, r3, #16
 1294 0062 1343     		orrs	r3, r2
 1295 0064 1800     		movs	r0, r3
 1296 0066 FFF7FEFF 		bl	CyBle_GattsNotification
 1297 006a 031E     		subs	r3, r0, #0
 1298 006c 05D1     		bne	.L56
 439:main.c        ****         {
 440:main.c        ****             DBG_PRINTF("葡萄糖已发送: %s\r\n", glucoseString);
 1299              		.loc 1 440 0
 1300 006e 3A00     		movs	r2, r7
 1301 0070 084B     		ldr	r3, .L57+16
 1302 0072 1100     		movs	r1, r2
 1303 0074 1800     		movs	r0, r3
 1304 0076 FFF7FEFF 		bl	printf
 1305              	.L56:
 441:main.c        ****         }
 442:main.c        ****     }
 443:main.c        **** }
 1306              		.loc 1 443 0
 1307 007a C046     		nop
 1308 007c BD46     		mov	sp, r7
 1309 007e 09B0     		add	sp, sp, #36
 1310              		@ sp needed
 1311 0080 90BD     		pop	{r4, r7, pc}
 1312              	.L58:
 1313 0082 C046     		.align	2
 1314              	.L57:
 1315 0084 00000000 		.word	cyBle_state
 1316 0088 00000000 		.word	sensorData
 1317 008c 00020000 		.word	.LC57
 1318 0090 00000000 		.word	cyBle_connHandle
 1319 0094 08020000 		.word	.LC60
 1320              		.cfi_endproc
 1321              	.LFE45:
 1322              		.size	SendGlucoseViaBLE, .-SendGlucoseViaBLE
 1323              		.section	.rodata
 1324 0221 000000   		.align	2
 1325              	.LC66:
 1326 0224 E4B9B3E9 		.ascii	"\344\271\263\351\205\270\345\267\262\345\217\221\351"
 1326      85B8E5B7 
 1326      B2E58F91 
ARM GAS  C:\Users\13740\AppData\Local\Temp\ccBqru7T.s 			page 34


 1326      E9
 1327 0231 80813A20 		.ascii	"\200\201: %s\015\012\000"
 1327      25730D0A 
 1327      00
 1328              		.section	.text.SendLactateViaBLE,"ax",%progbits
 1329              		.align	2
 1330              		.global	SendLactateViaBLE
 1331              		.code	16
 1332              		.thumb_func
 1333              		.type	SendLactateViaBLE, %function
 1334              	SendLactateViaBLE:
 1335              	.LFB46:
 444:main.c        **** 
 445:main.c        **** /*******************************************************************************
 446:main.c        **** * Function Name: SendLactateViaBLE
 447:main.c        **** ********************************************************************************
 448:main.c        **** * Summary:
 449:main.c        **** *   发送乳酸数据
 450:main.c        **** *******************************************************************************/
 451:main.c        **** void SendLactateViaBLE(void)
 452:main.c        **** {
 1336              		.loc 1 452 0
 1337              		.cfi_startproc
 1338              		@ args = 0, pretend = 0, frame = 32
 1339              		@ frame_needed = 1, uses_anonymous_args = 0
 1340 0000 90B5     		push	{r4, r7, lr}
 1341              		.cfi_def_cfa_offset 12
 1342              		.cfi_offset 4, -12
 1343              		.cfi_offset 7, -8
 1344              		.cfi_offset 14, -4
 1345 0002 89B0     		sub	sp, sp, #36
 1346              		.cfi_def_cfa_offset 48
 1347 0004 00AF     		add	r7, sp, #0
 1348              		.cfi_def_cfa_register 7
 453:main.c        ****     CYBLE_GATTS_HANDLE_VALUE_NTF_T notificationHandle;
 454:main.c        ****     char lactateString[20];
 455:main.c        ****     
 456:main.c        ****     if(CyBle_GetState() == CYBLE_STATE_CONNECTED)
 1349              		.loc 1 456 0
 1350 0006 1F4B     		ldr	r3, .L62
 1351 0008 1B78     		ldrb	r3, [r3]
 1352 000a 022B     		cmp	r3, #2
 1353 000c 35D1     		bne	.L61
 457:main.c        ****     {
 458:main.c        ****         // 格式化为易读字符串: "2.5 mM"
 459:main.c        ****         sprintf(lactateString, "%.2f mM", sensorData.lactate);
 1354              		.loc 1 459 0
 1355 000e 1E4B     		ldr	r3, .L62+4
 1356 0010 9B68     		ldr	r3, [r3, #8]
 1357 0012 181C     		adds	r0, r3, #0
 1358 0014 FFF7FEFF 		bl	__aeabi_f2d
 1359 0018 0300     		movs	r3, r0
 1360 001a 0C00     		movs	r4, r1
 1361 001c 1B49     		ldr	r1, .L62+8
 1362 001e 3800     		movs	r0, r7
 1363 0020 1A00     		movs	r2, r3
 1364 0022 2300     		movs	r3, r4
ARM GAS  C:\Users\13740\AppData\Local\Temp\ccBqru7T.s 			page 35


 1365 0024 FFF7FEFF 		bl	sprintf
 460:main.c        ****         
 461:main.c        ****         // 发送通知 - 使用 Lactate Characteristic
 462:main.c        ****         notificationHandle.attrHandle = CYBLE_CUSTOM_SERVICE_LACTATE_CHAR_HANDLE;
 1366              		.loc 1 462 0
 1367 0028 1423     		movs	r3, #20
 1368 002a FB18     		adds	r3, r7, r3
 1369 002c 1222     		movs	r2, #18
 1370 002e 1A81     		strh	r2, [r3, #8]
 463:main.c        ****         notificationHandle.value.val = (uint8*)lactateString;
 1371              		.loc 1 463 0
 1372 0030 1423     		movs	r3, #20
 1373 0032 FB18     		adds	r3, r7, r3
 1374 0034 3A00     		movs	r2, r7
 1375 0036 1A60     		str	r2, [r3]
 464:main.c        ****         notificationHandle.value.len = strlen(lactateString);
 1376              		.loc 1 464 0
 1377 0038 3B00     		movs	r3, r7
 1378 003a 1800     		movs	r0, r3
 1379 003c FFF7FEFF 		bl	strlen
 1380 0040 0300     		movs	r3, r0
 1381 0042 9AB2     		uxth	r2, r3
 1382 0044 1423     		movs	r3, #20
 1383 0046 FB18     		adds	r3, r7, r3
 1384 0048 9A80     		strh	r2, [r3, #4]
 465:main.c        ****         
 466:main.c        ****         if(CyBle_GattsNotification(cyBle_connHandle, &notificationHandle) == CYBLE_ERROR_OK)
 1385              		.loc 1 466 0
 1386 004a 1423     		movs	r3, #20
 1387 004c F918     		adds	r1, r7, r3
 1388 004e 104B     		ldr	r3, .L62+12
 1389 0050 1A78     		ldrb	r2, [r3]
 1390 0052 5B78     		ldrb	r3, [r3, #1]
 1391 0054 1B02     		lsls	r3, r3, #8
 1392 0056 1A43     		orrs	r2, r3
 1393 0058 0023     		movs	r3, #0
 1394 005a 1204     		lsls	r2, r2, #16
 1395 005c 120C     		lsrs	r2, r2, #16
 1396 005e 1B0C     		lsrs	r3, r3, #16
 1397 0060 1B04     		lsls	r3, r3, #16
 1398 0062 1343     		orrs	r3, r2
 1399 0064 1800     		movs	r0, r3
 1400 0066 FFF7FEFF 		bl	CyBle_GattsNotification
 1401 006a 031E     		subs	r3, r0, #0
 1402 006c 05D1     		bne	.L61
 467:main.c        ****         {
 468:main.c        ****             DBG_PRINTF("乳酸已发送: %s\r\n", lactateString);
 1403              		.loc 1 468 0
 1404 006e 3A00     		movs	r2, r7
 1405 0070 084B     		ldr	r3, .L62+16
 1406 0072 1100     		movs	r1, r2
 1407 0074 1800     		movs	r0, r3
 1408 0076 FFF7FEFF 		bl	printf
 1409              	.L61:
 469:main.c        ****         }
 470:main.c        ****     }
 471:main.c        **** }
ARM GAS  C:\Users\13740\AppData\Local\Temp\ccBqru7T.s 			page 36


 1410              		.loc 1 471 0
 1411 007a C046     		nop
 1412 007c BD46     		mov	sp, r7
 1413 007e 09B0     		add	sp, sp, #36
 1414              		@ sp needed
 1415 0080 90BD     		pop	{r4, r7, pc}
 1416              	.L63:
 1417 0082 C046     		.align	2
 1418              	.L62:
 1419 0084 00000000 		.word	cyBle_state
 1420 0088 00000000 		.word	sensorData
 1421 008c 00020000 		.word	.LC57
 1422 0090 00000000 		.word	cyBle_connHandle
 1423 0094 24020000 		.word	.LC66
 1424              		.cfi_endproc
 1425              	.LFE46:
 1426              		.size	SendLactateViaBLE, .-SendLactateViaBLE
 1427              		.section	.rodata
 1428 023a 0000     		.align	2
 1429              	.LC69:
 1430 023c 252E3266 		.ascii	"%.2f\000"
 1430      00
 1431 0241 000000   		.align	2
 1432              	.LC72:
 1433 0244 7048E5B7 		.ascii	"pH\345\267\262\345\217\221\351\200\201: %s\015\012\000"
 1433      B2E58F91 
 1433      E980813A 
 1433      2025730D 
 1433      0A00
 1434              		.section	.text.SendPHViaBLE,"ax",%progbits
 1435              		.align	2
 1436              		.global	SendPHViaBLE
 1437              		.code	16
 1438              		.thumb_func
 1439              		.type	SendPHViaBLE, %function
 1440              	SendPHViaBLE:
 1441              	.LFB47:
 472:main.c        **** 
 473:main.c        **** /*******************************************************************************
 474:main.c        **** * Function Name: SendPHViaBLE
 475:main.c        **** ********************************************************************************
 476:main.c        **** * Summary:
 477:main.c        **** *   发送 pH 数据
 478:main.c        **** *******************************************************************************/
 479:main.c        **** void SendPHViaBLE(void)
 480:main.c        **** {
 1442              		.loc 1 480 0
 1443              		.cfi_startproc
 1444              		@ args = 0, pretend = 0, frame = 40
 1445              		@ frame_needed = 1, uses_anonymous_args = 0
 1446 0000 90B5     		push	{r4, r7, lr}
 1447              		.cfi_def_cfa_offset 12
 1448              		.cfi_offset 4, -12
 1449              		.cfi_offset 7, -8
 1450              		.cfi_offset 14, -4
 1451 0002 8BB0     		sub	sp, sp, #44
 1452              		.cfi_def_cfa_offset 56
ARM GAS  C:\Users\13740\AppData\Local\Temp\ccBqru7T.s 			page 37


 1453 0004 00AF     		add	r7, sp, #0
 1454              		.cfi_def_cfa_register 7
 481:main.c        ****     CYBLE_GATTS_HANDLE_VALUE_NTF_T notificationHandle;
 482:main.c        ****     char phString[20];
 483:main.c        ****     float phValue = 7.4;  // 从传感器读取的实际 pH 值
 1455              		.loc 1 483 0
 1456 0006 1F4B     		ldr	r3, .L67
 1457 0008 7B62     		str	r3, [r7, #36]
 484:main.c        ****     
 485:main.c        ****     if(CyBle_GetState() == CYBLE_STATE_CONNECTED)
 1458              		.loc 1 485 0
 1459 000a 1F4B     		ldr	r3, .L67+4
 1460 000c 1B78     		ldrb	r3, [r3]
 1461 000e 022B     		cmp	r3, #2
 1462 0010 33D1     		bne	.L66
 486:main.c        ****     {
 487:main.c        ****         // 格式化为易读字符串: "7.35"
 488:main.c        ****         sprintf(phString, "%.2f", phValue);
 1463              		.loc 1 488 0
 1464 0012 786A     		ldr	r0, [r7, #36]
 1465 0014 FFF7FEFF 		bl	__aeabi_f2d
 1466 0018 0300     		movs	r3, r0
 1467 001a 0C00     		movs	r4, r1
 1468 001c 1B49     		ldr	r1, .L67+8
 1469 001e 381D     		adds	r0, r7, #4
 1470 0020 1A00     		movs	r2, r3
 1471 0022 2300     		movs	r3, r4
 1472 0024 FFF7FEFF 		bl	sprintf
 489:main.c        ****         
 490:main.c        ****         // 发送通知 - 使用 PH Characteristic
 491:main.c        ****         notificationHandle.attrHandle = CYBLE_CUSTOM_SERVICE_PH_CHAR_HANDLE;
 1473              		.loc 1 491 0
 1474 0028 1823     		movs	r3, #24
 1475 002a FB18     		adds	r3, r7, r3
 1476 002c 1F22     		movs	r2, #31
 1477 002e 1A81     		strh	r2, [r3, #8]
 492:main.c        ****         notificationHandle.value.val = (uint8*)phString;
 1478              		.loc 1 492 0
 1479 0030 1823     		movs	r3, #24
 1480 0032 FB18     		adds	r3, r7, r3
 1481 0034 3A1D     		adds	r2, r7, #4
 1482 0036 1A60     		str	r2, [r3]
 493:main.c        ****         notificationHandle.value.len = strlen(phString);
 1483              		.loc 1 493 0
 1484 0038 3B1D     		adds	r3, r7, #4
 1485 003a 1800     		movs	r0, r3
 1486 003c FFF7FEFF 		bl	strlen
 1487 0040 0300     		movs	r3, r0
 1488 0042 9AB2     		uxth	r2, r3
 1489 0044 1823     		movs	r3, #24
 1490 0046 FB18     		adds	r3, r7, r3
 1491 0048 9A80     		strh	r2, [r3, #4]
 494:main.c        ****         
 495:main.c        ****         if(CyBle_GattsNotification(cyBle_connHandle, &notificationHandle) == CYBLE_ERROR_OK)
 1492              		.loc 1 495 0
 1493 004a 1823     		movs	r3, #24
 1494 004c F918     		adds	r1, r7, r3
ARM GAS  C:\Users\13740\AppData\Local\Temp\ccBqru7T.s 			page 38


 1495 004e 104B     		ldr	r3, .L67+12
 1496 0050 1A78     		ldrb	r2, [r3]
 1497 0052 5B78     		ldrb	r3, [r3, #1]
 1498 0054 1B02     		lsls	r3, r3, #8
 1499 0056 1A43     		orrs	r2, r3
 1500 0058 0023     		movs	r3, #0
 1501 005a 1204     		lsls	r2, r2, #16
 1502 005c 120C     		lsrs	r2, r2, #16
 1503 005e 1B0C     		lsrs	r3, r3, #16
 1504 0060 1B04     		lsls	r3, r3, #16
 1505 0062 1343     		orrs	r3, r2
 1506 0064 1800     		movs	r0, r3
 1507 0066 FFF7FEFF 		bl	CyBle_GattsNotification
 1508 006a 031E     		subs	r3, r0, #0
 1509 006c 05D1     		bne	.L66
 496:main.c        ****         {
 497:main.c        ****             DBG_PRINTF("pH已发送: %s\r\n", phString);
 1510              		.loc 1 497 0
 1511 006e 3A1D     		adds	r2, r7, #4
 1512 0070 084B     		ldr	r3, .L67+16
 1513 0072 1100     		movs	r1, r2
 1514 0074 1800     		movs	r0, r3
 1515 0076 FFF7FEFF 		bl	printf
 1516              	.L66:
 498:main.c        ****         }
 499:main.c        ****     }
 500:main.c        **** }
 1517              		.loc 1 500 0
 1518 007a C046     		nop
 1519 007c BD46     		mov	sp, r7
 1520 007e 0BB0     		add	sp, sp, #44
 1521              		@ sp needed
 1522 0080 90BD     		pop	{r4, r7, pc}
 1523              	.L68:
 1524 0082 C046     		.align	2
 1525              	.L67:
 1526 0084 CDCCEC40 		.word	1089260749
 1527 0088 00000000 		.word	cyBle_state
 1528 008c 3C020000 		.word	.LC69
 1529 0090 00000000 		.word	cyBle_connHandle
 1530 0094 44020000 		.word	.LC72
 1531              		.cfi_endproc
 1532              	.LFE47:
 1533              		.size	SendPHViaBLE, .-SendPHViaBLE
 1534              		.section	.rodata
 1535 0256 0000     		.align	2
 1536              	.LC75:
 1537 0258 0D0A2D2D 		.ascii	"\015\012--- \345\217\221\351\200\201\346\211\200\346"
 1537      2D20E58F 
 1537      91E98081 
 1537      E68980E6 
 1538 0268 9C89E4BC 		.ascii	"\234\211\344\274\240\346\204\237\345\231\250\346\225"
 1538      A0E6849F 
 1538      E599A8E6 
 1538      95
 1539 0275 B0E68DAE 		.ascii	"\260\346\215\256 ---\015\000"
 1539      202D2D2D 
ARM GAS  C:\Users\13740\AppData\Local\Temp\ccBqru7T.s 			page 39


 1539      0D00
 1540 027f 00       		.align	2
 1541              	.LC77:
 1542 0280 2D2D2D20 		.ascii	"--- \346\225\260\346\215\256\345\217\221\351\200\201"
 1542      E695B0E6 
 1542      8DAEE58F 
 1542      91E98081 
 1543 0290 E5AE8CE6 		.ascii	"\345\256\214\346\210\220 ---\015\012\015\000"
 1543      8890202D 
 1543      2D2D0D0A 
 1543      0D00
 1544              		.section	.text.SendAllSensorDataViaBLE,"ax",%progbits
 1545              		.align	2
 1546              		.global	SendAllSensorDataViaBLE
 1547              		.code	16
 1548              		.thumb_func
 1549              		.type	SendAllSensorDataViaBLE, %function
 1550              	SendAllSensorDataViaBLE:
 1551              	.LFB48:
 501:main.c        **** 
 502:main.c        **** /*******************************************************************************
 503:main.c        **** * Function Name: SendAllSensorDataViaBLE
 504:main.c        **** ********************************************************************************
 505:main.c        **** * Summary:
 506:main.c        **** *   发送所有传感器数据 - 替换原来的 SendDataViaBLE()
 507:main.c        **** *******************************************************************************/
 508:main.c        **** void SendAllSensorDataViaBLE(void)
 509:main.c        **** {
 1552              		.loc 1 509 0
 1553              		.cfi_startproc
 1554              		@ args = 0, pretend = 0, frame = 0
 1555              		@ frame_needed = 1, uses_anonymous_args = 0
 1556 0000 80B5     		push	{r7, lr}
 1557              		.cfi_def_cfa_offset 8
 1558              		.cfi_offset 7, -8
 1559              		.cfi_offset 14, -4
 1560 0002 00AF     		add	r7, sp, #0
 1561              		.cfi_def_cfa_register 7
 510:main.c        ****     if(CyBle_GetState() == CYBLE_STATE_CONNECTED)
 1562              		.loc 1 510 0
 1563 0004 114B     		ldr	r3, .L72
 1564 0006 1B78     		ldrb	r3, [r3]
 1565 0008 022B     		cmp	r3, #2
 1566 000a 1BD1     		bne	.L71
 511:main.c        ****     {
 512:main.c        ****         DBG_PRINTF("\r\n--- 发送所有传感器数据 ---\r\n");
 1567              		.loc 1 512 0
 1568 000c 104B     		ldr	r3, .L72+4
 1569 000e 1800     		movs	r0, r3
 1570 0010 FFF7FEFF 		bl	puts
 513:main.c        ****         
 514:main.c        ****         // 分别发送每个传感器的数据
 515:main.c        ****         SendTemperatureViaBLE();
 1571              		.loc 1 515 0
 1572 0014 FFF7FEFF 		bl	SendTemperatureViaBLE
 516:main.c        ****         CyDelay(50);  // 小延迟确保数据包顺序
 1573              		.loc 1 516 0
ARM GAS  C:\Users\13740\AppData\Local\Temp\ccBqru7T.s 			page 40


 1574 0018 3220     		movs	r0, #50
 1575 001a FFF7FEFF 		bl	CyDelay
 517:main.c        ****         
 518:main.c        ****         SendGlucoseViaBLE();
 1576              		.loc 1 518 0
 1577 001e FFF7FEFF 		bl	SendGlucoseViaBLE
 519:main.c        ****         CyDelay(50);
 1578              		.loc 1 519 0
 1579 0022 3220     		movs	r0, #50
 1580 0024 FFF7FEFF 		bl	CyDelay
 520:main.c        ****         
 521:main.c        ****         SendLactateViaBLE();
 1581              		.loc 1 521 0
 1582 0028 FFF7FEFF 		bl	SendLactateViaBLE
 522:main.c        ****         CyDelay(50);
 1583              		.loc 1 522 0
 1584 002c 3220     		movs	r0, #50
 1585 002e FFF7FEFF 		bl	CyDelay
 523:main.c        ****         
 524:main.c        ****         SendPHViaBLE();
 1586              		.loc 1 524 0
 1587 0032 FFF7FEFF 		bl	SendPHViaBLE
 525:main.c        ****         CyDelay(50);
 1588              		.loc 1 525 0
 1589 0036 3220     		movs	r0, #50
 1590 0038 FFF7FEFF 		bl	CyDelay
 526:main.c        ****         
 527:main.c        ****         DBG_PRINTF("--- 数据发送完成 ---\r\n\r\n");
 1591              		.loc 1 527 0
 1592 003c 054B     		ldr	r3, .L72+8
 1593 003e 1800     		movs	r0, r3
 1594 0040 FFF7FEFF 		bl	puts
 1595              	.L71:
 528:main.c        ****     }
 529:main.c        **** }
 1596              		.loc 1 529 0
 1597 0044 C046     		nop
 1598 0046 BD46     		mov	sp, r7
 1599              		@ sp needed
 1600 0048 80BD     		pop	{r7, pc}
 1601              	.L73:
 1602 004a C046     		.align	2
 1603              	.L72:
 1604 004c 00000000 		.word	cyBle_state
 1605 0050 58020000 		.word	.LC75
 1606 0054 80020000 		.word	.LC77
 1607              		.cfi_endproc
 1608              	.LFE48:
 1609              		.size	SendAllSensorDataViaBLE, .-SendAllSensorDataViaBLE
 1610              		.section	.text.Timer_Interrupt,"ax",%progbits
 1611              		.align	2
 1612              		.global	Timer_Interrupt
 1613              		.code	16
 1614              		.thumb_func
 1615              		.type	Timer_Interrupt, %function
 1616              	Timer_Interrupt:
 1617              	.LFB49:
ARM GAS  C:\Users\13740\AppData\Local\Temp\ccBqru7T.s 			page 41


 530:main.c        **** 
 531:main.c        **** 
 532:main.c        **** /*******************************************************************************
 533:main.c        **** * Function Name: Timer_Interrupt
 534:main.c        **** ********************************************************************************
 535:main.c        **** * Summary:
 536:main.c        **** *   定时器中断 - 每秒触发一次
 537:main.c        **** *******************************************************************************/
 538:main.c        **** CY_ISR(Timer_Interrupt)
 539:main.c        **** {
 1618              		.loc 1 539 0
 1619              		.cfi_startproc
 1620              		@ args = 0, pretend = 0, frame = 0
 1621              		@ frame_needed = 1, uses_anonymous_args = 0
 1622 0000 80B5     		push	{r7, lr}
 1623              		.cfi_def_cfa_offset 8
 1624              		.cfi_offset 7, -8
 1625              		.cfi_offset 14, -4
 1626 0002 00AF     		add	r7, sp, #0
 1627              		.cfi_def_cfa_register 7
 540:main.c        ****     static uint8 led = LED_OFF;
 541:main.c        ****     
 542:main.c        ****     if(CYBLE_STATE_ADVERTISING == CyBle_GetState())
 1628              		.loc 1 542 0
 1629 0004 0D4B     		ldr	r3, .L76
 1630 0006 1B78     		ldrb	r3, [r3]
 1631 0008 032B     		cmp	r3, #3
 1632 000a 0BD1     		bne	.L75
 543:main.c        ****     {
 544:main.c        ****         led ^= LED_OFF;
 1633              		.loc 1 544 0
 1634 000c 0C4B     		ldr	r3, .L76+4
 1635 000e 1B78     		ldrb	r3, [r3]
 1636 0010 0122     		movs	r2, #1
 1637 0012 5340     		eors	r3, r2
 1638 0014 DAB2     		uxtb	r2, r3
 1639 0016 0A4B     		ldr	r3, .L76+4
 1640 0018 1A70     		strb	r2, [r3]
 545:main.c        ****         Advertising_LED_Write(led);
 1641              		.loc 1 545 0
 1642 001a 094B     		ldr	r3, .L76+4
 1643 001c 1B78     		ldrb	r3, [r3]
 1644 001e 1800     		movs	r0, r3
 1645 0020 FFF7FEFF 		bl	Advertising_LED_Write
 1646              	.L75:
 546:main.c        ****     }
 547:main.c        ****     
 548:main.c        ****     mainTimer++;
 1647              		.loc 1 548 0
 1648 0024 074B     		ldr	r3, .L76+8
 1649 0026 1B68     		ldr	r3, [r3]
 1650 0028 5A1C     		adds	r2, r3, #1
 1651 002a 064B     		ldr	r3, .L76+8
 1652 002c 1A60     		str	r2, [r3]
 549:main.c        ****     measurementFlag = 1;  // 每秒设置测量标志
 1653              		.loc 1 549 0
 1654 002e 064B     		ldr	r3, .L76+12
ARM GAS  C:\Users\13740\AppData\Local\Temp\ccBqru7T.s 			page 42


 1655 0030 0122     		movs	r2, #1
 1656 0032 1A70     		strb	r2, [r3]
 550:main.c        **** }
 1657              		.loc 1 550 0
 1658 0034 C046     		nop
 1659 0036 BD46     		mov	sp, r7
 1660              		@ sp needed
 1661 0038 80BD     		pop	{r7, pc}
 1662              	.L77:
 1663 003a C046     		.align	2
 1664              	.L76:
 1665 003c 00000000 		.word	cyBle_state
 1666 0040 00000000 		.word	led.9721
 1667 0044 00000000 		.word	mainTimer
 1668 0048 00000000 		.word	measurementFlag
 1669              		.cfi_endproc
 1670              	.LFE49:
 1671              		.size	Timer_Interrupt, .-Timer_Interrupt
 1672              		.section	.rodata
 1673 029e 0000     		.align	2
 1674              	.LC83:
 1675 02a0 424C45E5 		.ascii	"BLE\345\215\217\350\256\256\346\240\210\345\220\257"
 1675      8D8FE8AE 
 1675      AEE6A088 
 1675      E590AF
 1676 02af E58AA80D 		.ascii	"\345\212\250\015\000"
 1676      00
 1677              		.align	2
 1678              	.LC85:
 1679 02b4 E8AEBEE5 		.ascii	"\350\256\276\345\244\207\345\267\262\350\277\236\346"
 1679      A487E5B7 
 1679      B2E8BF9E 
 1679      E6
 1680 02c1 8EA50D00 		.ascii	"\216\245\015\000"
 1681 02c5 000000   		.align	2
 1682              	.LC87:
 1683 02c8 E8AEBEE5 		.ascii	"\350\256\276\345\244\207\345\267\262\346\226\255\345"
 1683      A487E5B7 
 1683      B2E696AD 
 1683      E5
 1684 02d5 BC800D00 		.ascii	"\274\200\015\000"
 1685 02d9 000000   		.align	2
 1686              	.LC90:
 1687 02dc E7AD89E5 		.ascii	"\347\255\211\345\276\205Flash\345\206\231\345\205\245"
 1687      BE85466C 
 1687      617368E5 
 1687      8699E585 
 1687      A5
 1688 02ed 0D00     		.ascii	"\015\000"
 1689              		.section	.text.AppCallBack,"ax",%progbits
 1690              		.align	2
 1691              		.global	AppCallBack
 1692              		.code	16
 1693              		.thumb_func
 1694              		.type	AppCallBack, %function
 1695              	AppCallBack:
 1696              	.LFB50:
ARM GAS  C:\Users\13740\AppData\Local\Temp\ccBqru7T.s 			page 43


 551:main.c        **** 
 552:main.c        **** /*******************************************************************************
 553:main.c        **** * Function Name: AppCallBack
 554:main.c        **** ********************************************************************************
 555:main.c        **** * Summary:
 556:main.c        **** *   BLE事件回调函数
 557:main.c        **** *******************************************************************************/
 558:main.c        **** void AppCallBack(uint32 event, void* eventParam)
 559:main.c        **** {
 1697              		.loc 1 559 0
 1698              		.cfi_startproc
 1699              		@ args = 0, pretend = 0, frame = 8
 1700              		@ frame_needed = 1, uses_anonymous_args = 0
 1701 0000 80B5     		push	{r7, lr}
 1702              		.cfi_def_cfa_offset 8
 1703              		.cfi_offset 7, -8
 1704              		.cfi_offset 14, -4
 1705 0002 82B0     		sub	sp, sp, #8
 1706              		.cfi_def_cfa_offset 16
 1707 0004 00AF     		add	r7, sp, #0
 1708              		.cfi_def_cfa_register 7
 1709 0006 7860     		str	r0, [r7, #4]
 1710 0008 3960     		str	r1, [r7]
 560:main.c        ****     uint16 i;
 561:main.c        ****     
 562:main.c        ****     switch(event)
 1711              		.loc 1 562 0
 1712 000a 7B68     		ldr	r3, [r7, #4]
 1713 000c 272B     		cmp	r3, #39
 1714 000e 11D0     		beq	.L80
 1715 0010 04D8     		bhi	.L81
 1716 0012 012B     		cmp	r3, #1
 1717 0014 07D0     		beq	.L82
 1718 0016 262B     		cmp	r3, #38
 1719 0018 1ED0     		beq	.L83
 563:main.c        ****     {
 564:main.c        ****         case CYBLE_EVT_STACK_ON:
 565:main.c        ****             DBG_PRINTF("BLE协议栈启动\r\n");
 566:main.c        ****             StartAdvertisement();
 567:main.c        ****             break;
 568:main.c        **** 
 569:main.c        ****         case CYBLE_EVT_GAP_DEVICE_CONNECTED:
 570:main.c        ****             DBG_PRINTF("设备已连接\r\n");
 571:main.c        ****             Advertising_LED_Write(LED_OFF);
 572:main.c        ****             break;
 573:main.c        **** 
 574:main.c        ****         case CYBLE_EVT_GAP_DEVICE_DISCONNECTED:
 575:main.c        ****             DBG_PRINTF("设备已断开\r\n");
 576:main.c        ****             StartAdvertisement();
 577:main.c        ****             LowPower_LED_Write(LED_OFF);
 578:main.c        ****             break;
 579:main.c        ****             
 580:main.c        ****         case CYBLE_EVT_GAPP_ADVERTISEMENT_START_STOP:
 581:main.c        ****             if(CYBLE_STATE_DISCONNECTED == CyBle_GetState())
 582:main.c        ****             {
 583:main.c        ****                 Advertising_LED_Write(LED_OFF);
 584:main.c        ****                 Disconnect_LED_Write(LED_ON);
ARM GAS  C:\Users\13740\AppData\Local\Temp\ccBqru7T.s 			page 44


 585:main.c        ****                 LowPower_LED_Write(LED_OFF);
 586:main.c        ****                 
 587:main.c        ****                 // 清除中断并进入休眠
 588:main.c        ****                 AD5940_EXTI_ClearInterrupt();
 589:main.c        ****                 AD5940_Interrupt_ClearPending();
 590:main.c        ****                 AD5940_Interrupt_Start();
 591:main.c        ****                 CySysPmHibernate();
 592:main.c        ****             }
 593:main.c        ****             break;
 594:main.c        **** 
 595:main.c        ****         case CYBLE_EVT_PENDING_FLASH_WRITE:
 596:main.c        ****             DBG_PRINTF("等待Flash写入\r\n");
 597:main.c        ****             break;
 598:main.c        **** 
 599:main.c        ****         default:
 600:main.c        ****             break;
 1720              		.loc 1 600 0
 1721 001a 39E0     		b	.L86
 1722              	.L81:
 562:main.c        ****     {
 1723              		.loc 1 562 0
 1724 001c 282B     		cmp	r3, #40
 1725 001e 11D0     		beq	.L84
 1726 0020 FA2B     		cmp	r3, #250
 1727 0022 2FD0     		beq	.L85
 1728              		.loc 1 600 0
 1729 0024 34E0     		b	.L86
 1730              	.L82:
 565:main.c        ****             StartAdvertisement();
 1731              		.loc 1 565 0
 1732 0026 1C4B     		ldr	r3, .L89
 1733 0028 1800     		movs	r0, r3
 1734 002a FFF7FEFF 		bl	puts
 566:main.c        ****             break;
 1735              		.loc 1 566 0
 1736 002e FFF7FEFF 		bl	StartAdvertisement
 567:main.c        **** 
 1737              		.loc 1 567 0
 1738 0032 2DE0     		b	.L86
 1739              	.L80:
 570:main.c        ****             Advertising_LED_Write(LED_OFF);
 1740              		.loc 1 570 0
 1741 0034 194B     		ldr	r3, .L89+4
 1742 0036 1800     		movs	r0, r3
 1743 0038 FFF7FEFF 		bl	puts
 571:main.c        ****             break;
 1744              		.loc 1 571 0
 1745 003c 0120     		movs	r0, #1
 1746 003e FFF7FEFF 		bl	Advertising_LED_Write
 572:main.c        **** 
 1747              		.loc 1 572 0
 1748 0042 25E0     		b	.L86
 1749              	.L84:
 575:main.c        ****             StartAdvertisement();
 1750              		.loc 1 575 0
 1751 0044 164B     		ldr	r3, .L89+8
 1752 0046 1800     		movs	r0, r3
ARM GAS  C:\Users\13740\AppData\Local\Temp\ccBqru7T.s 			page 45


 1753 0048 FFF7FEFF 		bl	puts
 576:main.c        ****             LowPower_LED_Write(LED_OFF);
 1754              		.loc 1 576 0
 1755 004c FFF7FEFF 		bl	StartAdvertisement
 577:main.c        ****             break;
 1756              		.loc 1 577 0
 1757 0050 0120     		movs	r0, #1
 1758 0052 FFF7FEFF 		bl	LowPower_LED_Write
 578:main.c        ****             
 1759              		.loc 1 578 0
 1760 0056 1BE0     		b	.L86
 1761              	.L83:
 581:main.c        ****             {
 1762              		.loc 1 581 0
 1763 0058 124B     		ldr	r3, .L89+12
 1764 005a 1B78     		ldrb	r3, [r3]
 1765 005c 042B     		cmp	r3, #4
 1766 005e 16D1     		bne	.L88
 583:main.c        ****                 Disconnect_LED_Write(LED_ON);
 1767              		.loc 1 583 0
 1768 0060 0120     		movs	r0, #1
 1769 0062 FFF7FEFF 		bl	Advertising_LED_Write
 584:main.c        ****                 LowPower_LED_Write(LED_OFF);
 1770              		.loc 1 584 0
 1771 0066 0020     		movs	r0, #0
 1772 0068 FFF7FEFF 		bl	Disconnect_LED_Write
 585:main.c        ****                 
 1773              		.loc 1 585 0
 1774 006c 0120     		movs	r0, #1
 1775 006e FFF7FEFF 		bl	LowPower_LED_Write
 588:main.c        ****                 AD5940_Interrupt_ClearPending();
 1776              		.loc 1 588 0
 1777 0072 FFF7FEFF 		bl	AD5940_EXTI_ClearInterrupt
 589:main.c        ****                 AD5940_Interrupt_Start();
 1778              		.loc 1 589 0
 1779 0076 FFF7FEFF 		bl	AD5940_Interrupt_ClearPending
 590:main.c        ****                 CySysPmHibernate();
 1780              		.loc 1 590 0
 1781 007a FFF7FEFF 		bl	AD5940_Interrupt_Start
 591:main.c        ****             }
 1782              		.loc 1 591 0
 1783 007e FFF7FEFF 		bl	CySysPmHibernate
 593:main.c        **** 
 1784              		.loc 1 593 0
 1785 0082 04E0     		b	.L88
 1786              	.L85:
 596:main.c        ****             break;
 1787              		.loc 1 596 0
 1788 0084 084B     		ldr	r3, .L89+16
 1789 0086 1800     		movs	r0, r3
 1790 0088 FFF7FEFF 		bl	puts
 597:main.c        **** 
 1791              		.loc 1 597 0
 1792 008c 00E0     		b	.L86
 1793              	.L88:
 593:main.c        **** 
 1794              		.loc 1 593 0
ARM GAS  C:\Users\13740\AppData\Local\Temp\ccBqru7T.s 			page 46


 1795 008e C046     		nop
 1796              	.L86:
 601:main.c        ****     }
 602:main.c        **** }
 1797              		.loc 1 602 0
 1798 0090 C046     		nop
 1799 0092 BD46     		mov	sp, r7
 1800 0094 02B0     		add	sp, sp, #8
 1801              		@ sp needed
 1802 0096 80BD     		pop	{r7, pc}
 1803              	.L90:
 1804              		.align	2
 1805              	.L89:
 1806 0098 A0020000 		.word	.LC83
 1807 009c B4020000 		.word	.LC85
 1808 00a0 C8020000 		.word	.LC87
 1809 00a4 00000000 		.word	cyBle_state
 1810 00a8 DC020000 		.word	.LC90
 1811              		.cfi_endproc
 1812              	.LFE50:
 1813              		.size	AppCallBack, .-AppCallBack
 1814              		.section	.text.LowPowerImplementation,"ax",%progbits
 1815              		.align	2
 1816              		.code	16
 1817              		.thumb_func
 1818              		.type	LowPowerImplementation, %function
 1819              	LowPowerImplementation:
 1820              	.LFB51:
 603:main.c        **** 
 604:main.c        **** /*******************************************************************************
 605:main.c        **** * Function Name: LowPowerImplementation
 606:main.c        **** ********************************************************************************
 607:main.c        **** * Summary:
 608:main.c        **** *   低功耗实现
 609:main.c        **** *******************************************************************************/
 610:main.c        **** static void LowPowerImplementation(void)
 611:main.c        **** {
 1821              		.loc 1 611 0
 1822              		.cfi_startproc
 1823              		@ args = 0, pretend = 0, frame = 8
 1824              		@ frame_needed = 1, uses_anonymous_args = 0
 1825 0000 90B5     		push	{r4, r7, lr}
 1826              		.cfi_def_cfa_offset 12
 1827              		.cfi_offset 4, -12
 1828              		.cfi_offset 7, -8
 1829              		.cfi_offset 14, -4
 1830 0002 83B0     		sub	sp, sp, #12
 1831              		.cfi_def_cfa_offset 24
 1832 0004 00AF     		add	r7, sp, #0
 1833              		.cfi_def_cfa_register 7
 612:main.c        ****     CYBLE_LP_MODE_T bleMode;
 613:main.c        ****     uint8 interruptStatus;
 614:main.c        ****     
 615:main.c        ****     if((CyBle_GetState() == CYBLE_STATE_ADVERTISING) || 
 1834              		.loc 1 615 0
 1835 0006 1A4B     		ldr	r3, .L99
 1836 0008 1B78     		ldrb	r3, [r3]
ARM GAS  C:\Users\13740\AppData\Local\Temp\ccBqru7T.s 			page 47


 1837 000a 032B     		cmp	r3, #3
 1838 000c 03D0     		beq	.L92
 616:main.c        ****        (CyBle_GetState() == CYBLE_STATE_CONNECTED))
 1839              		.loc 1 616 0 discriminator 1
 1840 000e 184B     		ldr	r3, .L99
 1841 0010 1B78     		ldrb	r3, [r3]
 615:main.c        ****        (CyBle_GetState() == CYBLE_STATE_CONNECTED))
 1842              		.loc 1 615 0 discriminator 1
 1843 0012 022B     		cmp	r3, #2
 1844 0014 27D1     		bne	.L98
 1845              	.L92:
 617:main.c        ****     {
 618:main.c        ****         bleMode = CyBle_EnterLPM(CYBLE_BLESS_DEEPSLEEP);
 1846              		.loc 1 618 0
 1847 0016 FC1D     		adds	r4, r7, #7
 1848 0018 0320     		movs	r0, #3
 1849 001a FFF7FEFF 		bl	CyBle_EnterLPM
 1850 001e 0300     		movs	r3, r0
 1851 0020 2370     		strb	r3, [r4]
 619:main.c        ****         interruptStatus = CyEnterCriticalSection();
 1852              		.loc 1 619 0
 1853 0022 BC1D     		adds	r4, r7, #6
 1854 0024 FFF7FEFF 		bl	CyEnterCriticalSection
 1855 0028 0300     		movs	r3, r0
 1856 002a 2370     		strb	r3, [r4]
 620:main.c        ****         
 621:main.c        ****         if(bleMode == CYBLE_BLESS_DEEPSLEEP)
 1857              		.loc 1 621 0
 1858 002c FB1D     		adds	r3, r7, #7
 1859 002e 1B78     		ldrb	r3, [r3]
 1860 0030 032B     		cmp	r3, #3
 1861 0032 0CD1     		bne	.L94
 622:main.c        ****         {
 623:main.c        ****             if((CyBle_GetBleSsState() == CYBLE_BLESS_STATE_ECO_ON) || 
 1862              		.loc 1 623 0
 1863 0034 FFF7FEFF 		bl	CyBle_GetBleSsState
 1864 0038 0300     		movs	r3, r0
 1865 003a 042B     		cmp	r3, #4
 1866 003c 04D0     		beq	.L95
 624:main.c        ****                (CyBle_GetBleSsState() == CYBLE_BLESS_STATE_DEEPSLEEP))
 1867              		.loc 1 624 0 discriminator 1
 1868 003e FFF7FEFF 		bl	CyBle_GetBleSsState
 1869 0042 0300     		movs	r3, r0
 623:main.c        ****                (CyBle_GetBleSsState() == CYBLE_BLESS_STATE_DEEPSLEEP))
 1870              		.loc 1 623 0 discriminator 1
 1871 0044 062B     		cmp	r3, #6
 1872 0046 09D1     		bne	.L97
 1873              	.L95:
 625:main.c        ****             {
 626:main.c        ****                 CySysPmDeepSleep();
 1874              		.loc 1 626 0
 1875 0048 FFF7FEFF 		bl	CySysPmDeepSleep
 1876 004c 06E0     		b	.L97
 1877              	.L94:
 627:main.c        ****             }
 628:main.c        ****         }
 629:main.c        ****         else
ARM GAS  C:\Users\13740\AppData\Local\Temp\ccBqru7T.s 			page 48


 630:main.c        ****         {
 631:main.c        ****             if(CyBle_GetBleSsState() != CYBLE_BLESS_STATE_EVENT_CLOSE)
 1878              		.loc 1 631 0
 1879 004e FFF7FEFF 		bl	CyBle_GetBleSsState
 1880 0052 0300     		movs	r3, r0
 1881 0054 022B     		cmp	r3, #2
 1882 0056 01D0     		beq	.L97
 632:main.c        ****             {
 633:main.c        ****                 CySysPmSleep();
 1883              		.loc 1 633 0
 1884 0058 FFF7FEFF 		bl	CySysPmSleep
 1885              	.L97:
 634:main.c        ****             }
 635:main.c        ****         }
 636:main.c        ****         
 637:main.c        ****         CyExitCriticalSection(interruptStatus);
 1886              		.loc 1 637 0
 1887 005c BB1D     		adds	r3, r7, #6
 1888 005e 1B78     		ldrb	r3, [r3]
 1889 0060 1800     		movs	r0, r3
 1890 0062 FFF7FEFF 		bl	CyExitCriticalSection
 1891              	.L98:
 638:main.c        ****     }
 639:main.c        **** }
 1892              		.loc 1 639 0
 1893 0066 C046     		nop
 1894 0068 BD46     		mov	sp, r7
 1895 006a 03B0     		add	sp, sp, #12
 1896              		@ sp needed
 1897 006c 90BD     		pop	{r4, r7, pc}
 1898              	.L100:
 1899 006e C046     		.align	2
 1900              	.L99:
 1901 0070 00000000 		.word	cyBle_state
 1902              		.cfi_endproc
 1903              	.LFE51:
 1904              		.size	LowPowerImplementation, .-LowPowerImplementation
 1905              		.section	.rodata
 1906 02ef 00       		.align	2
 1907              	.LC93:
 1908 02f0 E590AFE5 		.ascii	"\345\220\257\345\212\250BLE...\015\000"
 1908      8AA8424C 
 1908      452E2E2E 
 1908      0D00
 1909 02fe 0000     		.align	2
 1910              	.LC97:
 1911 0300 424C45E5 		.ascii	"BLE\345\220\257\345\212\250\345\244\261\350\264\245"
 1911      90AFE58A 
 1911      A8E5A4B1 
 1911      E8B4A5
 1912 030f 3A202564 		.ascii	": %d\015\012\000"
 1912      0D0A00
 1913 0316 0000     		.align	2
 1914              	.LC99:
 1915 0318 E5889DE5 		.ascii	"\345\210\235\345\247\213\345\214\226AD5941...\015\000"
 1915      A78BE58C 
 1915      96414435 
ARM GAS  C:\Users\13740\AppData\Local\Temp\ccBqru7T.s 			page 49


 1915      3934312E 
 1915      2E2E0D00 
 1916              		.align	2
 1917              	.LC102:
 1918 032c E7B3BBE7 		.ascii	"\347\263\273\347\273\237\345\210\235\345\247\213\345"
 1918      BB9FE588 
 1918      9DE5A78B 
 1918      E5
 1919 0339 8C96E5AE 		.ascii	"\214\226\345\256\214\346\210\220\015\012\015\000"
 1919      8CE68890 
 1919      0D0A0D00 
 1920              		.global	__aeabi_fcmpgt
 1921 0345 000000   		.align	2
 1922              	.LC109:
 1923 0348 5BE8ADA6 		.ascii	"[\350\255\246\345\221\212] \346\243\200\346\265\213"
 1923      E5918A5D 
 1923      20E6A380 
 1923      E6B58B
 1924 0357 E588B0E5 		.ascii	"\345\210\260\345\274\202\345\270\270\357\274\214\345"
 1924      BC82E5B8 
 1924      B8EFBC8C 
 1924      E5
 1925 0364 90AFE58A 		.ascii	"\220\257\345\212\250\350\215\257\347\211\251\351\207"
 1925      A8E88DAF 
 1925      E789A9E9 
 1925      87
 1926 0371 8AE694BE 		.ascii	"\212\346\224\276\015\000"
 1926      0D00
 1927              		.section	.text.main,"ax",%progbits
 1928              		.align	2
 1929              		.global	main
 1930              		.code	16
 1931              		.thumb_func
 1932              		.type	main, %function
 1933              	main:
 1934              	.LFB52:
 640:main.c        **** 
 641:main.c        **** /*******************************************************************************
 642:main.c        **** * Function Name: main
 643:main.c        **** ********************************************************************************
 644:main.c        **** * Summary:
 645:main.c        **** *   主函数
 646:main.c        **** *******************************************************************************/
 647:main.c        **** int main()
 648:main.c        **** {
 1935              		.loc 1 648 0
 1936              		.cfi_startproc
 1937              		@ args = 0, pretend = 0, frame = 0
 1938              		@ frame_needed = 1, uses_anonymous_args = 0
 1939 0000 80B5     		push	{r7, lr}
 1940              		.cfi_def_cfa_offset 8
 1941              		.cfi_offset 7, -8
 1942              		.cfi_offset 14, -4
 1943 0002 00AF     		add	r7, sp, #0
 1944              		.cfi_def_cfa_register 7
 649:main.c        ****     CyGlobalIntEnable;
 1945              		.loc 1 649 0
ARM GAS  C:\Users\13740\AppData\Local\Temp\ccBqru7T.s 			page 50


 1946              		.syntax divided
 1947              	@ 649 "main.c" 1
 1948 0004 62B6     		CPSIE   i
 1949              	@ 0 "" 2
 650:main.c        ****     
 651:main.c        ****     // 初始化LED
 652:main.c        ****     Disconnect_LED_Write(LED_OFF);
 1950              		.loc 1 652 0
 1951              		.thumb
 1952              		.syntax unified
 1953 0006 0120     		movs	r0, #1
 1954 0008 FFF7FEFF 		bl	Disconnect_LED_Write
 653:main.c        ****     Advertising_LED_Write(LED_OFF);
 1955              		.loc 1 653 0
 1956 000c 0120     		movs	r0, #1
 1957 000e FFF7FEFF 		bl	Advertising_LED_Write
 654:main.c        ****     LowPower_LED_Write(LED_OFF);
 1958              		.loc 1 654 0
 1959 0012 0120     		movs	r0, #1
 1960 0014 FFF7FEFF 		bl	LowPower_LED_Write
 655:main.c        ****     
 656:main.c        ****     // 初始化BLE
 657:main.c        ****     DBG_PRINTF("启动BLE...\r\n");
 1961              		.loc 1 657 0
 1962 0018 4A4B     		ldr	r3, .L114
 1963 001a 1800     		movs	r0, r3
 1964 001c FFF7FEFF 		bl	puts
 658:main.c        ****     apiResult = CyBle_Start(AppCallBack);
 1965              		.loc 1 658 0
 1966 0020 494B     		ldr	r3, .L114+4
 1967 0022 1800     		movs	r0, r3
 1968 0024 FFF7FEFF 		bl	CyBle_Start
 1969 0028 0300     		movs	r3, r0
 1970 002a 1A00     		movs	r2, r3
 1971 002c 474B     		ldr	r3, .L114+8
 1972 002e 1A80     		strh	r2, [r3]
 659:main.c        ****     if(apiResult != CYBLE_ERROR_OK)
 1973              		.loc 1 659 0
 1974 0030 464B     		ldr	r3, .L114+8
 1975 0032 1B88     		ldrh	r3, [r3]
 1976 0034 002B     		cmp	r3, #0
 1977 0036 07D0     		beq	.L102
 660:main.c        ****     {
 661:main.c        ****         DBG_PRINTF("BLE启动失败: %d\r\n", apiResult);
 1978              		.loc 1 661 0
 1979 0038 444B     		ldr	r3, .L114+8
 1980 003a 1B88     		ldrh	r3, [r3]
 1981 003c 1A00     		movs	r2, r3
 1982 003e 444B     		ldr	r3, .L114+12
 1983 0040 1100     		movs	r1, r2
 1984 0042 1800     		movs	r0, r3
 1985 0044 FFF7FEFF 		bl	printf
 1986              	.L102:
 662:main.c        ****     }
 663:main.c        ****     
 664:main.c        ****     // 初始化SPI
 665:main.c        ****     SPI_1_Start();
ARM GAS  C:\Users\13740\AppData\Local\Temp\ccBqru7T.s 			page 51


 1987              		.loc 1 665 0
 1988 0048 FFF7FEFF 		bl	SPI_1_Start
 666:main.c        ****     CyDelay(10);
 1989              		.loc 1 666 0
 1990 004c 0A20     		movs	r0, #10
 1991 004e FFF7FEFF 		bl	CyDelay
 667:main.c        ****     
 668:main.c        ****     // 初始化AD5941
 669:main.c        ****     DBG_PRINTF("初始化AD5941...\r\n");
 1992              		.loc 1 669 0
 1993 0052 404B     		ldr	r3, .L114+16
 1994 0054 1800     		movs	r0, r3
 1995 0056 FFF7FEFF 		bl	puts
 670:main.c        ****     AD5941_Initialize();
 1996              		.loc 1 670 0
 1997 005a FFF7FEFF 		bl	AD5941_Initialize
 671:main.c        ****     
 672:main.c        ****     // 初始化控制引脚
 673:main.c        ****     DRUG_EN_1_Write(0);
 1998              		.loc 1 673 0
 1999 005e 0020     		movs	r0, #0
 2000 0060 FFF7FEFF 		bl	DRUG_EN_1_Write
 674:main.c        ****     STIM_EN_A_Write(0);
 2001              		.loc 1 674 0
 2002 0064 0020     		movs	r0, #0
 2003 0066 FFF7FEFF 		bl	STIM_EN_A_Write
 675:main.c        ****     AMP1_EN_Write(1);
 2004              		.loc 1 675 0
 2005 006a 0120     		movs	r0, #1
 2006 006c FFF7FEFF 		bl	AMP1_EN_Write
 676:main.c        ****     AMP2_EN_Write(1);
 2007              		.loc 1 676 0
 2008 0070 0120     		movs	r0, #1
 2009 0072 FFF7FEFF 		bl	AMP2_EN_Write
 677:main.c        ****     AMP3_EN_Write(1);
 2010              		.loc 1 677 0
 2011 0076 0120     		movs	r0, #1
 2012 0078 FFF7FEFF 		bl	AMP3_EN_Write
 678:main.c        ****     
 679:main.c        ****     // 启动定时器中断
 680:main.c        ****     CySysWdtSetInterruptCallback(CY_SYS_WDT_COUNTER2, Timer_Interrupt);
 2013              		.loc 1 680 0
 2014 007c 364B     		ldr	r3, .L114+20
 2015 007e 1900     		movs	r1, r3
 2016 0080 0220     		movs	r0, #2
 2017 0082 FFF7FEFF 		bl	CySysWdtSetInterruptCallback
 681:main.c        ****     CySysWdtEnableCounterIsr(CY_SYS_WDT_COUNTER2);
 2018              		.loc 1 681 0
 2019 0086 0220     		movs	r0, #2
 2020 0088 FFF7FEFF 		bl	CySysWdtEnableCounterIsr
 682:main.c        ****     
 683:main.c        ****     DBG_PRINTF("系统初始化完成\r\n\r\n");
 2021              		.loc 1 683 0
 2022 008c 334B     		ldr	r3, .L114+24
 2023 008e 1800     		movs	r0, r3
 2024 0090 FFF7FEFF 		bl	puts
 2025              	.L111:
ARM GAS  C:\Users\13740\AppData\Local\Temp\ccBqru7T.s 			page 52


 684:main.c        ****     
 685:main.c        ****     /***************************************************************************
 686:main.c        ****     * 主循环
 687:main.c        ****     ***************************************************************************/
 688:main.c        ****     while(1)
 689:main.c        ****     {
 690:main.c        ****         // 处理BLE事件
 691:main.c        ****         CyBle_ProcessEvents();
 2026              		.loc 1 691 0
 2027 0094 FFF7FEFF 		bl	CyBle_ProcessEvents
 692:main.c        ****         
 693:main.c        ****         // 低功耗管理
 694:main.c        ****         LowPowerImplementation();
 2028              		.loc 1 694 0
 2029 0098 FFF7FEFF 		bl	LowPowerImplementation
 695:main.c        ****         
 696:main.c        ****         // 每秒执行一次传感器测量
 697:main.c        ****         if(measurementFlag)
 2030              		.loc 1 697 0
 2031 009c 304B     		ldr	r3, .L114+28
 2032 009e 1B78     		ldrb	r3, [r3]
 2033 00a0 DBB2     		uxtb	r3, r3
 2034 00a2 002B     		cmp	r3, #0
 2035 00a4 42D0     		beq	.L103
 698:main.c        ****         {
 699:main.c        ****             measurementFlag = 0;
 2036              		.loc 1 699 0
 2037 00a6 2E4B     		ldr	r3, .L114+28
 2038 00a8 0022     		movs	r2, #0
 2039 00aa 1A70     		strb	r2, [r3]
 700:main.c        ****             
 701:main.c        ****             // 测量所有传感器
 702:main.c        ****             MeasureAllSensors();
 2040              		.loc 1 702 0
 2041 00ac FFF7FEFF 		bl	MeasureAllSensors
 703:main.c        ****             
 704:main.c        ****             // 每3秒发送一次数据（自动刷新）
 705:main.c        ****             if((mainTimer - lastSendTime) >= SEND_INTERVAL)
 2042              		.loc 1 705 0
 2043 00b0 2C4B     		ldr	r3, .L114+32
 2044 00b2 1A68     		ldr	r2, [r3]
 2045 00b4 2C4B     		ldr	r3, .L114+36
 2046 00b6 1B68     		ldr	r3, [r3]
 2047 00b8 D31A     		subs	r3, r2, r3
 2048 00ba 022B     		cmp	r3, #2
 2049 00bc 09D9     		bls	.L104
 706:main.c        ****             {
 707:main.c        ****                 lastSendTime = mainTimer;
 2050              		.loc 1 707 0
 2051 00be 294B     		ldr	r3, .L114+32
 2052 00c0 1A68     		ldr	r2, [r3]
 2053 00c2 294B     		ldr	r3, .L114+36
 2054 00c4 1A60     		str	r2, [r3]
 708:main.c        ****                 
 709:main.c        ****                 if(CyBle_GetState() == CYBLE_STATE_CONNECTED)
 2055              		.loc 1 709 0
 2056 00c6 294B     		ldr	r3, .L114+40
ARM GAS  C:\Users\13740\AppData\Local\Temp\ccBqru7T.s 			page 53


 2057 00c8 1B78     		ldrb	r3, [r3]
 2058 00ca 022B     		cmp	r3, #2
 2059 00cc 01D1     		bne	.L104
 710:main.c        ****                 {
 711:main.c        ****                     SendAllSensorDataViaBLE();  // 使用新的发送函数
 2060              		.loc 1 711 0
 2061 00ce FFF7FEFF 		bl	SendAllSensorDataViaBLE
 2062              	.L104:
 712:main.c        ****                 }
 713:main.c        ****             }
 714:main.c        ****             
 715:main.c        ****             // 智能治疗决策
 716:main.c        ****             // 1. 检测感染（温度升高或乳酸升高）
 717:main.c        ****             if(sensorData.temperature > 38.5 || sensorData.lactate > 5.0)
 2063              		.loc 1 717 0
 2064 00d2 274B     		ldr	r3, .L114+44
 2065 00d4 1B68     		ldr	r3, [r3]
 2066 00d6 2749     		ldr	r1, .L114+48
 2067 00d8 181C     		adds	r0, r3, #0
 2068 00da FFF7FEFF 		bl	__aeabi_fcmpgt
 2069 00de 031E     		subs	r3, r0, #0
 2070 00e0 07D1     		bne	.L105
 2071              		.loc 1 717 0 is_stmt 0 discriminator 1
 2072 00e2 234B     		ldr	r3, .L114+44
 2073 00e4 9B68     		ldr	r3, [r3, #8]
 2074 00e6 2449     		ldr	r1, .L114+52
 2075 00e8 181C     		adds	r0, r3, #0
 2076 00ea FFF7FEFF 		bl	__aeabi_fcmpgt
 2077 00ee 031E     		subs	r3, r0, #0
 2078 00f0 0DD0     		beq	.L106
 2079              	.L105:
 718:main.c        ****             {
 719:main.c        ****                 DBG_PRINTF("[警告] 检测到异常，启动药物释放\r\n");
 2080              		.loc 1 719 0 is_stmt 1
 2081 00f2 224B     		ldr	r3, .L114+56
 2082 00f4 1800     		movs	r0, r3
 2083 00f6 FFF7FEFF 		bl	puts
 720:main.c        ****                 ControlDrugRelease(1);
 2084              		.loc 1 720 0
 2085 00fa 0120     		movs	r0, #1
 2086 00fc FFF7FEFF 		bl	ControlDrugRelease
 721:main.c        ****                 CyDelay(10000);  // 释放10秒（实际应该是10分钟，这里缩短用于测
 2087              		.loc 1 721 0
 2088 0100 1F4B     		ldr	r3, .L114+60
 2089 0102 1800     		movs	r0, r3
 2090 0104 FFF7FEFF 		bl	CyDelay
 722:main.c        ****                 ControlDrugRelease(0);
 2091              		.loc 1 722 0
 2092 0108 0020     		movs	r0, #0
 2093 010a FFF7FEFF 		bl	ControlDrugRelease
 2094              	.L106:
 723:main.c        ****             }
 724:main.c        ****             
 725:main.c        ****             // 2. 促进愈合（电刺激）
 726:main.c        ****             if(sensorData.glucose > 10.0)
 2095              		.loc 1 726 0
 2096 010e 184B     		ldr	r3, .L114+44
ARM GAS  C:\Users\13740\AppData\Local\Temp\ccBqru7T.s 			page 54


 2097 0110 5B68     		ldr	r3, [r3, #4]
 2098 0112 1C49     		ldr	r1, .L114+64
 2099 0114 181C     		adds	r0, r3, #0
 2100 0116 FFF7FEFF 		bl	__aeabi_fcmpgt
 2101 011a 031E     		subs	r3, r0, #0
 2102 011c 03D0     		beq	.L113
 727:main.c        ****             {
 728:main.c        ****                 ControlElectricalStimulation(1);
 2103              		.loc 1 728 0
 2104 011e 0120     		movs	r0, #1
 2105 0120 FFF7FEFF 		bl	ControlElectricalStimulation
 2106 0124 02E0     		b	.L103
 2107              	.L113:
 729:main.c        ****             }
 730:main.c        ****             else
 731:main.c        ****             {
 732:main.c        ****                 ControlElectricalStimulation(0);
 2108              		.loc 1 732 0
 2109 0126 0020     		movs	r0, #0
 2110 0128 FFF7FEFF 		bl	ControlElectricalStimulation
 2111              	.L103:
 733:main.c        ****             }
 734:main.c        ****         }
 735:main.c        ****         
 736:main.c        ****         // Flash写入
 737:main.c        ****         if(cyBle_pendingFlashWrite != 0u)
 2112              		.loc 1 737 0
 2113 012c 164B     		ldr	r3, .L114+68
 2114 012e 1B78     		ldrb	r3, [r3]
 2115 0130 002B     		cmp	r3, #0
 2116 0132 AFD0     		beq	.L111
 738:main.c        ****         {
 739:main.c        ****             apiResult = CyBle_StoreBondingData(0u);
 2117              		.loc 1 739 0
 2118 0134 0020     		movs	r0, #0
 2119 0136 FFF7FEFF 		bl	CyBle_StoreBondingData
 2120 013a 0300     		movs	r3, r0
 2121 013c 1A00     		movs	r2, r3
 2122 013e 034B     		ldr	r3, .L114+8
 2123 0140 1A80     		strh	r2, [r3]
 740:main.c        ****         }
 741:main.c        ****     }
 2124              		.loc 1 741 0
 2125 0142 A7E7     		b	.L111
 2126              	.L115:
 2127              		.align	2
 2128              	.L114:
 2129 0144 F0020000 		.word	.LC93
 2130 0148 00000000 		.word	AppCallBack
 2131 014c 00000000 		.word	apiResult
 2132 0150 00030000 		.word	.LC97
 2133 0154 18030000 		.word	.LC99
 2134 0158 00000000 		.word	Timer_Interrupt
 2135 015c 2C030000 		.word	.LC102
 2136 0160 00000000 		.word	measurementFlag
 2137 0164 00000000 		.word	mainTimer
 2138 0168 00000000 		.word	lastSendTime
ARM GAS  C:\Users\13740\AppData\Local\Temp\ccBqru7T.s 			page 55


 2139 016c 00000000 		.word	cyBle_state
 2140 0170 00000000 		.word	sensorData
 2141 0174 00001A42 		.word	1109000192
 2142 0178 0000A040 		.word	1084227584
 2143 017c 48030000 		.word	.LC109
 2144 0180 10270000 		.word	10000
 2145 0184 00002041 		.word	1092616192
 2146 0188 00000000 		.word	cyBle_pendingFlashWrite
 2147              		.cfi_endproc
 2148              	.LFE52:
 2149              		.size	main, .-main
 2150              		.section	.rodata
 2151 0377 00       		.align	2
 2152              	.LC113:
 2153 0378 E5B9BFE6 		.ascii	"\345\271\277\346\222\255\345\220\257\345\212\250\345"
 2153      92ADE590 
 2153      AFE58AA8 
 2153      E5
 2154 0385 A4B1E8B4 		.ascii	"\244\261\350\264\245: %d\015\012\000"
 2154      A53A2025 
 2154      640D0A00 
 2155 0391 000000   		.align	2
 2156              	.LC115:
 2157 0394 E5BC80E5 		.ascii	"\345\274\200\345\247\213\345\271\277\346\222\255, \345"
 2157      A78BE5B9 
 2157      BFE692AD 
 2157      2C20E5
 2158 03a3 9CB0E59D 		.ascii	"\234\260\345\235\200: \000"
 2158      803A2000 
 2159 03ab 00       		.align	2
 2160              	.LC117:
 2161 03ac 25322E32 		.ascii	"%2.2x\000"
 2161      7800
 2162 03b2 0000     		.align	2
 2163              	.LC119:
 2164 03b4 0D00     		.ascii	"\015\000"
 2165              		.section	.text.StartAdvertisement,"ax",%progbits
 2166              		.align	2
 2167              		.global	StartAdvertisement
 2168              		.code	16
 2169              		.thumb_func
 2170              		.type	StartAdvertisement, %function
 2171              	StartAdvertisement:
 2172              	.LFB53:
 742:main.c        **** }
 743:main.c        **** 
 744:main.c        **** /*******************************************************************************
 745:main.c        **** * Function Name: StartAdvertisement
 746:main.c        **** ********************************************************************************
 747:main.c        **** * Summary:
 748:main.c        **** *   启动BLE广播
 749:main.c        **** *******************************************************************************/
 750:main.c        **** void StartAdvertisement(void)
 751:main.c        **** {
 2173              		.loc 1 751 0
 2174              		.cfi_startproc
 2175              		@ args = 0, pretend = 0, frame = 16
ARM GAS  C:\Users\13740\AppData\Local\Temp\ccBqru7T.s 			page 56


 2176              		@ frame_needed = 1, uses_anonymous_args = 0
 2177 0000 80B5     		push	{r7, lr}
 2178              		.cfi_def_cfa_offset 8
 2179              		.cfi_offset 7, -8
 2180              		.cfi_offset 14, -4
 2181 0002 84B0     		sub	sp, sp, #16
 2182              		.cfi_def_cfa_offset 24
 2183 0004 00AF     		add	r7, sp, #0
 2184              		.cfi_def_cfa_register 7
 752:main.c        ****     uint16 i;
 753:main.c        ****     CYBLE_GAP_BD_ADDR_T localAddr;
 754:main.c        ****     
 755:main.c        ****     apiResult = CyBle_GappStartAdvertisement(CYBLE_ADVERTISING_FAST);
 2185              		.loc 1 755 0
 2186 0006 0020     		movs	r0, #0
 2187 0008 FFF7FEFF 		bl	CyBle_GappStartAdvertisement
 2188 000c 0300     		movs	r3, r0
 2189 000e 1A00     		movs	r2, r3
 2190 0010 1F4B     		ldr	r3, .L122
 2191 0012 1A80     		strh	r2, [r3]
 756:main.c        ****     if(apiResult != CYBLE_ERROR_OK)
 2192              		.loc 1 756 0
 2193 0014 1E4B     		ldr	r3, .L122
 2194 0016 1B88     		ldrh	r3, [r3]
 2195 0018 002B     		cmp	r3, #0
 2196 001a 08D0     		beq	.L117
 757:main.c        ****     {
 758:main.c        ****         DBG_PRINTF("广播启动失败: %d\r\n", apiResult);
 2197              		.loc 1 758 0
 2198 001c 1C4B     		ldr	r3, .L122
 2199 001e 1B88     		ldrh	r3, [r3]
 2200 0020 1A00     		movs	r2, r3
 2201 0022 1C4B     		ldr	r3, .L122+4
 2202 0024 1100     		movs	r1, r2
 2203 0026 1800     		movs	r0, r3
 2204 0028 FFF7FEFF 		bl	printf
 759:main.c        ****     }
 760:main.c        ****     else
 761:main.c        ****     {
 762:main.c        ****         DBG_PRINTF("开始广播, 地址: ");
 763:main.c        ****         localAddr.type = 0u;
 764:main.c        ****         CyBle_GetDeviceAddress(&localAddr);
 765:main.c        ****         for(i = CYBLE_GAP_BD_ADDR_SIZE; i > 0u; i--)
 766:main.c        ****         {
 767:main.c        ****             DBG_PRINTF("%2.2x", localAddr.bdAddr[i-1]);
 768:main.c        ****         }
 769:main.c        ****         DBG_PRINTF("\r\n");
 770:main.c        ****     }
 771:main.c        **** }
 2205              		.loc 1 771 0
 2206 002c 2BE0     		b	.L121
 2207              	.L117:
 762:main.c        ****         localAddr.type = 0u;
 2208              		.loc 1 762 0
 2209 002e 1A4B     		ldr	r3, .L122+8
 2210 0030 1800     		movs	r0, r3
 2211 0032 FFF7FEFF 		bl	printf
ARM GAS  C:\Users\13740\AppData\Local\Temp\ccBqru7T.s 			page 57


 763:main.c        ****         CyBle_GetDeviceAddress(&localAddr);
 2212              		.loc 1 763 0
 2213 0036 3B1D     		adds	r3, r7, #4
 2214 0038 0022     		movs	r2, #0
 2215 003a 9A71     		strb	r2, [r3, #6]
 764:main.c        ****         for(i = CYBLE_GAP_BD_ADDR_SIZE; i > 0u; i--)
 2216              		.loc 1 764 0
 2217 003c 3B1D     		adds	r3, r7, #4
 2218 003e 1800     		movs	r0, r3
 2219 0040 FFF7FEFF 		bl	CyBle_GetDeviceAddress
 765:main.c        ****         {
 2220              		.loc 1 765 0
 2221 0044 0E23     		movs	r3, #14
 2222 0046 FB18     		adds	r3, r7, r3
 2223 0048 0622     		movs	r2, #6
 2224 004a 1A80     		strh	r2, [r3]
 2225 004c 12E0     		b	.L119
 2226              	.L120:
 767:main.c        ****         }
 2227              		.loc 1 767 0 discriminator 3
 2228 004e 0E23     		movs	r3, #14
 2229 0050 FB18     		adds	r3, r7, r3
 2230 0052 1B88     		ldrh	r3, [r3]
 2231 0054 013B     		subs	r3, r3, #1
 2232 0056 3A1D     		adds	r2, r7, #4
 2233 0058 D35C     		ldrb	r3, [r2, r3]
 2234 005a 1A00     		movs	r2, r3
 2235 005c 0F4B     		ldr	r3, .L122+12
 2236 005e 1100     		movs	r1, r2
 2237 0060 1800     		movs	r0, r3
 2238 0062 FFF7FEFF 		bl	printf
 765:main.c        ****         {
 2239              		.loc 1 765 0 discriminator 3
 2240 0066 0E23     		movs	r3, #14
 2241 0068 FB18     		adds	r3, r7, r3
 2242 006a 1A88     		ldrh	r2, [r3]
 2243 006c 0E23     		movs	r3, #14
 2244 006e FB18     		adds	r3, r7, r3
 2245 0070 013A     		subs	r2, r2, #1
 2246 0072 1A80     		strh	r2, [r3]
 2247              	.L119:
 765:main.c        ****         {
 2248              		.loc 1 765 0 is_stmt 0 discriminator 1
 2249 0074 0E23     		movs	r3, #14
 2250 0076 FB18     		adds	r3, r7, r3
 2251 0078 1B88     		ldrh	r3, [r3]
 2252 007a 002B     		cmp	r3, #0
 2253 007c E7D1     		bne	.L120
 769:main.c        ****     }
 2254              		.loc 1 769 0 is_stmt 1
 2255 007e 084B     		ldr	r3, .L122+16
 2256 0080 1800     		movs	r0, r3
 2257 0082 FFF7FEFF 		bl	puts
 2258              	.L121:
 2259              		.loc 1 771 0
 2260 0086 C046     		nop
 2261 0088 BD46     		mov	sp, r7
ARM GAS  C:\Users\13740\AppData\Local\Temp\ccBqru7T.s 			page 58


 2262 008a 04B0     		add	sp, sp, #16
 2263              		@ sp needed
 2264 008c 80BD     		pop	{r7, pc}
 2265              	.L123:
 2266 008e C046     		.align	2
 2267              	.L122:
 2268 0090 00000000 		.word	apiResult
 2269 0094 78030000 		.word	.LC113
 2270 0098 94030000 		.word	.LC115
 2271 009c AC030000 		.word	.LC117
 2272 00a0 B4030000 		.word	.LC119
 2273              		.cfi_endproc
 2274              	.LFE53:
 2275              		.size	StartAdvertisement, .-StartAdvertisement
 2276              		.data
 2277              		.type	led.9721, %object
 2278              		.size	led.9721, 1
 2279              	led.9721:
 2280 0000 01       		.byte	1
 2281              		.text
 2282              	.Letext0:
 2283              		.file 2 "f:\\infineon\\psoc creator\\4.4\\psoc creator\\import\\gnu\\arm\\5.4.1\\arm-none-eabi\\in
 2284              		.file 3 "f:\\infineon\\psoc creator\\4.4\\psoc creator\\import\\gnu\\arm\\5.4.1\\arm-none-eabi\\in
 2285              		.file 4 "Generated_Source\\PSoC4/cytypes.h"
 2286              		.file 5 "Generated_Source\\PSoC4/CYBLE_Stack.h"
 2287              		.file 6 "Generated_Source\\PSoC4/CYBLE_StackGatt.h"
 2288              		.file 7 "Generated_Source\\PSoC4/CYBLE_StackGattServer.h"
 2289              		.file 8 "Generated_Source\\PSoC4/CYBLE_eventHandler.h"
 2290              		.file 9 "ad5940.h"
 2291              		.file 10 "Amperometric.h"
 2292              		.file 11 "Generated_Source\\PSoC4/CYBLE.h"
 2293              		.section	.debug_info,"",%progbits
 2294              	.Ldebug_info0:
 2295 0000 C30C0000 		.4byte	0xcc3
 2296 0004 0400     		.2byte	0x4
 2297 0006 00000000 		.4byte	.Ldebug_abbrev0
 2298 000a 04       		.byte	0x4
 2299 000b 01       		.uleb128 0x1
 2300 000c 5C020000 		.4byte	.LASF273
 2301 0010 0C       		.byte	0xc
 2302 0011 58000000 		.4byte	.LASF274
 2303 0015 25150000 		.4byte	.LASF275
 2304 0019 00000000 		.4byte	.Ldebug_ranges0+0
 2305 001d 00000000 		.4byte	0
 2306 0021 00000000 		.4byte	.Ldebug_line0
 2307 0025 02       		.uleb128 0x2
 2308 0026 01       		.byte	0x1
 2309 0027 06       		.byte	0x6
 2310 0028 FE140000 		.4byte	.LASF0
 2311 002c 03       		.uleb128 0x3
 2312 002d 58110000 		.4byte	.LASF4
 2313 0031 02       		.byte	0x2
 2314 0032 1D       		.byte	0x1d
 2315 0033 37000000 		.4byte	0x37
 2316 0037 02       		.uleb128 0x2
 2317 0038 01       		.byte	0x1
 2318 0039 08       		.byte	0x8
ARM GAS  C:\Users\13740\AppData\Local\Temp\ccBqru7T.s 			page 59


 2319 003a 58130000 		.4byte	.LASF1
 2320 003e 02       		.uleb128 0x2
 2321 003f 02       		.byte	0x2
 2322 0040 05       		.byte	0x5
 2323 0041 480F0000 		.4byte	.LASF2
 2324 0045 02       		.uleb128 0x2
 2325 0046 02       		.byte	0x2
 2326 0047 07       		.byte	0x7
 2327 0048 12150000 		.4byte	.LASF3
 2328 004c 03       		.uleb128 0x3
 2329 004d 1D020000 		.4byte	.LASF5
 2330 0051 02       		.byte	0x2
 2331 0052 3F       		.byte	0x3f
 2332 0053 57000000 		.4byte	0x57
 2333 0057 02       		.uleb128 0x2
 2334 0058 04       		.byte	0x4
 2335 0059 05       		.byte	0x5
 2336 005a 6A0F0000 		.4byte	.LASF6
 2337 005e 03       		.uleb128 0x3
 2338 005f 66130000 		.4byte	.LASF7
 2339 0063 02       		.byte	0x2
 2340 0064 41       		.byte	0x41
 2341 0065 69000000 		.4byte	0x69
 2342 0069 02       		.uleb128 0x2
 2343 006a 04       		.byte	0x4
 2344 006b 07       		.byte	0x7
 2345 006c C3110000 		.4byte	.LASF8
 2346 0070 02       		.uleb128 0x2
 2347 0071 08       		.byte	0x8
 2348 0072 05       		.byte	0x5
 2349 0073 670B0000 		.4byte	.LASF9
 2350 0077 02       		.uleb128 0x2
 2351 0078 08       		.byte	0x8
 2352 0079 07       		.byte	0x7
 2353 007a EF040000 		.4byte	.LASF10
 2354 007e 04       		.uleb128 0x4
 2355 007f 04       		.byte	0x4
 2356 0080 05       		.byte	0x5
 2357 0081 696E7400 		.ascii	"int\000"
 2358 0085 02       		.uleb128 0x2
 2359 0086 04       		.byte	0x4
 2360 0087 07       		.byte	0x7
 2361 0088 A8010000 		.4byte	.LASF11
 2362 008c 03       		.uleb128 0x3
 2363 008d 920A0000 		.4byte	.LASF12
 2364 0091 03       		.byte	0x3
 2365 0092 18       		.byte	0x18
 2366 0093 2C000000 		.4byte	0x2c
 2367 0097 03       		.uleb128 0x3
 2368 0098 85120000 		.4byte	.LASF13
 2369 009c 03       		.byte	0x3
 2370 009d 2C       		.byte	0x2c
 2371 009e 4C000000 		.4byte	0x4c
 2372 00a2 03       		.uleb128 0x3
 2373 00a3 08040000 		.4byte	.LASF14
 2374 00a7 03       		.byte	0x3
 2375 00a8 30       		.byte	0x30
ARM GAS  C:\Users\13740\AppData\Local\Temp\ccBqru7T.s 			page 60


 2376 00a9 5E000000 		.4byte	0x5e
 2377 00ad 05       		.uleb128 0x5
 2378 00ae AF150000 		.4byte	.LASF15
 2379 00b2 04       		.byte	0x4
 2380 00b3 D201     		.2byte	0x1d2
 2381 00b5 37000000 		.4byte	0x37
 2382 00b9 05       		.uleb128 0x5
 2383 00ba 490A0000 		.4byte	.LASF16
 2384 00be 04       		.byte	0x4
 2385 00bf D301     		.2byte	0x1d3
 2386 00c1 45000000 		.4byte	0x45
 2387 00c5 05       		.uleb128 0x5
 2388 00c6 F10C0000 		.4byte	.LASF17
 2389 00ca 04       		.byte	0x4
 2390 00cb D401     		.2byte	0x1d4
 2391 00cd 69000000 		.4byte	0x69
 2392 00d1 02       		.uleb128 0x2
 2393 00d2 04       		.byte	0x4
 2394 00d3 04       		.byte	0x4
 2395 00d4 49040000 		.4byte	.LASF18
 2396 00d8 02       		.uleb128 0x2
 2397 00d9 08       		.byte	0x8
 2398 00da 04       		.byte	0x4
 2399 00db 40070000 		.4byte	.LASF19
 2400 00df 02       		.uleb128 0x2
 2401 00e0 01       		.byte	0x1
 2402 00e1 08       		.byte	0x8
 2403 00e2 6F090000 		.4byte	.LASF20
 2404 00e6 06       		.uleb128 0x6
 2405 00e7 AD000000 		.4byte	0xad
 2406 00eb 06       		.uleb128 0x6
 2407 00ec C5000000 		.4byte	0xc5
 2408 00f0 02       		.uleb128 0x2
 2409 00f1 08       		.byte	0x8
 2410 00f2 04       		.byte	0x4
 2411 00f3 1A0E0000 		.4byte	.LASF21
 2412 00f7 02       		.uleb128 0x2
 2413 00f8 04       		.byte	0x4
 2414 00f9 07       		.byte	0x7
 2415 00fa FB0E0000 		.4byte	.LASF22
 2416 00fe 07       		.uleb128 0x7
 2417 00ff 04       		.byte	0x4
 2418 0100 08       		.uleb128 0x8
 2419 0101 01       		.byte	0x1
 2420 0102 37000000 		.4byte	0x37
 2421 0106 05       		.byte	0x5
 2422 0107 4D01     		.2byte	0x14d
 2423 0109 BE020000 		.4byte	0x2be
 2424 010d 09       		.uleb128 0x9
 2425 010e B8130000 		.4byte	.LASF23
 2426 0112 00       		.byte	0
 2427 0113 09       		.uleb128 0x9
 2428 0114 360A0000 		.4byte	.LASF24
 2429 0118 01       		.byte	0x1
 2430 0119 09       		.uleb128 0x9
 2431 011a BD0E0000 		.4byte	.LASF25
 2432 011e 02       		.byte	0x2
ARM GAS  C:\Users\13740\AppData\Local\Temp\ccBqru7T.s 			page 61


 2433 011f 09       		.uleb128 0x9
 2434 0120 8F010000 		.4byte	.LASF26
 2435 0124 03       		.byte	0x3
 2436 0125 09       		.uleb128 0x9
 2437 0126 43090000 		.4byte	.LASF27
 2438 012a 04       		.byte	0x4
 2439 012b 09       		.uleb128 0x9
 2440 012c 77040000 		.4byte	.LASF28
 2441 0130 05       		.byte	0x5
 2442 0131 09       		.uleb128 0x9
 2443 0132 FA120000 		.4byte	.LASF29
 2444 0136 06       		.byte	0x6
 2445 0137 09       		.uleb128 0x9
 2446 0138 6C100000 		.4byte	.LASF30
 2447 013c 20       		.byte	0x20
 2448 013d 09       		.uleb128 0x9
 2449 013e 72000000 		.4byte	.LASF31
 2450 0142 21       		.byte	0x21
 2451 0143 09       		.uleb128 0x9
 2452 0144 05030000 		.4byte	.LASF32
 2453 0148 22       		.byte	0x22
 2454 0149 09       		.uleb128 0x9
 2455 014a 22120000 		.4byte	.LASF33
 2456 014e 23       		.byte	0x23
 2457 014f 09       		.uleb128 0x9
 2458 0150 E0060000 		.4byte	.LASF34
 2459 0154 24       		.byte	0x24
 2460 0155 09       		.uleb128 0x9
 2461 0156 E0120000 		.4byte	.LASF35
 2462 015a 25       		.byte	0x25
 2463 015b 09       		.uleb128 0x9
 2464 015c B90C0000 		.4byte	.LASF36
 2465 0160 26       		.byte	0x26
 2466 0161 09       		.uleb128 0x9
 2467 0162 3B140000 		.4byte	.LASF37
 2468 0166 27       		.byte	0x27
 2469 0167 09       		.uleb128 0x9
 2470 0168 62110000 		.4byte	.LASF38
 2471 016c 28       		.byte	0x28
 2472 016d 09       		.uleb128 0x9
 2473 016e CF0E0000 		.4byte	.LASF39
 2474 0172 29       		.byte	0x29
 2475 0173 09       		.uleb128 0x9
 2476 0174 9A030000 		.4byte	.LASF40
 2477 0178 2A       		.byte	0x2a
 2478 0179 09       		.uleb128 0x9
 2479 017a 4A160000 		.4byte	.LASF41
 2480 017e 2B       		.byte	0x2b
 2481 017f 09       		.uleb128 0x9
 2482 0180 FE110000 		.4byte	.LASF42
 2483 0184 2C       		.byte	0x2c
 2484 0185 09       		.uleb128 0x9
 2485 0186 C3030000 		.4byte	.LASF43
 2486 018a 2D       		.byte	0x2d
 2487 018b 09       		.uleb128 0x9
 2488 018c 25130000 		.4byte	.LASF44
 2489 0190 2E       		.byte	0x2e
ARM GAS  C:\Users\13740\AppData\Local\Temp\ccBqru7T.s 			page 62


 2490 0191 09       		.uleb128 0x9
 2491 0192 3C0D0000 		.4byte	.LASF45
 2492 0196 2F       		.byte	0x2f
 2493 0197 09       		.uleb128 0x9
 2494 0198 D70A0000 		.4byte	.LASF46
 2495 019c 30       		.byte	0x30
 2496 019d 09       		.uleb128 0x9
 2497 019e AC0F0000 		.4byte	.LASF47
 2498 01a2 31       		.byte	0x31
 2499 01a3 09       		.uleb128 0x9
 2500 01a4 B2100000 		.4byte	.LASF48
 2501 01a8 32       		.byte	0x32
 2502 01a9 09       		.uleb128 0x9
 2503 01aa DF0D0000 		.4byte	.LASF49
 2504 01ae 33       		.byte	0x33
 2505 01af 09       		.uleb128 0x9
 2506 01b0 B0140000 		.4byte	.LASF50
 2507 01b4 34       		.byte	0x34
 2508 01b5 09       		.uleb128 0x9
 2509 01b6 04010000 		.4byte	.LASF51
 2510 01ba 35       		.byte	0x35
 2511 01bb 09       		.uleb128 0x9
 2512 01bc C8140000 		.4byte	.LASF52
 2513 01c0 36       		.byte	0x36
 2514 01c1 09       		.uleb128 0x9
 2515 01c2 E5130000 		.4byte	.LASF53
 2516 01c6 37       		.byte	0x37
 2517 01c7 09       		.uleb128 0x9
 2518 01c8 910B0000 		.4byte	.LASF54
 2519 01cc 40       		.byte	0x40
 2520 01cd 09       		.uleb128 0x9
 2521 01ce 830F0000 		.4byte	.LASF55
 2522 01d2 41       		.byte	0x41
 2523 01d3 09       		.uleb128 0x9
 2524 01d4 C6000000 		.4byte	.LASF56
 2525 01d8 42       		.byte	0x42
 2526 01d9 09       		.uleb128 0x9
 2527 01da 2F010000 		.4byte	.LASF57
 2528 01de 43       		.byte	0x43
 2529 01df 09       		.uleb128 0x9
 2530 01e0 78070000 		.4byte	.LASF58
 2531 01e4 44       		.byte	0x44
 2532 01e5 09       		.uleb128 0x9
 2533 01e6 D3100000 		.4byte	.LASF59
 2534 01ea 45       		.byte	0x45
 2535 01eb 09       		.uleb128 0x9
 2536 01ec 270F0000 		.4byte	.LASF60
 2537 01f0 46       		.byte	0x46
 2538 01f1 09       		.uleb128 0x9
 2539 01f2 7F050000 		.4byte	.LASF61
 2540 01f6 47       		.byte	0x47
 2541 01f7 09       		.uleb128 0x9
 2542 01f8 E4050000 		.4byte	.LASF62
 2543 01fc 48       		.byte	0x48
 2544 01fd 09       		.uleb128 0x9
 2545 01fe 4D070000 		.4byte	.LASF63
 2546 0202 49       		.byte	0x49
ARM GAS  C:\Users\13740\AppData\Local\Temp\ccBqru7T.s 			page 63


 2547 0203 09       		.uleb128 0x9
 2548 0204 02080000 		.4byte	.LASF64
 2549 0208 4A       		.byte	0x4a
 2550 0209 09       		.uleb128 0x9
 2551 020a D00F0000 		.4byte	.LASF65
 2552 020e 4B       		.byte	0x4b
 2553 020f 09       		.uleb128 0x9
 2554 0210 0E050000 		.4byte	.LASF66
 2555 0214 4C       		.byte	0x4c
 2556 0215 09       		.uleb128 0x9
 2557 0216 2F040000 		.4byte	.LASF67
 2558 021a 4D       		.byte	0x4d
 2559 021b 09       		.uleb128 0x9
 2560 021c FF010000 		.4byte	.LASF68
 2561 0220 4E       		.byte	0x4e
 2562 0221 09       		.uleb128 0x9
 2563 0222 73140000 		.4byte	.LASF69
 2564 0226 4F       		.byte	0x4f
 2565 0227 09       		.uleb128 0x9
 2566 0228 20060000 		.4byte	.LASF70
 2567 022c 50       		.byte	0x50
 2568 022d 09       		.uleb128 0x9
 2569 022e 3F060000 		.4byte	.LASF71
 2570 0232 51       		.byte	0x51
 2571 0233 09       		.uleb128 0x9
 2572 0234 31000000 		.4byte	.LASF72
 2573 0238 52       		.byte	0x52
 2574 0239 09       		.uleb128 0x9
 2575 023a 260E0000 		.4byte	.LASF73
 2576 023e 53       		.byte	0x53
 2577 023f 09       		.uleb128 0x9
 2578 0240 CF150000 		.4byte	.LASF74
 2579 0244 54       		.byte	0x54
 2580 0245 09       		.uleb128 0x9
 2581 0246 4D010000 		.4byte	.LASF75
 2582 024a 55       		.byte	0x55
 2583 024b 09       		.uleb128 0x9
 2584 024c 0F000000 		.4byte	.LASF76
 2585 0250 56       		.byte	0x56
 2586 0251 09       		.uleb128 0x9
 2587 0252 B7060000 		.4byte	.LASF77
 2588 0256 57       		.byte	0x57
 2589 0257 09       		.uleb128 0x9
 2590 0258 48120000 		.4byte	.LASF78
 2591 025c 58       		.byte	0x58
 2592 025d 09       		.uleb128 0x9
 2593 025e 6C0A0000 		.4byte	.LASF79
 2594 0262 70       		.byte	0x70
 2595 0263 09       		.uleb128 0x9
 2596 0264 3E080000 		.4byte	.LASF80
 2597 0268 71       		.byte	0x71
 2598 0269 09       		.uleb128 0x9
 2599 026a 93040000 		.4byte	.LASF81
 2600 026e 72       		.byte	0x72
 2601 026f 09       		.uleb128 0x9
 2602 0270 8F110000 		.4byte	.LASF82
 2603 0274 73       		.byte	0x73
ARM GAS  C:\Users\13740\AppData\Local\Temp\ccBqru7T.s 			page 64


 2604 0275 09       		.uleb128 0x9
 2605 0276 97080000 		.4byte	.LASF83
 2606 027a 74       		.byte	0x74
 2607 027b 09       		.uleb128 0x9
 2608 027c F80F0000 		.4byte	.LASF84
 2609 0280 75       		.byte	0x75
 2610 0281 09       		.uleb128 0x9
 2611 0282 1A140000 		.4byte	.LASF85
 2612 0286 76       		.byte	0x76
 2613 0287 09       		.uleb128 0x9
 2614 0288 040D0000 		.4byte	.LASF86
 2615 028c 77       		.byte	0x77
 2616 028d 09       		.uleb128 0x9
 2617 028e 64080000 		.4byte	.LASF87
 2618 0292 78       		.byte	0x78
 2619 0293 09       		.uleb128 0x9
 2620 0294 D4010000 		.4byte	.LASF88
 2621 0298 79       		.byte	0x79
 2622 0299 09       		.uleb128 0x9
 2623 029a AC120000 		.4byte	.LASF89
 2624 029e 7A       		.byte	0x7a
 2625 029f 09       		.uleb128 0x9
 2626 02a0 11040000 		.4byte	.LASF90
 2627 02a4 FA       		.byte	0xfa
 2628 02a5 09       		.uleb128 0x9
 2629 02a6 B5010000 		.4byte	.LASF91
 2630 02aa FB       		.byte	0xfb
 2631 02ab 09       		.uleb128 0x9
 2632 02ac 8C0D0000 		.4byte	.LASF92
 2633 02b0 FC       		.byte	0xfc
 2634 02b1 09       		.uleb128 0x9
 2635 02b2 96070000 		.4byte	.LASF93
 2636 02b6 FD       		.byte	0xfd
 2637 02b7 09       		.uleb128 0x9
 2638 02b8 9E0F0000 		.4byte	.LASF94
 2639 02bc FF       		.byte	0xff
 2640 02bd 00       		.byte	0
 2641 02be 08       		.uleb128 0x8
 2642 02bf 02       		.byte	0x2
 2643 02c0 45000000 		.4byte	0x45
 2644 02c4 05       		.byte	0x5
 2645 02c5 0204     		.2byte	0x402
 2646 02c7 97030000 		.4byte	0x397
 2647 02cb 09       		.uleb128 0x9
 2648 02cc B5150000 		.4byte	.LASF95
 2649 02d0 00       		.byte	0
 2650 02d1 09       		.uleb128 0x9
 2651 02d2 4E100000 		.4byte	.LASF96
 2652 02d6 01       		.byte	0x1
 2653 02d7 09       		.uleb128 0x9
 2654 02d8 71010000 		.4byte	.LASF97
 2655 02dc 02       		.byte	0x2
 2656 02dd 09       		.uleb128 0x9
 2657 02de E0080000 		.4byte	.LASF98
 2658 02e2 03       		.byte	0x3
 2659 02e3 09       		.uleb128 0x9
 2660 02e4 D0090000 		.4byte	.LASF99
ARM GAS  C:\Users\13740\AppData\Local\Temp\ccBqru7T.s 			page 65


 2661 02e8 04       		.byte	0x4
 2662 02e9 09       		.uleb128 0x9
 2663 02ea 20080000 		.4byte	.LASF100
 2664 02ee 05       		.byte	0x5
 2665 02ef 09       		.uleb128 0x9
 2666 02f0 6B120000 		.4byte	.LASF101
 2667 02f4 06       		.byte	0x6
 2668 02f5 09       		.uleb128 0x9
 2669 02f6 27020000 		.4byte	.LASF102
 2670 02fa 07       		.byte	0x7
 2671 02fb 09       		.uleb128 0x9
 2672 02fc 870E0000 		.4byte	.LASF103
 2673 0300 08       		.byte	0x8
 2674 0301 09       		.uleb128 0x9
 2675 0302 94000000 		.4byte	.LASF104
 2676 0306 09       		.byte	0x9
 2677 0307 09       		.uleb128 0x9
 2678 0308 470E0000 		.4byte	.LASF105
 2679 030c 0A       		.byte	0xa
 2680 030d 09       		.uleb128 0x9
 2681 030e FC060000 		.4byte	.LASF106
 2682 0312 0B       		.byte	0xb
 2683 0313 09       		.uleb128 0x9
 2684 0314 58090000 		.4byte	.LASF107
 2685 0318 0C       		.byte	0xc
 2686 0319 09       		.uleb128 0x9
 2687 031a 770C0000 		.4byte	.LASF108
 2688 031e 0D       		.byte	0xd
 2689 031f 09       		.uleb128 0x9
 2690 0320 D5110000 		.4byte	.LASF109
 2691 0324 0E       		.byte	0xe
 2692 0325 09       		.uleb128 0x9
 2693 0326 B10D0000 		.4byte	.LASF110
 2694 032a 0F       		.byte	0xf
 2695 032b 09       		.uleb128 0x9
 2696 032c 250C0000 		.4byte	.LASF111
 2697 0330 10       		.byte	0x10
 2698 0331 09       		.uleb128 0x9
 2699 0332 34110000 		.4byte	.LASF112
 2700 0336 11       		.byte	0x11
 2701 0337 09       		.uleb128 0x9
 2702 0338 8C150000 		.4byte	.LASF113
 2703 033c 12       		.byte	0x12
 2704 033d 09       		.uleb128 0x9
 2705 033e B70B0000 		.4byte	.LASF114
 2706 0342 13       		.byte	0x13
 2707 0343 09       		.uleb128 0x9
 2708 0344 9A0A0000 		.4byte	.LASF115
 2709 0348 27       		.byte	0x27
 2710 0349 09       		.uleb128 0x9
 2711 034a A3090000 		.4byte	.LASF116
 2712 034e 28       		.byte	0x28
 2713 034f 09       		.uleb128 0x9
 2714 0350 F9090000 		.4byte	.LASF117
 2715 0354 29       		.byte	0x29
 2716 0355 09       		.uleb128 0x9
 2717 0356 A9000000 		.4byte	.LASF118
ARM GAS  C:\Users\13740\AppData\Local\Temp\ccBqru7T.s 			page 66


 2718 035a 2A       		.byte	0x2a
 2719 035b 09       		.uleb128 0x9
 2720 035c 05090000 		.4byte	.LASF119
 2721 0360 2B       		.byte	0x2b
 2722 0361 09       		.uleb128 0x9
 2723 0362 A50E0000 		.4byte	.LASF120
 2724 0366 2C       		.byte	0x2c
 2725 0367 09       		.uleb128 0x9
 2726 0368 70150000 		.4byte	.LASF121
 2727 036c FE       		.byte	0xfe
 2728 036d 09       		.uleb128 0x9
 2729 036e F80B0000 		.4byte	.LASF122
 2730 0372 FF       		.byte	0xff
 2731 0373 0A       		.uleb128 0xa
 2732 0374 230B0000 		.4byte	.LASF123
 2733 0378 0001     		.2byte	0x100
 2734 037a 0A       		.uleb128 0xa
 2735 037b 1C070000 		.4byte	.LASF124
 2736 037f 0101     		.2byte	0x101
 2737 0381 0A       		.uleb128 0xa
 2738 0382 040F0000 		.4byte	.LASF125
 2739 0386 0201     		.2byte	0x102
 2740 0388 0A       		.uleb128 0xa
 2741 0389 44030000 		.4byte	.LASF126
 2742 038d 0301     		.2byte	0x103
 2743 038f 0A       		.uleb128 0xa
 2744 0390 3C0B0000 		.4byte	.LASF127
 2745 0394 0401     		.2byte	0x104
 2746 0396 00       		.byte	0
 2747 0397 05       		.uleb128 0x5
 2748 0398 9E0D0000 		.4byte	.LASF128
 2749 039c 05       		.byte	0x5
 2750 039d 7104     		.2byte	0x471
 2751 039f BE020000 		.4byte	0x2be
 2752 03a3 08       		.uleb128 0x8
 2753 03a4 01       		.byte	0x1
 2754 03a5 37000000 		.4byte	0x37
 2755 03a9 05       		.byte	0x5
 2756 03aa 7504     		.2byte	0x475
 2757 03ac CF030000 		.4byte	0x3cf
 2758 03b0 09       		.uleb128 0x9
 2759 03b1 D4040000 		.4byte	.LASF129
 2760 03b5 01       		.byte	0x1
 2761 03b6 09       		.uleb128 0x9
 2762 03b7 F0150000 		.4byte	.LASF130
 2763 03bb 02       		.byte	0x2
 2764 03bc 09       		.uleb128 0x9
 2765 03bd 90100000 		.4byte	.LASF131
 2766 03c1 03       		.byte	0x3
 2767 03c2 09       		.uleb128 0x9
 2768 03c3 CF130000 		.4byte	.LASF132
 2769 03c7 04       		.byte	0x4
 2770 03c8 09       		.uleb128 0x9
 2771 03c9 780D0000 		.4byte	.LASF133
 2772 03cd FF       		.byte	0xff
 2773 03ce 00       		.byte	0
 2774 03cf 05       		.uleb128 0x5
ARM GAS  C:\Users\13740\AppData\Local\Temp\ccBqru7T.s 			page 67


 2775 03d0 44020000 		.4byte	.LASF134
 2776 03d4 05       		.byte	0x5
 2777 03d5 9104     		.2byte	0x491
 2778 03d7 A3030000 		.4byte	0x3a3
 2779 03db 08       		.uleb128 0x8
 2780 03dc 01       		.byte	0x1
 2781 03dd 37000000 		.4byte	0x37
 2782 03e1 05       		.byte	0x5
 2783 03e2 9504     		.2byte	0x495
 2784 03e4 19040000 		.4byte	0x419
 2785 03e8 09       		.uleb128 0x9
 2786 03e9 13160000 		.4byte	.LASF135
 2787 03ed 01       		.byte	0x1
 2788 03ee 09       		.uleb128 0x9
 2789 03ef 2C160000 		.4byte	.LASF136
 2790 03f3 02       		.byte	0x2
 2791 03f4 09       		.uleb128 0x9
 2792 03f5 9D050000 		.4byte	.LASF137
 2793 03f9 03       		.byte	0x3
 2794 03fa 09       		.uleb128 0x9
 2795 03fb 19100000 		.4byte	.LASF138
 2796 03ff 04       		.byte	0x4
 2797 0400 09       		.uleb128 0x9
 2798 0401 88130000 		.4byte	.LASF139
 2799 0405 05       		.byte	0x5
 2800 0406 09       		.uleb128 0x9
 2801 0407 750B0000 		.4byte	.LASF140
 2802 040b 06       		.byte	0x6
 2803 040c 09       		.uleb128 0x9
 2804 040d 04110000 		.4byte	.LASF141
 2805 0411 07       		.byte	0x7
 2806 0412 09       		.uleb128 0x9
 2807 0413 6D0E0000 		.4byte	.LASF142
 2808 0417 FF       		.byte	0xff
 2809 0418 00       		.byte	0
 2810 0419 0B       		.uleb128 0xb
 2811 041a 07       		.byte	0x7
 2812 041b 05       		.byte	0x5
 2813 041c 3F05     		.2byte	0x53f
 2814 041e 3D040000 		.4byte	0x43d
 2815 0422 0C       		.uleb128 0xc
 2816 0423 BC110000 		.4byte	.LASF143
 2817 0427 05       		.byte	0x5
 2818 0428 4205     		.2byte	0x542
 2819 042a 3D040000 		.4byte	0x43d
 2820 042e 00       		.byte	0
 2821 042f 0C       		.uleb128 0xc
 2822 0430 20130000 		.4byte	.LASF144
 2823 0434 05       		.byte	0x5
 2824 0435 4405     		.2byte	0x544
 2825 0437 AD000000 		.4byte	0xad
 2826 043b 06       		.byte	0x6
 2827 043c 00       		.byte	0
 2828 043d 0D       		.uleb128 0xd
 2829 043e AD000000 		.4byte	0xad
 2830 0442 4D040000 		.4byte	0x44d
 2831 0446 0E       		.uleb128 0xe
ARM GAS  C:\Users\13740\AppData\Local\Temp\ccBqru7T.s 			page 68


 2832 0447 F7000000 		.4byte	0xf7
 2833 044b 05       		.byte	0x5
 2834 044c 00       		.byte	0
 2835 044d 05       		.uleb128 0x5
 2836 044e 20110000 		.4byte	.LASF145
 2837 0452 05       		.byte	0x5
 2838 0453 4505     		.2byte	0x545
 2839 0455 19040000 		.4byte	0x419
 2840 0459 0F       		.uleb128 0xf
 2841 045a 04       		.byte	0x4
 2842 045b AD000000 		.4byte	0xad
 2843 045f 0D       		.uleb128 0xd
 2844 0460 AD000000 		.4byte	0xad
 2845 0464 6F040000 		.4byte	0x46f
 2846 0468 0E       		.uleb128 0xe
 2847 0469 F7000000 		.4byte	0xf7
 2848 046d 0F       		.byte	0xf
 2849 046e 00       		.byte	0
 2850 046f 05       		.uleb128 0x5
 2851 0470 500A0000 		.4byte	.LASF146
 2852 0474 06       		.byte	0x6
 2853 0475 8901     		.2byte	0x189
 2854 0477 B9000000 		.4byte	0xb9
 2855 047b 0B       		.uleb128 0xb
 2856 047c 02       		.byte	0x2
 2857 047d 06       		.byte	0x6
 2858 047e 9301     		.2byte	0x193
 2859 0480 9F040000 		.4byte	0x49f
 2860 0484 0C       		.uleb128 0xc
 2861 0485 E80C0000 		.4byte	.LASF147
 2862 0489 06       		.byte	0x6
 2863 048a 9A01     		.2byte	0x19a
 2864 048c AD000000 		.4byte	0xad
 2865 0490 00       		.byte	0
 2866 0491 0C       		.uleb128 0xc
 2867 0492 0D160000 		.4byte	.LASF148
 2868 0496 06       		.byte	0x6
 2869 0497 A001     		.2byte	0x1a0
 2870 0499 AD000000 		.4byte	0xad
 2871 049d 01       		.byte	0x1
 2872 049e 00       		.byte	0
 2873 049f 05       		.uleb128 0x5
 2874 04a0 6A060000 		.4byte	.LASF149
 2875 04a4 06       		.byte	0x6
 2876 04a5 A201     		.2byte	0x1a2
 2877 04a7 7B040000 		.4byte	0x47b
 2878 04ab 0B       		.uleb128 0xb
 2879 04ac 08       		.byte	0x8
 2880 04ad 06       		.byte	0x6
 2881 04ae BE01     		.2byte	0x1be
 2882 04b0 DC040000 		.4byte	0x4dc
 2883 04b4 10       		.uleb128 0x10
 2884 04b5 76616C00 		.ascii	"val\000"
 2885 04b9 06       		.byte	0x6
 2886 04ba C101     		.2byte	0x1c1
 2887 04bc 59040000 		.4byte	0x459
 2888 04c0 00       		.byte	0
ARM GAS  C:\Users\13740\AppData\Local\Temp\ccBqru7T.s 			page 69


 2889 04c1 10       		.uleb128 0x10
 2890 04c2 6C656E00 		.ascii	"len\000"
 2891 04c6 06       		.byte	0x6
 2892 04c7 C401     		.2byte	0x1c4
 2893 04c9 B9000000 		.4byte	0xb9
 2894 04cd 04       		.byte	0x4
 2895 04ce 0C       		.uleb128 0xc
 2896 04cf FA100000 		.4byte	.LASF150
 2897 04d3 06       		.byte	0x6
 2898 04d4 CB01     		.2byte	0x1cb
 2899 04d6 B9000000 		.4byte	0xb9
 2900 04da 06       		.byte	0x6
 2901 04db 00       		.byte	0
 2902 04dc 05       		.uleb128 0x5
 2903 04dd 150A0000 		.4byte	.LASF151
 2904 04e1 06       		.byte	0x6
 2905 04e2 CD01     		.2byte	0x1cd
 2906 04e4 AB040000 		.4byte	0x4ab
 2907 04e8 0B       		.uleb128 0xb
 2908 04e9 0C       		.byte	0xc
 2909 04ea 06       		.byte	0x6
 2910 04eb D001     		.2byte	0x1d0
 2911 04ed 0C050000 		.4byte	0x50c
 2912 04f1 0C       		.uleb128 0xc
 2913 04f2 0B060000 		.4byte	.LASF152
 2914 04f6 06       		.byte	0x6
 2915 04f7 D301     		.2byte	0x1d3
 2916 04f9 DC040000 		.4byte	0x4dc
 2917 04fd 00       		.byte	0
 2918 04fe 0C       		.uleb128 0xc
 2919 04ff D3070000 		.4byte	.LASF153
 2920 0503 06       		.byte	0x6
 2921 0504 D601     		.2byte	0x1d6
 2922 0506 6F040000 		.4byte	0x46f
 2923 050a 08       		.byte	0x8
 2924 050b 00       		.byte	0
 2925 050c 05       		.uleb128 0x5
 2926 050d 8D120000 		.4byte	.LASF154
 2927 0511 06       		.byte	0x6
 2928 0512 D801     		.2byte	0x1d8
 2929 0514 E8040000 		.4byte	0x4e8
 2930 0518 03       		.uleb128 0x3
 2931 0519 7E060000 		.4byte	.LASF155
 2932 051d 07       		.byte	0x7
 2933 051e 34       		.byte	0x34
 2934 051f 0C050000 		.4byte	0x50c
 2935 0523 08       		.uleb128 0x8
 2936 0524 01       		.byte	0x1
 2937 0525 37000000 		.4byte	0x37
 2938 0529 08       		.byte	0x8
 2939 052a 5008     		.2byte	0x850
 2940 052c 4F050000 		.4byte	0x54f
 2941 0530 09       		.uleb128 0x9
 2942 0531 33050000 		.4byte	.LASF156
 2943 0535 00       		.byte	0
 2944 0536 09       		.uleb128 0x9
 2945 0537 DF0B0000 		.4byte	.LASF157
ARM GAS  C:\Users\13740\AppData\Local\Temp\ccBqru7T.s 			page 70


 2946 053b 01       		.byte	0x1
 2947 053c 09       		.uleb128 0x9
 2948 053d B5050000 		.4byte	.LASF158
 2949 0541 02       		.byte	0x2
 2950 0542 09       		.uleb128 0x9
 2951 0543 7E160000 		.4byte	.LASF159
 2952 0547 03       		.byte	0x3
 2953 0548 09       		.uleb128 0x9
 2954 0549 230D0000 		.4byte	.LASF160
 2955 054d 04       		.byte	0x4
 2956 054e 00       		.byte	0
 2957 054f 05       		.uleb128 0x5
 2958 0550 B5080000 		.4byte	.LASF161
 2959 0554 08       		.byte	0x8
 2960 0555 5E08     		.2byte	0x85e
 2961 0557 23050000 		.4byte	0x523
 2962 055b 05       		.uleb128 0x5
 2963 055c 66150000 		.4byte	.LASF162
 2964 0560 09       		.byte	0x9
 2965 0561 7110     		.2byte	0x1071
 2966 0563 97000000 		.4byte	0x97
 2967 0567 08       		.uleb128 0x8
 2968 0568 01       		.byte	0x1
 2969 0569 37000000 		.4byte	0x37
 2970 056d 09       		.byte	0x9
 2971 056e 7710     		.2byte	0x1077
 2972 0570 81050000 		.4byte	0x581
 2973 0574 09       		.uleb128 0x9
 2974 0575 E10C0000 		.4byte	.LASF163
 2975 0579 00       		.byte	0
 2976 057a 09       		.uleb128 0x9
 2977 057b F3090000 		.4byte	.LASF164
 2978 057f 01       		.byte	0x1
 2979 0580 00       		.byte	0
 2980 0581 05       		.uleb128 0x5
 2981 0582 D60D0000 		.4byte	.LASF165
 2982 0586 09       		.byte	0x9
 2983 0587 7910     		.2byte	0x1079
 2984 0589 67050000 		.4byte	0x567
 2985 058d 0B       		.uleb128 0xb
 2986 058e 14       		.byte	0x14
 2987 058f 09       		.byte	0x9
 2988 0590 9B11     		.2byte	0x119b
 2989 0592 D8050000 		.4byte	0x5d8
 2990 0596 0C       		.uleb128 0xc
 2991 0597 47070000 		.4byte	.LASF166
 2992 059b 09       		.byte	0x9
 2993 059c 9D11     		.2byte	0x119d
 2994 059e A2000000 		.4byte	0xa2
 2995 05a2 00       		.byte	0
 2996 05a3 0C       		.uleb128 0xc
 2997 05a4 28050000 		.4byte	.LASF167
 2998 05a8 09       		.byte	0x9
 2999 05a9 9E11     		.2byte	0x119e
 3000 05ab A2000000 		.4byte	0xa2
 3001 05af 04       		.byte	0x4
 3002 05b0 0C       		.uleb128 0xc
ARM GAS  C:\Users\13740\AppData\Local\Temp\ccBqru7T.s 			page 71


 3003 05b1 060E0000 		.4byte	.LASF168
 3004 05b5 09       		.byte	0x9
 3005 05b6 9F11     		.2byte	0x119f
 3006 05b8 A2000000 		.4byte	0xa2
 3007 05bc 08       		.byte	0x8
 3008 05bd 0C       		.uleb128 0xc
 3009 05be 44100000 		.4byte	.LASF169
 3010 05c2 09       		.byte	0x9
 3011 05c3 A011     		.2byte	0x11a0
 3012 05c5 81050000 		.4byte	0x581
 3013 05c9 0C       		.byte	0xc
 3014 05ca 0C       		.uleb128 0xc
 3015 05cb 96160000 		.4byte	.LASF170
 3016 05cf 09       		.byte	0x9
 3017 05d0 A111     		.2byte	0x11a1
 3018 05d2 D8050000 		.4byte	0x5d8
 3019 05d6 10       		.byte	0x10
 3020 05d7 00       		.byte	0
 3021 05d8 0F       		.uleb128 0xf
 3022 05d9 04       		.byte	0x4
 3023 05da DE050000 		.4byte	0x5de
 3024 05de 11       		.uleb128 0x11
 3025 05df A2000000 		.4byte	0xa2
 3026 05e3 05       		.uleb128 0x5
 3027 05e4 DE070000 		.4byte	.LASF171
 3028 05e8 09       		.byte	0x9
 3029 05e9 A211     		.2byte	0x11a2
 3030 05eb 8D050000 		.4byte	0x58d
 3031 05ef 0B       		.uleb128 0xb
 3032 05f0 08       		.byte	0x8
 3033 05f1 09       		.byte	0x9
 3034 05f2 7312     		.2byte	0x1273
 3035 05f4 13060000 		.4byte	0x613
 3036 05f8 0C       		.uleb128 0xc
 3037 05f9 AD110000 		.4byte	.LASF172
 3038 05fd 09       		.byte	0x9
 3039 05fe 7512     		.2byte	0x1275
 3040 0600 D1000000 		.4byte	0xd1
 3041 0604 00       		.byte	0
 3042 0605 0C       		.uleb128 0xc
 3043 0606 02040000 		.4byte	.LASF173
 3044 060a 09       		.byte	0x9
 3045 060b 7612     		.2byte	0x1276
 3046 060d D1000000 		.4byte	0xd1
 3047 0611 04       		.byte	0x4
 3048 0612 00       		.byte	0
 3049 0613 05       		.uleb128 0x5
 3050 0614 CA0A0000 		.4byte	.LASF174
 3051 0618 09       		.byte	0x9
 3052 0619 7712     		.2byte	0x1277
 3053 061b EF050000 		.4byte	0x5ef
 3054 061f 12       		.uleb128 0x12
 3055 0620 A0       		.byte	0xa0
 3056 0621 0A       		.byte	0xa
 3057 0622 1F       		.byte	0x1f
 3058 0623 A8070000 		.4byte	0x7a8
 3059 0627 13       		.uleb128 0x13
ARM GAS  C:\Users\13740\AppData\Local\Temp\ccBqru7T.s 			page 72


 3060 0628 AF040000 		.4byte	.LASF175
 3061 062c 0A       		.byte	0xa
 3062 062d 22       		.byte	0x22
 3063 062e 81050000 		.4byte	0x581
 3064 0632 00       		.byte	0
 3065 0633 13       		.uleb128 0x13
 3066 0634 69160000 		.4byte	.LASF176
 3067 0638 0A       		.byte	0xa
 3068 0639 23       		.byte	0x23
 3069 063a A2000000 		.4byte	0xa2
 3070 063e 04       		.byte	0x4
 3071 063f 13       		.uleb128 0x13
 3072 0640 6E070000 		.4byte	.LASF177
 3073 0644 0A       		.byte	0xa
 3074 0645 24       		.byte	0x24
 3075 0646 A2000000 		.4byte	0xa2
 3076 064a 08       		.byte	0x8
 3077 064b 13       		.uleb128 0x13
 3078 064c 730F0000 		.4byte	.LASF178
 3079 0650 0A       		.byte	0xa
 3080 0651 25       		.byte	0x25
 3081 0652 A2000000 		.4byte	0xa2
 3082 0656 0C       		.byte	0xc
 3083 0657 13       		.uleb128 0x13
 3084 0658 5D0F0000 		.4byte	.LASF179
 3085 065c 0A       		.byte	0xa
 3086 065d 26       		.byte	0x26
 3087 065e A2000000 		.4byte	0xa2
 3088 0662 10       		.byte	0x10
 3089 0663 13       		.uleb128 0x13
 3090 0664 A6100000 		.4byte	.LASF180
 3091 0668 0A       		.byte	0xa
 3092 0669 29       		.byte	0x29
 3093 066a 81050000 		.4byte	0x581
 3094 066e 14       		.byte	0x14
 3095 066f 13       		.uleb128 0x13
 3096 0670 F7030000 		.4byte	.LASF181
 3097 0674 0A       		.byte	0xa
 3098 0675 2A       		.byte	0x2a
 3099 0676 D1000000 		.4byte	0xd1
 3100 067a 18       		.byte	0x18
 3101 067b 13       		.uleb128 0x13
 3102 067c 190C0000 		.4byte	.LASF182
 3103 0680 0A       		.byte	0xa
 3104 0681 2B       		.byte	0x2b
 3105 0682 D1000000 		.4byte	0xd1
 3106 0686 1C       		.byte	0x1c
 3107 0687 13       		.uleb128 0x13
 3108 0688 EC030000 		.4byte	.LASF183
 3109 068c 0A       		.byte	0xa
 3110 068d 2C       		.byte	0x2c
 3111 068e D1000000 		.4byte	0xd1
 3112 0692 20       		.byte	0x20
 3113 0693 13       		.uleb128 0x13
 3114 0694 38090000 		.4byte	.LASF184
 3115 0698 0A       		.byte	0xa
 3116 0699 2D       		.byte	0x2d
ARM GAS  C:\Users\13740\AppData\Local\Temp\ccBqru7T.s 			page 73


 3117 069a A2000000 		.4byte	0xa2
 3118 069e 24       		.byte	0x24
 3119 069f 13       		.uleb128 0x13
 3120 06a0 C3080000 		.4byte	.LASF185
 3121 06a4 0A       		.byte	0xa
 3122 06a5 2E       		.byte	0x2e
 3123 06a6 D1000000 		.4byte	0xd1
 3124 06aa 28       		.byte	0x28
 3125 06ab 13       		.uleb128 0x13
 3126 06ac EB070000 		.4byte	.LASF186
 3127 06b0 0A       		.byte	0xa
 3128 06b1 2F       		.byte	0x2f
 3129 06b2 97000000 		.4byte	0x97
 3130 06b6 2C       		.byte	0x2c
 3131 06b7 13       		.uleb128 0x13
 3132 06b8 E7040000 		.4byte	.LASF187
 3133 06bc 0A       		.byte	0xa
 3134 06bd 30       		.byte	0x30
 3135 06be D1000000 		.4byte	0xd1
 3136 06c2 30       		.byte	0x30
 3137 06c3 13       		.uleb128 0x13
 3138 06c4 84110000 		.4byte	.LASF188
 3139 06c8 0A       		.byte	0xa
 3140 06c9 31       		.byte	0x31
 3141 06ca D1000000 		.4byte	0xd1
 3142 06ce 34       		.byte	0x34
 3143 06cf 13       		.uleb128 0x13
 3144 06d0 5E030000 		.4byte	.LASF189
 3145 06d4 0A       		.byte	0xa
 3146 06d5 32       		.byte	0x32
 3147 06d6 A2000000 		.4byte	0xa2
 3148 06da 38       		.byte	0x38
 3149 06db 13       		.uleb128 0x13
 3150 06dc 39030000 		.4byte	.LASF190
 3151 06e0 0A       		.byte	0xa
 3152 06e1 33       		.byte	0x33
 3153 06e2 A2000000 		.4byte	0xa2
 3154 06e6 3C       		.byte	0x3c
 3155 06e7 13       		.uleb128 0x13
 3156 06e8 65040000 		.4byte	.LASF191
 3157 06ec 0A       		.byte	0xa
 3158 06ed 34       		.byte	0x34
 3159 06ee 8C000000 		.4byte	0x8c
 3160 06f2 40       		.byte	0x40
 3161 06f3 13       		.uleb128 0x13
 3162 06f4 610E0000 		.4byte	.LASF192
 3163 06f8 0A       		.byte	0xa
 3164 06f9 35       		.byte	0x35
 3165 06fa 8C000000 		.4byte	0x8c
 3166 06fe 41       		.byte	0x41
 3167 06ff 13       		.uleb128 0x13
 3168 0700 65030000 		.4byte	.LASF193
 3169 0704 0A       		.byte	0xa
 3170 0705 36       		.byte	0x36
 3171 0706 A2000000 		.4byte	0xa2
 3172 070a 44       		.byte	0x44
 3173 070b 13       		.uleb128 0x13
ARM GAS  C:\Users\13740\AppData\Local\Temp\ccBqru7T.s 			page 74


 3174 070c F5070000 		.4byte	.LASF194
 3175 0710 0A       		.byte	0xa
 3176 0711 37       		.byte	0x37
 3177 0712 A2000000 		.4byte	0xa2
 3178 0716 48       		.byte	0x48
 3179 0717 13       		.uleb128 0x13
 3180 0718 A7060000 		.4byte	.LASF195
 3181 071c 0A       		.byte	0xa
 3182 071d 38       		.byte	0x38
 3183 071e A2000000 		.4byte	0xa2
 3184 0722 4C       		.byte	0x4c
 3185 0723 13       		.uleb128 0x13
 3186 0724 0A150000 		.4byte	.LASF196
 3187 0728 0A       		.byte	0xa
 3188 0729 39       		.byte	0x39
 3189 072a A2000000 		.4byte	0xa2
 3190 072e 50       		.byte	0x50
 3191 072f 13       		.uleb128 0x13
 3192 0730 EC000000 		.4byte	.LASF197
 3193 0734 0A       		.byte	0xa
 3194 0735 3A       		.byte	0x3a
 3195 0736 13060000 		.4byte	0x613
 3196 073a 54       		.byte	0x54
 3197 073b 13       		.uleb128 0x13
 3198 073c 52000000 		.4byte	.LASF198
 3199 0740 0A       		.byte	0xa
 3200 0741 3B       		.byte	0x3b
 3201 0742 D1000000 		.4byte	0xd1
 3202 0746 5C       		.byte	0x5c
 3203 0747 13       		.uleb128 0x13
 3204 0748 520F0000 		.4byte	.LASF199
 3205 074c 0A       		.byte	0xa
 3206 074d 3C       		.byte	0x3c
 3207 074e D1000000 		.4byte	0xd1
 3208 0752 60       		.byte	0x60
 3209 0753 13       		.uleb128 0x13
 3210 0754 F80A0000 		.4byte	.LASF200
 3211 0758 0A       		.byte	0xa
 3212 0759 3D       		.byte	0x3d
 3213 075a 81050000 		.4byte	0x581
 3214 075e 64       		.byte	0x64
 3215 075f 13       		.uleb128 0x13
 3216 0760 89000000 		.4byte	.LASF201
 3217 0764 0A       		.byte	0xa
 3218 0765 3E       		.byte	0x3e
 3219 0766 D1000000 		.4byte	0xd1
 3220 076a 68       		.byte	0x68
 3221 076b 13       		.uleb128 0x13
 3222 076c CA080000 		.4byte	.LASF202
 3223 0770 0A       		.byte	0xa
 3224 0771 3F       		.byte	0x3f
 3225 0772 81050000 		.4byte	0x581
 3226 0776 6C       		.byte	0x6c
 3227 0777 13       		.uleb128 0x13
 3228 0778 F9020000 		.4byte	.LASF203
 3229 077c 0A       		.byte	0xa
 3230 077d 40       		.byte	0x40
ARM GAS  C:\Users\13740\AppData\Local\Temp\ccBqru7T.s 			page 75


 3231 077e E3050000 		.4byte	0x5e3
 3232 0782 70       		.byte	0x70
 3233 0783 13       		.uleb128 0x13
 3234 0784 EC0E0000 		.4byte	.LASF204
 3235 0788 0A       		.byte	0xa
 3236 0789 41       		.byte	0x41
 3237 078a E3050000 		.4byte	0x5e3
 3238 078e 84       		.byte	0x84
 3239 078f 13       		.uleb128 0x13
 3240 0790 71030000 		.4byte	.LASF205
 3241 0794 0A       		.byte	0xa
 3242 0795 42       		.byte	0x42
 3243 0796 81050000 		.4byte	0x581
 3244 079a 98       		.byte	0x98
 3245 079b 13       		.uleb128 0x13
 3246 079c 21010000 		.4byte	.LASF206
 3247 07a0 0A       		.byte	0xa
 3248 07a1 43       		.byte	0x43
 3249 07a2 A2000000 		.4byte	0xa2
 3250 07a6 9C       		.byte	0x9c
 3251 07a7 00       		.byte	0
 3252 07a8 03       		.uleb128 0x3
 3253 07a9 EA020000 		.4byte	.LASF207
 3254 07ad 0A       		.byte	0xa
 3255 07ae 45       		.byte	0x45
 3256 07af 1F060000 		.4byte	0x61f
 3257 07b3 12       		.uleb128 0x12
 3258 07b4 08       		.byte	0x8
 3259 07b5 0A       		.byte	0xa
 3260 07b6 4A       		.byte	0x4a
 3261 07b7 D4070000 		.4byte	0x7d4
 3262 07bb 13       		.uleb128 0x13
 3263 07bc F7010000 		.4byte	.LASF208
 3264 07c0 0A       		.byte	0xa
 3265 07c1 4C       		.byte	0x4c
 3266 07c2 D1000000 		.4byte	0xd1
 3267 07c6 00       		.byte	0
 3268 07c7 13       		.uleb128 0x13
 3269 07c8 59050000 		.4byte	.LASF209
 3270 07cc 0A       		.byte	0xa
 3271 07cd 4D       		.byte	0x4d
 3272 07ce D1000000 		.4byte	0xd1
 3273 07d2 04       		.byte	0x4
 3274 07d3 00       		.byte	0
 3275 07d4 03       		.uleb128 0x3
 3276 07d5 61050000 		.4byte	.LASF210
 3277 07d9 0A       		.byte	0xa
 3278 07da 4E       		.byte	0x4e
 3279 07db B3070000 		.4byte	0x7b3
 3280 07df 12       		.uleb128 0x12
 3281 07e0 14       		.byte	0x14
 3282 07e1 01       		.byte	0x1
 3283 07e2 20       		.byte	0x20
 3284 07e3 24080000 		.4byte	0x824
 3285 07e7 13       		.uleb128 0x13
 3286 07e8 D4080000 		.4byte	.LASF211
 3287 07ec 01       		.byte	0x1
ARM GAS  C:\Users\13740\AppData\Local\Temp\ccBqru7T.s 			page 76


 3288 07ed 21       		.byte	0x21
 3289 07ee D1000000 		.4byte	0xd1
 3290 07f2 00       		.byte	0
 3291 07f3 13       		.uleb128 0x13
 3292 07f4 66070000 		.4byte	.LASF212
 3293 07f8 01       		.byte	0x1
 3294 07f9 22       		.byte	0x22
 3295 07fa D1000000 		.4byte	0xd1
 3296 07fe 04       		.byte	0x4
 3297 07ff 13       		.uleb128 0x13
 3298 0800 E4000000 		.4byte	.LASF213
 3299 0804 01       		.byte	0x1
 3300 0805 23       		.byte	0x23
 3301 0806 D1000000 		.4byte	0xd1
 3302 080a 08       		.byte	0x8
 3303 080b 13       		.uleb128 0x13
 3304 080c 530C0000 		.4byte	.LASF214
 3305 0810 01       		.byte	0x1
 3306 0811 24       		.byte	0x24
 3307 0812 D1000000 		.4byte	0xd1
 3308 0816 0C       		.byte	0xc
 3309 0817 13       		.uleb128 0x13
 3310 0818 E9140000 		.4byte	.LASF215
 3311 081c 01       		.byte	0x1
 3312 081d 25       		.byte	0x25
 3313 081e C5000000 		.4byte	0xc5
 3314 0822 10       		.byte	0x10
 3315 0823 00       		.byte	0
 3316 0824 03       		.uleb128 0x3
 3317 0825 7B130000 		.4byte	.LASF216
 3318 0829 01       		.byte	0x1
 3319 082a 26       		.byte	0x26
 3320 082b DF070000 		.4byte	0x7df
 3321 082f 14       		.uleb128 0x14
 3322 0830 01       		.byte	0x1
 3323 0831 37000000 		.4byte	0x37
 3324 0835 01       		.byte	0x1
 3325 0836 2B       		.byte	0x2b
 3326 0837 54080000 		.4byte	0x854
 3327 083b 09       		.uleb128 0x9
 3328 083c 11060000 		.4byte	.LASF217
 3329 0840 00       		.byte	0
 3330 0841 09       		.uleb128 0x9
 3331 0842 00000000 		.4byte	.LASF218
 3332 0846 01       		.byte	0x1
 3333 0847 09       		.uleb128 0x9
 3334 0848 080C0000 		.4byte	.LASF219
 3335 084c 02       		.byte	0x2
 3336 084d 09       		.uleb128 0x9
 3337 084e 13130000 		.4byte	.LASF220
 3338 0852 03       		.byte	0x3
 3339 0853 00       		.byte	0
 3340 0854 03       		.uleb128 0x3
 3341 0855 AE070000 		.4byte	.LASF221
 3342 0859 01       		.byte	0x1
 3343 085a 30       		.byte	0x30
 3344 085b 2F080000 		.4byte	0x82f
ARM GAS  C:\Users\13740\AppData\Local\Temp\ccBqru7T.s 			page 77


 3345 085f 15       		.uleb128 0x15
 3346 0860 32100000 		.4byte	.LASF234
 3347 0864 01       		.byte	0x1
 3348 0865 41       		.byte	0x41
 3349 0866 00000000 		.4byte	.LFB36
 3350 086a 84010000 		.4byte	.LFE36-.LFB36
 3351 086e 01       		.uleb128 0x1
 3352 086f 9C       		.byte	0x9c
 3353 0870 83080000 		.4byte	0x883
 3354 0874 16       		.uleb128 0x16
 3355 0875 33030000 		.4byte	.LASF222
 3356 0879 01       		.byte	0x1
 3357 087a 43       		.byte	0x43
 3358 087b 5B050000 		.4byte	0x55b
 3359 087f 02       		.uleb128 0x2
 3360 0880 91       		.byte	0x91
 3361 0881 74       		.sleb128 -12
 3362 0882 00       		.byte	0
 3363 0883 17       		.uleb128 0x17
 3364 0884 5D0C0000 		.4byte	.LASF225
 3365 0888 01       		.byte	0x1
 3366 0889 90       		.byte	0x90
 3367 088a D1000000 		.4byte	0xd1
 3368 088e 00000000 		.4byte	.LFB37
 3369 0892 CC000000 		.4byte	.LFE37-.LFB37
 3370 0896 01       		.uleb128 0x1
 3371 0897 9C       		.byte	0x9c
 3372 0898 D5080000 		.4byte	0x8d5
 3373 089c 18       		.uleb128 0x18
 3374 089d 02160000 		.4byte	.LASF227
 3375 08a1 01       		.byte	0x1
 3376 08a2 90       		.byte	0x90
 3377 08a3 54080000 		.4byte	0x854
 3378 08a7 02       		.uleb128 0x2
 3379 08a8 91       		.byte	0x91
 3380 08a9 5F       		.sleb128 -33
 3381 08aa 16       		.uleb128 0x16
 3382 08ab 74090000 		.4byte	.LASF223
 3383 08af 01       		.byte	0x1
 3384 08b0 92       		.byte	0x92
 3385 08b1 D1000000 		.4byte	0xd1
 3386 08b5 02       		.uleb128 0x2
 3387 08b6 91       		.byte	0x91
 3388 08b7 6C       		.sleb128 -20
 3389 08b8 16       		.uleb128 0x16
 3390 08b9 71130000 		.4byte	.LASF224
 3391 08bd 01       		.byte	0x1
 3392 08be 93       		.byte	0x93
 3393 08bf A2000000 		.4byte	0xa2
 3394 08c3 02       		.uleb128 0x2
 3395 08c4 91       		.byte	0x91
 3396 08c5 64       		.sleb128 -28
 3397 08c6 16       		.uleb128 0x16
 3398 08c7 33030000 		.4byte	.LASF222
 3399 08cb 01       		.byte	0x1
 3400 08cc 94       		.byte	0x94
 3401 08cd 5B050000 		.4byte	0x55b
ARM GAS  C:\Users\13740\AppData\Local\Temp\ccBqru7T.s 			page 78


 3402 08d1 02       		.uleb128 0x2
 3403 08d2 91       		.byte	0x91
 3404 08d3 68       		.sleb128 -24
 3405 08d4 00       		.byte	0
 3406 08d5 17       		.uleb128 0x17
 3407 08d6 92140000 		.4byte	.LASF226
 3408 08da 01       		.byte	0x1
 3409 08db C0       		.byte	0xc0
 3410 08dc D1000000 		.4byte	0xd1
 3411 08e0 00000000 		.4byte	.LFB38
 3412 08e4 AC000000 		.4byte	.LFE38-.LFB38
 3413 08e8 01       		.uleb128 0x1
 3414 08e9 9C       		.byte	0x9c
 3415 08ea 19090000 		.4byte	0x919
 3416 08ee 18       		.uleb128 0x18
 3417 08ef C4150000 		.4byte	.LASF228
 3418 08f3 01       		.byte	0x1
 3419 08f4 C0       		.byte	0xc0
 3420 08f5 D1000000 		.4byte	0xd1
 3421 08f9 02       		.uleb128 0x2
 3422 08fa 91       		.byte	0x91
 3423 08fb 64       		.sleb128 -28
 3424 08fc 18       		.uleb128 0x18
 3425 08fd 02160000 		.4byte	.LASF227
 3426 0901 01       		.byte	0x1
 3427 0902 C0       		.byte	0xc0
 3428 0903 54080000 		.4byte	0x854
 3429 0907 02       		.uleb128 0x2
 3430 0908 91       		.byte	0x91
 3431 0909 63       		.sleb128 -29
 3432 090a 16       		.uleb128 0x16
 3433 090b BC0A0000 		.4byte	.LASF229
 3434 090f 01       		.byte	0x1
 3435 0910 C2       		.byte	0xc2
 3436 0911 D1000000 		.4byte	0xd1
 3437 0915 02       		.uleb128 0x2
 3438 0916 91       		.byte	0x91
 3439 0917 6C       		.sleb128 -20
 3440 0918 00       		.byte	0
 3441 0919 17       		.uleb128 0x17
 3442 091a 53150000 		.4byte	.LASF230
 3443 091e 01       		.byte	0x1
 3444 091f E1       		.byte	0xe1
 3445 0920 D1000000 		.4byte	0xd1
 3446 0924 00000000 		.4byte	.LFB39
 3447 0928 48000000 		.4byte	.LFE39-.LFB39
 3448 092c 01       		.uleb128 0x1
 3449 092d 9C       		.byte	0x9c
 3450 092e 62090000 		.4byte	0x962
 3451 0932 16       		.uleb128 0x16
 3452 0933 D4080000 		.4byte	.LASF211
 3453 0937 01       		.byte	0x1
 3454 0938 E3       		.byte	0xe3
 3455 0939 D1000000 		.4byte	0xd1
 3456 093d 02       		.uleb128 0x2
 3457 093e 91       		.byte	0x91
 3458 093f 6C       		.sleb128 -20
ARM GAS  C:\Users\13740\AppData\Local\Temp\ccBqru7T.s 			page 79


 3459 0940 19       		.uleb128 0x19
 3460 0941 76160000 		.4byte	.LASF231
 3461 0945 01       		.byte	0x1
 3462 0946 E4       		.byte	0xe4
 3463 0947 A2000000 		.4byte	0xa2
 3464 094b 19       		.uleb128 0x19
 3465 094c 54020000 		.4byte	.LASF232
 3466 0950 01       		.byte	0x1
 3467 0951 E5       		.byte	0xe5
 3468 0952 D1000000 		.4byte	0xd1
 3469 0956 19       		.uleb128 0x19
 3470 0957 F3140000 		.4byte	.LASF233
 3471 095b 01       		.byte	0x1
 3472 095c E5       		.byte	0xe5
 3473 095d D1000000 		.4byte	0xd1
 3474 0961 00       		.byte	0
 3475 0962 1A       		.uleb128 0x1a
 3476 0963 D2050000 		.4byte	.LASF235
 3477 0967 01       		.byte	0x1
 3478 0968 1001     		.2byte	0x110
 3479 096a 00000000 		.4byte	.LFB40
 3480 096e 78010000 		.4byte	.LFE40-.LFB40
 3481 0972 01       		.uleb128 0x1
 3482 0973 9C       		.byte	0x9c
 3483 0974 97090000 		.4byte	0x997
 3484 0978 1B       		.uleb128 0x1b
 3485 0979 C4150000 		.4byte	.LASF228
 3486 097d 01       		.byte	0x1
 3487 097e 1201     		.2byte	0x112
 3488 0980 D1000000 		.4byte	0xd1
 3489 0984 02       		.uleb128 0x2
 3490 0985 91       		.byte	0x91
 3491 0986 6C       		.sleb128 -20
 3492 0987 1B       		.uleb128 0x1b
 3493 0988 AB0B0000 		.4byte	.LASF236
 3494 098c 01       		.byte	0x1
 3495 098d 2901     		.2byte	0x129
 3496 098f D1000000 		.4byte	0xd1
 3497 0993 02       		.uleb128 0x2
 3498 0994 91       		.byte	0x91
 3499 0995 68       		.sleb128 -24
 3500 0996 00       		.byte	0
 3501 0997 1A       		.uleb128 0x1a
 3502 0998 650D0000 		.4byte	.LASF237
 3503 099c 01       		.byte	0x1
 3504 099d 3901     		.2byte	0x139
 3505 099f 00000000 		.4byte	.LFB41
 3506 09a3 44000000 		.4byte	.LFE41-.LFB41
 3507 09a7 01       		.uleb128 0x1
 3508 09a8 9C       		.byte	0x9c
 3509 09a9 BD090000 		.4byte	0x9bd
 3510 09ad 1C       		.uleb128 0x1c
 3511 09ae CB050000 		.4byte	.LASF238
 3512 09b2 01       		.byte	0x1
 3513 09b3 3901     		.2byte	0x139
 3514 09b5 AD000000 		.4byte	0xad
 3515 09b9 02       		.uleb128 0x2
ARM GAS  C:\Users\13740\AppData\Local\Temp\ccBqru7T.s 			page 80


 3516 09ba 91       		.byte	0x91
 3517 09bb 77       		.sleb128 -9
 3518 09bc 00       		.byte	0
 3519 09bd 1A       		.uleb128 0x1a
 3520 09be 9C0C0000 		.4byte	.LASF239
 3521 09c2 01       		.byte	0x1
 3522 09c3 4D01     		.2byte	0x14d
 3523 09c5 00000000 		.4byte	.LFB42
 3524 09c9 44000000 		.4byte	.LFE42-.LFB42
 3525 09cd 01       		.uleb128 0x1
 3526 09ce 9C       		.byte	0x9c
 3527 09cf E3090000 		.4byte	0x9e3
 3528 09d3 1C       		.uleb128 0x1c
 3529 09d4 CB050000 		.4byte	.LASF238
 3530 09d8 01       		.byte	0x1
 3531 09d9 4D01     		.2byte	0x14d
 3532 09db AD000000 		.4byte	0xad
 3533 09df 02       		.uleb128 0x2
 3534 09e0 91       		.byte	0x91
 3535 09e1 77       		.sleb128 -9
 3536 09e2 00       		.byte	0
 3537 09e3 1A       		.uleb128 0x1a
 3538 09e4 49130000 		.4byte	.LASF240
 3539 09e8 01       		.byte	0x1
 3540 09e9 6801     		.2byte	0x168
 3541 09eb 00000000 		.4byte	.LFB43
 3542 09ef BC000000 		.4byte	.LFE43-.LFB43
 3543 09f3 01       		.uleb128 0x1
 3544 09f4 9C       		.byte	0x9c
 3545 09f5 180A0000 		.4byte	0xa18
 3546 09f9 1B       		.uleb128 0x1b
 3547 09fa 5F000000 		.4byte	.LASF241
 3548 09fe 01       		.byte	0x1
 3549 09ff 6A01     		.2byte	0x16a
 3550 0a01 18050000 		.4byte	0x518
 3551 0a05 02       		.uleb128 0x2
 3552 0a06 91       		.byte	0x91
 3553 0a07 6C       		.sleb128 -20
 3554 0a08 1B       		.uleb128 0x1b
 3555 0a09 68140000 		.4byte	.LASF242
 3556 0a0d 01       		.byte	0x1
 3557 0a0e 6B01     		.2byte	0x16b
 3558 0a10 5F040000 		.4byte	0x45f
 3559 0a14 02       		.uleb128 0x2
 3560 0a15 91       		.byte	0x91
 3561 0a16 5C       		.sleb128 -36
 3562 0a17 00       		.byte	0
 3563 0a18 1A       		.uleb128 0x1a
 3564 0a19 4F040000 		.4byte	.LASF243
 3565 0a1d 01       		.byte	0x1
 3566 0a1e 8B01     		.2byte	0x18b
 3567 0a20 00000000 		.4byte	.LFB44
 3568 0a24 98000000 		.4byte	.LFE44-.LFB44
 3569 0a28 01       		.uleb128 0x1
 3570 0a29 9C       		.byte	0x9c
 3571 0a2a 4D0A0000 		.4byte	0xa4d
 3572 0a2e 1B       		.uleb128 0x1b
ARM GAS  C:\Users\13740\AppData\Local\Temp\ccBqru7T.s 			page 81


 3573 0a2f 5F000000 		.4byte	.LASF241
 3574 0a33 01       		.byte	0x1
 3575 0a34 8D01     		.2byte	0x18d
 3576 0a36 18050000 		.4byte	0x518
 3577 0a3a 02       		.uleb128 0x2
 3578 0a3b 91       		.byte	0x91
 3579 0a3c 64       		.sleb128 -28
 3580 0a3d 1B       		.uleb128 0x1b
 3581 0a3e 35070000 		.4byte	.LASF244
 3582 0a42 01       		.byte	0x1
 3583 0a43 8E01     		.2byte	0x18e
 3584 0a45 4D0A0000 		.4byte	0xa4d
 3585 0a49 02       		.uleb128 0x2
 3586 0a4a 91       		.byte	0x91
 3587 0a4b 50       		.sleb128 -48
 3588 0a4c 00       		.byte	0
 3589 0a4d 0D       		.uleb128 0xd
 3590 0a4e DF000000 		.4byte	0xdf
 3591 0a52 5D0A0000 		.4byte	0xa5d
 3592 0a56 0E       		.uleb128 0xe
 3593 0a57 F7000000 		.4byte	0xf7
 3594 0a5b 13       		.byte	0x13
 3595 0a5c 00       		.byte	0
 3596 0a5d 1A       		.uleb128 0x1a
 3597 0a5e 7E030000 		.4byte	.LASF245
 3598 0a62 01       		.byte	0x1
 3599 0a63 A701     		.2byte	0x1a7
 3600 0a65 00000000 		.4byte	.LFB45
 3601 0a69 98000000 		.4byte	.LFE45-.LFB45
 3602 0a6d 01       		.uleb128 0x1
 3603 0a6e 9C       		.byte	0x9c
 3604 0a6f 920A0000 		.4byte	0xa92
 3605 0a73 1B       		.uleb128 0x1b
 3606 0a74 5F000000 		.4byte	.LASF241
 3607 0a78 01       		.byte	0x1
 3608 0a79 A901     		.2byte	0x1a9
 3609 0a7b 18050000 		.4byte	0x518
 3610 0a7f 02       		.uleb128 0x2
 3611 0a80 91       		.byte	0x91
 3612 0a81 64       		.sleb128 -28
 3613 0a82 1B       		.uleb128 0x1b
 3614 0a83 5A140000 		.4byte	.LASF246
 3615 0a87 01       		.byte	0x1
 3616 0a88 AA01     		.2byte	0x1aa
 3617 0a8a 4D0A0000 		.4byte	0xa4d
 3618 0a8e 02       		.uleb128 0x2
 3619 0a8f 91       		.byte	0x91
 3620 0a90 50       		.sleb128 -48
 3621 0a91 00       		.byte	0
 3622 0a92 1A       		.uleb128 0x1a
 3623 0a93 47050000 		.4byte	.LASF247
 3624 0a97 01       		.byte	0x1
 3625 0a98 C301     		.2byte	0x1c3
 3626 0a9a 00000000 		.4byte	.LFB46
 3627 0a9e 98000000 		.4byte	.LFE46-.LFB46
 3628 0aa2 01       		.uleb128 0x1
 3629 0aa3 9C       		.byte	0x9c
ARM GAS  C:\Users\13740\AppData\Local\Temp\ccBqru7T.s 			page 82


 3630 0aa4 C70A0000 		.4byte	0xac7
 3631 0aa8 1B       		.uleb128 0x1b
 3632 0aa9 5F000000 		.4byte	.LASF241
 3633 0aad 01       		.byte	0x1
 3634 0aae C501     		.2byte	0x1c5
 3635 0ab0 18050000 		.4byte	0x518
 3636 0ab4 02       		.uleb128 0x2
 3637 0ab5 91       		.byte	0x91
 3638 0ab6 64       		.sleb128 -28
 3639 0ab7 1B       		.uleb128 0x1b
 3640 0ab8 280A0000 		.4byte	.LASF248
 3641 0abc 01       		.byte	0x1
 3642 0abd C601     		.2byte	0x1c6
 3643 0abf 4D0A0000 		.4byte	0xa4d
 3644 0ac3 02       		.uleb128 0x2
 3645 0ac4 91       		.byte	0x91
 3646 0ac5 50       		.sleb128 -48
 3647 0ac6 00       		.byte	0
 3648 0ac7 1A       		.uleb128 0x1a
 3649 0ac8 7F090000 		.4byte	.LASF249
 3650 0acc 01       		.byte	0x1
 3651 0acd DF01     		.2byte	0x1df
 3652 0acf 00000000 		.4byte	.LFB47
 3653 0ad3 98000000 		.4byte	.LFE47-.LFB47
 3654 0ad7 01       		.uleb128 0x1
 3655 0ad8 9C       		.byte	0x9c
 3656 0ad9 0B0B0000 		.4byte	0xb0b
 3657 0add 1B       		.uleb128 0x1b
 3658 0ade 5F000000 		.4byte	.LASF241
 3659 0ae2 01       		.byte	0x1
 3660 0ae3 E101     		.2byte	0x1e1
 3661 0ae5 18050000 		.4byte	0x518
 3662 0ae9 02       		.uleb128 0x2
 3663 0aea 91       		.byte	0x91
 3664 0aeb 60       		.sleb128 -32
 3665 0aec 1B       		.uleb128 0x1b
 3666 0aed EF0F0000 		.4byte	.LASF250
 3667 0af1 01       		.byte	0x1
 3668 0af2 E201     		.2byte	0x1e2
 3669 0af4 4D0A0000 		.4byte	0xa4d
 3670 0af8 02       		.uleb128 0x2
 3671 0af9 91       		.byte	0x91
 3672 0afa 4C       		.sleb128 -52
 3673 0afb 1B       		.uleb128 0x1b
 3674 0afc 06050000 		.4byte	.LASF251
 3675 0b00 01       		.byte	0x1
 3676 0b01 E301     		.2byte	0x1e3
 3677 0b03 D1000000 		.4byte	0xd1
 3678 0b07 02       		.uleb128 0x2
 3679 0b08 91       		.byte	0x91
 3680 0b09 6C       		.sleb128 -20
 3681 0b0a 00       		.byte	0
 3682 0b0b 1D       		.uleb128 0x1d
 3683 0b0c BC040000 		.4byte	.LASF258
 3684 0b10 01       		.byte	0x1
 3685 0b11 FC01     		.2byte	0x1fc
 3686 0b13 00000000 		.4byte	.LFB48
ARM GAS  C:\Users\13740\AppData\Local\Temp\ccBqru7T.s 			page 83


 3687 0b17 58000000 		.4byte	.LFE48-.LFB48
 3688 0b1b 01       		.uleb128 0x1
 3689 0b1c 9C       		.byte	0x9c
 3690 0b1d 1A       		.uleb128 0x1a
 3691 0b1e D0120000 		.4byte	.LASF252
 3692 0b22 01       		.byte	0x1
 3693 0b23 1A02     		.2byte	0x21a
 3694 0b25 00000000 		.4byte	.LFB49
 3695 0b29 4C000000 		.4byte	.LFE49-.LFB49
 3696 0b2d 01       		.uleb128 0x1
 3697 0b2e 9C       		.byte	0x9c
 3698 0b2f 460B0000 		.4byte	0xb46
 3699 0b33 1E       		.uleb128 0x1e
 3700 0b34 6C656400 		.ascii	"led\000"
 3701 0b38 01       		.byte	0x1
 3702 0b39 1C02     		.2byte	0x21c
 3703 0b3b AD000000 		.4byte	0xad
 3704 0b3f 05       		.uleb128 0x5
 3705 0b40 03       		.byte	0x3
 3706 0b41 00000000 		.4byte	led.9721
 3707 0b45 00       		.byte	0
 3708 0b46 1A       		.uleb128 0x1a
 3709 0b47 F80C0000 		.4byte	.LASF253
 3710 0b4b 01       		.byte	0x1
 3711 0b4c 2E02     		.2byte	0x22e
 3712 0b4e 00000000 		.4byte	.LFB50
 3713 0b52 AC000000 		.4byte	.LFE50-.LFB50
 3714 0b56 01       		.uleb128 0x1
 3715 0b57 9C       		.byte	0x9c
 3716 0b58 850B0000 		.4byte	0xb85
 3717 0b5c 1C       		.uleb128 0x1c
 3718 0b5d 71040000 		.4byte	.LASF254
 3719 0b61 01       		.byte	0x1
 3720 0b62 2E02     		.2byte	0x22e
 3721 0b64 C5000000 		.4byte	0xc5
 3722 0b68 02       		.uleb128 0x2
 3723 0b69 91       		.byte	0x91
 3724 0b6a 74       		.sleb128 -12
 3725 0b6b 1C       		.uleb128 0x1c
 3726 0b6c F9000000 		.4byte	.LASF255
 3727 0b70 01       		.byte	0x1
 3728 0b71 2E02     		.2byte	0x22e
 3729 0b73 FE000000 		.4byte	0xfe
 3730 0b77 02       		.uleb128 0x2
 3731 0b78 91       		.byte	0x91
 3732 0b79 70       		.sleb128 -16
 3733 0b7a 1F       		.uleb128 0x1f
 3734 0b7b 6900     		.ascii	"i\000"
 3735 0b7d 01       		.byte	0x1
 3736 0b7e 3002     		.2byte	0x230
 3737 0b80 B9000000 		.4byte	0xb9
 3738 0b84 00       		.byte	0
 3739 0b85 20       		.uleb128 0x20
 3740 0b86 8C090000 		.4byte	.LASF276
 3741 0b8a 01       		.byte	0x1
 3742 0b8b 6202     		.2byte	0x262
 3743 0b8d 00000000 		.4byte	.LFB51
ARM GAS  C:\Users\13740\AppData\Local\Temp\ccBqru7T.s 			page 84


 3744 0b91 74000000 		.4byte	.LFE51-.LFB51
 3745 0b95 01       		.uleb128 0x1
 3746 0b96 9C       		.byte	0x9c
 3747 0b97 BA0B0000 		.4byte	0xbba
 3748 0b9b 1B       		.uleb128 0x1b
 3749 0b9c C8090000 		.4byte	.LASF256
 3750 0ba0 01       		.byte	0x1
 3751 0ba1 6402     		.2byte	0x264
 3752 0ba3 CF030000 		.4byte	0x3cf
 3753 0ba7 02       		.uleb128 0x2
 3754 0ba8 91       		.byte	0x91
 3755 0ba9 6F       		.sleb128 -17
 3756 0baa 1B       		.uleb128 0x1b
 3757 0bab 87080000 		.4byte	.LASF257
 3758 0baf 01       		.byte	0x1
 3759 0bb0 6502     		.2byte	0x265
 3760 0bb2 AD000000 		.4byte	0xad
 3761 0bb6 02       		.uleb128 0x2
 3762 0bb7 91       		.byte	0x91
 3763 0bb8 6E       		.sleb128 -18
 3764 0bb9 00       		.byte	0
 3765 0bba 21       		.uleb128 0x21
 3766 0bbb B7110000 		.4byte	.LASF259
 3767 0bbf 01       		.byte	0x1
 3768 0bc0 8702     		.2byte	0x287
 3769 0bc2 7E000000 		.4byte	0x7e
 3770 0bc6 00000000 		.4byte	.LFB52
 3771 0bca 8C010000 		.4byte	.LFE52-.LFB52
 3772 0bce 01       		.uleb128 0x1
 3773 0bcf 9C       		.byte	0x9c
 3774 0bd0 1A       		.uleb128 0x1a
 3775 0bd1 A5130000 		.4byte	.LASF260
 3776 0bd5 01       		.byte	0x1
 3777 0bd6 EE02     		.2byte	0x2ee
 3778 0bd8 00000000 		.4byte	.LFB53
 3779 0bdc A4000000 		.4byte	.LFE53-.LFB53
 3780 0be0 01       		.uleb128 0x1
 3781 0be1 9C       		.byte	0x9c
 3782 0be2 030C0000 		.4byte	0xc03
 3783 0be6 1E       		.uleb128 0x1e
 3784 0be7 6900     		.ascii	"i\000"
 3785 0be9 01       		.byte	0x1
 3786 0bea F002     		.2byte	0x2f0
 3787 0bec B9000000 		.4byte	0xb9
 3788 0bf0 02       		.uleb128 0x2
 3789 0bf1 91       		.byte	0x91
 3790 0bf2 76       		.sleb128 -10
 3791 0bf3 1B       		.uleb128 0x1b
 3792 0bf4 530B0000 		.4byte	.LASF261
 3793 0bf8 01       		.byte	0x1
 3794 0bf9 F102     		.2byte	0x2f1
 3795 0bfb 4D040000 		.4byte	0x44d
 3796 0bff 02       		.uleb128 0x2
 3797 0c00 91       		.byte	0x91
 3798 0c01 6C       		.sleb128 -20
 3799 0c02 00       		.byte	0
 3800 0c03 22       		.uleb128 0x22
ARM GAS  C:\Users\13740\AppData\Local\Temp\ccBqru7T.s 			page 85


 3801 0c04 0B0B0000 		.4byte	.LASF262
 3802 0c08 0B       		.byte	0xb
 3803 0c09 C202     		.2byte	0x2c2
 3804 0c0b AD000000 		.4byte	0xad
 3805 0c0f 22       		.uleb128 0x22
 3806 0c10 5E060000 		.4byte	.LASF263
 3807 0c14 08       		.byte	0x8
 3808 0c15 A90A     		.2byte	0xaa9
 3809 0c17 4F050000 		.4byte	0x54f
 3810 0c1b 22       		.uleb128 0x22
 3811 0c1c 6E050000 		.4byte	.LASF264
 3812 0c20 08       		.byte	0x8
 3813 0c21 AA0A     		.2byte	0xaaa
 3814 0c23 9F040000 		.4byte	0x49f
 3815 0c27 23       		.uleb128 0x23
 3816 0c28 5D0B0000 		.4byte	.LASF265
 3817 0c2c 01       		.byte	0x1
 3818 0c2d 1D       		.byte	0x1d
 3819 0c2e 97030000 		.4byte	0x397
 3820 0c32 05       		.uleb128 0x5
 3821 0c33 03       		.byte	0x3
 3822 0c34 00000000 		.4byte	apiResult
 3823 0c38 23       		.uleb128 0x23
 3824 0c39 90030000 		.4byte	.LASF266
 3825 0c3d 01       		.byte	0x1
 3826 0c3e 1B       		.byte	0x1b
 3827 0c3f EB000000 		.4byte	0xeb
 3828 0c43 05       		.uleb128 0x5
 3829 0c44 03       		.byte	0x3
 3830 0c45 00000000 		.4byte	mainTimer
 3831 0c49 23       		.uleb128 0x23
 3832 0c4a C3070000 		.4byte	.LASF267
 3833 0c4e 01       		.byte	0x1
 3834 0c4f 1C       		.byte	0x1c
 3835 0c50 E6000000 		.4byte	0xe6
 3836 0c54 05       		.uleb128 0x5
 3837 0c55 03       		.byte	0x3
 3838 0c56 00000000 		.4byte	measurementFlag
 3839 0c5a 23       		.uleb128 0x23
 3840 0c5b 0D0E0000 		.4byte	.LASF268
 3841 0c5f 01       		.byte	0x1
 3842 0c60 15       		.byte	0x15
 3843 0c61 C5000000 		.4byte	0xc5
 3844 0c65 05       		.uleb128 0x5
 3845 0c66 03       		.byte	0x3
 3846 0c67 00000000 		.4byte	lastSendTime
 3847 0c6b 23       		.uleb128 0x23
 3848 0c6c 000B0000 		.4byte	.LASF269
 3849 0c70 01       		.byte	0x1
 3850 0c71 29       		.byte	0x29
 3851 0c72 24080000 		.4byte	0x824
 3852 0c76 05       		.uleb128 0x5
 3853 0c77 03       		.byte	0x3
 3854 0c78 00000000 		.4byte	sensorData
 3855 0c7c 23       		.uleb128 0x23
 3856 0c7d AF060000 		.4byte	.LASF270
 3857 0c81 01       		.byte	0x1
ARM GAS  C:\Users\13740\AppData\Local\Temp\ccBqru7T.s 			page 86


 3858 0c82 37       		.byte	0x37
 3859 0c83 8D0C0000 		.4byte	0xc8d
 3860 0c87 05       		.uleb128 0x5
 3861 0c88 03       		.byte	0x3
 3862 0c89 00000000 		.4byte	pAmpCfg
 3863 0c8d 0F       		.uleb128 0xf
 3864 0c8e 04       		.byte	0x4
 3865 0c8f A8070000 		.4byte	0x7a8
 3866 0c93 0D       		.uleb128 0xd
 3867 0c94 C5000000 		.4byte	0xc5
 3868 0c98 A40C0000 		.4byte	0xca4
 3869 0c9c 24       		.uleb128 0x24
 3870 0c9d F7000000 		.4byte	0xf7
 3871 0ca1 FF01     		.2byte	0x1ff
 3872 0ca3 00       		.byte	0
 3873 0ca4 23       		.uleb128 0x23
 3874 0ca5 29030000 		.4byte	.LASF271
 3875 0ca9 01       		.byte	0x1
 3876 0caa 38       		.byte	0x38
 3877 0cab 930C0000 		.4byte	0xc93
 3878 0caf 05       		.uleb128 0x5
 3879 0cb0 03       		.byte	0x3
 3880 0cb1 00000000 		.4byte	ampBuffer
 3881 0cb5 23       		.uleb128 0x23
 3882 0cb6 9D060000 		.4byte	.LASF272
 3883 0cba 01       		.byte	0x1
 3884 0cbb 39       		.byte	0x39
 3885 0cbc D4070000 		.4byte	0x7d4
 3886 0cc0 05       		.uleb128 0x5
 3887 0cc1 03       		.byte	0x3
 3888 0cc2 00000000 		.4byte	ampResult
 3889 0cc6 00       		.byte	0
 3890              		.section	.debug_abbrev,"",%progbits
 3891              	.Ldebug_abbrev0:
 3892 0000 01       		.uleb128 0x1
 3893 0001 11       		.uleb128 0x11
 3894 0002 01       		.byte	0x1
 3895 0003 25       		.uleb128 0x25
 3896 0004 0E       		.uleb128 0xe
 3897 0005 13       		.uleb128 0x13
 3898 0006 0B       		.uleb128 0xb
 3899 0007 03       		.uleb128 0x3
 3900 0008 0E       		.uleb128 0xe
 3901 0009 1B       		.uleb128 0x1b
 3902 000a 0E       		.uleb128 0xe
 3903 000b 55       		.uleb128 0x55
 3904 000c 17       		.uleb128 0x17
 3905 000d 11       		.uleb128 0x11
 3906 000e 01       		.uleb128 0x1
 3907 000f 10       		.uleb128 0x10
 3908 0010 17       		.uleb128 0x17
 3909 0011 00       		.byte	0
 3910 0012 00       		.byte	0
 3911 0013 02       		.uleb128 0x2
 3912 0014 24       		.uleb128 0x24
 3913 0015 00       		.byte	0
 3914 0016 0B       		.uleb128 0xb
ARM GAS  C:\Users\13740\AppData\Local\Temp\ccBqru7T.s 			page 87


 3915 0017 0B       		.uleb128 0xb
 3916 0018 3E       		.uleb128 0x3e
 3917 0019 0B       		.uleb128 0xb
 3918 001a 03       		.uleb128 0x3
 3919 001b 0E       		.uleb128 0xe
 3920 001c 00       		.byte	0
 3921 001d 00       		.byte	0
 3922 001e 03       		.uleb128 0x3
 3923 001f 16       		.uleb128 0x16
 3924 0020 00       		.byte	0
 3925 0021 03       		.uleb128 0x3
 3926 0022 0E       		.uleb128 0xe
 3927 0023 3A       		.uleb128 0x3a
 3928 0024 0B       		.uleb128 0xb
 3929 0025 3B       		.uleb128 0x3b
 3930 0026 0B       		.uleb128 0xb
 3931 0027 49       		.uleb128 0x49
 3932 0028 13       		.uleb128 0x13
 3933 0029 00       		.byte	0
 3934 002a 00       		.byte	0
 3935 002b 04       		.uleb128 0x4
 3936 002c 24       		.uleb128 0x24
 3937 002d 00       		.byte	0
 3938 002e 0B       		.uleb128 0xb
 3939 002f 0B       		.uleb128 0xb
 3940 0030 3E       		.uleb128 0x3e
 3941 0031 0B       		.uleb128 0xb
 3942 0032 03       		.uleb128 0x3
 3943 0033 08       		.uleb128 0x8
 3944 0034 00       		.byte	0
 3945 0035 00       		.byte	0
 3946 0036 05       		.uleb128 0x5
 3947 0037 16       		.uleb128 0x16
 3948 0038 00       		.byte	0
 3949 0039 03       		.uleb128 0x3
 3950 003a 0E       		.uleb128 0xe
 3951 003b 3A       		.uleb128 0x3a
 3952 003c 0B       		.uleb128 0xb
 3953 003d 3B       		.uleb128 0x3b
 3954 003e 05       		.uleb128 0x5
 3955 003f 49       		.uleb128 0x49
 3956 0040 13       		.uleb128 0x13
 3957 0041 00       		.byte	0
 3958 0042 00       		.byte	0
 3959 0043 06       		.uleb128 0x6
 3960 0044 35       		.uleb128 0x35
 3961 0045 00       		.byte	0
 3962 0046 49       		.uleb128 0x49
 3963 0047 13       		.uleb128 0x13
 3964 0048 00       		.byte	0
 3965 0049 00       		.byte	0
 3966 004a 07       		.uleb128 0x7
 3967 004b 0F       		.uleb128 0xf
 3968 004c 00       		.byte	0
 3969 004d 0B       		.uleb128 0xb
 3970 004e 0B       		.uleb128 0xb
 3971 004f 00       		.byte	0
ARM GAS  C:\Users\13740\AppData\Local\Temp\ccBqru7T.s 			page 88


 3972 0050 00       		.byte	0
 3973 0051 08       		.uleb128 0x8
 3974 0052 04       		.uleb128 0x4
 3975 0053 01       		.byte	0x1
 3976 0054 0B       		.uleb128 0xb
 3977 0055 0B       		.uleb128 0xb
 3978 0056 49       		.uleb128 0x49
 3979 0057 13       		.uleb128 0x13
 3980 0058 3A       		.uleb128 0x3a
 3981 0059 0B       		.uleb128 0xb
 3982 005a 3B       		.uleb128 0x3b
 3983 005b 05       		.uleb128 0x5
 3984 005c 01       		.uleb128 0x1
 3985 005d 13       		.uleb128 0x13
 3986 005e 00       		.byte	0
 3987 005f 00       		.byte	0
 3988 0060 09       		.uleb128 0x9
 3989 0061 28       		.uleb128 0x28
 3990 0062 00       		.byte	0
 3991 0063 03       		.uleb128 0x3
 3992 0064 0E       		.uleb128 0xe
 3993 0065 1C       		.uleb128 0x1c
 3994 0066 0B       		.uleb128 0xb
 3995 0067 00       		.byte	0
 3996 0068 00       		.byte	0
 3997 0069 0A       		.uleb128 0xa
 3998 006a 28       		.uleb128 0x28
 3999 006b 00       		.byte	0
 4000 006c 03       		.uleb128 0x3
 4001 006d 0E       		.uleb128 0xe
 4002 006e 1C       		.uleb128 0x1c
 4003 006f 05       		.uleb128 0x5
 4004 0070 00       		.byte	0
 4005 0071 00       		.byte	0
 4006 0072 0B       		.uleb128 0xb
 4007 0073 13       		.uleb128 0x13
 4008 0074 01       		.byte	0x1
 4009 0075 0B       		.uleb128 0xb
 4010 0076 0B       		.uleb128 0xb
 4011 0077 3A       		.uleb128 0x3a
 4012 0078 0B       		.uleb128 0xb
 4013 0079 3B       		.uleb128 0x3b
 4014 007a 05       		.uleb128 0x5
 4015 007b 01       		.uleb128 0x1
 4016 007c 13       		.uleb128 0x13
 4017 007d 00       		.byte	0
 4018 007e 00       		.byte	0
 4019 007f 0C       		.uleb128 0xc
 4020 0080 0D       		.uleb128 0xd
 4021 0081 00       		.byte	0
 4022 0082 03       		.uleb128 0x3
 4023 0083 0E       		.uleb128 0xe
 4024 0084 3A       		.uleb128 0x3a
 4025 0085 0B       		.uleb128 0xb
 4026 0086 3B       		.uleb128 0x3b
 4027 0087 05       		.uleb128 0x5
 4028 0088 49       		.uleb128 0x49
ARM GAS  C:\Users\13740\AppData\Local\Temp\ccBqru7T.s 			page 89


 4029 0089 13       		.uleb128 0x13
 4030 008a 38       		.uleb128 0x38
 4031 008b 0B       		.uleb128 0xb
 4032 008c 00       		.byte	0
 4033 008d 00       		.byte	0
 4034 008e 0D       		.uleb128 0xd
 4035 008f 01       		.uleb128 0x1
 4036 0090 01       		.byte	0x1
 4037 0091 49       		.uleb128 0x49
 4038 0092 13       		.uleb128 0x13
 4039 0093 01       		.uleb128 0x1
 4040 0094 13       		.uleb128 0x13
 4041 0095 00       		.byte	0
 4042 0096 00       		.byte	0
 4043 0097 0E       		.uleb128 0xe
 4044 0098 21       		.uleb128 0x21
 4045 0099 00       		.byte	0
 4046 009a 49       		.uleb128 0x49
 4047 009b 13       		.uleb128 0x13
 4048 009c 2F       		.uleb128 0x2f
 4049 009d 0B       		.uleb128 0xb
 4050 009e 00       		.byte	0
 4051 009f 00       		.byte	0
 4052 00a0 0F       		.uleb128 0xf
 4053 00a1 0F       		.uleb128 0xf
 4054 00a2 00       		.byte	0
 4055 00a3 0B       		.uleb128 0xb
 4056 00a4 0B       		.uleb128 0xb
 4057 00a5 49       		.uleb128 0x49
 4058 00a6 13       		.uleb128 0x13
 4059 00a7 00       		.byte	0
 4060 00a8 00       		.byte	0
 4061 00a9 10       		.uleb128 0x10
 4062 00aa 0D       		.uleb128 0xd
 4063 00ab 00       		.byte	0
 4064 00ac 03       		.uleb128 0x3
 4065 00ad 08       		.uleb128 0x8
 4066 00ae 3A       		.uleb128 0x3a
 4067 00af 0B       		.uleb128 0xb
 4068 00b0 3B       		.uleb128 0x3b
 4069 00b1 05       		.uleb128 0x5
 4070 00b2 49       		.uleb128 0x49
 4071 00b3 13       		.uleb128 0x13
 4072 00b4 38       		.uleb128 0x38
 4073 00b5 0B       		.uleb128 0xb
 4074 00b6 00       		.byte	0
 4075 00b7 00       		.byte	0
 4076 00b8 11       		.uleb128 0x11
 4077 00b9 26       		.uleb128 0x26
 4078 00ba 00       		.byte	0
 4079 00bb 49       		.uleb128 0x49
 4080 00bc 13       		.uleb128 0x13
 4081 00bd 00       		.byte	0
 4082 00be 00       		.byte	0
 4083 00bf 12       		.uleb128 0x12
 4084 00c0 13       		.uleb128 0x13
 4085 00c1 01       		.byte	0x1
ARM GAS  C:\Users\13740\AppData\Local\Temp\ccBqru7T.s 			page 90


 4086 00c2 0B       		.uleb128 0xb
 4087 00c3 0B       		.uleb128 0xb
 4088 00c4 3A       		.uleb128 0x3a
 4089 00c5 0B       		.uleb128 0xb
 4090 00c6 3B       		.uleb128 0x3b
 4091 00c7 0B       		.uleb128 0xb
 4092 00c8 01       		.uleb128 0x1
 4093 00c9 13       		.uleb128 0x13
 4094 00ca 00       		.byte	0
 4095 00cb 00       		.byte	0
 4096 00cc 13       		.uleb128 0x13
 4097 00cd 0D       		.uleb128 0xd
 4098 00ce 00       		.byte	0
 4099 00cf 03       		.uleb128 0x3
 4100 00d0 0E       		.uleb128 0xe
 4101 00d1 3A       		.uleb128 0x3a
 4102 00d2 0B       		.uleb128 0xb
 4103 00d3 3B       		.uleb128 0x3b
 4104 00d4 0B       		.uleb128 0xb
 4105 00d5 49       		.uleb128 0x49
 4106 00d6 13       		.uleb128 0x13
 4107 00d7 38       		.uleb128 0x38
 4108 00d8 0B       		.uleb128 0xb
 4109 00d9 00       		.byte	0
 4110 00da 00       		.byte	0
 4111 00db 14       		.uleb128 0x14
 4112 00dc 04       		.uleb128 0x4
 4113 00dd 01       		.byte	0x1
 4114 00de 0B       		.uleb128 0xb
 4115 00df 0B       		.uleb128 0xb
 4116 00e0 49       		.uleb128 0x49
 4117 00e1 13       		.uleb128 0x13
 4118 00e2 3A       		.uleb128 0x3a
 4119 00e3 0B       		.uleb128 0xb
 4120 00e4 3B       		.uleb128 0x3b
 4121 00e5 0B       		.uleb128 0xb
 4122 00e6 01       		.uleb128 0x1
 4123 00e7 13       		.uleb128 0x13
 4124 00e8 00       		.byte	0
 4125 00e9 00       		.byte	0
 4126 00ea 15       		.uleb128 0x15
 4127 00eb 2E       		.uleb128 0x2e
 4128 00ec 01       		.byte	0x1
 4129 00ed 3F       		.uleb128 0x3f
 4130 00ee 19       		.uleb128 0x19
 4131 00ef 03       		.uleb128 0x3
 4132 00f0 0E       		.uleb128 0xe
 4133 00f1 3A       		.uleb128 0x3a
 4134 00f2 0B       		.uleb128 0xb
 4135 00f3 3B       		.uleb128 0x3b
 4136 00f4 0B       		.uleb128 0xb
 4137 00f5 27       		.uleb128 0x27
 4138 00f6 19       		.uleb128 0x19
 4139 00f7 11       		.uleb128 0x11
 4140 00f8 01       		.uleb128 0x1
 4141 00f9 12       		.uleb128 0x12
 4142 00fa 06       		.uleb128 0x6
ARM GAS  C:\Users\13740\AppData\Local\Temp\ccBqru7T.s 			page 91


 4143 00fb 40       		.uleb128 0x40
 4144 00fc 18       		.uleb128 0x18
 4145 00fd 9642     		.uleb128 0x2116
 4146 00ff 19       		.uleb128 0x19
 4147 0100 01       		.uleb128 0x1
 4148 0101 13       		.uleb128 0x13
 4149 0102 00       		.byte	0
 4150 0103 00       		.byte	0
 4151 0104 16       		.uleb128 0x16
 4152 0105 34       		.uleb128 0x34
 4153 0106 00       		.byte	0
 4154 0107 03       		.uleb128 0x3
 4155 0108 0E       		.uleb128 0xe
 4156 0109 3A       		.uleb128 0x3a
 4157 010a 0B       		.uleb128 0xb
 4158 010b 3B       		.uleb128 0x3b
 4159 010c 0B       		.uleb128 0xb
 4160 010d 49       		.uleb128 0x49
 4161 010e 13       		.uleb128 0x13
 4162 010f 02       		.uleb128 0x2
 4163 0110 18       		.uleb128 0x18
 4164 0111 00       		.byte	0
 4165 0112 00       		.byte	0
 4166 0113 17       		.uleb128 0x17
 4167 0114 2E       		.uleb128 0x2e
 4168 0115 01       		.byte	0x1
 4169 0116 3F       		.uleb128 0x3f
 4170 0117 19       		.uleb128 0x19
 4171 0118 03       		.uleb128 0x3
 4172 0119 0E       		.uleb128 0xe
 4173 011a 3A       		.uleb128 0x3a
 4174 011b 0B       		.uleb128 0xb
 4175 011c 3B       		.uleb128 0x3b
 4176 011d 0B       		.uleb128 0xb
 4177 011e 27       		.uleb128 0x27
 4178 011f 19       		.uleb128 0x19
 4179 0120 49       		.uleb128 0x49
 4180 0121 13       		.uleb128 0x13
 4181 0122 11       		.uleb128 0x11
 4182 0123 01       		.uleb128 0x1
 4183 0124 12       		.uleb128 0x12
 4184 0125 06       		.uleb128 0x6
 4185 0126 40       		.uleb128 0x40
 4186 0127 18       		.uleb128 0x18
 4187 0128 9642     		.uleb128 0x2116
 4188 012a 19       		.uleb128 0x19
 4189 012b 01       		.uleb128 0x1
 4190 012c 13       		.uleb128 0x13
 4191 012d 00       		.byte	0
 4192 012e 00       		.byte	0
 4193 012f 18       		.uleb128 0x18
 4194 0130 05       		.uleb128 0x5
 4195 0131 00       		.byte	0
 4196 0132 03       		.uleb128 0x3
 4197 0133 0E       		.uleb128 0xe
 4198 0134 3A       		.uleb128 0x3a
 4199 0135 0B       		.uleb128 0xb
ARM GAS  C:\Users\13740\AppData\Local\Temp\ccBqru7T.s 			page 92


 4200 0136 3B       		.uleb128 0x3b
 4201 0137 0B       		.uleb128 0xb
 4202 0138 49       		.uleb128 0x49
 4203 0139 13       		.uleb128 0x13
 4204 013a 02       		.uleb128 0x2
 4205 013b 18       		.uleb128 0x18
 4206 013c 00       		.byte	0
 4207 013d 00       		.byte	0
 4208 013e 19       		.uleb128 0x19
 4209 013f 34       		.uleb128 0x34
 4210 0140 00       		.byte	0
 4211 0141 03       		.uleb128 0x3
 4212 0142 0E       		.uleb128 0xe
 4213 0143 3A       		.uleb128 0x3a
 4214 0144 0B       		.uleb128 0xb
 4215 0145 3B       		.uleb128 0x3b
 4216 0146 0B       		.uleb128 0xb
 4217 0147 49       		.uleb128 0x49
 4218 0148 13       		.uleb128 0x13
 4219 0149 00       		.byte	0
 4220 014a 00       		.byte	0
 4221 014b 1A       		.uleb128 0x1a
 4222 014c 2E       		.uleb128 0x2e
 4223 014d 01       		.byte	0x1
 4224 014e 3F       		.uleb128 0x3f
 4225 014f 19       		.uleb128 0x19
 4226 0150 03       		.uleb128 0x3
 4227 0151 0E       		.uleb128 0xe
 4228 0152 3A       		.uleb128 0x3a
 4229 0153 0B       		.uleb128 0xb
 4230 0154 3B       		.uleb128 0x3b
 4231 0155 05       		.uleb128 0x5
 4232 0156 27       		.uleb128 0x27
 4233 0157 19       		.uleb128 0x19
 4234 0158 11       		.uleb128 0x11
 4235 0159 01       		.uleb128 0x1
 4236 015a 12       		.uleb128 0x12
 4237 015b 06       		.uleb128 0x6
 4238 015c 40       		.uleb128 0x40
 4239 015d 18       		.uleb128 0x18
 4240 015e 9642     		.uleb128 0x2116
 4241 0160 19       		.uleb128 0x19
 4242 0161 01       		.uleb128 0x1
 4243 0162 13       		.uleb128 0x13
 4244 0163 00       		.byte	0
 4245 0164 00       		.byte	0
 4246 0165 1B       		.uleb128 0x1b
 4247 0166 34       		.uleb128 0x34
 4248 0167 00       		.byte	0
 4249 0168 03       		.uleb128 0x3
 4250 0169 0E       		.uleb128 0xe
 4251 016a 3A       		.uleb128 0x3a
 4252 016b 0B       		.uleb128 0xb
 4253 016c 3B       		.uleb128 0x3b
 4254 016d 05       		.uleb128 0x5
 4255 016e 49       		.uleb128 0x49
 4256 016f 13       		.uleb128 0x13
ARM GAS  C:\Users\13740\AppData\Local\Temp\ccBqru7T.s 			page 93


 4257 0170 02       		.uleb128 0x2
 4258 0171 18       		.uleb128 0x18
 4259 0172 00       		.byte	0
 4260 0173 00       		.byte	0
 4261 0174 1C       		.uleb128 0x1c
 4262 0175 05       		.uleb128 0x5
 4263 0176 00       		.byte	0
 4264 0177 03       		.uleb128 0x3
 4265 0178 0E       		.uleb128 0xe
 4266 0179 3A       		.uleb128 0x3a
 4267 017a 0B       		.uleb128 0xb
 4268 017b 3B       		.uleb128 0x3b
 4269 017c 05       		.uleb128 0x5
 4270 017d 49       		.uleb128 0x49
 4271 017e 13       		.uleb128 0x13
 4272 017f 02       		.uleb128 0x2
 4273 0180 18       		.uleb128 0x18
 4274 0181 00       		.byte	0
 4275 0182 00       		.byte	0
 4276 0183 1D       		.uleb128 0x1d
 4277 0184 2E       		.uleb128 0x2e
 4278 0185 00       		.byte	0
 4279 0186 3F       		.uleb128 0x3f
 4280 0187 19       		.uleb128 0x19
 4281 0188 03       		.uleb128 0x3
 4282 0189 0E       		.uleb128 0xe
 4283 018a 3A       		.uleb128 0x3a
 4284 018b 0B       		.uleb128 0xb
 4285 018c 3B       		.uleb128 0x3b
 4286 018d 05       		.uleb128 0x5
 4287 018e 27       		.uleb128 0x27
 4288 018f 19       		.uleb128 0x19
 4289 0190 11       		.uleb128 0x11
 4290 0191 01       		.uleb128 0x1
 4291 0192 12       		.uleb128 0x12
 4292 0193 06       		.uleb128 0x6
 4293 0194 40       		.uleb128 0x40
 4294 0195 18       		.uleb128 0x18
 4295 0196 9642     		.uleb128 0x2116
 4296 0198 19       		.uleb128 0x19
 4297 0199 00       		.byte	0
 4298 019a 00       		.byte	0
 4299 019b 1E       		.uleb128 0x1e
 4300 019c 34       		.uleb128 0x34
 4301 019d 00       		.byte	0
 4302 019e 03       		.uleb128 0x3
 4303 019f 08       		.uleb128 0x8
 4304 01a0 3A       		.uleb128 0x3a
 4305 01a1 0B       		.uleb128 0xb
 4306 01a2 3B       		.uleb128 0x3b
 4307 01a3 05       		.uleb128 0x5
 4308 01a4 49       		.uleb128 0x49
 4309 01a5 13       		.uleb128 0x13
 4310 01a6 02       		.uleb128 0x2
 4311 01a7 18       		.uleb128 0x18
 4312 01a8 00       		.byte	0
 4313 01a9 00       		.byte	0
ARM GAS  C:\Users\13740\AppData\Local\Temp\ccBqru7T.s 			page 94


 4314 01aa 1F       		.uleb128 0x1f
 4315 01ab 34       		.uleb128 0x34
 4316 01ac 00       		.byte	0
 4317 01ad 03       		.uleb128 0x3
 4318 01ae 08       		.uleb128 0x8
 4319 01af 3A       		.uleb128 0x3a
 4320 01b0 0B       		.uleb128 0xb
 4321 01b1 3B       		.uleb128 0x3b
 4322 01b2 05       		.uleb128 0x5
 4323 01b3 49       		.uleb128 0x49
 4324 01b4 13       		.uleb128 0x13
 4325 01b5 00       		.byte	0
 4326 01b6 00       		.byte	0
 4327 01b7 20       		.uleb128 0x20
 4328 01b8 2E       		.uleb128 0x2e
 4329 01b9 01       		.byte	0x1
 4330 01ba 03       		.uleb128 0x3
 4331 01bb 0E       		.uleb128 0xe
 4332 01bc 3A       		.uleb128 0x3a
 4333 01bd 0B       		.uleb128 0xb
 4334 01be 3B       		.uleb128 0x3b
 4335 01bf 05       		.uleb128 0x5
 4336 01c0 27       		.uleb128 0x27
 4337 01c1 19       		.uleb128 0x19
 4338 01c2 11       		.uleb128 0x11
 4339 01c3 01       		.uleb128 0x1
 4340 01c4 12       		.uleb128 0x12
 4341 01c5 06       		.uleb128 0x6
 4342 01c6 40       		.uleb128 0x40
 4343 01c7 18       		.uleb128 0x18
 4344 01c8 9642     		.uleb128 0x2116
 4345 01ca 19       		.uleb128 0x19
 4346 01cb 01       		.uleb128 0x1
 4347 01cc 13       		.uleb128 0x13
 4348 01cd 00       		.byte	0
 4349 01ce 00       		.byte	0
 4350 01cf 21       		.uleb128 0x21
 4351 01d0 2E       		.uleb128 0x2e
 4352 01d1 00       		.byte	0
 4353 01d2 3F       		.uleb128 0x3f
 4354 01d3 19       		.uleb128 0x19
 4355 01d4 03       		.uleb128 0x3
 4356 01d5 0E       		.uleb128 0xe
 4357 01d6 3A       		.uleb128 0x3a
 4358 01d7 0B       		.uleb128 0xb
 4359 01d8 3B       		.uleb128 0x3b
 4360 01d9 05       		.uleb128 0x5
 4361 01da 49       		.uleb128 0x49
 4362 01db 13       		.uleb128 0x13
 4363 01dc 11       		.uleb128 0x11
 4364 01dd 01       		.uleb128 0x1
 4365 01de 12       		.uleb128 0x12
 4366 01df 06       		.uleb128 0x6
 4367 01e0 40       		.uleb128 0x40
 4368 01e1 18       		.uleb128 0x18
 4369 01e2 9642     		.uleb128 0x2116
 4370 01e4 19       		.uleb128 0x19
ARM GAS  C:\Users\13740\AppData\Local\Temp\ccBqru7T.s 			page 95


 4371 01e5 00       		.byte	0
 4372 01e6 00       		.byte	0
 4373 01e7 22       		.uleb128 0x22
 4374 01e8 34       		.uleb128 0x34
 4375 01e9 00       		.byte	0
 4376 01ea 03       		.uleb128 0x3
 4377 01eb 0E       		.uleb128 0xe
 4378 01ec 3A       		.uleb128 0x3a
 4379 01ed 0B       		.uleb128 0xb
 4380 01ee 3B       		.uleb128 0x3b
 4381 01ef 05       		.uleb128 0x5
 4382 01f0 49       		.uleb128 0x49
 4383 01f1 13       		.uleb128 0x13
 4384 01f2 3F       		.uleb128 0x3f
 4385 01f3 19       		.uleb128 0x19
 4386 01f4 3C       		.uleb128 0x3c
 4387 01f5 19       		.uleb128 0x19
 4388 01f6 00       		.byte	0
 4389 01f7 00       		.byte	0
 4390 01f8 23       		.uleb128 0x23
 4391 01f9 34       		.uleb128 0x34
 4392 01fa 00       		.byte	0
 4393 01fb 03       		.uleb128 0x3
 4394 01fc 0E       		.uleb128 0xe
 4395 01fd 3A       		.uleb128 0x3a
 4396 01fe 0B       		.uleb128 0xb
 4397 01ff 3B       		.uleb128 0x3b
 4398 0200 0B       		.uleb128 0xb
 4399 0201 49       		.uleb128 0x49
 4400 0202 13       		.uleb128 0x13
 4401 0203 3F       		.uleb128 0x3f
 4402 0204 19       		.uleb128 0x19
 4403 0205 02       		.uleb128 0x2
 4404 0206 18       		.uleb128 0x18
 4405 0207 00       		.byte	0
 4406 0208 00       		.byte	0
 4407 0209 24       		.uleb128 0x24
 4408 020a 21       		.uleb128 0x21
 4409 020b 00       		.byte	0
 4410 020c 49       		.uleb128 0x49
 4411 020d 13       		.uleb128 0x13
 4412 020e 2F       		.uleb128 0x2f
 4413 020f 05       		.uleb128 0x5
 4414 0210 00       		.byte	0
 4415 0211 00       		.byte	0
 4416 0212 00       		.byte	0
 4417              		.section	.debug_aranges,"",%progbits
 4418 0000 A4000000 		.4byte	0xa4
 4419 0004 0200     		.2byte	0x2
 4420 0006 00000000 		.4byte	.Ldebug_info0
 4421 000a 04       		.byte	0x4
 4422 000b 00       		.byte	0
 4423 000c 0000     		.2byte	0
 4424 000e 0000     		.2byte	0
 4425 0010 00000000 		.4byte	.LFB36
 4426 0014 84010000 		.4byte	.LFE36-.LFB36
 4427 0018 00000000 		.4byte	.LFB37
ARM GAS  C:\Users\13740\AppData\Local\Temp\ccBqru7T.s 			page 96


 4428 001c CC000000 		.4byte	.LFE37-.LFB37
 4429 0020 00000000 		.4byte	.LFB38
 4430 0024 AC000000 		.4byte	.LFE38-.LFB38
 4431 0028 00000000 		.4byte	.LFB39
 4432 002c 48000000 		.4byte	.LFE39-.LFB39
 4433 0030 00000000 		.4byte	.LFB40
 4434 0034 78010000 		.4byte	.LFE40-.LFB40
 4435 0038 00000000 		.4byte	.LFB41
 4436 003c 44000000 		.4byte	.LFE41-.LFB41
 4437 0040 00000000 		.4byte	.LFB42
 4438 0044 44000000 		.4byte	.LFE42-.LFB42
 4439 0048 00000000 		.4byte	.LFB43
 4440 004c BC000000 		.4byte	.LFE43-.LFB43
 4441 0050 00000000 		.4byte	.LFB44
 4442 0054 98000000 		.4byte	.LFE44-.LFB44
 4443 0058 00000000 		.4byte	.LFB45
 4444 005c 98000000 		.4byte	.LFE45-.LFB45
 4445 0060 00000000 		.4byte	.LFB46
 4446 0064 98000000 		.4byte	.LFE46-.LFB46
 4447 0068 00000000 		.4byte	.LFB47
 4448 006c 98000000 		.4byte	.LFE47-.LFB47
 4449 0070 00000000 		.4byte	.LFB48
 4450 0074 58000000 		.4byte	.LFE48-.LFB48
 4451 0078 00000000 		.4byte	.LFB49
 4452 007c 4C000000 		.4byte	.LFE49-.LFB49
 4453 0080 00000000 		.4byte	.LFB50
 4454 0084 AC000000 		.4byte	.LFE50-.LFB50
 4455 0088 00000000 		.4byte	.LFB51
 4456 008c 74000000 		.4byte	.LFE51-.LFB51
 4457 0090 00000000 		.4byte	.LFB52
 4458 0094 8C010000 		.4byte	.LFE52-.LFB52
 4459 0098 00000000 		.4byte	.LFB53
 4460 009c A4000000 		.4byte	.LFE53-.LFB53
 4461 00a0 00000000 		.4byte	0
 4462 00a4 00000000 		.4byte	0
 4463              		.section	.debug_ranges,"",%progbits
 4464              	.Ldebug_ranges0:
 4465 0000 00000000 		.4byte	.LFB36
 4466 0004 84010000 		.4byte	.LFE36
 4467 0008 00000000 		.4byte	.LFB37
 4468 000c CC000000 		.4byte	.LFE37
 4469 0010 00000000 		.4byte	.LFB38
 4470 0014 AC000000 		.4byte	.LFE38
 4471 0018 00000000 		.4byte	.LFB39
 4472 001c 48000000 		.4byte	.LFE39
 4473 0020 00000000 		.4byte	.LFB40
 4474 0024 78010000 		.4byte	.LFE40
 4475 0028 00000000 		.4byte	.LFB41
 4476 002c 44000000 		.4byte	.LFE41
 4477 0030 00000000 		.4byte	.LFB42
 4478 0034 44000000 		.4byte	.LFE42
 4479 0038 00000000 		.4byte	.LFB43
 4480 003c BC000000 		.4byte	.LFE43
 4481 0040 00000000 		.4byte	.LFB44
 4482 0044 98000000 		.4byte	.LFE44
 4483 0048 00000000 		.4byte	.LFB45
 4484 004c 98000000 		.4byte	.LFE45
ARM GAS  C:\Users\13740\AppData\Local\Temp\ccBqru7T.s 			page 97


 4485 0050 00000000 		.4byte	.LFB46
 4486 0054 98000000 		.4byte	.LFE46
 4487 0058 00000000 		.4byte	.LFB47
 4488 005c 98000000 		.4byte	.LFE47
 4489 0060 00000000 		.4byte	.LFB48
 4490 0064 58000000 		.4byte	.LFE48
 4491 0068 00000000 		.4byte	.LFB49
 4492 006c 4C000000 		.4byte	.LFE49
 4493 0070 00000000 		.4byte	.LFB50
 4494 0074 AC000000 		.4byte	.LFE50
 4495 0078 00000000 		.4byte	.LFB51
 4496 007c 74000000 		.4byte	.LFE51
 4497 0080 00000000 		.4byte	.LFB52
 4498 0084 8C010000 		.4byte	.LFE52
 4499 0088 00000000 		.4byte	.LFB53
 4500 008c A4000000 		.4byte	.LFE53
 4501 0090 00000000 		.4byte	0
 4502 0094 00000000 		.4byte	0
 4503              		.section	.debug_line,"",%progbits
 4504              	.Ldebug_line0:
 4505 0000 0C040000 		.section	.debug_str,"MS",%progbits,1
 4505      02009A01 
 4505      00000201 
 4505      FB0E0D00 
 4505      01010101 
 4506              	.LASF218:
 4507 0000 53454E53 		.ascii	"SENSOR_LACTATE\000"
 4507      4F525F4C 
 4507      41435441 
 4507      544500
 4508              	.LASF76:
 4509 000f 4359424C 		.ascii	"CYBLE_EVT_GATTC_STOP_CMD_COMPLETE\000"
 4509      455F4556 
 4509      545F4741 
 4509      5454435F 
 4509      53544F50 
 4510              	.LASF72:
 4511 0031 4359424C 		.ascii	"CYBLE_EVT_GATTC_HANDLE_VALUE_NTF\000"
 4511      455F4556 
 4511      545F4741 
 4511      5454435F 
 4511      48414E44 
 4512              	.LASF198:
 4513 0052 567A6572 		.ascii	"Vzero\000"
 4513      6F00
 4514              	.LASF274:
 4515 0058 6D61696E 		.ascii	"main.c\000"
 4515      2E6300
 4516              	.LASF241:
 4517 005f 6E6F7469 		.ascii	"notificationHandle\000"
 4517      66696361 
 4517      74696F6E 
 4517      48616E64 
 4517      6C6500
 4518              	.LASF31:
 4519 0072 4359424C 		.ascii	"CYBLE_EVT_GAP_AUTH_REQ\000"
 4519      455F4556 
ARM GAS  C:\Users\13740\AppData\Local\Temp\ccBqru7T.s 			page 98


 4519      545F4741 
 4519      505F4155 
 4519      54485F52 
 4520              	.LASF201:
 4521 0089 45787452 		.ascii	"ExtRtiaVal\000"
 4521      74696156 
 4521      616C00
 4522              	.LASF104:
 4523 0094 4359424C 		.ascii	"CYBLE_ERROR_GAP_ROLE\000"
 4523      455F4552 
 4523      524F525F 
 4523      4741505F 
 4523      524F4C45 
 4524              	.LASF118:
 4525 00a9 4359424C 		.ascii	"CYBLE_ERROR_HARDWARE_FAILURE\000"
 4525      455F4552 
 4525      524F525F 
 4525      48415244 
 4525      57415245 
 4526              	.LASF56:
 4527 00c6 4359424C 		.ascii	"CYBLE_EVT_GATT_DISCONNECT_IND\000"
 4527      455F4556 
 4527      545F4741 
 4527      54545F44 
 4527      4953434F 
 4528              	.LASF213:
 4529 00e4 6C616374 		.ascii	"lactate\000"
 4529      61746500 
 4530              	.LASF197:
 4531 00ec 52746961 		.ascii	"RtiaCalValue\000"
 4531      43616C56 
 4531      616C7565 
 4531      00
 4532              	.LASF255:
 4533 00f9 6576656E 		.ascii	"eventParam\000"
 4533      74506172 
 4533      616D00
 4534              	.LASF51:
 4535 0104 4359424C 		.ascii	"CYBLE_EVT_GAP_SCAN_REQ_RECVD\000"
 4535      455F4556 
 4535      545F4741 
 4535      505F5343 
 4535      414E5F52 
 4536              	.LASF206:
 4537 0121 4669666F 		.ascii	"FifoDataCount\000"
 4537      44617461 
 4537      436F756E 
 4537      7400
 4538              	.LASF57:
 4539 012f 4359424C 		.ascii	"CYBLE_EVT_GATTS_XCNHG_MTU_REQ\000"
 4539      455F4556 
 4539      545F4741 
 4539      5454535F 
 4539      58434E48 
 4540              	.LASF75:
 4541 014d 4359424C 		.ascii	"CYBLE_EVT_GATTS_DATA_SIGNED_CMD_REQ\000"
 4541      455F4556 
ARM GAS  C:\Users\13740\AppData\Local\Temp\ccBqru7T.s 			page 99


 4541      545F4741 
 4541      5454535F 
 4541      44415441 
 4542              	.LASF97:
 4543 0171 4359424C 		.ascii	"CYBLE_ERROR_INVALID_OPERATION\000"
 4543      455F4552 
 4543      524F525F 
 4543      494E5641 
 4543      4C49445F 
 4544              	.LASF26:
 4545 018f 4359424C 		.ascii	"CYBLE_EVT_HARDWARE_ERROR\000"
 4545      455F4556 
 4545      545F4841 
 4545      52445741 
 4545      52455F45 
 4546              	.LASF11:
 4547 01a8 756E7369 		.ascii	"unsigned int\000"
 4547      676E6564 
 4547      20696E74 
 4547      00
 4548              	.LASF91:
 4549 01b5 4359424C 		.ascii	"CYBLE_EVT_LE_PING_AUTH_TIMEOUT\000"
 4549      455F4556 
 4549      545F4C45 
 4549      5F50494E 
 4549      475F4155 
 4550              	.LASF88:
 4551 01d4 4359424C 		.ascii	"CYBLE_EVT_L2CAP_CBFC_TX_CREDIT_IND\000"
 4551      455F4556 
 4551      545F4C32 
 4551      4341505F 
 4551      43424643 
 4552              	.LASF208:
 4553 01f7 43757272 		.ascii	"Current\000"
 4553      656E7400 
 4554              	.LASF68:
 4555 01ff 4359424C 		.ascii	"CYBLE_EVT_GATTS_WRITE_CMD_REQ\000"
 4555      455F4556 
 4555      545F4741 
 4555      5454535F 
 4555      57524954 
 4556              	.LASF5:
 4557 021d 5F5F696E 		.ascii	"__int32_t\000"
 4557      7433325F 
 4557      7400
 4558              	.LASF102:
 4559 0227 4359424C 		.ascii	"CYBLE_ERROR_NO_DEVICE_ENTITY\000"
 4559      455F4552 
 4559      524F525F 
 4559      4E4F5F44 
 4559      45564943 
 4560              	.LASF134:
 4561 0244 4359424C 		.ascii	"CYBLE_LP_MODE_T\000"
 4561      455F4C50 
 4561      5F4D4F44 
 4561      455F5400 
 4562              	.LASF232:
ARM GAS  C:\Users\13740\AppData\Local\Temp\ccBqru7T.s 			page 100


 4563 0254 766F6C74 		.ascii	"voltage\000"
 4563      61676500 
 4564              	.LASF273:
 4565 025c 474E5520 		.ascii	"GNU C11 5.4.1 20160609 (release) [ARM/embedded-5-br"
 4565      43313120 
 4565      352E342E 
 4565      31203230 
 4565      31363036 
 4566 028f 616E6368 		.ascii	"anch revision 237715] -mcpu=cortex-m0 -mthumb -g -O"
 4566      20726576 
 4566      6973696F 
 4566      6E203233 
 4566      37373135 
 4567 02c2 30202D66 		.ascii	"0 -ffunction-sections -ffat-lto-objects\000"
 4567      66756E63 
 4567      74696F6E 
 4567      2D736563 
 4567      74696F6E 
 4568              	.LASF207:
 4569 02ea 41707041 		.ascii	"AppAMPCfg_Type\000"
 4569      4D504366 
 4569      675F5479 
 4569      706500
 4570              	.LASF203:
 4571 02f9 496E6974 		.ascii	"InitSeqInfo\000"
 4571      53657149 
 4571      6E666F00 
 4572              	.LASF32:
 4573 0305 4359424C 		.ascii	"CYBLE_EVT_GAP_PASSKEY_ENTRY_REQUEST\000"
 4573      455F4556 
 4573      545F4741 
 4573      505F5041 
 4573      53534B45 
 4574              	.LASF271:
 4575 0329 616D7042 		.ascii	"ampBuffer\000"
 4575      75666665 
 4575      7200
 4576              	.LASF222:
 4577 0333 6572726F 		.ascii	"error\000"
 4577      7200
 4578              	.LASF190:
 4579 0339 41444350 		.ascii	"ADCPgaGain\000"
 4579      67614761 
 4579      696E00
 4580              	.LASF126:
 4581 0344 4359424C 		.ascii	"CYBLE_ERROR_INVALID_STATE\000"
 4581      455F4552 
 4581      524F525F 
 4581      494E5641 
 4581      4C49445F 
 4582              	.LASF189:
 4583 035e 5077724D 		.ascii	"PwrMod\000"
 4583      6F6400
 4584              	.LASF193:
 4585 0365 44617461 		.ascii	"DataFifoSrc\000"
 4585      4669666F 
 4585      53726300 
ARM GAS  C:\Users\13740\AppData\Local\Temp\ccBqru7T.s 			page 101


 4586              	.LASF205:
 4587 0371 53746F70 		.ascii	"StopRequired\000"
 4587      52657175 
 4587      69726564 
 4587      00
 4588              	.LASF245:
 4589 037e 53656E64 		.ascii	"SendGlucoseViaBLE\000"
 4589      476C7563 
 4589      6F736556 
 4589      6961424C 
 4589      4500
 4590              	.LASF266:
 4591 0390 6D61696E 		.ascii	"mainTimer\000"
 4591      54696D65 
 4591      7200
 4592              	.LASF40:
 4593 039a 4359424C 		.ascii	"CYBLE_EVT_GAP_CONNECTION_UPDATE_COMPLETE\000"
 4593      455F4556 
 4593      545F4741 
 4593      505F434F 
 4593      4E4E4543 
 4594              	.LASF43:
 4595 03c3 4359424C 		.ascii	"CYBLE_EVT_GAP_NUMERIC_COMPARISON_REQUEST\000"
 4595      455F4556 
 4595      545F4741 
 4595      505F4E55 
 4595      4D455249 
 4596              	.LASF183:
 4597 03ec 41646343 		.ascii	"AdcClkFreq\000"
 4597      6C6B4672 
 4597      657100
 4598              	.LASF181:
 4599 03f7 53797343 		.ascii	"SysClkFreq\000"
 4599      6C6B4672 
 4599      657100
 4600              	.LASF173:
 4601 0402 50686173 		.ascii	"Phase\000"
 4601      6500
 4602              	.LASF14:
 4603 0408 75696E74 		.ascii	"uint32_t\000"
 4603      33325F74 
 4603      00
 4604              	.LASF90:
 4605 0411 4359424C 		.ascii	"CYBLE_EVT_PENDING_FLASH_WRITE\000"
 4605      455F4556 
 4605      545F5045 
 4605      4E44494E 
 4605      475F464C 
 4606              	.LASF67:
 4607 042f 4359424C 		.ascii	"CYBLE_EVT_GATTC_WRITE_RSP\000"
 4607      455F4556 
 4607      545F4741 
 4607      5454435F 
 4607      57524954 
 4608              	.LASF18:
 4609 0449 666C6F61 		.ascii	"float\000"
 4609      7400
ARM GAS  C:\Users\13740\AppData\Local\Temp\ccBqru7T.s 			page 102


 4610              	.LASF243:
 4611 044f 53656E64 		.ascii	"SendTemperatureViaBLE\000"
 4611      54656D70 
 4611      65726174 
 4611      75726556 
 4611      6961424C 
 4612              	.LASF191:
 4613 0465 41444353 		.ascii	"ADCSinc3Osr\000"
 4613      696E6333 
 4613      4F737200 
 4614              	.LASF254:
 4615 0471 6576656E 		.ascii	"event\000"
 4615      7400
 4616              	.LASF28:
 4617 0477 4359424C 		.ascii	"CYBLE_EVT_STACK_BUSY_STATUS\000"
 4617      455F4556 
 4617      545F5354 
 4617      41434B5F 
 4617      42555359 
 4618              	.LASF81:
 4619 0493 4359424C 		.ascii	"CYBLE_EVT_L2CAP_COMMAND_REJ\000"
 4619      455F4556 
 4619      545F4C32 
 4619      4341505F 
 4619      434F4D4D 
 4620              	.LASF175:
 4621 04af 62506172 		.ascii	"bParaChanged\000"
 4621      61436861 
 4621      6E676564 
 4621      00
 4622              	.LASF258:
 4623 04bc 53656E64 		.ascii	"SendAllSensorDataViaBLE\000"
 4623      416C6C53 
 4623      656E736F 
 4623      72446174 
 4623      61566961 
 4624              	.LASF129:
 4625 04d4 4359424C 		.ascii	"CYBLE_BLESS_ACTIVE\000"
 4625      455F424C 
 4625      4553535F 
 4625      41435449 
 4625      564500
 4626              	.LASF187:
 4627 04e7 5263616C 		.ascii	"RcalVal\000"
 4627      56616C00 
 4628              	.LASF10:
 4629 04ef 6C6F6E67 		.ascii	"long long unsigned int\000"
 4629      206C6F6E 
 4629      6720756E 
 4629      7369676E 
 4629      65642069 
 4630              	.LASF251:
 4631 0506 70685661 		.ascii	"phValue\000"
 4631      6C756500 
 4632              	.LASF66:
 4633 050e 4359424C 		.ascii	"CYBLE_EVT_GATTS_WRITE_REQ\000"
 4633      455F4556 
ARM GAS  C:\Users\13740\AppData\Local\Temp\ccBqru7T.s 			page 103


 4633      545F4741 
 4633      5454535F 
 4633      57524954 
 4634              	.LASF167:
 4635 0528 53657152 		.ascii	"SeqRamAddr\000"
 4635      616D4164 
 4635      647200
 4636              	.LASF156:
 4637 0533 4359424C 		.ascii	"CYBLE_STATE_STOPPED\000"
 4637      455F5354 
 4637      4154455F 
 4637      53544F50 
 4637      50454400 
 4638              	.LASF247:
 4639 0547 53656E64 		.ascii	"SendLactateViaBLE\000"
 4639      4C616374 
 4639      61746556 
 4639      6961424C 
 4639      4500
 4640              	.LASF209:
 4641 0559 566F6C74 		.ascii	"Voltage\000"
 4641      61676500 
 4642              	.LASF210:
 4643 0561 66416D70 		.ascii	"fAmpRes_Type\000"
 4643      5265735F 
 4643      54797065 
 4643      00
 4644              	.LASF264:
 4645 056e 6379426C 		.ascii	"cyBle_connHandle\000"
 4645      655F636F 
 4645      6E6E4861 
 4645      6E646C65 
 4645      00
 4646              	.LASF61:
 4647 057f 4359424C 		.ascii	"CYBLE_EVT_GATTC_FIND_INFO_RSP\000"
 4647      455F4556 
 4647      545F4741 
 4647      5454435F 
 4647      46494E44 
 4648              	.LASF137:
 4649 059d 4359424C 		.ascii	"CYBLE_BLESS_STATE_SLEEP\000"
 4649      455F424C 
 4649      4553535F 
 4649      53544154 
 4649      455F534C 
 4650              	.LASF158:
 4651 05b5 4359424C 		.ascii	"CYBLE_STATE_CONNECTED\000"
 4651      455F5354 
 4651      4154455F 
 4651      434F4E4E 
 4651      45435445 
 4652              	.LASF238:
 4653 05cb 656E6162 		.ascii	"enable\000"
 4653      6C6500
 4654              	.LASF235:
 4655 05d2 4D656173 		.ascii	"MeasureAllSensors\000"
 4655      75726541 
ARM GAS  C:\Users\13740\AppData\Local\Temp\ccBqru7T.s 			page 104


 4655      6C6C5365 
 4655      6E736F72 
 4655      7300
 4656              	.LASF62:
 4657 05e4 4359424C 		.ascii	"CYBLE_EVT_GATTC_FIND_BY_TYPE_VALUE_RSP\000"
 4657      455F4556 
 4657      545F4741 
 4657      5454435F 
 4657      46494E44 
 4658              	.LASF152:
 4659 060b 76616C75 		.ascii	"value\000"
 4659      6500
 4660              	.LASF217:
 4661 0611 53454E53 		.ascii	"SENSOR_GLUCOSE\000"
 4661      4F525F47 
 4661      4C55434F 
 4661      534500
 4662              	.LASF70:
 4663 0620 4359424C 		.ascii	"CYBLE_EVT_GATTS_EXEC_WRITE_REQ\000"
 4663      455F4556 
 4663      545F4741 
 4663      5454535F 
 4663      45584543 
 4664              	.LASF71:
 4665 063f 4359424C 		.ascii	"CYBLE_EVT_GATTC_EXEC_WRITE_RSP\000"
 4665      455F4556 
 4665      545F4741 
 4665      5454435F 
 4665      45584543 
 4666              	.LASF263:
 4667 065e 6379426C 		.ascii	"cyBle_state\000"
 4667      655F7374 
 4667      61746500 
 4668              	.LASF149:
 4669 066a 4359424C 		.ascii	"CYBLE_CONN_HANDLE_T\000"
 4669      455F434F 
 4669      4E4E5F48 
 4669      414E444C 
 4669      455F5400 
 4670              	.LASF155:
 4671 067e 4359424C 		.ascii	"CYBLE_GATTS_HANDLE_VALUE_NTF_T\000"
 4671      455F4741 
 4671      5454535F 
 4671      48414E44 
 4671      4C455F56 
 4672              	.LASF272:
 4673 069d 616D7052 		.ascii	"ampResult\000"
 4673      6573756C 
 4673      7400
 4674              	.LASF195:
 4675 06a7 4C705469 		.ascii	"LpTiaRf\000"
 4675      61526600 
 4676              	.LASF270:
 4677 06af 70416D70 		.ascii	"pAmpCfg\000"
 4677      43666700 
 4678              	.LASF77:
 4679 06b7 4359424C 		.ascii	"CYBLE_EVT_GATTS_READ_CHAR_VAL_ACCESS_REQ\000"
ARM GAS  C:\Users\13740\AppData\Local\Temp\ccBqru7T.s 			page 105


 4679      455F4556 
 4679      545F4741 
 4679      5454535F 
 4679      52454144 
 4680              	.LASF34:
 4681 06e0 4359424C 		.ascii	"CYBLE_EVT_GAP_AUTH_COMPLETE\000"
 4681      455F4556 
 4681      545F4741 
 4681      505F4155 
 4681      54485F43 
 4682              	.LASF106:
 4683 06fc 4359424C 		.ascii	"CYBLE_ERROR_BT_ON_NOT_COMPLETED\000"
 4683      455F4552 
 4683      524F525F 
 4683      42545F4F 
 4683      4E5F4E4F 
 4684              	.LASF124:
 4685 071c 4359424C 		.ascii	"CYBLE_ERROR_IND_DISABLED\000"
 4685      455F4552 
 4685      524F525F 
 4685      494E445F 
 4685      44495341 
 4686              	.LASF244:
 4687 0735 74656D70 		.ascii	"tempString\000"
 4687      53747269 
 4687      6E6700
 4688              	.LASF19:
 4689 0740 646F7562 		.ascii	"double\000"
 4689      6C6500
 4690              	.LASF166:
 4691 0747 53657149 		.ascii	"SeqId\000"
 4691      6400
 4692              	.LASF63:
 4693 074d 4359424C 		.ascii	"CYBLE_EVT_GATTC_READ_RSP\000"
 4693      455F4556 
 4693      545F4741 
 4693      5454435F 
 4693      52454144 
 4694              	.LASF212:
 4695 0766 676C7563 		.ascii	"glucose\000"
 4695      6F736500 
 4696              	.LASF177:
 4697 076e 4D617853 		.ascii	"MaxSeqLen\000"
 4697      65714C65 
 4697      6E00
 4698              	.LASF58:
 4699 0778 4359424C 		.ascii	"CYBLE_EVT_GATTC_XCHNG_MTU_RSP\000"
 4699      455F4556 
 4699      545F4741 
 4699      5454435F 
 4699      5843484E 
 4700              	.LASF93:
 4701 0796 4359424C 		.ascii	"CYBLE_EVT_FLASH_CORRUPT\000"
 4701      455F4556 
 4701      545F464C 
 4701      4153485F 
 4701      434F5252 
ARM GAS  C:\Users\13740\AppData\Local\Temp\ccBqru7T.s 			page 106


 4702              	.LASF221:
 4703 07ae 416D7065 		.ascii	"AmperometricSensor_t\000"
 4703      726F6D65 
 4703      74726963 
 4703      53656E73 
 4703      6F725F74 
 4704              	.LASF267:
 4705 07c3 6D656173 		.ascii	"measurementFlag\000"
 4705      7572656D 
 4705      656E7446 
 4705      6C616700 
 4706              	.LASF153:
 4707 07d3 61747472 		.ascii	"attrHandle\000"
 4707      48616E64 
 4707      6C6500
 4708              	.LASF171:
 4709 07de 53455149 		.ascii	"SEQInfo_Type\000"
 4709      6E666F5F 
 4709      54797065 
 4709      00
 4710              	.LASF186:
 4711 07eb 4E756D4F 		.ascii	"NumOfData\000"
 4711      66446174 
 4711      6100
 4712              	.LASF194:
 4713 07f5 4C707469 		.ascii	"LptiaRtiaSel\000"
 4713      61527469 
 4713      6153656C 
 4713      00
 4714              	.LASF64:
 4715 0802 4359424C 		.ascii	"CYBLE_EVT_GATTC_READ_BLOB_RSP\000"
 4715      455F4556 
 4715      545F4741 
 4715      5454435F 
 4715      52454144 
 4716              	.LASF100:
 4717 0820 4359424C 		.ascii	"CYBLE_ERROR_OOB_NOT_AVAILABLE\000"
 4717      455F4552 
 4717      524F525F 
 4717      4F4F425F 
 4717      4E4F545F 
 4718              	.LASF80:
 4719 083e 4359424C 		.ascii	"CYBLE_EVT_L2CAP_CONN_PARAM_UPDATE_RSP\000"
 4719      455F4556 
 4719      545F4C32 
 4719      4341505F 
 4719      434F4E4E 
 4720              	.LASF87:
 4721 0864 4359424C 		.ascii	"CYBLE_EVT_L2CAP_CBFC_RX_CREDIT_IND\000"
 4721      455F4556 
 4721      545F4C32 
 4721      4341505F 
 4721      43424643 
 4722              	.LASF257:
 4723 0887 696E7465 		.ascii	"interruptStatus\000"
 4723      72727570 
 4723      74537461 
ARM GAS  C:\Users\13740\AppData\Local\Temp\ccBqru7T.s 			page 107


 4723      74757300 
 4724              	.LASF83:
 4725 0897 4359424C 		.ascii	"CYBLE_EVT_L2CAP_CBFC_CONN_CNF\000"
 4725      455F4556 
 4725      545F4C32 
 4725      4341505F 
 4725      43424643 
 4726              	.LASF161:
 4727 08b5 4359424C 		.ascii	"CYBLE_STATE_T\000"
 4727      455F5354 
 4727      4154455F 
 4727      5400
 4728              	.LASF185:
 4729 08c3 416D704F 		.ascii	"AmpODR\000"
 4729      445200
 4730              	.LASF202:
 4731 08ca 414D5049 		.ascii	"AMPInited\000"
 4731      6E697465 
 4731      6400
 4732              	.LASF211:
 4733 08d4 74656D70 		.ascii	"temperature\000"
 4733      65726174 
 4733      75726500 
 4734              	.LASF98:
 4735 08e0 4359424C 		.ascii	"CYBLE_ERROR_MEMORY_ALLOCATION_FAILED\000"
 4735      455F4552 
 4735      524F525F 
 4735      4D454D4F 
 4735      52595F41 
 4736              	.LASF119:
 4737 0905 4359424C 		.ascii	"CYBLE_ERROR_UNSUPPORTED_FEATURE_OR_PARAMETER_VALUE\000"
 4737      455F4552 
 4737      524F525F 
 4737      554E5355 
 4737      50504F52 
 4738              	.LASF184:
 4739 0938 4669666F 		.ascii	"FifoThresh\000"
 4739      54687265 
 4739      736800
 4740              	.LASF27:
 4741 0943 4359424C 		.ascii	"CYBLE_EVT_HCI_STATUS\000"
 4741      455F4556 
 4741      545F4843 
 4741      495F5354 
 4741      41545553 
 4742              	.LASF107:
 4743 0958 4359424C 		.ascii	"CYBLE_ERROR_SEC_FAILED\000"
 4743      455F4552 
 4743      524F525F 
 4743      5345435F 
 4743      4641494C 
 4744              	.LASF20:
 4745 096f 63686172 		.ascii	"char\000"
 4745      00
 4746              	.LASF223:
 4747 0974 63757272 		.ascii	"current_uA\000"
 4747      656E745F 
ARM GAS  C:\Users\13740\AppData\Local\Temp\ccBqru7T.s 			page 108


 4747      754100
 4748              	.LASF249:
 4749 097f 53656E64 		.ascii	"SendPHViaBLE\000"
 4749      50485669 
 4749      61424C45 
 4749      00
 4750              	.LASF276:
 4751 098c 4C6F7750 		.ascii	"LowPowerImplementation\000"
 4751      6F776572 
 4751      496D706C 
 4751      656D656E 
 4751      74617469 
 4752              	.LASF116:
 4753 09a3 4359424C 		.ascii	"CYBLE_ERROR_FLASH_WRITE_NOT_PERMITED\000"
 4753      455F4552 
 4753      524F525F 
 4753      464C4153 
 4753      485F5752 
 4754              	.LASF256:
 4755 09c8 626C654D 		.ascii	"bleMode\000"
 4755      6F646500 
 4756              	.LASF99:
 4757 09d0 4359424C 		.ascii	"CYBLE_ERROR_INSUFFICIENT_RESOURCES\000"
 4757      455F4552 
 4757      524F525F 
 4757      494E5355 
 4757      46464943 
 4758              	.LASF164:
 4759 09f3 62545255 		.ascii	"bTRUE\000"
 4759      4500
 4760              	.LASF117:
 4761 09f9 4359424C 		.ascii	"CYBLE_ERROR_MIC_AUTH_FAILED\000"
 4761      455F4552 
 4761      524F525F 
 4761      4D49435F 
 4761      41555448 
 4762              	.LASF151:
 4763 0a15 4359424C 		.ascii	"CYBLE_GATT_VALUE_T\000"
 4763      455F4741 
 4763      54545F56 
 4763      414C5545 
 4763      5F5400
 4764              	.LASF248:
 4765 0a28 6C616374 		.ascii	"lactateString\000"
 4765      61746553 
 4765      7472696E 
 4765      6700
 4766              	.LASF24:
 4767 0a36 4359424C 		.ascii	"CYBLE_EVT_STACK_ON\000"
 4767      455F4556 
 4767      545F5354 
 4767      41434B5F 
 4767      4F4E00
 4768              	.LASF16:
 4769 0a49 75696E74 		.ascii	"uint16\000"
 4769      313600
 4770              	.LASF146:
ARM GAS  C:\Users\13740\AppData\Local\Temp\ccBqru7T.s 			page 109


 4771 0a50 4359424C 		.ascii	"CYBLE_GATT_DB_ATTR_HANDLE_T\000"
 4771      455F4741 
 4771      54545F44 
 4771      425F4154 
 4771      54525F48 
 4772              	.LASF79:
 4773 0a6c 4359424C 		.ascii	"CYBLE_EVT_L2CAP_CONN_PARAM_UPDATE_REQ\000"
 4773      455F4556 
 4773      545F4C32 
 4773      4341505F 
 4773      434F4E4E 
 4774              	.LASF12:
 4775 0a92 75696E74 		.ascii	"uint8_t\000"
 4775      385F7400 
 4776              	.LASF115:
 4777 0a9a 4359424C 		.ascii	"CYBLE_ERROR_DEVICE_ALREADY_EXISTS\000"
 4777      455F4552 
 4777      524F525F 
 4777      44455649 
 4777      43455F41 
 4778              	.LASF229:
 4779 0abc 636F6E63 		.ascii	"concentration\000"
 4779      656E7472 
 4779      6174696F 
 4779      6E00
 4780              	.LASF174:
 4781 0aca 66496D70 		.ascii	"fImpPol_Type\000"
 4781      506F6C5F 
 4781      54797065 
 4781      00
 4782              	.LASF46:
 4783 0ad7 4359424C 		.ascii	"CYBLE_EVT_GAP_DATA_LENGTH_CHANGE\000"
 4783      455F4556 
 4783      545F4741 
 4783      505F4441 
 4783      54415F4C 
 4784              	.LASF200:
 4785 0af8 45787452 		.ascii	"ExtRtia\000"
 4785      74696100 
 4786              	.LASF269:
 4787 0b00 73656E73 		.ascii	"sensorData\000"
 4787      6F724461 
 4787      746100
 4788              	.LASF262:
 4789 0b0b 6379426C 		.ascii	"cyBle_pendingFlashWrite\000"
 4789      655F7065 
 4789      6E64696E 
 4789      67466C61 
 4789      73685772 
 4790              	.LASF123:
 4791 0b23 4359424C 		.ascii	"CYBLE_ERROR_NTF_DISABLED\000"
 4791      455F4552 
 4791      524F525F 
 4791      4E54465F 
 4791      44495341 
 4792              	.LASF127:
 4793 0b3c 4359424C 		.ascii	"CYBLE_ERROR_STACK_BUSY\000"
ARM GAS  C:\Users\13740\AppData\Local\Temp\ccBqru7T.s 			page 110


 4793      455F4552 
 4793      524F525F 
 4793      53544143 
 4793      4B5F4255 
 4794              	.LASF261:
 4795 0b53 6C6F6361 		.ascii	"localAddr\000"
 4795      6C416464 
 4795      7200
 4796              	.LASF265:
 4797 0b5d 61706952 		.ascii	"apiResult\000"
 4797      6573756C 
 4797      7400
 4798              	.LASF9:
 4799 0b67 6C6F6E67 		.ascii	"long long int\000"
 4799      206C6F6E 
 4799      6720696E 
 4799      7400
 4800              	.LASF140:
 4801 0b75 4359424C 		.ascii	"CYBLE_BLESS_STATE_DEEPSLEEP\000"
 4801      455F424C 
 4801      4553535F 
 4801      53544154 
 4801      455F4445 
 4802              	.LASF54:
 4803 0b91 4359424C 		.ascii	"CYBLE_EVT_GATTC_ERROR_RSP\000"
 4803      455F4556 
 4803      545F4741 
 4803      5454435F 
 4803      4552524F 
 4804              	.LASF236:
 4805 0bab 74656D70 		.ascii	"temp_factor\000"
 4805      5F666163 
 4805      746F7200 
 4806              	.LASF114:
 4807 0bb7 4359424C 		.ascii	"CYBLE_ERROR_GATT_DB_INVALID_ATTR_HANDLE\000"
 4807      455F4552 
 4807      524F525F 
 4807      47415454 
 4807      5F44425F 
 4808              	.LASF157:
 4809 0bdf 4359424C 		.ascii	"CYBLE_STATE_INITIALIZING\000"
 4809      455F5354 
 4809      4154455F 
 4809      494E4954 
 4809      49414C49 
 4810              	.LASF122:
 4811 0bf8 4359424C 		.ascii	"CYBLE_ERROR_MAX\000"
 4811      455F4552 
 4811      524F525F 
 4811      4D415800 
 4812              	.LASF219:
 4813 0c08 53454E53 		.ascii	"SENSOR_URIC_ACID\000"
 4813      4F525F55 
 4813      5249435F 
 4813      41434944 
 4813      00
 4814              	.LASF182:
ARM GAS  C:\Users\13740\AppData\Local\Temp\ccBqru7T.s 			page 111


 4815 0c19 57757074 		.ascii	"WuptClkFreq\000"
 4815      436C6B46 
 4815      72657100 
 4816              	.LASF111:
 4817 0c25 4359424C 		.ascii	"CYBLE_ERROR_L2CAP_CONNECTION_ENTITY_NOT_FOUND\000"
 4817      455F4552 
 4817      524F525F 
 4817      4C324341 
 4817      505F434F 
 4818              	.LASF214:
 4819 0c53 75726963 		.ascii	"uric_acid\000"
 4819      5F616369 
 4819      6400
 4820              	.LASF225:
 4821 0c5d 4D656173 		.ascii	"MeasureAmperometricSensor\000"
 4821      75726541 
 4821      6D706572 
 4821      6F6D6574 
 4821      72696353 
 4822              	.LASF108:
 4823 0c77 4359424C 		.ascii	"CYBLE_ERROR_L2CAP_PSM_WRONG_ENCODING\000"
 4823      455F4552 
 4823      524F525F 
 4823      4C324341 
 4823      505F5053 
 4824              	.LASF239:
 4825 0c9c 436F6E74 		.ascii	"ControlElectricalStimulation\000"
 4825      726F6C45 
 4825      6C656374 
 4825      72696361 
 4825      6C537469 
 4826              	.LASF36:
 4827 0cb9 4359424C 		.ascii	"CYBLE_EVT_GAPP_ADVERTISEMENT_START_STOP\000"
 4827      455F4556 
 4827      545F4741 
 4827      50505F41 
 4827      44564552 
 4828              	.LASF163:
 4829 0ce1 6246414C 		.ascii	"bFALSE\000"
 4829      534500
 4830              	.LASF147:
 4831 0ce8 62644861 		.ascii	"bdHandle\000"
 4831      6E646C65 
 4831      00
 4832              	.LASF17:
 4833 0cf1 75696E74 		.ascii	"uint32\000"
 4833      333200
 4834              	.LASF253:
 4835 0cf8 41707043 		.ascii	"AppCallBack\000"
 4835      616C6C42 
 4835      61636B00 
 4836              	.LASF86:
 4837 0d04 4359424C 		.ascii	"CYBLE_EVT_L2CAP_CBFC_DATA_READ\000"
 4837      455F4556 
 4837      545F4C32 
 4837      4341505F 
 4837      43424643 
ARM GAS  C:\Users\13740\AppData\Local\Temp\ccBqru7T.s 			page 112


 4838              	.LASF160:
 4839 0d23 4359424C 		.ascii	"CYBLE_STATE_DISCONNECTED\000"
 4839      455F5354 
 4839      4154455F 
 4839      44495343 
 4839      4F4E4E45 
 4840              	.LASF45:
 4841 0d3c 4359424C 		.ascii	"CYBLE_EVT_GAP_OOB_GENERATED_NOTIFICATION\000"
 4841      455F4556 
 4841      545F4741 
 4841      505F4F4F 
 4841      425F4745 
 4842              	.LASF237:
 4843 0d65 436F6E74 		.ascii	"ControlDrugRelease\000"
 4843      726F6C44 
 4843      72756752 
 4843      656C6561 
 4843      736500
 4844              	.LASF133:
 4845 0d78 4359424C 		.ascii	"CYBLE_BLESS_INVALID\000"
 4845      455F424C 
 4845      4553535F 
 4845      494E5641 
 4845      4C494400 
 4846              	.LASF92:
 4847 0d8c 4359424C 		.ascii	"CYBLE_EVT_HCI_PKT\000"
 4847      455F4556 
 4847      545F4843 
 4847      495F504B 
 4847      5400
 4848              	.LASF128:
 4849 0d9e 4359424C 		.ascii	"CYBLE_API_RESULT_T\000"
 4849      455F4150 
 4849      495F5245 
 4849      53554C54 
 4849      5F5400
 4850              	.LASF110:
 4851 0db1 4359424C 		.ascii	"CYBLE_ERROR_L2CAP_PSM_NOT_REGISTERED\000"
 4851      455F4552 
 4851      524F525F 
 4851      4C324341 
 4851      505F5053 
 4852              	.LASF165:
 4853 0dd6 426F6F6C 		.ascii	"BoolFlag\000"
 4853      466C6167 
 4853      00
 4854              	.LASF49:
 4855 0ddf 4359424C 		.ascii	"CYBLE_EVT_GAP_SMP_NEGOTIATED_AUTH_INFO\000"
 4855      455F4556 
 4855      545F4741 
 4855      505F534D 
 4855      505F4E45 
 4856              	.LASF168:
 4857 0e06 5365714C 		.ascii	"SeqLen\000"
 4857      656E00
 4858              	.LASF268:
 4859 0e0d 6C617374 		.ascii	"lastSendTime\000"
ARM GAS  C:\Users\13740\AppData\Local\Temp\ccBqru7T.s 			page 113


 4859      53656E64 
 4859      54696D65 
 4859      00
 4860              	.LASF21:
 4861 0e1a 6C6F6E67 		.ascii	"long double\000"
 4861      20646F75 
 4861      626C6500 
 4862              	.LASF73:
 4863 0e26 4359424C 		.ascii	"CYBLE_EVT_GATTC_HANDLE_VALUE_IND\000"
 4863      455F4556 
 4863      545F4741 
 4863      5454435F 
 4863      48414E44 
 4864              	.LASF105:
 4865 0e47 4359424C 		.ascii	"CYBLE_ERROR_TX_POWER_READ\000"
 4865      455F4552 
 4865      524F525F 
 4865      54585F50 
 4865      4F574552 
 4866              	.LASF192:
 4867 0e61 41444353 		.ascii	"ADCSinc2Osr\000"
 4867      696E6332 
 4867      4F737200 
 4868              	.LASF142:
 4869 0e6d 4359424C 		.ascii	"CYBLE_BLESS_STATE_INVALID\000"
 4869      455F424C 
 4869      4553535F 
 4869      53544154 
 4869      455F494E 
 4870              	.LASF103:
 4871 0e87 4359424C 		.ascii	"CYBLE_ERROR_REPEATED_ATTEMPTS\000"
 4871      455F4552 
 4871      524F525F 
 4871      52455045 
 4871      41544544 
 4872              	.LASF120:
 4873 0ea5 4359424C 		.ascii	"CYBLE_ERROR_FLASH_WRITE\000"
 4873      455F4552 
 4873      524F525F 
 4873      464C4153 
 4873      485F5752 
 4874              	.LASF25:
 4875 0ebd 4359424C 		.ascii	"CYBLE_EVT_TIMEOUT\000"
 4875      455F4556 
 4875      545F5449 
 4875      4D454F55 
 4875      5400
 4876              	.LASF39:
 4877 0ecf 4359424C 		.ascii	"CYBLE_EVT_GAP_ENCRYPT_CHANGE\000"
 4877      455F4556 
 4877      545F4741 
 4877      505F454E 
 4877      43525950 
 4878              	.LASF204:
 4879 0eec 4D656173 		.ascii	"MeasureSeqInfo\000"
 4879      75726553 
 4879      6571496E 
ARM GAS  C:\Users\13740\AppData\Local\Temp\ccBqru7T.s 			page 114


 4879      666F00
 4880              	.LASF22:
 4881 0efb 73697A65 		.ascii	"sizetype\000"
 4881      74797065 
 4881      00
 4882              	.LASF125:
 4883 0f04 4359424C 		.ascii	"CYBLE_ERROR_CHAR_IS_NOT_DISCOVERED\000"
 4883      455F4552 
 4883      524F525F 
 4883      43484152 
 4883      5F49535F 
 4884              	.LASF60:
 4885 0f27 4359424C 		.ascii	"CYBLE_EVT_GATTC_READ_BY_TYPE_RSP\000"
 4885      455F4556 
 4885      545F4741 
 4885      5454435F 
 4885      52454144 
 4886              	.LASF2:
 4887 0f48 73686F72 		.ascii	"short int\000"
 4887      7420696E 
 4887      7400
 4888              	.LASF199:
 4889 0f52 53656E73 		.ascii	"SensorBias\000"
 4889      6F724269 
 4889      617300
 4890              	.LASF179:
 4891 0f5d 4D617853 		.ascii	"MaxSeqLenCal\000"
 4891      65714C65 
 4891      6E43616C 
 4891      00
 4892              	.LASF6:
 4893 0f6a 6C6F6E67 		.ascii	"long int\000"
 4893      20696E74 
 4893      00
 4894              	.LASF178:
 4895 0f73 53657153 		.ascii	"SeqStartAddrCal\000"
 4895      74617274 
 4895      41646472 
 4895      43616C00 
 4896              	.LASF55:
 4897 0f83 4359424C 		.ascii	"CYBLE_EVT_GATT_CONNECT_IND\000"
 4897      455F4556 
 4897      545F4741 
 4897      54545F43 
 4897      4F4E4E45 
 4898              	.LASF94:
 4899 0f9e 4359424C 		.ascii	"CYBLE_EVT_MAX\000"
 4899      455F4556 
 4899      545F4D41 
 4899      5800
 4900              	.LASF47:
 4901 0fac 4359424C 		.ascii	"CYBLE_EVT_GAP_ENHANCE_CONN_COMPLETE\000"
 4901      455F4556 
 4901      545F4741 
 4901      505F454E 
 4901      48414E43 
 4902              	.LASF65:
ARM GAS  C:\Users\13740\AppData\Local\Temp\ccBqru7T.s 			page 115


 4903 0fd0 4359424C 		.ascii	"CYBLE_EVT_GATTC_READ_MULTI_RSP\000"
 4903      455F4556 
 4903      545F4741 
 4903      5454435F 
 4903      52454144 
 4904              	.LASF250:
 4905 0fef 70685374 		.ascii	"phString\000"
 4905      72696E67 
 4905      00
 4906              	.LASF84:
 4907 0ff8 4359424C 		.ascii	"CYBLE_EVT_L2CAP_CBFC_DISCONN_IND\000"
 4907      455F4556 
 4907      545F4C32 
 4907      4341505F 
 4907      43424643 
 4908              	.LASF138:
 4909 1019 4359424C 		.ascii	"CYBLE_BLESS_STATE_ECO_ON\000"
 4909      455F424C 
 4909      4553535F 
 4909      53544154 
 4909      455F4543 
 4910              	.LASF234:
 4911 1032 41443539 		.ascii	"AD5941_Initialize\000"
 4911      34315F49 
 4911      6E697469 
 4911      616C697A 
 4911      6500
 4912              	.LASF169:
 4913 1044 57726974 		.ascii	"WriteSRAM\000"
 4913      65535241 
 4913      4D00
 4914              	.LASF96:
 4915 104e 4359424C 		.ascii	"CYBLE_ERROR_INVALID_PARAMETER\000"
 4915      455F4552 
 4915      524F525F 
 4915      494E5641 
 4915      4C49445F 
 4916              	.LASF30:
 4917 106c 4359424C 		.ascii	"CYBLE_EVT_GAPC_SCAN_PROGRESS_RESULT\000"
 4917      455F4556 
 4917      545F4741 
 4917      50435F53 
 4917      43414E5F 
 4918              	.LASF131:
 4919 1090 4359424C 		.ascii	"CYBLE_BLESS_DEEPSLEEP\000"
 4919      455F424C 
 4919      4553535F 
 4919      44454550 
 4919      534C4545 
 4920              	.LASF180:
 4921 10a6 5265446F 		.ascii	"ReDoRtiaCal\000"
 4921      52746961 
 4921      43616C00 
 4922              	.LASF48:
 4923 10b2 4359424C 		.ascii	"CYBLE_EVT_GAPC_DIRECT_ADV_REPORT\000"
 4923      455F4556 
 4923      545F4741 
ARM GAS  C:\Users\13740\AppData\Local\Temp\ccBqru7T.s 			page 116


 4923      50435F44 
 4923      49524543 
 4924              	.LASF59:
 4925 10d3 4359424C 		.ascii	"CYBLE_EVT_GATTC_READ_BY_GROUP_TYPE_RSP\000"
 4925      455F4556 
 4925      545F4741 
 4925      5454435F 
 4925      52454144 
 4926              	.LASF150:
 4927 10fa 61637475 		.ascii	"actualLen\000"
 4927      616C4C65 
 4927      6E00
 4928              	.LASF141:
 4929 1104 4359424C 		.ascii	"CYBLE_BLESS_STATE_HIBERNATE\000"
 4929      455F424C 
 4929      4553535F 
 4929      53544154 
 4929      455F4849 
 4930              	.LASF145:
 4931 1120 4359424C 		.ascii	"CYBLE_GAP_BD_ADDR_T\000"
 4931      455F4741 
 4931      505F4244 
 4931      5F414444 
 4931      525F5400 
 4932              	.LASF112:
 4933 1134 4359424C 		.ascii	"CYBLE_ERROR_L2CAP_CHANNEL_NOT_FOUND\000"
 4933      455F4552 
 4933      524F525F 
 4933      4C324341 
 4933      505F4348 
 4934              	.LASF4:
 4935 1158 5F5F7569 		.ascii	"__uint8_t\000"
 4935      6E74385F 
 4935      7400
 4936              	.LASF38:
 4937 1162 4359424C 		.ascii	"CYBLE_EVT_GAP_DEVICE_DISCONNECTED\000"
 4937      455F4556 
 4937      545F4741 
 4937      505F4445 
 4937      56494345 
 4938              	.LASF188:
 4939 1184 41444352 		.ascii	"ADCRefVolt\000"
 4939      6566566F 
 4939      6C7400
 4940              	.LASF82:
 4941 118f 4359424C 		.ascii	"CYBLE_EVT_L2CAP_CBFC_CONN_IND\000"
 4941      455F4556 
 4941      545F4C32 
 4941      4341505F 
 4941      43424643 
 4942              	.LASF172:
 4943 11ad 4D61676E 		.ascii	"Magnitude\000"
 4943      69747564 
 4943      6500
 4944              	.LASF259:
 4945 11b7 6D61696E 		.ascii	"main\000"
 4945      00
ARM GAS  C:\Users\13740\AppData\Local\Temp\ccBqru7T.s 			page 117


 4946              	.LASF143:
 4947 11bc 62644164 		.ascii	"bdAddr\000"
 4947      647200
 4948              	.LASF8:
 4949 11c3 6C6F6E67 		.ascii	"long unsigned int\000"
 4949      20756E73 
 4949      69676E65 
 4949      6420696E 
 4949      7400
 4950              	.LASF109:
 4951 11d5 4359424C 		.ascii	"CYBLE_ERROR_L2CAP_PSM_ALREADY_REGISTERED\000"
 4951      455F4552 
 4951      524F525F 
 4951      4C324341 
 4951      505F5053 
 4952              	.LASF42:
 4953 11fe 4359424C 		.ascii	"CYBLE_EVT_GAP_KEYINFO_EXCHNGE_CMPLT\000"
 4953      455F4556 
 4953      545F4741 
 4953      505F4B45 
 4953      59494E46 
 4954              	.LASF33:
 4955 1222 4359424C 		.ascii	"CYBLE_EVT_GAP_PASSKEY_DISPLAY_REQUEST\000"
 4955      455F4556 
 4955      545F4741 
 4955      505F5041 
 4955      53534B45 
 4956              	.LASF78:
 4957 1248 4359424C 		.ascii	"CYBLE_EVT_GATTC_LONG_PROCEDURE_END\000"
 4957      455F4556 
 4957      545F4741 
 4957      5454435F 
 4957      4C4F4E47 
 4958              	.LASF101:
 4959 126b 4359424C 		.ascii	"CYBLE_ERROR_NO_CONNECTION\000"
 4959      455F4552 
 4959      524F525F 
 4959      4E4F5F43 
 4959      4F4E4E45 
 4960              	.LASF13:
 4961 1285 696E7433 		.ascii	"int32_t\000"
 4961      325F7400 
 4962              	.LASF154:
 4963 128d 4359424C 		.ascii	"CYBLE_GATT_HANDLE_VALUE_PAIR_T\000"
 4963      455F4741 
 4963      54545F48 
 4963      414E444C 
 4963      455F5641 
 4964              	.LASF89:
 4965 12ac 4359424C 		.ascii	"CYBLE_EVT_L2CAP_CBFC_DATA_WRITE_IND\000"
 4965      455F4556 
 4965      545F4C32 
 4965      4341505F 
 4965      43424643 
 4966              	.LASF252:
 4967 12d0 54696D65 		.ascii	"Timer_Interrupt\000"
 4967      725F496E 
ARM GAS  C:\Users\13740\AppData\Local\Temp\ccBqru7T.s 			page 118


 4967      74657272 
 4967      75707400 
 4968              	.LASF35:
 4969 12e0 4359424C 		.ascii	"CYBLE_EVT_GAP_AUTH_FAILED\000"
 4969      455F4556 
 4969      545F4741 
 4969      505F4155 
 4969      54485F46 
 4970              	.LASF29:
 4971 12fa 4359424C 		.ascii	"CYBLE_EVT_MEMORY_REQUEST\000"
 4971      455F4556 
 4971      545F4D45 
 4971      4D4F5259 
 4971      5F524551 
 4972              	.LASF220:
 4973 1313 53454E53 		.ascii	"SENSOR_COUNT\000"
 4973      4F525F43 
 4973      4F554E54 
 4973      00
 4974              	.LASF144:
 4975 1320 74797065 		.ascii	"type\000"
 4975      00
 4976              	.LASF44:
 4977 1325 4359424C 		.ascii	"CYBLE_EVT_GAP_KEYPRESS_NOTIFICATION\000"
 4977      455F4556 
 4977      545F4741 
 4977      505F4B45 
 4977      59505245 
 4978              	.LASF240:
 4979 1349 53656E64 		.ascii	"SendDataViaBLE\000"
 4979      44617461 
 4979      56696142 
 4979      4C4500
 4980              	.LASF1:
 4981 1358 756E7369 		.ascii	"unsigned char\000"
 4981      676E6564 
 4981      20636861 
 4981      7200
 4982              	.LASF7:
 4983 1366 5F5F7569 		.ascii	"__uint32_t\000"
 4983      6E743332 
 4983      5F7400
 4984              	.LASF224:
 4985 1371 64617461 		.ascii	"dataCount\000"
 4985      436F756E 
 4985      7400
 4986              	.LASF216:
 4987 137b 53656E73 		.ascii	"SensorData_t\000"
 4987      6F724461 
 4987      74615F74 
 4987      00
 4988              	.LASF139:
 4989 1388 4359424C 		.ascii	"CYBLE_BLESS_STATE_ECO_STABLE\000"
 4989      455F424C 
 4989      4553535F 
 4989      53544154 
 4989      455F4543 
ARM GAS  C:\Users\13740\AppData\Local\Temp\ccBqru7T.s 			page 119


 4990              	.LASF260:
 4991 13a5 53746172 		.ascii	"StartAdvertisement\000"
 4991      74416476 
 4991      65727469 
 4991      73656D65 
 4991      6E7400
 4992              	.LASF23:
 4993 13b8 4359424C 		.ascii	"CYBLE_EVT_HOST_INVALID\000"
 4993      455F4556 
 4993      545F484F 
 4993      53545F49 
 4993      4E56414C 
 4994              	.LASF132:
 4995 13cf 4359424C 		.ascii	"CYBLE_BLESS_HIBERNATE\000"
 4995      455F424C 
 4995      4553535F 
 4995      48494245 
 4995      524E4154 
 4996              	.LASF53:
 4997 13e5 4359424C 		.ascii	"CYBLE_EVT_GAP_SMP_LOC_P256_KEYS_GEN_AND_SET_COMPLET"
 4997      455F4556 
 4997      545F4741 
 4997      505F534D 
 4997      505F4C4F 
 4998 1418 4500     		.ascii	"E\000"
 4999              	.LASF85:
 5000 141a 4359424C 		.ascii	"CYBLE_EVT_L2CAP_CBFC_DISCONN_CNF\000"
 5000      455F4556 
 5000      545F4C32 
 5000      4341505F 
 5000      43424643 
 5001              	.LASF37:
 5002 143b 4359424C 		.ascii	"CYBLE_EVT_GAP_DEVICE_CONNECTED\000"
 5002      455F4556 
 5002      545F4741 
 5002      505F4445 
 5002      56494345 
 5003              	.LASF246:
 5004 145a 676C7563 		.ascii	"glucoseString\000"
 5004      6F736553 
 5004      7472696E 
 5004      6700
 5005              	.LASF242:
 5006 1468 64617461 		.ascii	"dataPacket\000"
 5006      5061636B 
 5006      657400
 5007              	.LASF69:
 5008 1473 4359424C 		.ascii	"CYBLE_EVT_GATTS_PREP_WRITE_REQ\000"
 5008      455F4556 
 5008      545F4741 
 5008      5454535F 
 5008      50524550 
 5009              	.LASF226:
 5010 1492 436F6E76 		.ascii	"ConvertCurrentToConcentration\000"
 5010      65727443 
 5010      75727265 
 5010      6E74546F 
ARM GAS  C:\Users\13740\AppData\Local\Temp\ccBqru7T.s 			page 120


 5010      436F6E63 
 5011              	.LASF50:
 5012 14b0 4359424C 		.ascii	"CYBLE_EVT_GAP_CONN_ESTB\000"
 5012      455F4556 
 5012      545F4741 
 5012      505F434F 
 5012      4E4E5F45 
 5013              	.LASF52:
 5014 14c8 4359424C 		.ascii	"CYBLE_EVT_GAP_AUTH_REQ_REPLY_ERR\000"
 5014      455F4556 
 5014      545F4741 
 5014      505F4155 
 5014      54485F52 
 5015              	.LASF215:
 5016 14e9 74696D65 		.ascii	"timestamp\000"
 5016      7374616D 
 5016      7000
 5017              	.LASF233:
 5018 14f3 72657369 		.ascii	"resistance\000"
 5018      7374616E 
 5018      636500
 5019              	.LASF0:
 5020 14fe 7369676E 		.ascii	"signed char\000"
 5020      65642063 
 5020      68617200 
 5021              	.LASF196:
 5022 150a 4C705469 		.ascii	"LpTiaRl\000"
 5022      61526C00 
 5023              	.LASF3:
 5024 1512 73686F72 		.ascii	"short unsigned int\000"
 5024      7420756E 
 5024      7369676E 
 5024      65642069 
 5024      6E7400
 5025              	.LASF275:
 5026 1525 453A5C64 		.ascii	"E:\\desktop\\bu\\eda\\Transistor\\Transistor.cydsn\000"
 5026      65736B74 
 5026      6F705C62 
 5026      755C6564 
 5026      615C5472 
 5027              	.LASF230:
 5028 1553 4D656173 		.ascii	"MeasureTemperature\000"
 5028      75726554 
 5028      656D7065 
 5028      72617475 
 5028      726500
 5029              	.LASF162:
 5030 1566 41443539 		.ascii	"AD5940Err\000"
 5030      34304572 
 5030      7200
 5031              	.LASF121:
 5032 1570 4359424C 		.ascii	"CYBLE_ERROR_CONTROLLER_BUSY\000"
 5032      455F4552 
 5032      524F525F 
 5032      434F4E54 
 5032      524F4C4C 
 5033              	.LASF113:
ARM GAS  C:\Users\13740\AppData\Local\Temp\ccBqru7T.s 			page 121


 5034 158c 4359424C 		.ascii	"CYBLE_ERROR_L2CAP_PSM_NOT_IN_RANGE\000"
 5034      455F4552 
 5034      524F525F 
 5034      4C324341 
 5034      505F5053 
 5035              	.LASF15:
 5036 15af 75696E74 		.ascii	"uint8\000"
 5036      3800
 5037              	.LASF95:
 5038 15b5 4359424C 		.ascii	"CYBLE_ERROR_OK\000"
 5038      455F4552 
 5038      524F525F 
 5038      4F4B00
 5039              	.LASF228:
 5040 15c4 63757272 		.ascii	"current_nA\000"
 5040      656E745F 
 5040      6E4100
 5041              	.LASF74:
 5042 15cf 4359424C 		.ascii	"CYBLE_EVT_GATTS_HANDLE_VALUE_CNF\000"
 5042      455F4556 
 5042      545F4741 
 5042      5454535F 
 5042      48414E44 
 5043              	.LASF130:
 5044 15f0 4359424C 		.ascii	"CYBLE_BLESS_SLEEP\000"
 5044      455F424C 
 5044      4553535F 
 5044      534C4545 
 5044      5000
 5045              	.LASF227:
 5046 1602 73656E73 		.ascii	"sensorType\000"
 5046      6F725479 
 5046      706500
 5047              	.LASF148:
 5048 160d 61747449 		.ascii	"attId\000"
 5048      6400
 5049              	.LASF135:
 5050 1613 4359424C 		.ascii	"CYBLE_BLESS_STATE_ACTIVE\000"
 5050      455F424C 
 5050      4553535F 
 5050      53544154 
 5050      455F4143 
 5051              	.LASF136:
 5052 162c 4359424C 		.ascii	"CYBLE_BLESS_STATE_EVENT_CLOSE\000"
 5052      455F424C 
 5052      4553535F 
 5052      53544154 
 5052      455F4556 
 5053              	.LASF41:
 5054 164a 4359424C 		.ascii	"CYBLE_EVT_GAPC_SCAN_START_STOP\000"
 5054      455F4556 
 5054      545F4741 
 5054      50435F53 
 5054      43414E5F 
 5055              	.LASF176:
 5056 1669 53657153 		.ascii	"SeqStartAddr\000"
 5056      74617274 
ARM GAS  C:\Users\13740\AppData\Local\Temp\ccBqru7T.s 			page 122


 5056      41646472 
 5056      00
 5057              	.LASF231:
 5058 1676 61646343 		.ascii	"adcCode\000"
 5058      6F646500 
 5059              	.LASF159:
 5060 167e 4359424C 		.ascii	"CYBLE_STATE_ADVERTISING\000"
 5060      455F5354 
 5060      4154455F 
 5060      41445645 
 5060      52544953 
 5061              	.LASF170:
 5062 1696 70536571 		.ascii	"pSeqCmd\000"
 5062      436D6400 
 5063              		.ident	"GCC: (GNU Tools for ARM Embedded Processors) 5.4.1 20160609 (release) [ARM/embedded-5-bran
