ARM GAS  C:\Users\13740\AppData\Local\Temp\cckeVujV.s 			page 1


   1              		.syntax unified
   2              		.cpu cortex-m0
   3              		.fpu softvfp
   4              		.eabi_attribute 20, 1
   5              		.eabi_attribute 21, 1
   6              		.eabi_attribute 23, 3
   7              		.eabi_attribute 24, 1
   8              		.eabi_attribute 25, 1
   9              		.eabi_attribute 26, 1
  10              		.eabi_attribute 30, 6
  11              		.eabi_attribute 34, 0
  12              		.eabi_attribute 18, 4
  13              		.thumb
  14              		.syntax unified
  15              		.file	"main.c"
  16              		.text
  17              	.Ltext0:
  18              		.cfi_sections	.debug_frame
  19              		.global	lastSendTime
  20              		.bss
  21              		.align	2
  22              		.type	lastSendTime, %object
  23              		.size	lastSendTime, 4
  24              	lastSendTime:
  25 0000 00000000 		.space	4
  26              		.global	mainTimer
  27              		.align	2
  28              		.type	mainTimer, %object
  29              		.size	mainTimer, 4
  30              	mainTimer:
  31 0004 00000000 		.space	4
  32              		.global	measurementFlag
  33              		.type	measurementFlag, %object
  34              		.size	measurementFlag, 1
  35              	measurementFlag:
  36 0008 00       		.space	1
  37              		.comm	apiResult,2,2
  38              		.global	sensorData
  39 0009 000000   		.align	2
  40              		.type	sensorData, %object
  41              		.size	sensorData, 32
  42              	sensorData:
  43 000c 00000000 		.space	32
  43      00000000 
  43      00000000 
  43      00000000 
  43      00000000 
  44              		.comm	pAmpCfg,4,4
  45              		.comm	ampBuffer,2048,4
  46              		.comm	ampResult,8,4
  47              		.section	.rodata
  48              		.align	2
  49              	.LC0:
  50 0000 5B494E49 		.ascii	"[INIT] Step 1: Resetting AD5940...\000"
  50      545D2053 
  50      74657020 
  50      313A2052 
ARM GAS  C:\Users\13740\AppData\Local\Temp\cckeVujV.s 			page 2


  50      65736574 
  51 0023 00       		.align	2
  52              	.LC2:
  53 0024 5B494E49 		.ascii	"[INIT] Reset complete\000"
  53      545D2052 
  53      65736574 
  53      20636F6D 
  53      706C6574 
  54 003a 0000     		.align	2
  55              	.LC4:
  56 003c 5B494E49 		.ascii	"[INIT] Step 2: Initializing MCU SPI resources...\000"
  56      545D2053 
  56      74657020 
  56      323A2049 
  56      6E697469 
  57 006d 000000   		.align	2
  58              	.LC6:
  59 0070 5B494E49 		.ascii	"[INIT] SPI resources initialized\000"
  59      545D2053 
  59      50492072 
  59      65736F75 
  59      72636573 
  60 0091 000000   		.align	2
  61              	.LC8:
  62 0094 5B494E49 		.ascii	"[INIT] Step 2.5: Running AD5940_Initialize (Table 1"
  62      545D2053 
  62      74657020 
  62      322E353A 
  62      2052756E 
  63 00c7 34207365 		.ascii	"4 sequence)...\000"
  63      7175656E 
  63      6365292E 
  63      2E2E00
  64 00d6 0000     		.align	2
  65              	.LC10:
  66 00d8 5B494E49 		.ascii	"[INIT] AD5940_Initialize complete\000"
  66      545D2041 
  66      44353934 
  66      305F496E 
  66      69746961 
  67 00fa 0000     		.align	2
  68              	.LC12:
  69 00fc 5B444542 		.ascii	"[DEBUG] CHIPID after 50ms wait: 0x%lX\012\000"
  69      55475D20 
  69      43484950 
  69      49442061 
  69      66746572 
  70 0123 00       		.align	2
  71              	.LC14:
  72 0124 5B455252 		.ascii	"[ERROR] Chip not responding! Got: 0x%lX\012\000"
  72      4F525D20 
  72      43686970 
  72      206E6F74 
  72      20726573 
  73 014d 000000   		.align	2
  74              	.LC16:
  75 0150 5B524554 		.ascii	"[RETRY] CHIPID after 150ms: 0x%lX\012\000"
ARM GAS  C:\Users\13740\AppData\Local\Temp\cckeVujV.s 			page 3


  75      52595D20 
  75      43484950 
  75      49442061 
  75      66746572 
  76 0173 00       		.align	2
  77              	.LC18:
  78 0174 5B494E49 		.ascii	"[INIT] Step 3: Getting config pointer...\000"
  78      545D2053 
  78      74657020 
  78      333A2047 
  78      65747469 
  79 019d 000000   		.align	2
  80              	.LC21:
  81 01a0 5B455252 		.ascii	"[ERROR] pAmpCfg is NULL!\000"
  81      4F525D20 
  81      70416D70 
  81      43666720 
  81      6973204E 
  82 01b9 000000   		.align	2
  83              	.LC23:
  84 01bc 5B494E49 		.ascii	"[INIT] Config pointer obtained: %p\012\000"
  84      545D2043 
  84      6F6E6669 
  84      6720706F 
  84      696E7465 
  85              		.align	2
  86              	.LC25:
  87 01e0 5B494E49 		.ascii	"[INIT] Step 4: Configuring amperometric parameters."
  87      545D2053 
  87      74657020 
  87      343A2043 
  87      6F6E6669 
  88 0213 2E2E00   		.ascii	"..\000"
  89 0216 0000     		.align	2
  90              	.LC27:
  91 0218 5B494E49 		.ascii	"[INIT] Parameters configured\000"
  91      545D2050 
  91      6172616D 
  91      65746572 
  91      7320636F 
  92 0235 000000   		.align	2
  93              	.LC29:
  94 0238 5B494E49 		.ascii	"[INIT] AMPInited before AppAMPInit: %d\012\000"
  94      545D2041 
  94      4D50496E 
  94      69746564 
  94      20626566 
  95              		.align	2
  96              	.LC31:
  97 0260 5B494E49 		.ascii	"[INIT] Step 5: Calling AppAMPInit...\000"
  97      545D2053 
  97      74657020 
  97      353A2043 
  97      616C6C69 
  98 0285 000000   		.align	2
  99              	.LC34:
 100 0288 5B494E49 		.ascii	"[INIT] AppAMPInit returned: %d\012\000"
ARM GAS  C:\Users\13740\AppData\Local\Temp\cckeVujV.s 			page 4


 100      545D2041 
 100      7070414D 
 100      50496E69 
 100      74207265 
 101              		.align	2
 102              	.LC36:
 103 02a8 5B494E49 		.ascii	"[INIT] AMPInited after AppAMPInit: %d\012\000"
 103      545D2041 
 103      4D50496E 
 103      69746564 
 103      20616674 
 104 02cf 00       		.align	2
 105              	.LC38:
 106 02d0 5B4F4B5D 		.ascii	"[OK] AD5941 initialization successful\000"
 106      20414435 
 106      39343120 
 106      696E6974 
 106      69616C69 
 107 02f6 0000     		.align	2
 108              	.LC40:
 109 02f8 5B455252 		.ascii	"[ERROR] AD5941 initialization failed: error=%d\012\000"
 109      4F525D20 
 109      41443539 
 109      34312069 
 109      6E697469 
 110              		.align	2
 111              	.LC42:
 112 0328 0A5B4944 		.ascii	"\012[ID CHECK] Reading AD5941 ID registers...\000"
 112      20434845 
 112      434B5D20 
 112      52656164 
 112      696E6720 
 113 0353 00       		.align	2
 114              	.LC44:
 115 0354 41444949 		.ascii	"ADIID: 0x%lX\012\000"
 115      443A2030 
 115      78256C58 
 115      0A00
 116 0362 0000     		.align	2
 117              	.LC46:
 118 0364 43484950 		.ascii	"CHIPID: 0x%lX\012\000"
 118      49443A20 
 118      3078256C 
 118      580A00
 119 0373 00       		.align	2
 120              	.LC48:
 121 0374 5B4F4B5D 		.ascii	"[OK] ID registers correct!\000"
 121      20494420 
 121      72656769 
 121      73746572 
 121      7320636F 
 122 038f 00       		.align	2
 123              	.LC50:
 124 0390 5B455252 		.ascii	"[ERROR] Still getting 0x808080 - MISO issue persist"
 124      4F525D20 
 124      5374696C 
 124      6C206765 
ARM GAS  C:\Users\13740\AppData\Local\Temp\cckeVujV.s 			page 5


 124      7474696E 
 125 03c3 732100   		.ascii	"s!\000"
 126 03c6 0000     		.align	2
 127              	.LC52:
 128 03c8 5B574152 		.ascii	"[WARNING] Unexpected ID values\000"
 128      4E494E47 
 128      5D20556E 
 128      65787065 
 128      63746564 
 129              		.section	.text.AD5941_Initialize,"ax",%progbits
 130              		.align	2
 131              		.global	AD5941_Initialize
 132              		.code	16
 133              		.thumb_func
 134              		.type	AD5941_Initialize, %function
 135              	AD5941_Initialize:
 136              	.LFB36:
 137              		.file 1 "main.c"
   1:main.c        **** 
   2:main.c        **** /*******************************************************************************
   3:main.c        **** * File Name: main.c
   4:main.c        **** *
   5:main.c        **** * Version 2.0
   6:main.c        **** *
   7:main.c        **** * Description:
   8:main.c        **** *  Â§öË∑ØÁîüÁâ©‰º†ÊÑüÂô®Á≥ªÁªü - ‰øÆÂ§çÂêéÁöÑÂÆåÊï¥ÁâàÊú¨
   9:main.c        **** *  ‰ΩøÁî®AD5940ÂÜÖÁΩÆADCÔºå‰∏ç‰æùËµñPSoC ADCÊ®°Âùó
  10:main.c        **** *
  11:main.c        **** ********************************************************************************/
  12:main.c        **** 
  13:main.c        **** // /* ÈìæÊé•Êï∞Â≠¶Â∫ìÔºàGCCÁºñËØëÂô®Ôºâ */
  14:main.c        **** // #pragma comment(lib, "libm.a")
  15:main.c        **** 
  16:main.c        **** #include "main.h"
  17:main.c        **** #include "ad5940.h"
  18:main.c        **** #include "Amperometric.h"
  19:main.c        **** 
  20:main.c        **** // Âú® main() ÂáΩÊï∞ÂºÄÂ§¥Ê∑ªÂä†ÂèòÈáè
  21:main.c        **** uint32 lastSendTime = 0;  // ‰∏äÊ¨°ÂèëÈÄÅÊï∞ÊçÆÁöÑÊó∂Èó¥
  22:main.c        **** #define SEND_INTERVAL 3   // ÊØè3ÁßíÂèëÈÄÅ‰∏ÄÊ¨°Êï∞ÊçÆ
  23:main.c        **** 
  24:main.c        **** /*******************************************************************************
  25:main.c        **** * ÂÖ®Â±ÄÂèòÈáè
  26:main.c        **** *******************************************************************************/
  27:main.c        **** volatile uint32 mainTimer = 0;
  28:main.c        **** volatile uint8 measurementFlag = 0;
  29:main.c        **** CYBLE_API_RESULT_T apiResult;
  30:main.c        **** 
  31:main.c        **** // ‰º†ÊÑüÂô®Êï∞ÊçÆÁªìÊûÑ
  32:main.c        **** typedef struct {
  33:main.c        ****     float temperature;      // Ê∏©Â∫¶ (¬∞C) - ‰ªéAD5940ËØªÂèñ
  34:main.c        ****     float glucose;         // Ëë°ËêÑÁ≥ñ (mM)
  35:main.c        ****     float lactate;         // ‰π≥ÈÖ∏ (mM)
  36:main.c        ****     float uric_acid;       // Â∞øÈÖ∏ (ŒºM)
  37:main.c        ****     uint32 timestamp;      // Êó∂Èó¥Êà≥
  38:main.c        ****     
  39:main.c        ****     // Êñ∞Â¢ûÔºöÂéüÂßãÁîµÊµÅÂÄºÔºà‰ªéÊ∫êË°®/AD5940ËØªÂèñÔºâ
ARM GAS  C:\Users\13740\AppData\Local\Temp\cckeVujV.s 			page 6


  40:main.c        ****     float current_glucose_nA;   // Ëë°ËêÑÁ≥ñ‰º†ÊÑüÂô®ÁîµÊµÅ (nA)
  41:main.c        ****     float current_lactate_nA;   // ‰π≥ÈÖ∏‰º†ÊÑüÂô®ÁîµÊµÅ (nA)
  42:main.c        ****     float current_uric_nA;      // Â∞øÈÖ∏‰º†ÊÑüÂô®ÁîµÊµÅ (nA)    
  43:main.c        **** } SensorData_t;
  44:main.c        **** 
  45:main.c        **** // ‰º†ÊÑüÂô®Êï∞ÊçÆÂÖ®Â±ÄÂèòÈáèÔºàÂÆö‰πâÂú®main.h‰∏≠ÁöÑSensorData_tÁªìÊûÑÔºâ
  46:main.c        **** SensorData_t sensorData = {0};
  47:main.c        **** 
  48:main.c        **** typedef enum {
  49:main.c        ****     SENSOR_GLUCOSE = 0,
  50:main.c        ****     SENSOR_LACTATE = 1,
  51:main.c        ****     SENSOR_URIC_ACID = 2,
  52:main.c        ****     SENSOR_COUNT = 3
  53:main.c        **** } AmperometricSensor_t;
  54:main.c        **** 
  55:main.c        **** 
  56:main.c        **** 
  57:main.c        **** 
  58:main.c        **** 
  59:main.c        **** // AD5941Áõ∏ÂÖ≥ÂèòÈáè
  60:main.c        **** AppAMPCfg_Type *pAmpCfg;
  61:main.c        **** uint32 ampBuffer[512];  // Áî®‰∫éAppAMPInitÁöÑÁºìÂÜ≤Âå∫
  62:main.c        **** fAmpRes_Type ampResult;
  63:main.c        **** 
  64:main.c        **** /*******************************************************************************
  65:main.c        **** * Function Name: AD5941_Initialize
  66:main.c        **** ********************************************************************************
  67:main.c        **** * Summary:
  68:main.c        **** *   ÂàùÂßãÂåñAD5941ÁîµÂåñÂ≠¶ÂâçÁ´ØËäØÁâá - ‰øÆÂ§çÂêéÁöÑÁâàÊú¨
  69:main.c        **** *******************************************************************************/
  70:main.c        **** void AD5941_Initialize(void)
  71:main.c        **** {
 138              		.loc 1 71 0
 139              		.cfi_startproc
 140              		@ args = 0, pretend = 0, frame = 16
 141              		@ frame_needed = 1, uses_anonymous_args = 0
 142 0000 80B5     		push	{r7, lr}
 143              		.cfi_def_cfa_offset 8
 144              		.cfi_offset 7, -8
 145              		.cfi_offset 14, -4
 146 0002 84B0     		sub	sp, sp, #16
 147              		.cfi_def_cfa_offset 24
 148 0004 00AF     		add	r7, sp, #0
 149              		.cfi_def_cfa_register 7
  72:main.c        ****     AD5940Err error;
  73:main.c        ****     
  74:main.c        ****     // Ê≠•È™§1: Â§ç‰ΩçAD5940
  75:main.c        ****     printf("[INIT] Step 1: Resetting AD5940...\n");
 150              		.loc 1 75 0
 151 0006 B24B     		ldr	r3, .L10
 152 0008 1800     		movs	r0, r3
 153 000a FFF7FEFF 		bl	puts
  76:main.c        ****     AD5940_RST_Write(0);
 154              		.loc 1 76 0
 155 000e 0020     		movs	r0, #0
 156 0010 FFF7FEFF 		bl	AD5940_RST_Write
  77:main.c        ****     CyDelay(10);
ARM GAS  C:\Users\13740\AppData\Local\Temp\cckeVujV.s 			page 7


 157              		.loc 1 77 0
 158 0014 0A20     		movs	r0, #10
 159 0016 FFF7FEFF 		bl	CyDelay
  78:main.c        ****     AD5940_RST_Write(1);
 160              		.loc 1 78 0
 161 001a 0120     		movs	r0, #1
 162 001c FFF7FEFF 		bl	AD5940_RST_Write
  79:main.c        ****     CyDelay(100);
 163              		.loc 1 79 0
 164 0020 6420     		movs	r0, #100
 165 0022 FFF7FEFF 		bl	CyDelay
  80:main.c        ****     printf("[INIT] Reset complete\n");
 166              		.loc 1 80 0
 167 0026 AB4B     		ldr	r3, .L10+4
 168 0028 1800     		movs	r0, r3
 169 002a FFF7FEFF 		bl	puts
  81:main.c        ****     
  82:main.c        ****     // Ê≠•È™§2: ÂàùÂßãÂåñMCUËµÑÊ∫êÔºàSPIÈÄö‰ø°Ôºâ
  83:main.c        ****     printf("[INIT] Step 2: Initializing MCU SPI resources...\n");
 170              		.loc 1 83 0
 171 002e AA4B     		ldr	r3, .L10+8
 172 0030 1800     		movs	r0, r3
 173 0032 FFF7FEFF 		bl	puts
  84:main.c        ****     AD5940_MCUResourceInit(NULL);
 174              		.loc 1 84 0
 175 0036 0020     		movs	r0, #0
 176 0038 FFF7FEFF 		bl	AD5940_MCUResourceInit
  85:main.c        ****     printf("[INIT] SPI resources initialized\n");
 177              		.loc 1 85 0
 178 003c A74B     		ldr	r3, .L10+12
 179 003e 1800     		movs	r0, r3
 180 0040 FFF7FEFF 		bl	puts
  86:main.c        ****     
  87:main.c        ****     // Ê≠•È™§2.5: ÊâßË°åAD5940Á°¨‰ª∂ÂàùÂßãÂåñ (Table 14 - ÂøÖÈ°ªÂú®Â§ç‰ΩçÂêéÁ´ãÂç≥ÊâßË°å)
  88:main.c        ****     // ËøôÊòØÂÖ≥ÈîÆÊ≠•È™§ÔºöÂÜôÂÖ•ÂàùÂßãÂåñÂØÑÂ≠òÂô®Â∫èÂàó‰ª•ÊøÄÊ¥ªËäØÁâáÂÜÖÈÉ®SPIÊé•Âè£ÂíåÊ®°ÊãüÂâ
  89:main.c        ****     printf("[INIT] Step 2.5: Running AD5940_Initialize (Table 14 sequence)...\n");
 181              		.loc 1 89 0
 182 0044 A64B     		ldr	r3, .L10+16
 183 0046 1800     		movs	r0, r3
 184 0048 FFF7FEFF 		bl	puts
  90:main.c        ****     AD5940_Initialize();
 185              		.loc 1 90 0
 186 004c FFF7FEFF 		bl	AD5940_Initialize
  91:main.c        ****     printf("[INIT] AD5940_Initialize complete\n");
 187              		.loc 1 91 0
 188 0050 A44B     		ldr	r3, .L10+20
 189 0052 1800     		movs	r0, r3
 190 0054 FFF7FEFF 		bl	puts
  92:main.c        ****     CyDelay(50);  // ÈáçË¶ÅÔºÅÁ≠âÂæÖAFEÂî§ÈÜíÔºàÊï∞ÊçÆÊâãÂÜåË¶ÅÊ±Ç‚â•30msÔºåËøôÈáåÁî®50msÁ°Æ‰øùÂÖÖÂ
 191              		.loc 1 92 0
 192 0058 3220     		movs	r0, #50
 193 005a FFF7FEFF 		bl	CyDelay
  93:main.c        ****         // üîç Á´ãÂç≥Ê£ÄÊü• ID
  94:main.c        ****     uint32 chipid = AD5940_ReadReg(REG_AFECON_CHIPID);
 194              		.loc 1 94 0
 195 005e A24B     		ldr	r3, .L10+24
 196 0060 1800     		movs	r0, r3
ARM GAS  C:\Users\13740\AppData\Local\Temp\cckeVujV.s 			page 8


 197 0062 FFF7FEFF 		bl	AD5940_ReadReg
 198 0066 0300     		movs	r3, r0
 199 0068 FB60     		str	r3, [r7, #12]
  95:main.c        ****     printf("[DEBUG] CHIPID after 50ms wait: 0x%lX\n", chipid);
 200              		.loc 1 95 0
 201 006a FA68     		ldr	r2, [r7, #12]
 202 006c 9F4B     		ldr	r3, .L10+28
 203 006e 1100     		movs	r1, r2
 204 0070 1800     		movs	r0, r3
 205 0072 FFF7FEFF 		bl	printf
  96:main.c        ****     
  97:main.c        ****     if(chipid != 0x5502 && chipid != 0x5501)
 206              		.loc 1 97 0
 207 0076 FB68     		ldr	r3, [r7, #12]
 208 0078 9D4A     		ldr	r2, .L10+32
 209 007a 9342     		cmp	r3, r2
 210 007c 18D0     		beq	.L2
 211              		.loc 1 97 0 is_stmt 0 discriminator 1
 212 007e FB68     		ldr	r3, [r7, #12]
 213 0080 9C4A     		ldr	r2, .L10+36
 214 0082 9342     		cmp	r3, r2
 215 0084 14D0     		beq	.L2
  98:main.c        ****     {
  99:main.c        ****         printf("[ERROR] Chip not responding! Got: 0x%lX\n", chipid);
 216              		.loc 1 99 0 is_stmt 1
 217 0086 FA68     		ldr	r2, [r7, #12]
 218 0088 9B4B     		ldr	r3, .L10+40
 219 008a 1100     		movs	r1, r2
 220 008c 1800     		movs	r0, r3
 221 008e FFF7FEFF 		bl	printf
 100:main.c        ****         // Â∞ùËØïÊõ¥ÈïøÁöÑÁ≠âÂæÖ
 101:main.c        ****         CyDelay(100);
 222              		.loc 1 101 0
 223 0092 6420     		movs	r0, #100
 224 0094 FFF7FEFF 		bl	CyDelay
 102:main.c        ****         chipid = AD5940_ReadReg(REG_AFECON_CHIPID);
 225              		.loc 1 102 0
 226 0098 934B     		ldr	r3, .L10+24
 227 009a 1800     		movs	r0, r3
 228 009c FFF7FEFF 		bl	AD5940_ReadReg
 229 00a0 0300     		movs	r3, r0
 230 00a2 FB60     		str	r3, [r7, #12]
 103:main.c        ****         printf("[RETRY] CHIPID after 150ms: 0x%lX\n", chipid);
 231              		.loc 1 103 0
 232 00a4 FA68     		ldr	r2, [r7, #12]
 233 00a6 954B     		ldr	r3, .L10+44
 234 00a8 1100     		movs	r1, r2
 235 00aa 1800     		movs	r0, r3
 236 00ac FFF7FEFF 		bl	printf
 237              	.L2:
 104:main.c        ****     }
 105:main.c        ****     
 106:main.c        ****     // Ê≠•È™§3: Ëé∑ÂèñÈÖçÁΩÆÊåáÈíà
 107:main.c        ****     printf("[INIT] Step 3: Getting config pointer...\n");
 238              		.loc 1 107 0
 239 00b0 934B     		ldr	r3, .L10+48
 240 00b2 1800     		movs	r0, r3
ARM GAS  C:\Users\13740\AppData\Local\Temp\cckeVujV.s 			page 9


 241 00b4 FFF7FEFF 		bl	puts
 108:main.c        ****     AppAMPGetCfg(&pAmpCfg);
 242              		.loc 1 108 0
 243 00b8 924B     		ldr	r3, .L10+52
 244 00ba 1800     		movs	r0, r3
 245 00bc FFF7FEFF 		bl	AppAMPGetCfg
 109:main.c        ****     if(pAmpCfg == NULL)
 246              		.loc 1 109 0
 247 00c0 904B     		ldr	r3, .L10+52
 248 00c2 1B68     		ldr	r3, [r3]
 249 00c4 002B     		cmp	r3, #0
 250 00c6 04D1     		bne	.L3
 110:main.c        ****     {
 111:main.c        ****         printf("[ERROR] pAmpCfg is NULL!\n");
 251              		.loc 1 111 0
 252 00c8 8F4B     		ldr	r3, .L10+56
 253 00ca 1800     		movs	r0, r3
 254 00cc FFF7FEFF 		bl	puts
 112:main.c        ****         return;
 255              		.loc 1 112 0
 256 00d0 FBE0     		b	.L1
 257              	.L3:
 113:main.c        ****     }
 114:main.c        ****     printf("[INIT] Config pointer obtained: %p\n", (void*)pAmpCfg);
 258              		.loc 1 114 0
 259 00d2 8C4B     		ldr	r3, .L10+52
 260 00d4 1A68     		ldr	r2, [r3]
 261 00d6 8D4B     		ldr	r3, .L10+60
 262 00d8 1100     		movs	r1, r2
 263 00da 1800     		movs	r0, r3
 264 00dc FFF7FEFF 		bl	printf
 115:main.c        ****     
 116:main.c        ****     // Ê≠•È™§4: ÈÖçÁΩÆÂÆâÂüπÊ≥ïÊµãÈáèÂèÇÊï∞ÔºàÊ†πÊçÆAmperometric.hÁªìÊûÑ‰ΩìÔºâ
 117:main.c        ****     printf("[INIT] Step 4: Configuring amperometric parameters...\n");
 265              		.loc 1 117 0
 266 00e0 8B4B     		ldr	r3, .L10+64
 267 00e2 1800     		movs	r0, r3
 268 00e4 FFF7FEFF 		bl	puts
 118:main.c        ****     pAmpCfg->bParaChanged = bTRUE;
 269              		.loc 1 118 0
 270 00e8 864B     		ldr	r3, .L10+52
 271 00ea 1B68     		ldr	r3, [r3]
 272 00ec 0122     		movs	r2, #1
 273 00ee 1A70     		strb	r2, [r3]
 119:main.c        ****     pAmpCfg->SeqStartAddr = 0;
 274              		.loc 1 119 0
 275 00f0 844B     		ldr	r3, .L10+52
 276 00f2 1B68     		ldr	r3, [r3]
 277 00f4 0022     		movs	r2, #0
 278 00f6 5A60     		str	r2, [r3, #4]
 120:main.c        ****     pAmpCfg->MaxSeqLen = 512;
 279              		.loc 1 120 0
 280 00f8 824B     		ldr	r3, .L10+52
 281 00fa 1B68     		ldr	r3, [r3]
 282 00fc 8022     		movs	r2, #128
 283 00fe 9200     		lsls	r2, r2, #2
 284 0100 9A60     		str	r2, [r3, #8]
ARM GAS  C:\Users\13740\AppData\Local\Temp\cckeVujV.s 			page 10


 121:main.c        ****     pAmpCfg->SeqStartAddrCal = 0;
 285              		.loc 1 121 0
 286 0102 804B     		ldr	r3, .L10+52
 287 0104 1B68     		ldr	r3, [r3]
 288 0106 0022     		movs	r2, #0
 289 0108 DA60     		str	r2, [r3, #12]
 122:main.c        ****     pAmpCfg->MaxSeqLenCal = 512;
 290              		.loc 1 122 0
 291 010a 7E4B     		ldr	r3, .L10+52
 292 010c 1B68     		ldr	r3, [r3]
 293 010e 8022     		movs	r2, #128
 294 0110 9200     		lsls	r2, r2, #2
 295 0112 1A61     		str	r2, [r3, #16]
 123:main.c        ****     
 124:main.c        ****     pAmpCfg->ReDoRtiaCal = bFALSE;
 296              		.loc 1 124 0
 297 0114 7B4B     		ldr	r3, .L10+52
 298 0116 1B68     		ldr	r3, [r3]
 299 0118 0022     		movs	r2, #0
 300 011a 1A75     		strb	r2, [r3, #20]
 125:main.c        ****     pAmpCfg->SysClkFreq = 16000000.0;   // 16MHzÁ≥ªÁªüÊó∂Èíü
 301              		.loc 1 125 0
 302 011c 794B     		ldr	r3, .L10+52
 303 011e 1B68     		ldr	r3, [r3]
 304 0120 7C4A     		ldr	r2, .L10+68
 305 0122 9A61     		str	r2, [r3, #24]
 126:main.c        ****     pAmpCfg->WuptClkFreq = 32000.0;     // 32kHzÂî§ÈÜíÊó∂Èíü
 306              		.loc 1 126 0
 307 0124 774B     		ldr	r3, .L10+52
 308 0126 1B68     		ldr	r3, [r3]
 309 0128 7B4A     		ldr	r2, .L10+72
 310 012a DA61     		str	r2, [r3, #28]
 127:main.c        ****     pAmpCfg->AdcClkFreq = 16000000.0;   // 16MHz ADCÊó∂Èíü
 311              		.loc 1 127 0
 312 012c 754B     		ldr	r3, .L10+52
 313 012e 1B68     		ldr	r3, [r3]
 314 0130 784A     		ldr	r2, .L10+68
 315 0132 1A62     		str	r2, [r3, #32]
 128:main.c        ****     pAmpCfg->FifoThresh = 4;            // FIFOÈòàÂÄº
 316              		.loc 1 128 0
 317 0134 734B     		ldr	r3, .L10+52
 318 0136 1B68     		ldr	r3, [r3]
 319 0138 0422     		movs	r2, #4
 320 013a 5A62     		str	r2, [r3, #36]
 129:main.c        ****     pAmpCfg->AmpODR = 10.0;             // 10HzÈááÊ†∑Áéá
 321              		.loc 1 129 0
 322 013c 714B     		ldr	r3, .L10+52
 323 013e 1B68     		ldr	r3, [r3]
 324 0140 764A     		ldr	r2, .L10+76
 325 0142 9A62     		str	r2, [r3, #40]
 130:main.c        ****     pAmpCfg->NumOfData = -1;            // ËøûÁª≠ÊµãÈáè
 326              		.loc 1 130 0
 327 0144 6F4B     		ldr	r3, .L10+52
 328 0146 1B68     		ldr	r3, [r3]
 329 0148 0122     		movs	r2, #1
 330 014a 5242     		rsbs	r2, r2, #0
 331 014c DA62     		str	r2, [r3, #44]
ARM GAS  C:\Users\13740\AppData\Local\Temp\cckeVujV.s 			page 11


 131:main.c        ****     
 132:main.c        ****     // ÁîµÂåñÂ≠¶ÂèÇÊï∞
 133:main.c        ****     pAmpCfg->RcalVal = 10000.0;         // 10kŒ©Ê†°ÂáÜÁîµÈòª
 332              		.loc 1 133 0
 333 014e 6D4B     		ldr	r3, .L10+52
 334 0150 1B68     		ldr	r3, [r3]
 335 0152 734A     		ldr	r2, .L10+80
 336 0154 1A63     		str	r2, [r3, #48]
 134:main.c        ****     pAmpCfg->ADCRefVolt = 1.82;         // ADCÂèÇËÄÉÁîµÂéã1.82V
 337              		.loc 1 134 0
 338 0156 6B4B     		ldr	r3, .L10+52
 339 0158 1B68     		ldr	r3, [r3]
 340 015a 724A     		ldr	r2, .L10+84
 341 015c 5A63     		str	r2, [r3, #52]
 135:main.c        ****     pAmpCfg->PwrMod = AFEPWR_LP;        // ‰ΩéÂäüËÄóÊ®°Âºè
 342              		.loc 1 135 0
 343 015e 694B     		ldr	r3, .L10+52
 344 0160 1B68     		ldr	r3, [r3]
 345 0162 0022     		movs	r2, #0
 346 0164 9A63     		str	r2, [r3, #56]
 136:main.c        ****     
 137:main.c        ****     // ADCÈÖçÁΩÆ
 138:main.c        ****     pAmpCfg->ADCPgaGain = ADCPGA_1P5;   // PGAÂ¢ûÁõä1.5
 347              		.loc 1 138 0
 348 0166 674B     		ldr	r3, .L10+52
 349 0168 1B68     		ldr	r3, [r3]
 350 016a 0122     		movs	r2, #1
 351 016c DA63     		str	r2, [r3, #60]
 139:main.c        ****     pAmpCfg->ADCSinc3Osr = ADCSINC3OSR_4;
 352              		.loc 1 139 0
 353 016e 654B     		ldr	r3, .L10+52
 354 0170 1B68     		ldr	r3, [r3]
 355 0172 4022     		movs	r2, #64
 356 0174 0121     		movs	r1, #1
 357 0176 9954     		strb	r1, [r3, r2]
 140:main.c        ****     pAmpCfg->ADCSinc2Osr = ADCSINC2OSR_178;
 358              		.loc 1 140 0
 359 0178 624B     		ldr	r3, .L10+52
 360 017a 1B68     		ldr	r3, [r3]
 361 017c 4122     		movs	r2, #65
 362 017e 0321     		movs	r1, #3
 363 0180 9954     		strb	r1, [r3, r2]
 141:main.c        ****     pAmpCfg->DataFifoSrc = FIFOSRC_SINC3;
 364              		.loc 1 141 0
 365 0182 604B     		ldr	r3, .L10+52
 366 0184 1B68     		ldr	r3, [r3]
 367 0186 0022     		movs	r2, #0
 368 0188 5A64     		str	r2, [r3, #68]
 142:main.c        ****     
 143:main.c        ****     // LPTIAÈÖçÁΩÆÔºàË∑®ÈòªÊîæÂ§ßÂô®Ôºâ
 144:main.c        ****     pAmpCfg->LptiaRtiaSel = LPTIARTIA_10K;  // 10kŒ©ÂÜÖÈÉ®RTIA
 369              		.loc 1 144 0
 370 018a 5E4B     		ldr	r3, .L10+52
 371 018c 1B68     		ldr	r3, [r3]
 372 018e 0822     		movs	r2, #8
 373 0190 9A64     		str	r2, [r3, #72]
 145:main.c        ****     pAmpCfg->LpTiaRf = LPTIARF_1M;          // 1MŒ©Êª§Ê≥¢ÁîµÈòª
ARM GAS  C:\Users\13740\AppData\Local\Temp\cckeVujV.s 			page 12


 374              		.loc 1 145 0
 375 0192 5C4B     		ldr	r3, .L10+52
 376 0194 1B68     		ldr	r3, [r3]
 377 0196 0722     		movs	r2, #7
 378 0198 DA64     		str	r2, [r3, #76]
 146:main.c        ****     pAmpCfg->LpTiaRl = LPTIARLOAD_100R;     // 100Œ©Ë¥üËΩΩÁîµÈòª
 379              		.loc 1 146 0
 380 019a 5A4B     		ldr	r3, .L10+52
 381 019c 1B68     		ldr	r3, [r3]
 382 019e 0422     		movs	r2, #4
 383 01a0 1A65     		str	r2, [r3, #80]
 147:main.c        ****     
 148:main.c        ****     // ÂÅèÁΩÆÁîµÂéã
 149:main.c        ****     pAmpCfg->Vzero = 1100.0;            // SE0ÂÅèÁΩÆÁîµÂéã1.1V
 384              		.loc 1 149 0
 385 01a2 584B     		ldr	r3, .L10+52
 386 01a4 1B68     		ldr	r3, [r3]
 387 01a6 604A     		ldr	r2, .L10+88
 388 01a8 DA65     		str	r2, [r3, #92]
 150:main.c        ****     pAmpCfg->SensorBias = 0.0;          // ‰º†ÊÑüÂô®ÂÅèÁΩÆ0VÔºàÊôÆÈ≤ÅÂ£´Ëìù‰ªã‰ΩìÔºâ
 389              		.loc 1 150 0
 390 01aa 564B     		ldr	r3, .L10+52
 391 01ac 1B68     		ldr	r3, [r3]
 392 01ae 0022     		movs	r2, #0
 393 01b0 1A66     		str	r2, [r3, #96]
 151:main.c        ****     
 152:main.c        ****     // Â§ñÈÉ®RTIAÔºà‰∏ç‰ΩøÁî®Ôºâ
 153:main.c        ****     pAmpCfg->ExtRtia = bFALSE;
 394              		.loc 1 153 0
 395 01b2 544B     		ldr	r3, .L10+52
 396 01b4 1B68     		ldr	r3, [r3]
 397 01b6 6422     		movs	r2, #100
 398 01b8 0021     		movs	r1, #0
 399 01ba 9954     		strb	r1, [r3, r2]
 154:main.c        ****     pAmpCfg->ExtRtiaVal = 0.0;
 400              		.loc 1 154 0
 401 01bc 514B     		ldr	r3, .L10+52
 402 01be 1B68     		ldr	r3, [r3]
 403 01c0 0022     		movs	r2, #0
 404 01c2 9A66     		str	r2, [r3, #104]
 155:main.c        ****     
 156:main.c        ****     pAmpCfg->AMPInited = bFALSE;
 405              		.loc 1 156 0
 406 01c4 4F4B     		ldr	r3, .L10+52
 407 01c6 1B68     		ldr	r3, [r3]
 408 01c8 6C22     		movs	r2, #108
 409 01ca 0021     		movs	r1, #0
 410 01cc 9954     		strb	r1, [r3, r2]
 157:main.c        ****     pAmpCfg->StopRequired = bFALSE;
 411              		.loc 1 157 0
 412 01ce 4D4B     		ldr	r3, .L10+52
 413 01d0 1B68     		ldr	r3, [r3]
 414 01d2 9822     		movs	r2, #152
 415 01d4 0021     		movs	r1, #0
 416 01d6 9954     		strb	r1, [r3, r2]
 158:main.c        ****     pAmpCfg->FifoDataCount = 0;
 417              		.loc 1 158 0
ARM GAS  C:\Users\13740\AppData\Local\Temp\cckeVujV.s 			page 13


 418 01d8 4A4B     		ldr	r3, .L10+52
 419 01da 1B68     		ldr	r3, [r3]
 420 01dc 9C22     		movs	r2, #156
 421 01de 0021     		movs	r1, #0
 422 01e0 9950     		str	r1, [r3, r2]
 159:main.c        ****     printf("[INIT] Parameters configured\n");
 423              		.loc 1 159 0
 424 01e2 524B     		ldr	r3, .L10+92
 425 01e4 1800     		movs	r0, r3
 426 01e6 FFF7FEFF 		bl	puts
 160:main.c        ****     printf("[INIT] AMPInited before AppAMPInit: %d\n", (int)pAmpCfg->AMPInited);
 427              		.loc 1 160 0
 428 01ea 464B     		ldr	r3, .L10+52
 429 01ec 1B68     		ldr	r3, [r3]
 430 01ee 6C22     		movs	r2, #108
 431 01f0 9B5C     		ldrb	r3, [r3, r2]
 432 01f2 1A00     		movs	r2, r3
 433 01f4 4E4B     		ldr	r3, .L10+96
 434 01f6 1100     		movs	r1, r2
 435 01f8 1800     		movs	r0, r3
 436 01fa FFF7FEFF 		bl	printf
 161:main.c        ****     
 162:main.c        ****     // Ê≠•È™§5: ÂàùÂßãÂåñÂ∫îÁî®Ôºà‰ΩøÁî®ÁºìÂÜ≤Âå∫Ôºâ
 163:main.c        ****     printf("[INIT] Step 5: Calling AppAMPInit...\n");
 437              		.loc 1 163 0
 438 01fe 4D4B     		ldr	r3, .L10+100
 439 0200 1800     		movs	r0, r3
 440 0202 FFF7FEFF 		bl	puts
 164:main.c        ****     error = AppAMPInit(ampBuffer, 512);
 441              		.loc 1 164 0
 442 0206 8023     		movs	r3, #128
 443 0208 9A00     		lsls	r2, r3, #2
 444 020a 4B4B     		ldr	r3, .L10+104
 445 020c 1100     		movs	r1, r2
 446 020e 1800     		movs	r0, r3
 447 0210 FFF7FEFF 		bl	AppAMPInit
 448 0214 0300     		movs	r3, r0
 449 0216 BB60     		str	r3, [r7, #8]
 165:main.c        ****     printf("[INIT] AppAMPInit returned: %d\n", (int)error);
 450              		.loc 1 165 0
 451 0218 BA68     		ldr	r2, [r7, #8]
 452 021a 484B     		ldr	r3, .L10+108
 453 021c 1100     		movs	r1, r2
 454 021e 1800     		movs	r0, r3
 455 0220 FFF7FEFF 		bl	printf
 166:main.c        ****     printf("[INIT] AMPInited after AppAMPInit: %d\n", (int)pAmpCfg->AMPInited);
 456              		.loc 1 166 0
 457 0224 374B     		ldr	r3, .L10+52
 458 0226 1B68     		ldr	r3, [r3]
 459 0228 6C22     		movs	r2, #108
 460 022a 9B5C     		ldrb	r3, [r3, r2]
 461 022c 1A00     		movs	r2, r3
 462 022e 444B     		ldr	r3, .L10+112
 463 0230 1100     		movs	r1, r2
 464 0232 1800     		movs	r0, r3
 465 0234 FFF7FEFF 		bl	printf
 167:main.c        ****     
ARM GAS  C:\Users\13740\AppData\Local\Temp\cckeVujV.s 			page 14


 168:main.c        ****     if(error == AD5940ERR_OK)
 466              		.loc 1 168 0
 467 0238 BB68     		ldr	r3, [r7, #8]
 468 023a 002B     		cmp	r3, #0
 469 023c 04D1     		bne	.L5
 169:main.c        ****     {
 170:main.c        ****         printf("[OK] AD5941 initialization successful\n");
 470              		.loc 1 170 0
 471 023e 414B     		ldr	r3, .L10+116
 472 0240 1800     		movs	r0, r3
 473 0242 FFF7FEFF 		bl	puts
 474 0246 05E0     		b	.L6
 475              	.L5:
 171:main.c        ****     }
 172:main.c        ****     else
 173:main.c        ****     {
 174:main.c        ****         printf("[ERROR] AD5941 initialization failed: error=%d\n", (int)error);
 476              		.loc 1 174 0
 477 0248 BA68     		ldr	r2, [r7, #8]
 478 024a 3F4B     		ldr	r3, .L10+120
 479 024c 1100     		movs	r1, r2
 480 024e 1800     		movs	r0, r3
 481 0250 FFF7FEFF 		bl	printf
 482              	.L6:
 175:main.c        ****     }
 176:main.c        ****     
 177:main.c        ****     // Âø´ÈÄüIDÂØÑÂ≠òÂô®Ê£ÄÊü•ÔºàÂú®ÂàùÂßãÂåñÂêéÔºâ
 178:main.c        ****     printf("\n[ID CHECK] Reading AD5941 ID registers...\n");
 483              		.loc 1 178 0
 484 0254 3D4B     		ldr	r3, .L10+124
 485 0256 1800     		movs	r0, r3
 486 0258 FFF7FEFF 		bl	puts
 179:main.c        ****     uint32 id_adiid = AD5940_ReadReg(REG_AFECON_ADIID);
 487              		.loc 1 179 0
 488 025c 8023     		movs	r3, #128
 489 025e DB00     		lsls	r3, r3, #3
 490 0260 1800     		movs	r0, r3
 491 0262 FFF7FEFF 		bl	AD5940_ReadReg
 492 0266 0300     		movs	r3, r0
 493 0268 7B60     		str	r3, [r7, #4]
 180:main.c        ****     uint32 id_chipid = AD5940_ReadReg(REG_AFECON_CHIPID);
 494              		.loc 1 180 0
 495 026a 1F4B     		ldr	r3, .L10+24
 496 026c 1800     		movs	r0, r3
 497 026e FFF7FEFF 		bl	AD5940_ReadReg
 498 0272 0300     		movs	r3, r0
 499 0274 3B60     		str	r3, [r7]
 181:main.c        ****     printf("ADIID: 0x%lX\n", (unsigned long)id_adiid);
 500              		.loc 1 181 0
 501 0276 7A68     		ldr	r2, [r7, #4]
 502 0278 354B     		ldr	r3, .L10+128
 503 027a 1100     		movs	r1, r2
 504 027c 1800     		movs	r0, r3
 505 027e FFF7FEFF 		bl	printf
 182:main.c        ****     printf("CHIPID: 0x%lX\n", (unsigned long)id_chipid);
 506              		.loc 1 182 0
 507 0282 3A68     		ldr	r2, [r7]
ARM GAS  C:\Users\13740\AppData\Local\Temp\cckeVujV.s 			page 15


 508 0284 334B     		ldr	r3, .L10+132
 509 0286 1100     		movs	r1, r2
 510 0288 1800     		movs	r0, r3
 511 028a FFF7FEFF 		bl	printf
 183:main.c        ****     if(id_adiid == 0x4144 && id_chipid == 0x5501)
 512              		.loc 1 183 0
 513 028e 7B68     		ldr	r3, [r7, #4]
 514 0290 314A     		ldr	r2, .L10+136
 515 0292 9342     		cmp	r3, r2
 516 0294 08D1     		bne	.L7
 517              		.loc 1 183 0 is_stmt 0 discriminator 1
 518 0296 3B68     		ldr	r3, [r7]
 519 0298 164A     		ldr	r2, .L10+36
 520 029a 9342     		cmp	r3, r2
 521 029c 04D1     		bne	.L7
 184:main.c        ****     {
 185:main.c        ****         printf("[OK] ID registers correct!\n");
 522              		.loc 1 185 0 is_stmt 1
 523 029e 2F4B     		ldr	r3, .L10+140
 524 02a0 1800     		movs	r0, r3
 525 02a2 FFF7FEFF 		bl	puts
 526 02a6 10E0     		b	.L1
 527              	.L7:
 186:main.c        ****     }
 187:main.c        ****     else if(id_adiid == 0x808080 || id_chipid == 0x808080)
 528              		.loc 1 187 0
 529 02a8 7B68     		ldr	r3, [r7, #4]
 530 02aa 2D4A     		ldr	r2, .L10+144
 531 02ac 9342     		cmp	r3, r2
 532 02ae 03D0     		beq	.L8
 533              		.loc 1 187 0 is_stmt 0 discriminator 1
 534 02b0 3B68     		ldr	r3, [r7]
 535 02b2 2B4A     		ldr	r2, .L10+144
 536 02b4 9342     		cmp	r3, r2
 537 02b6 04D1     		bne	.L9
 538              	.L8:
 188:main.c        ****     {
 189:main.c        ****         printf("[ERROR] Still getting 0x808080 - MISO issue persists!\n");
 539              		.loc 1 189 0 is_stmt 1
 540 02b8 2A4B     		ldr	r3, .L10+148
 541 02ba 1800     		movs	r0, r3
 542 02bc FFF7FEFF 		bl	puts
 543 02c0 03E0     		b	.L1
 544              	.L9:
 190:main.c        ****     }
 191:main.c        ****     else
 192:main.c        ****     {
 193:main.c        ****         printf("[WARNING] Unexpected ID values\n");
 545              		.loc 1 193 0
 546 02c2 294B     		ldr	r3, .L10+152
 547 02c4 1800     		movs	r0, r3
 548 02c6 FFF7FEFF 		bl	puts
 549              	.L1:
 194:main.c        ****     }
 195:main.c        **** }
 550              		.loc 1 195 0
 551 02ca BD46     		mov	sp, r7
ARM GAS  C:\Users\13740\AppData\Local\Temp\cckeVujV.s 			page 16


 552 02cc 04B0     		add	sp, sp, #16
 553              		@ sp needed
 554 02ce 80BD     		pop	{r7, pc}
 555              	.L11:
 556              		.align	2
 557              	.L10:
 558 02d0 00000000 		.word	.LC0
 559 02d4 24000000 		.word	.LC2
 560 02d8 3C000000 		.word	.LC4
 561 02dc 70000000 		.word	.LC6
 562 02e0 94000000 		.word	.LC8
 563 02e4 D8000000 		.word	.LC10
 564 02e8 04040000 		.word	1028
 565 02ec FC000000 		.word	.LC12
 566 02f0 02550000 		.word	21762
 567 02f4 01550000 		.word	21761
 568 02f8 24010000 		.word	.LC14
 569 02fc 50010000 		.word	.LC16
 570 0300 74010000 		.word	.LC18
 571 0304 00000000 		.word	pAmpCfg
 572 0308 A0010000 		.word	.LC21
 573 030c BC010000 		.word	.LC23
 574 0310 E0010000 		.word	.LC25
 575 0314 0024744B 		.word	1265902592
 576 0318 0000FA46 		.word	1190789120
 577 031c 00002041 		.word	1092616192
 578 0320 00401C46 		.word	1176256512
 579 0324 C3F5E83F 		.word	1072231875
 580 0328 00808944 		.word	1149861888
 581 032c 18020000 		.word	.LC27
 582 0330 38020000 		.word	.LC29
 583 0334 60020000 		.word	.LC31
 584 0338 00000000 		.word	ampBuffer
 585 033c 88020000 		.word	.LC34
 586 0340 A8020000 		.word	.LC36
 587 0344 D0020000 		.word	.LC38
 588 0348 F8020000 		.word	.LC40
 589 034c 28030000 		.word	.LC42
 590 0350 54030000 		.word	.LC44
 591 0354 64030000 		.word	.LC46
 592 0358 44410000 		.word	16708
 593 035c 74030000 		.word	.LC48
 594 0360 80808000 		.word	8421504
 595 0364 90030000 		.word	.LC50
 596 0368 C8030000 		.word	.LC52
 597              		.cfi_endproc
 598              	.LFE36:
 599              		.size	AD5941_Initialize, .-AD5941_Initialize
 600              		.section	.rodata
 601 03e7 00       		.align	2
 602              	.LC54:
 603 03e8 0A3D3D3D 		.ascii	"\012=== SPI COMMUNICATION TEST (ENHANCED) ===\000"
 603      20535049 
 603      20434F4D 
 603      4D554E49 
 603      43415449 
 604 0413 00       		.align	2
ARM GAS  C:\Users\13740\AppData\Local\Temp\cckeVujV.s 			page 17


 605              	.LC56:
 606 0414 5B544553 		.ascii	"[TEST] Attempting 3 consecutive reads of REG_AFE_AF"
 606      545D2041 
 606      7474656D 
 606      7074696E 
 606      67203320 
 607 0447 45434F4E 		.ascii	"ECON...\000"
 607      2E2E2E00 
 608 044f 00       		.align	2
 609              	.LC58:
 610 0450 5B415454 		.ascii	"[ATTEMPT %d] Register Value: 0x%lX\012\000"
 610      454D5054 
 610      2025645D 
 610      20526567 
 610      69737465 
 611              		.align	2
 612              	.LC60:
 613 0474 0A5B5445 		.ascii	"\012[TEST] Reading different AD5940 registers...\000"
 613      53545D20 
 613      52656164 
 613      696E6720 
 613      64696666 
 614 04a2 0000     		.align	2
 615              	.LC62:
 616 04a4 20205245 		.ascii	"  REG_AFE_AFECON:  0x%lX\012\000"
 616      475F4146 
 616      455F4146 
 616      45434F4E 
 616      3A202030 
 617 04be 0000     		.align	2
 618              	.LC64:
 619 04c0 20205245 		.ascii	"  REG_AFE_ADCCON:  0x%lX\012\000"
 619      475F4146 
 619      455F4144 
 619      43434F4E 
 619      3A202030 
 620 04da 0000     		.align	2
 621              	.LC66:
 622 04dc 20205245 		.ascii	"  REG_AFE_FIFOCON: 0x%lX\012\000"
 622      475F4146 
 622      455F4649 
 622      464F434F 
 622      4E3A2030 
 623 04f6 0000     		.align	2
 624              	.LC68:
 625 04f8 20205245 		.ascii	"  REG_AFE_ADCDAT:  0x%lX\012\000"
 625      475F4146 
 625      455F4144 
 625      43444154 
 625      3A202030 
 626 0512 0000     		.align	2
 627              	.LC70:
 628 0514 0A5B414E 		.ascii	"\012[ANALYSIS]\000"
 628      414C5953 
 628      49535D00 
 629              		.align	2
 630              	.LC72:
ARM GAS  C:\Users\13740\AppData\Local\Temp\cckeVujV.s 			page 18


 631 0520 5B435249 		.ascii	"[CRITICAL] Consistent 0x80 pattern detected!\000"
 631      54494341 
 631      4C5D2043 
 631      6F6E7369 
 631      7374656E 
 632 054d 000000   		.align	2
 633              	.LC74:
 634 0550 20202054 		.ascii	"   This is NOT random garbage - it's a systematic i"
 634      68697320 
 634      6973204E 
 634      4F542072 
 634      616E646F 
 635 0583 73737565 		.ascii	"ssue:\000"
 635      3A00
 636 0589 000000   		.align	2
 637              	.LC76:
 638 058c 20202050 		.ascii	"   Possible Causes:\000"
 638      6F737369 
 638      626C6520 
 638      43617573 
 638      65733A00 
 639              		.align	2
 640              	.LC78:
 641 05a0 20202031 		.ascii	"   1. **MISO line floating** - Not connected or ope"
 641      2E202A2A 
 641      4D49534F 
 641      206C696E 
 641      6520666C 
 642 05d3 6E206369 		.ascii	"n circuit\000"
 642      72637569 
 642      7400
 643 05dd 000000   		.align	2
 644              	.LC80:
 645 05e0 20202032 		.ascii	"   2. **CS timing** - Signal not toggling correctly"
 645      2E202A2A 
 645      43532074 
 645      696D696E 
 645      672A2A20 
 646 0613 00       		.ascii	"\000"
 647              		.align	2
 648              	.LC82:
 649 0614 20202033 		.ascii	"   3. **DUMMY READ issue** - SPI read sequence prob"
 649      2E202A2A 
 649      44554D4D 
 649      59205245 
 649      41442069 
 650 0647 6C656D00 		.ascii	"lem\000"
 651 064b 00       		.align	2
 652              	.LC84:
 653 064c 20202034 		.ascii	"   4. **AD5940 not responding** - Check power, rese"
 653      2E202A2A 
 653      41443539 
 653      3430206E 
 653      6F742072 
 654 067f 742C2061 		.ascii	"t, and connections\000"
 654      6E642063 
 654      6F6E6E65 
ARM GAS  C:\Users\13740\AppData\Local\Temp\cckeVujV.s 			page 19


 654      6374696F 
 654      6E7300
 655 0692 0000     		.align	2
 656              	.LC86:
 657 0694 0A202020 		.ascii	"\012   ACTION REQUIRED:\000"
 657      41435449 
 657      4F4E2052 
 657      45515549 
 657      5245443A 
 658 06a9 000000   		.align	2
 659              	.LC88:
 660 06ac 20202031 		.ascii	"   1. Check physical connection: PSoC P0.5 <-> AD59"
 660      2E204368 
 660      65636B20 
 660      70687973 
 660      6963616C 
 661 06df 34302044 		.ascii	"40 DOUT\000"
 661      4F555400 
 662 06e7 00       		.align	2
 663              	.LC90:
 664 06e8 20202032 		.ascii	"   2. Measure voltage on DOUT pin (should toggle wi"
 664      2E204D65 
 664      61737572 
 664      6520766F 
 664      6C746167 
 665 071b 74682053 		.ascii	"th SCLK)\000"
 665      434C4B29 
 665      00
 666              		.align	2
 667              	.LC92:
 668 0724 20202033 		.ascii	"   3. Verify AD5940 VDD = 3.3V and GND is connected"
 668      2E205665 
 668      72696679 
 668      20414435 
 668      39343020 
 669 0757 00       		.ascii	"\000"
 670              		.align	2
 671              	.LC94:
 672 0758 20202034 		.ascii	"   4. Try reducing SPI speed further (now at 100 kb"
 672      2E205472 
 672      79207265 
 672      64756369 
 672      6E672053 
 673 078b 70732900 		.ascii	"ps)\000"
 674 078f 00       		.align	2
 675              	.LC96:
 676 0790 5B474F4F 		.ascii	"[GOOD SIGN] Different values in different registers"
 676      44205349 
 676      474E5D20 
 676      44696666 
 676      6572656E 
 677 07c3 2100     		.ascii	"!\000"
 678 07c5 000000   		.align	2
 679              	.LC98:
 680 07c8 20202054 		.ascii	"   This suggests SPI communication is partially wor"
 680      68697320 
 680      73756767 
ARM GAS  C:\Users\13740\AppData\Local\Temp\cckeVujV.s 			page 20


 680      65737473 
 680      20535049 
 681 07fb 6B696E67 		.ascii	"king\000"
 681      00
 682              		.align	2
 683              	.LC100:
 684 0800 5B4F4B5D 		.ascii	"[OK] Register values appear reasonable\000"
 684      20526567 
 684      69737465 
 684      72207661 
 684      6C756573 
 685 0827 00       		.align	2
 686              	.LC102:
 687 0828 0A5B5350 		.ascii	"\012[SPI CONFIGURATION]\000"
 687      4920434F 
 687      4E464947 
 687      55524154 
 687      494F4E5D 
 688 083d 000000   		.align	2
 689              	.LC104:
 690 0840 2020202D 		.ascii	"   - SPI Speed: 100 kbps (reduced from 1 Mbps)\000"
 690      20535049 
 690      20537065 
 690      65643A20 
 690      31303020 
 691 086f 00       		.align	2
 692              	.LC106:
 693 0870 2020202D 		.ascii	"   - Mode: Motorola (CPHA=0, CPOL=0)\000"
 693      204D6F64 
 693      653A204D 
 693      6F746F72 
 693      6F6C6120 
 694 0895 000000   		.align	2
 695              	.LC108:
 696 0898 2020202D 		.ascii	"   - Data Width: 8-bit\000"
 696      20446174 
 696      61205769 
 696      6474683A 
 696      20382D62 
 697 08af 00       		.align	2
 698              	.LC110:
 699 08b0 3D3D3D20 		.ascii	"=== SPI TEST END ===\012\000"
 699      53504920 
 699      54455354 
 699      20454E44 
 699      203D3D3D 
 700              		.section	.text.DiagnosticsSPI,"ax",%progbits
 701              		.align	2
 702              		.global	DiagnosticsSPI
 703              		.code	16
 704              		.thumb_func
 705              		.type	DiagnosticsSPI, %function
 706              	DiagnosticsSPI:
 707              	.LFB37:
 196:main.c        **** 
 197:main.c        **** /*******************************************************************************
 198:main.c        **** * Function Name: DiagnosticsSPI
ARM GAS  C:\Users\13740\AppData\Local\Temp\cckeVujV.s 			page 21


 199:main.c        **** ********************************************************************************
 200:main.c        **** * Summary:
 201:main.c        **** *   ËØäÊñ≠ SPI ÈÄöËÆØ - Â¢ûÂº∫ÁâàÊú¨ÔºåÂ§öÂØÑÂ≠òÂô®ÊµãËØï
 202:main.c        **** *******************************************************************************/
 203:main.c        **** void DiagnosticsSPI(void)
 204:main.c        **** {
 708              		.loc 1 204 0
 709              		.cfi_startproc
 710              		@ args = 0, pretend = 0, frame = 24
 711              		@ frame_needed = 1, uses_anonymous_args = 0
 712 0000 80B5     		push	{r7, lr}
 713              		.cfi_def_cfa_offset 8
 714              		.cfi_offset 7, -8
 715              		.cfi_offset 14, -4
 716 0002 86B0     		sub	sp, sp, #24
 717              		.cfi_def_cfa_offset 32
 718 0004 00AF     		add	r7, sp, #0
 719              		.cfi_def_cfa_register 7
 205:main.c        ****     printf("\n=== SPI COMMUNICATION TEST (ENHANCED) ===\n");
 720              		.loc 1 205 0
 721 0006 714B     		ldr	r3, .L22
 722 0008 1800     		movs	r0, r3
 723 000a FFF7FEFF 		bl	puts
 206:main.c        ****     
 207:main.c        ****     uint32 regValue = 0;
 724              		.loc 1 207 0
 725 000e 0023     		movs	r3, #0
 726 0010 3B61     		str	r3, [r7, #16]
 208:main.c        ****     uint32 regValue2 = 0;
 727              		.loc 1 208 0
 728 0012 0023     		movs	r3, #0
 729 0014 FB60     		str	r3, [r7, #12]
 209:main.c        ****     uint32 regValue3 = 0;
 730              		.loc 1 209 0
 731 0016 0023     		movs	r3, #0
 732 0018 BB60     		str	r3, [r7, #8]
 210:main.c        ****     uint32 regValue4 = 0;
 733              		.loc 1 210 0
 734 001a 0023     		movs	r3, #0
 735 001c 7B60     		str	r3, [r7, #4]
 211:main.c        ****     int testCount = 0;
 736              		.loc 1 211 0
 737 001e 0023     		movs	r3, #0
 738 0020 7B61     		str	r3, [r7, #20]
 212:main.c        ****     
 213:main.c        ****     // Â∞ùËØïÂ§öÊ¨°ËØªÂèñÔºåÁúãÊòØÂê¶Êúâ‰ªª‰ΩïÂèòÂåñ
 214:main.c        ****     printf("[TEST] Attempting 3 consecutive reads of REG_AFE_AFECON...\n");
 739              		.loc 1 214 0
 740 0022 6B4B     		ldr	r3, .L22+4
 741 0024 1800     		movs	r0, r3
 742 0026 FFF7FEFF 		bl	puts
 215:main.c        ****     for(testCount = 0; testCount < 3; testCount++)
 743              		.loc 1 215 0
 744 002a 0023     		movs	r3, #0
 745 002c 7B61     		str	r3, [r7, #20]
 746 002e 13E0     		b	.L13
 747              	.L14:
ARM GAS  C:\Users\13740\AppData\Local\Temp\cckeVujV.s 			page 22


 216:main.c        ****     {
 217:main.c        ****         regValue = AD5940_ReadReg(BITM_AFE_AFECON_INAMPEN);
 748              		.loc 1 217 0 discriminator 3
 749 0030 8023     		movs	r3, #128
 750 0032 DB00     		lsls	r3, r3, #3
 751 0034 1800     		movs	r0, r3
 752 0036 FFF7FEFF 		bl	AD5940_ReadReg
 753 003a 0300     		movs	r3, r0
 754 003c 3B61     		str	r3, [r7, #16]
 218:main.c        ****         printf("[ATTEMPT %d] Register Value: 0x%lX\n", testCount + 1, (unsigned long)regValue);
 755              		.loc 1 218 0 discriminator 3
 756 003e 7B69     		ldr	r3, [r7, #20]
 757 0040 591C     		adds	r1, r3, #1
 758 0042 3A69     		ldr	r2, [r7, #16]
 759 0044 634B     		ldr	r3, .L22+8
 760 0046 1800     		movs	r0, r3
 761 0048 FFF7FEFF 		bl	printf
 219:main.c        ****         CyDelay(50);
 762              		.loc 1 219 0 discriminator 3
 763 004c 3220     		movs	r0, #50
 764 004e FFF7FEFF 		bl	CyDelay
 215:main.c        ****     {
 765              		.loc 1 215 0 discriminator 3
 766 0052 7B69     		ldr	r3, [r7, #20]
 767 0054 0133     		adds	r3, r3, #1
 768 0056 7B61     		str	r3, [r7, #20]
 769              	.L13:
 215:main.c        ****     {
 770              		.loc 1 215 0 is_stmt 0 discriminator 1
 771 0058 7B69     		ldr	r3, [r7, #20]
 772 005a 022B     		cmp	r3, #2
 773 005c E8DD     		ble	.L14
 220:main.c        ****     }
 221:main.c        ****     
 222:main.c        ****     // Â∞ùËØïËØªÂèñ‰∏çÂêåÁöÑÂØÑÂ≠òÂô®
 223:main.c        ****     printf("\n[TEST] Reading different AD5940 registers...\n");
 774              		.loc 1 223 0 is_stmt 1
 775 005e 5E4B     		ldr	r3, .L22+12
 776 0060 1800     		movs	r0, r3
 777 0062 FFF7FEFF 		bl	puts
 224:main.c        ****     regValue = AD5940_ReadReg(BITM_AFE_AFECON_INAMPEN);
 778              		.loc 1 224 0
 779 0066 8023     		movs	r3, #128
 780 0068 DB00     		lsls	r3, r3, #3
 781 006a 1800     		movs	r0, r3
 782 006c FFF7FEFF 		bl	AD5940_ReadReg
 783 0070 0300     		movs	r3, r0
 784 0072 3B61     		str	r3, [r7, #16]
 225:main.c        ****     printf("  REG_AFE_AFECON:  0x%lX\n", (unsigned long)regValue);
 785              		.loc 1 225 0
 786 0074 3A69     		ldr	r2, [r7, #16]
 787 0076 594B     		ldr	r3, .L22+16
 788 0078 1100     		movs	r1, r2
 789 007a 1800     		movs	r0, r3
 790 007c FFF7FEFF 		bl	printf
 226:main.c        ****     CyDelay(20);
 791              		.loc 1 226 0
ARM GAS  C:\Users\13740\AppData\Local\Temp\cckeVujV.s 			page 23


 792 0080 1420     		movs	r0, #20
 793 0082 FFF7FEFF 		bl	CyDelay
 227:main.c        ****     
 228:main.c        ****     regValue2 = AD5940_ReadReg(BITM_AFE_AFECON_INAMPEN);
 794              		.loc 1 228 0
 795 0086 8023     		movs	r3, #128
 796 0088 DB00     		lsls	r3, r3, #3
 797 008a 1800     		movs	r0, r3
 798 008c FFF7FEFF 		bl	AD5940_ReadReg
 799 0090 0300     		movs	r3, r0
 800 0092 FB60     		str	r3, [r7, #12]
 229:main.c        ****     printf("  REG_AFE_ADCCON:  0x%lX\n", (unsigned long)regValue2);
 801              		.loc 1 229 0
 802 0094 FA68     		ldr	r2, [r7, #12]
 803 0096 524B     		ldr	r3, .L22+20
 804 0098 1100     		movs	r1, r2
 805 009a 1800     		movs	r0, r3
 806 009c FFF7FEFF 		bl	printf
 230:main.c        ****     CyDelay(20);
 807              		.loc 1 230 0
 808 00a0 1420     		movs	r0, #20
 809 00a2 FFF7FEFF 		bl	CyDelay
 231:main.c        ****     
 232:main.c        ****     regValue3 = AD5940_ReadReg(BITM_AFE_AFECON_INAMPEN);
 810              		.loc 1 232 0
 811 00a6 8023     		movs	r3, #128
 812 00a8 DB00     		lsls	r3, r3, #3
 813 00aa 1800     		movs	r0, r3
 814 00ac FFF7FEFF 		bl	AD5940_ReadReg
 815 00b0 0300     		movs	r3, r0
 816 00b2 BB60     		str	r3, [r7, #8]
 233:main.c        ****     printf("  REG_AFE_FIFOCON: 0x%lX\n", (unsigned long)regValue3);
 817              		.loc 1 233 0
 818 00b4 BA68     		ldr	r2, [r7, #8]
 819 00b6 4B4B     		ldr	r3, .L22+24
 820 00b8 1100     		movs	r1, r2
 821 00ba 1800     		movs	r0, r3
 822 00bc FFF7FEFF 		bl	printf
 234:main.c        ****     CyDelay(20);
 823              		.loc 1 234 0
 824 00c0 1420     		movs	r0, #20
 825 00c2 FFF7FEFF 		bl	CyDelay
 235:main.c        ****     
 236:main.c        ****     regValue4 = AD5940_ReadReg(REG_AFE_ADCDAT);
 826              		.loc 1 236 0
 827 00c6 484B     		ldr	r3, .L22+28
 828 00c8 1800     		movs	r0, r3
 829 00ca FFF7FEFF 		bl	AD5940_ReadReg
 830 00ce 0300     		movs	r3, r0
 831 00d0 7B60     		str	r3, [r7, #4]
 237:main.c        ****     printf("  REG_AFE_ADCDAT:  0x%lX\n", (unsigned long)regValue4);
 832              		.loc 1 237 0
 833 00d2 7A68     		ldr	r2, [r7, #4]
 834 00d4 454B     		ldr	r3, .L22+32
 835 00d6 1100     		movs	r1, r2
 836 00d8 1800     		movs	r0, r3
 837 00da FFF7FEFF 		bl	printf
ARM GAS  C:\Users\13740\AppData\Local\Temp\cckeVujV.s 			page 24


 238:main.c        ****     
 239:main.c        ****     // ÂàÜÊûêËØªÂèñÁªìÊûú
 240:main.c        ****     printf("\n[ANALYSIS]\n");
 838              		.loc 1 240 0
 839 00de 444B     		ldr	r3, .L22+36
 840 00e0 1800     		movs	r0, r3
 841 00e2 FFF7FEFF 		bl	puts
 241:main.c        ****     
 242:main.c        ****     if((regValue == 0x808080 || regValue == 0x80) && 
 842              		.loc 1 242 0
 843 00e6 3B69     		ldr	r3, [r7, #16]
 844 00e8 424A     		ldr	r2, .L22+40
 845 00ea 9342     		cmp	r3, r2
 846 00ec 02D0     		beq	.L15
 847              		.loc 1 242 0 is_stmt 0 discriminator 2
 848 00ee 3B69     		ldr	r3, [r7, #16]
 849 00f0 802B     		cmp	r3, #128
 850 00f2 3ED1     		bne	.L16
 851              	.L15:
 852              		.loc 1 242 0 discriminator 3
 853 00f4 FB68     		ldr	r3, [r7, #12]
 854 00f6 3F4A     		ldr	r2, .L22+40
 855 00f8 9342     		cmp	r3, r2
 856 00fa 02D0     		beq	.L17
 243:main.c        ****        (regValue2 == 0x808080 || regValue2 == 0x80) &&
 857              		.loc 1 243 0 is_stmt 1
 858 00fc FB68     		ldr	r3, [r7, #12]
 859 00fe 802B     		cmp	r3, #128
 860 0100 37D1     		bne	.L16
 861              	.L17:
 862              		.loc 1 243 0 is_stmt 0 discriminator 1
 863 0102 BB68     		ldr	r3, [r7, #8]
 864 0104 3B4A     		ldr	r2, .L22+40
 865 0106 9342     		cmp	r3, r2
 866 0108 02D0     		beq	.L18
 244:main.c        ****        (regValue3 == 0x808080 || regValue3 == 0x80))
 867              		.loc 1 244 0 is_stmt 1
 868 010a BB68     		ldr	r3, [r7, #8]
 869 010c 802B     		cmp	r3, #128
 870 010e 30D1     		bne	.L16
 871              	.L18:
 245:main.c        ****     {
 246:main.c        ****         printf("[CRITICAL] Consistent 0x80 pattern detected!\n");
 872              		.loc 1 246 0
 873 0110 394B     		ldr	r3, .L22+44
 874 0112 1800     		movs	r0, r3
 875 0114 FFF7FEFF 		bl	puts
 247:main.c        ****         printf("   This is NOT random garbage - it's a systematic issue:\n");
 876              		.loc 1 247 0
 877 0118 384B     		ldr	r3, .L22+48
 878 011a 1800     		movs	r0, r3
 879 011c FFF7FEFF 		bl	puts
 248:main.c        ****         printf("   Possible Causes:\n");
 880              		.loc 1 248 0
 881 0120 374B     		ldr	r3, .L22+52
 882 0122 1800     		movs	r0, r3
 883 0124 FFF7FEFF 		bl	puts
ARM GAS  C:\Users\13740\AppData\Local\Temp\cckeVujV.s 			page 25


 249:main.c        ****         printf("   1. **MISO line floating** - Not connected or open circuit\n");
 884              		.loc 1 249 0
 885 0128 364B     		ldr	r3, .L22+56
 886 012a 1800     		movs	r0, r3
 887 012c FFF7FEFF 		bl	puts
 250:main.c        ****         printf("   2. **CS timing** - Signal not toggling correctly\n");
 888              		.loc 1 250 0
 889 0130 354B     		ldr	r3, .L22+60
 890 0132 1800     		movs	r0, r3
 891 0134 FFF7FEFF 		bl	puts
 251:main.c        ****         printf("   3. **DUMMY READ issue** - SPI read sequence problem\n");
 892              		.loc 1 251 0
 893 0138 344B     		ldr	r3, .L22+64
 894 013a 1800     		movs	r0, r3
 895 013c FFF7FEFF 		bl	puts
 252:main.c        ****         printf("   4. **AD5940 not responding** - Check power, reset, and connections\n");
 896              		.loc 1 252 0
 897 0140 334B     		ldr	r3, .L22+68
 898 0142 1800     		movs	r0, r3
 899 0144 FFF7FEFF 		bl	puts
 253:main.c        ****         printf("\n   ACTION REQUIRED:\n");
 900              		.loc 1 253 0
 901 0148 324B     		ldr	r3, .L22+72
 902 014a 1800     		movs	r0, r3
 903 014c FFF7FEFF 		bl	puts
 254:main.c        ****         printf("   1. Check physical connection: PSoC P0.5 <-> AD5940 DOUT\n");
 904              		.loc 1 254 0
 905 0150 314B     		ldr	r3, .L22+76
 906 0152 1800     		movs	r0, r3
 907 0154 FFF7FEFF 		bl	puts
 255:main.c        ****         printf("   2. Measure voltage on DOUT pin (should toggle with SCLK)\n");
 908              		.loc 1 255 0
 909 0158 304B     		ldr	r3, .L22+80
 910 015a 1800     		movs	r0, r3
 911 015c FFF7FEFF 		bl	puts
 256:main.c        ****         printf("   3. Verify AD5940 VDD = 3.3V and GND is connected\n");
 912              		.loc 1 256 0
 913 0160 2F4B     		ldr	r3, .L22+84
 914 0162 1800     		movs	r0, r3
 915 0164 FFF7FEFF 		bl	puts
 257:main.c        ****         printf("   4. Try reducing SPI speed further (now at 100 kbps)\n");
 916              		.loc 1 257 0
 917 0168 2E4B     		ldr	r3, .L22+88
 918 016a 1800     		movs	r0, r3
 919 016c FFF7FEFF 		bl	puts
 920 0170 14E0     		b	.L19
 921              	.L16:
 258:main.c        ****     }
 259:main.c        ****     else if(regValue != regValue2 || regValue != regValue3)
 922              		.loc 1 259 0
 923 0172 3A69     		ldr	r2, [r7, #16]
 924 0174 FB68     		ldr	r3, [r7, #12]
 925 0176 9A42     		cmp	r2, r3
 926 0178 03D1     		bne	.L20
 927              		.loc 1 259 0 is_stmt 0 discriminator 1
 928 017a 3A69     		ldr	r2, [r7, #16]
 929 017c BB68     		ldr	r3, [r7, #8]
ARM GAS  C:\Users\13740\AppData\Local\Temp\cckeVujV.s 			page 26


 930 017e 9A42     		cmp	r2, r3
 931 0180 08D0     		beq	.L21
 932              	.L20:
 260:main.c        ****     {
 261:main.c        ****         printf("[GOOD SIGN] Different values in different registers!\n");
 933              		.loc 1 261 0 is_stmt 1
 934 0182 294B     		ldr	r3, .L22+92
 935 0184 1800     		movs	r0, r3
 936 0186 FFF7FEFF 		bl	puts
 262:main.c        ****         printf("   This suggests SPI communication is partially working\n");
 937              		.loc 1 262 0
 938 018a 284B     		ldr	r3, .L22+96
 939 018c 1800     		movs	r0, r3
 940 018e FFF7FEFF 		bl	puts
 941 0192 03E0     		b	.L19
 942              	.L21:
 263:main.c        ****     }
 264:main.c        ****     else
 265:main.c        ****     {
 266:main.c        ****         printf("[OK] Register values appear reasonable\n");
 943              		.loc 1 266 0
 944 0194 264B     		ldr	r3, .L22+100
 945 0196 1800     		movs	r0, r3
 946 0198 FFF7FEFF 		bl	puts
 947              	.L19:
 267:main.c        ****     }
 268:main.c        ****     
 269:main.c        ****     printf("\n[SPI CONFIGURATION]\n");
 948              		.loc 1 269 0
 949 019c 254B     		ldr	r3, .L22+104
 950 019e 1800     		movs	r0, r3
 951 01a0 FFF7FEFF 		bl	puts
 270:main.c        ****     printf("   - SPI Speed: 100 kbps (reduced from 1 Mbps)\n");
 952              		.loc 1 270 0
 953 01a4 244B     		ldr	r3, .L22+108
 954 01a6 1800     		movs	r0, r3
 955 01a8 FFF7FEFF 		bl	puts
 271:main.c        ****     printf("   - Mode: Motorola (CPHA=0, CPOL=0)\n");
 956              		.loc 1 271 0
 957 01ac 234B     		ldr	r3, .L22+112
 958 01ae 1800     		movs	r0, r3
 959 01b0 FFF7FEFF 		bl	puts
 272:main.c        ****     printf("   - Data Width: 8-bit\n");
 960              		.loc 1 272 0
 961 01b4 224B     		ldr	r3, .L22+116
 962 01b6 1800     		movs	r0, r3
 963 01b8 FFF7FEFF 		bl	puts
 273:main.c        ****     
 274:main.c        ****     printf("=== SPI TEST END ===\n\n");
 964              		.loc 1 274 0
 965 01bc 214B     		ldr	r3, .L22+120
 966 01be 1800     		movs	r0, r3
 967 01c0 FFF7FEFF 		bl	puts
 275:main.c        **** }
 968              		.loc 1 275 0
 969 01c4 C046     		nop
 970 01c6 BD46     		mov	sp, r7
ARM GAS  C:\Users\13740\AppData\Local\Temp\cckeVujV.s 			page 27


 971 01c8 06B0     		add	sp, sp, #24
 972              		@ sp needed
 973 01ca 80BD     		pop	{r7, pc}
 974              	.L23:
 975              		.align	2
 976              	.L22:
 977 01cc E8030000 		.word	.LC54
 978 01d0 14040000 		.word	.LC56
 979 01d4 50040000 		.word	.LC58
 980 01d8 74040000 		.word	.LC60
 981 01dc A4040000 		.word	.LC62
 982 01e0 C0040000 		.word	.LC64
 983 01e4 DC040000 		.word	.LC66
 984 01e8 74200000 		.word	8308
 985 01ec F8040000 		.word	.LC68
 986 01f0 14050000 		.word	.LC70
 987 01f4 80808000 		.word	8421504
 988 01f8 20050000 		.word	.LC72
 989 01fc 50050000 		.word	.LC74
 990 0200 8C050000 		.word	.LC76
 991 0204 A0050000 		.word	.LC78
 992 0208 E0050000 		.word	.LC80
 993 020c 14060000 		.word	.LC82
 994 0210 4C060000 		.word	.LC84
 995 0214 94060000 		.word	.LC86
 996 0218 AC060000 		.word	.LC88
 997 021c E8060000 		.word	.LC90
 998 0220 24070000 		.word	.LC92
 999 0224 58070000 		.word	.LC94
 1000 0228 90070000 		.word	.LC96
 1001 022c C8070000 		.word	.LC98
 1002 0230 00080000 		.word	.LC100
 1003 0234 28080000 		.word	.LC102
 1004 0238 40080000 		.word	.LC104
 1005 023c 70080000 		.word	.LC106
 1006 0240 98080000 		.word	.LC108
 1007 0244 B0080000 		.word	.LC110
 1008              		.cfi_endproc
 1009              	.LFE37:
 1010              		.size	DiagnosticsSPI, .-DiagnosticsSPI
 1011              		.section	.rodata
 1012 08c6 0000     		.align	2
 1013              	.LC112:
 1014 08c8 0A3D3D3D 		.ascii	"\012=== FIFO & INTERRUPT STATUS (ENHANCED) ===\000"
 1014      20464946 
 1014      4F202620 
 1014      494E5445 
 1014      52525550 
 1015              		.align	2
 1016              	.LC114:
 1017 08f4 5B444542 		.ascii	"[DEBUG] Checking FIFO status...\000"
 1017      55475D20 
 1017      43686563 
 1017      6B696E67 
 1017      20464946 
 1018              		.align	2
 1019              	.LC117:
ARM GAS  C:\Users\13740\AppData\Local\Temp\cckeVujV.s 			page 28


 1020 0914 20202020 		.ascii	"    FifoDataCount: %lu\012\000"
 1020      4669666F 
 1020      44617461 
 1020      436F756E 
 1020      743A2025 
 1021              		.align	2
 1022              	.LC119:
 1023 092c 20202020 		.ascii	"    FifoThresh: %d\012\000"
 1023      4669666F 
 1023      54687265 
 1023      73683A20 
 1023      25640A00 
 1024              		.align	2
 1025              	.LC121:
 1026 0940 20202020 		.ascii	"    AMPInited: %d\012\000"
 1026      414D5049 
 1026      6E697465 
 1026      643A2025 
 1026      640A00
 1027 0953 00       		.align	2
 1028              	.LC123:
 1029 0954 20202020 		.ascii	"    StopRequired: %d\012\000"
 1029      53746F70 
 1029      52657175 
 1029      69726564 
 1029      3A202564 
 1030 096a 0000     		.align	2
 1031              	.LC126:
 1032 096c 3D3D3D20 		.ascii	"=== FIFO TEST END ===\012\000"
 1032      4649464F 
 1032      20544553 
 1032      5420454E 
 1032      44203D3D 
 1033 0983 00       		.align	2
 1034              	.LC128:
 1035 0984 20202020 		.ascii	"    [OK] FIFO Threshold Interrupt: DETECTED\000"
 1035      5B4F4B5D 
 1035      20464946 
 1035      4F205468 
 1035      72657368 
 1036              		.align	2
 1037              	.LC130:
 1038 09b0 20202020 		.ascii	"    [WARNING] FIFO Threshold Interrupt: NOT DETECTE"
 1038      5B574152 
 1038      4E494E47 
 1038      5D204649 
 1038      464F2054 
 1039 09e3 4400     		.ascii	"D\000"
 1040 09e5 000000   		.align	2
 1041              	.LC132:
 1042 09e8 20202020 		.ascii	"            Check if ADC is running and FIFO has da"
 1042      20202020 
 1042      20202020 
 1042      43686563 
 1042      6B206966 
 1043 0a1b 746100   		.ascii	"ta\000"
 1044 0a1e 0000     		.align	2
ARM GAS  C:\Users\13740\AppData\Local\Temp\cckeVujV.s 			page 29


 1045              	.LC134:
 1046 0a20 0A5B4449 		.ascii	"\012[DIAGNOSIS]\000"
 1046      41474E4F 
 1046      5349535D 
 1046      00
 1047 0a2d 000000   		.align	2
 1048              	.LC136:
 1049 0a30 20202020 		.ascii	"    [CRITICAL] AMPInited = 0, initialization incomp"
 1049      5B435249 
 1049      54494341 
 1049      4C5D2041 
 1049      4D50496E 
 1050 0a63 6C657465 		.ascii	"lete\000"
 1050      00
 1051              		.align	2
 1052              	.LC138:
 1053 0a68 20202020 		.ascii	"    This prevents any measurements from starting\000"
 1053      54686973 
 1053      20707265 
 1053      76656E74 
 1053      7320616E 
 1054 0a99 000000   		.align	2
 1055              	.LC140:
 1056 0a9c 20202020 		.ascii	"    [OK] AMPInited = 1, initialization complete\000"
 1056      5B4F4B5D 
 1056      20414D50 
 1056      496E6974 
 1056      6564203D 
 1057              		.section	.text.DiagnosticsFIFO,"ax",%progbits
 1058              		.align	2
 1059              		.global	DiagnosticsFIFO
 1060              		.code	16
 1061              		.thumb_func
 1062              		.type	DiagnosticsFIFO, %function
 1063              	DiagnosticsFIFO:
 1064              	.LFB38:
 276:main.c        **** 
 277:main.c        **** /*******************************************************************************
 278:main.c        **** * Function Name: DiagnosticsFIFO
 279:main.c        **** ********************************************************************************
 280:main.c        **** * Summary:
 281:main.c        **** *   ËØäÊñ≠ FIFO Âíå‰∏≠Êñ≠Áä∂ÊÄÅ - Â¢ûÂº∫ÁâàÊú¨
 282:main.c        **** *******************************************************************************/
 283:main.c        **** void DiagnosticsFIFO(void)
 284:main.c        **** {
 1065              		.loc 1 284 0
 1066              		.cfi_startproc
 1067              		@ args = 0, pretend = 0, frame = 8
 1068              		@ frame_needed = 1, uses_anonymous_args = 0
 1069 0000 80B5     		push	{r7, lr}
 1070              		.cfi_def_cfa_offset 8
 1071              		.cfi_offset 7, -8
 1072              		.cfi_offset 14, -4
 1073 0002 82B0     		sub	sp, sp, #8
 1074              		.cfi_def_cfa_offset 16
 1075 0004 00AF     		add	r7, sp, #0
 1076              		.cfi_def_cfa_register 7
ARM GAS  C:\Users\13740\AppData\Local\Temp\cckeVujV.s 			page 30


 285:main.c        ****     printf("\n=== FIFO & INTERRUPT STATUS (ENHANCED) ===\n");
 1077              		.loc 1 285 0
 1078 0006 394B     		ldr	r3, .L33
 1079 0008 1800     		movs	r0, r3
 1080 000a FFF7FEFF 		bl	puts
 286:main.c        ****     
 287:main.c        ****     uint32 fifoCount = 0;
 1081              		.loc 1 287 0
 1082 000e 0023     		movs	r3, #0
 1083 0010 7B60     		str	r3, [r7, #4]
 288:main.c        ****     
 289:main.c        ****     printf("[DEBUG] Checking FIFO status...\n");
 1084              		.loc 1 289 0
 1085 0012 374B     		ldr	r3, .L33+4
 1086 0014 1800     		movs	r0, r3
 1087 0016 FFF7FEFF 		bl	puts
 290:main.c        ****     if(pAmpCfg != NULL)
 1088              		.loc 1 290 0
 1089 001a 364B     		ldr	r3, .L33+8
 1090 001c 1B68     		ldr	r3, [r3]
 1091 001e 002B     		cmp	r3, #0
 1092 0020 2FD0     		beq	.L25
 291:main.c        ****     {
 292:main.c        ****         printf("    FifoDataCount: %lu\n", (unsigned long)pAmpCfg->FifoDataCount);
 1093              		.loc 1 292 0
 1094 0022 344B     		ldr	r3, .L33+8
 1095 0024 1B68     		ldr	r3, [r3]
 1096 0026 9C22     		movs	r2, #156
 1097 0028 9A58     		ldr	r2, [r3, r2]
 1098 002a 334B     		ldr	r3, .L33+12
 1099 002c 1100     		movs	r1, r2
 1100 002e 1800     		movs	r0, r3
 1101 0030 FFF7FEFF 		bl	printf
 293:main.c        ****         printf("    FifoThresh: %d\n", (int)pAmpCfg->FifoThresh);
 1102              		.loc 1 293 0
 1103 0034 2F4B     		ldr	r3, .L33+8
 1104 0036 1B68     		ldr	r3, [r3]
 1105 0038 5B6A     		ldr	r3, [r3, #36]
 1106 003a 1A00     		movs	r2, r3
 1107 003c 2F4B     		ldr	r3, .L33+16
 1108 003e 1100     		movs	r1, r2
 1109 0040 1800     		movs	r0, r3
 1110 0042 FFF7FEFF 		bl	printf
 294:main.c        ****         printf("    AMPInited: %d\n", (int)pAmpCfg->AMPInited);
 1111              		.loc 1 294 0
 1112 0046 2B4B     		ldr	r3, .L33+8
 1113 0048 1B68     		ldr	r3, [r3]
 1114 004a 6C22     		movs	r2, #108
 1115 004c 9B5C     		ldrb	r3, [r3, r2]
 1116 004e 1A00     		movs	r2, r3
 1117 0050 2B4B     		ldr	r3, .L33+20
 1118 0052 1100     		movs	r1, r2
 1119 0054 1800     		movs	r0, r3
 1120 0056 FFF7FEFF 		bl	printf
 295:main.c        ****         printf("    StopRequired: %d\n", (int)pAmpCfg->StopRequired);
 1121              		.loc 1 295 0
 1122 005a 264B     		ldr	r3, .L33+8
ARM GAS  C:\Users\13740\AppData\Local\Temp\cckeVujV.s 			page 31


 1123 005c 1B68     		ldr	r3, [r3]
 1124 005e 9822     		movs	r2, #152
 1125 0060 9B5C     		ldrb	r3, [r3, r2]
 1126 0062 1A00     		movs	r2, r3
 1127 0064 274B     		ldr	r3, .L33+24
 1128 0066 1100     		movs	r1, r2
 1129 0068 1800     		movs	r0, r3
 1130 006a FFF7FEFF 		bl	printf
 296:main.c        ****     }
 297:main.c        ****     else
 298:main.c        ****     {
 299:main.c        ****         printf("[ERROR] pAmpCfg is NULL!\n");
 300:main.c        ****         printf("=== FIFO TEST END ===\n\n");
 301:main.c        ****         return;
 302:main.c        ****     }
 303:main.c        ****     
 304:main.c        ****     if(AD5940_INTCTestFlag(AFEINTC_0, AFEINTSRC_DATAFIFOTHRESH) == bTRUE)
 1131              		.loc 1 304 0
 1132 006e 8023     		movs	r3, #128
 1133 0070 9B04     		lsls	r3, r3, #18
 1134 0072 1900     		movs	r1, r3
 1135 0074 0020     		movs	r0, #0
 1136 0076 FFF7FEFF 		bl	AD5940_INTCTestFlag
 1137 007a 0300     		movs	r3, r0
 1138 007c 012B     		cmp	r3, #1
 1139 007e 0ED1     		bne	.L28
 1140 0080 08E0     		b	.L32
 1141              	.L25:
 299:main.c        ****         printf("=== FIFO TEST END ===\n\n");
 1142              		.loc 1 299 0
 1143 0082 214B     		ldr	r3, .L33+28
 1144 0084 1800     		movs	r0, r3
 1145 0086 FFF7FEFF 		bl	puts
 300:main.c        ****         return;
 1146              		.loc 1 300 0
 1147 008a 204B     		ldr	r3, .L33+32
 1148 008c 1800     		movs	r0, r3
 1149 008e FFF7FEFF 		bl	puts
 301:main.c        ****     }
 1150              		.loc 1 301 0
 1151 0092 27E0     		b	.L24
 1152              	.L32:
 305:main.c        ****     {
 306:main.c        ****         printf("    [OK] FIFO Threshold Interrupt: DETECTED\n");
 1153              		.loc 1 306 0
 1154 0094 1E4B     		ldr	r3, .L33+36
 1155 0096 1800     		movs	r0, r3
 1156 0098 FFF7FEFF 		bl	puts
 1157 009c 07E0     		b	.L29
 1158              	.L28:
 307:main.c        ****     }
 308:main.c        ****     else
 309:main.c        ****     {
 310:main.c        ****         printf("    [WARNING] FIFO Threshold Interrupt: NOT DETECTED\n");
 1159              		.loc 1 310 0
 1160 009e 1D4B     		ldr	r3, .L33+40
 1161 00a0 1800     		movs	r0, r3
ARM GAS  C:\Users\13740\AppData\Local\Temp\cckeVujV.s 			page 32


 1162 00a2 FFF7FEFF 		bl	puts
 311:main.c        ****         printf("            Check if ADC is running and FIFO has data\n");
 1163              		.loc 1 311 0
 1164 00a6 1C4B     		ldr	r3, .L33+44
 1165 00a8 1800     		movs	r0, r3
 1166 00aa FFF7FEFF 		bl	puts
 1167              	.L29:
 312:main.c        ****     }
 313:main.c        ****     
 314:main.c        ****     printf("\n[DIAGNOSIS]\n");
 1168              		.loc 1 314 0
 1169 00ae 1B4B     		ldr	r3, .L33+48
 1170 00b0 1800     		movs	r0, r3
 1171 00b2 FFF7FEFF 		bl	puts
 315:main.c        ****     if(pAmpCfg->AMPInited == 0)
 1172              		.loc 1 315 0
 1173 00b6 0F4B     		ldr	r3, .L33+8
 1174 00b8 1B68     		ldr	r3, [r3]
 1175 00ba 6C22     		movs	r2, #108
 1176 00bc 9B5C     		ldrb	r3, [r3, r2]
 1177 00be 002B     		cmp	r3, #0
 1178 00c0 08D1     		bne	.L30
 316:main.c        ****     {
 317:main.c        ****         printf("    [CRITICAL] AMPInited = 0, initialization incomplete\n");
 1179              		.loc 1 317 0
 1180 00c2 174B     		ldr	r3, .L33+52
 1181 00c4 1800     		movs	r0, r3
 1182 00c6 FFF7FEFF 		bl	puts
 318:main.c        ****         printf("    This prevents any measurements from starting\n");
 1183              		.loc 1 318 0
 1184 00ca 164B     		ldr	r3, .L33+56
 1185 00cc 1800     		movs	r0, r3
 1186 00ce FFF7FEFF 		bl	puts
 1187 00d2 03E0     		b	.L31
 1188              	.L30:
 319:main.c        ****     }
 320:main.c        ****     else
 321:main.c        ****     {
 322:main.c        ****         printf("    [OK] AMPInited = 1, initialization complete\n");
 1189              		.loc 1 322 0
 1190 00d4 144B     		ldr	r3, .L33+60
 1191 00d6 1800     		movs	r0, r3
 1192 00d8 FFF7FEFF 		bl	puts
 1193              	.L31:
 323:main.c        ****     }
 324:main.c        ****     
 325:main.c        ****     printf("=== FIFO TEST END ===\n\n");
 1194              		.loc 1 325 0
 1195 00dc 0B4B     		ldr	r3, .L33+32
 1196 00de 1800     		movs	r0, r3
 1197 00e0 FFF7FEFF 		bl	puts
 1198              	.L24:
 326:main.c        **** }
 1199              		.loc 1 326 0
 1200 00e4 BD46     		mov	sp, r7
 1201 00e6 02B0     		add	sp, sp, #8
 1202              		@ sp needed
ARM GAS  C:\Users\13740\AppData\Local\Temp\cckeVujV.s 			page 33


 1203 00e8 80BD     		pop	{r7, pc}
 1204              	.L34:
 1205 00ea C046     		.align	2
 1206              	.L33:
 1207 00ec C8080000 		.word	.LC112
 1208 00f0 F4080000 		.word	.LC114
 1209 00f4 00000000 		.word	pAmpCfg
 1210 00f8 14090000 		.word	.LC117
 1211 00fc 2C090000 		.word	.LC119
 1212 0100 40090000 		.word	.LC121
 1213 0104 54090000 		.word	.LC123
 1214 0108 A0010000 		.word	.LC21
 1215 010c 6C090000 		.word	.LC126
 1216 0110 84090000 		.word	.LC128
 1217 0114 B0090000 		.word	.LC130
 1218 0118 E8090000 		.word	.LC132
 1219 011c 200A0000 		.word	.LC134
 1220 0120 300A0000 		.word	.LC136
 1221 0124 680A0000 		.word	.LC138
 1222 0128 9C0A0000 		.word	.LC140
 1223              		.cfi_endproc
 1224              	.LFE38:
 1225              		.size	DiagnosticsFIFO, .-DiagnosticsFIFO
 1226              		.section	.rodata
 1227              		.align	2
 1228              	.LC142:
 1229 0acc 0A3D3D3D 		.ascii	"\012=== ELECTRODE CONFIGURATION ===\000"
 1229      20454C45 
 1229      4354524F 
 1229      44452043 
 1229      4F4E4649 
 1230 0aed 000000   		.align	2
 1231              	.LC144:
 1232 0af0 5B444542 		.ascii	"[DEBUG] Electrode Control Pin Status:\000"
 1232      55475D20 
 1232      456C6563 
 1232      74726F64 
 1232      6520436F 
 1233 0b16 0000     		.align	2
 1234              	.LC146:
 1235 0b18 20202020 		.ascii	"    AMP1_EN (Glucose): %d\012\000"
 1235      414D5031 
 1235      5F454E20 
 1235      28476C75 
 1235      636F7365 
 1236 0b33 00       		.align	2
 1237              	.LC148:
 1238 0b34 20202020 		.ascii	"    AMP2_EN (Lactate): %d\012\000"
 1238      414D5032 
 1238      5F454E20 
 1238      284C6163 
 1238      74617465 
 1239 0b4f 00       		.align	2
 1240              	.LC150:
 1241 0b50 20202020 		.ascii	"    AMP3_EN (Uric Acid): %d\012\000"
 1241      414D5033 
 1241      5F454E20 
ARM GAS  C:\Users\13740\AppData\Local\Temp\cckeVujV.s 			page 34


 1241      28557269 
 1241      63204163 
 1242 0b6d 000000   		.align	2
 1243              	.LC152:
 1244 0b70 0A5B4348 		.ascii	"\012[CHECK] Please verify:\000"
 1244      45434B5D 
 1244      20506C65 
 1244      61736520 
 1244      76657269 
 1245              		.align	2
 1246              	.LC154:
 1247 0b88 20202020 		.ascii	"    1. WE (Working Electrode): Connected to appropr"
 1247      312E2057 
 1247      45202857 
 1247      6F726B69 
 1247      6E672045 
 1248 0bbb 69617465 		.ascii	"iate sensor\000"
 1248      2073656E 
 1248      736F7200 
 1249 0bc7 00       		.align	2
 1250              	.LC156:
 1251 0bc8 20202020 		.ascii	"    2. RE (Reference Electrode): Connected to Ag/Ag"
 1251      322E2052 
 1251      45202852 
 1251      65666572 
 1251      656E6365 
 1252 0bfb 436C206F 		.ascii	"Cl or similar\000"
 1252      72207369 
 1252      6D696C61 
 1252      7200
 1253 0c09 000000   		.align	2
 1254              	.LC158:
 1255 0c0c 20202020 		.ascii	"    3. CE (Counter Electrode): Connected to carbon "
 1255      332E2043 
 1255      45202843 
 1255      6F756E74 
 1255      65722045 
 1256 0c3f 6F722073 		.ascii	"or similar\000"
 1256      696D696C 
 1256      617200
 1257              		.global	__aeabi_f2d
 1258 0c4a 0000     		.align	2
 1259              	.LC161:
 1260 0c4c 20202020 		.ascii	"    4. Sensor bias voltage: %.1f mV\012\000"
 1260      342E2053 
 1260      656E736F 
 1260      72206269 
 1260      61732076 
 1261 0c71 000000   		.align	2
 1262              	.LC163:
 1263 0c74 20202020 		.ascii	"    5. RTIA value: %.0f Ohm\012\000"
 1263      352E2052 
 1263      54494120 
 1263      76616C75 
 1263      653A2025 
 1264 0c91 000000   		.align	2
 1265              	.LC165:
ARM GAS  C:\Users\13740\AppData\Local\Temp\cckeVujV.s 			page 35


 1266 0c94 3D3D3D20 		.ascii	"=== ELECTRODE TEST END ===\012\000"
 1266      454C4543 
 1266      54524F44 
 1266      45205445 
 1266      53542045 
 1267              		.section	.text.DiagnosticsElectrodes,"ax",%progbits
 1268              		.align	2
 1269              		.global	DiagnosticsElectrodes
 1270              		.code	16
 1271              		.thumb_func
 1272              		.type	DiagnosticsElectrodes, %function
 1273              	DiagnosticsElectrodes:
 1274              	.LFB39:
 327:main.c        **** 
 328:main.c        **** /*******************************************************************************
 329:main.c        **** * Function Name: DiagnosticsElectrodes
 330:main.c        **** ********************************************************************************
 331:main.c        **** * Summary:
 332:main.c        **** *   ËØäÊñ≠ÁîµÊûÅÈÖçÁΩÆÂíåÊé•Á∫ø
 333:main.c        **** *******************************************************************************/
 334:main.c        **** void DiagnosticsElectrodes(void)
 335:main.c        **** {
 1275              		.loc 1 335 0
 1276              		.cfi_startproc
 1277              		@ args = 0, pretend = 0, frame = 0
 1278              		@ frame_needed = 1, uses_anonymous_args = 0
 1279 0000 B0B5     		push	{r4, r5, r7, lr}
 1280              		.cfi_def_cfa_offset 16
 1281              		.cfi_offset 4, -16
 1282              		.cfi_offset 5, -12
 1283              		.cfi_offset 7, -8
 1284              		.cfi_offset 14, -4
 1285 0002 00AF     		add	r7, sp, #0
 1286              		.cfi_def_cfa_register 7
 336:main.c        ****     printf("\n=== ELECTRODE CONFIGURATION ===\n");
 1287              		.loc 1 336 0
 1288 0004 2A4B     		ldr	r3, .L36
 1289 0006 1800     		movs	r0, r3
 1290 0008 FFF7FEFF 		bl	puts
 337:main.c        ****     
 338:main.c        ****     printf("[DEBUG] Electrode Control Pin Status:\n");
 1291              		.loc 1 338 0
 1292 000c 294B     		ldr	r3, .L36+4
 1293 000e 1800     		movs	r0, r3
 1294 0010 FFF7FEFF 		bl	puts
 339:main.c        ****     printf("    AMP1_EN (Glucose): %d\n", (int)AMP1_EN_Read());
 1295              		.loc 1 339 0
 1296 0014 FFF7FEFF 		bl	AMP1_EN_Read
 1297 0018 0300     		movs	r3, r0
 1298 001a 1A00     		movs	r2, r3
 1299 001c 264B     		ldr	r3, .L36+8
 1300 001e 1100     		movs	r1, r2
 1301 0020 1800     		movs	r0, r3
 1302 0022 FFF7FEFF 		bl	printf
 340:main.c        ****     printf("    AMP2_EN (Lactate): %d\n", (int)AMP2_EN_Read());
 1303              		.loc 1 340 0
 1304 0026 FFF7FEFF 		bl	AMP2_EN_Read
ARM GAS  C:\Users\13740\AppData\Local\Temp\cckeVujV.s 			page 36


 1305 002a 0300     		movs	r3, r0
 1306 002c 1A00     		movs	r2, r3
 1307 002e 234B     		ldr	r3, .L36+12
 1308 0030 1100     		movs	r1, r2
 1309 0032 1800     		movs	r0, r3
 1310 0034 FFF7FEFF 		bl	printf
 341:main.c        ****     printf("    AMP3_EN (Uric Acid): %d\n", (int)AMP3_EN_Read());
 1311              		.loc 1 341 0
 1312 0038 FFF7FEFF 		bl	AMP3_EN_Read
 1313 003c 0300     		movs	r3, r0
 1314 003e 1A00     		movs	r2, r3
 1315 0040 1F4B     		ldr	r3, .L36+16
 1316 0042 1100     		movs	r1, r2
 1317 0044 1800     		movs	r0, r3
 1318 0046 FFF7FEFF 		bl	printf
 342:main.c        ****     
 343:main.c        ****     printf("\n[CHECK] Please verify:\n");
 1319              		.loc 1 343 0
 1320 004a 1E4B     		ldr	r3, .L36+20
 1321 004c 1800     		movs	r0, r3
 1322 004e FFF7FEFF 		bl	puts
 344:main.c        ****     printf("    1. WE (Working Electrode): Connected to appropriate sensor\n");
 1323              		.loc 1 344 0
 1324 0052 1D4B     		ldr	r3, .L36+24
 1325 0054 1800     		movs	r0, r3
 1326 0056 FFF7FEFF 		bl	puts
 345:main.c        ****     printf("    2. RE (Reference Electrode): Connected to Ag/AgCl or similar\n");
 1327              		.loc 1 345 0
 1328 005a 1C4B     		ldr	r3, .L36+28
 1329 005c 1800     		movs	r0, r3
 1330 005e FFF7FEFF 		bl	puts
 346:main.c        ****     printf("    3. CE (Counter Electrode): Connected to carbon or similar\n");
 1331              		.loc 1 346 0
 1332 0062 1B4B     		ldr	r3, .L36+32
 1333 0064 1800     		movs	r0, r3
 1334 0066 FFF7FEFF 		bl	puts
 347:main.c        ****     printf("    4. Sensor bias voltage: %.1f mV\n", (double)pAmpCfg->SensorBias);
 1335              		.loc 1 347 0
 1336 006a 1A4B     		ldr	r3, .L36+36
 1337 006c 1B68     		ldr	r3, [r3]
 1338 006e 1B6E     		ldr	r3, [r3, #96]
 1339 0070 181C     		adds	r0, r3, #0
 1340 0072 FFF7FEFF 		bl	__aeabi_f2d
 1341 0076 0300     		movs	r3, r0
 1342 0078 0C00     		movs	r4, r1
 1343 007a 1749     		ldr	r1, .L36+40
 1344 007c 1A00     		movs	r2, r3
 1345 007e 2300     		movs	r3, r4
 1346 0080 0800     		movs	r0, r1
 1347 0082 FFF7FEFF 		bl	printf
 348:main.c        ****     printf("    5. RTIA value: %.0f Ohm\n", (double)pAmpCfg->RtiaCalValue.Magnitude);
 1348              		.loc 1 348 0
 1349 0086 134B     		ldr	r3, .L36+36
 1350 0088 1B68     		ldr	r3, [r3]
 1351 008a 5B6D     		ldr	r3, [r3, #84]
 1352 008c 181C     		adds	r0, r3, #0
 1353 008e FFF7FEFF 		bl	__aeabi_f2d
ARM GAS  C:\Users\13740\AppData\Local\Temp\cckeVujV.s 			page 37


 1354 0092 0300     		movs	r3, r0
 1355 0094 0C00     		movs	r4, r1
 1356 0096 1149     		ldr	r1, .L36+44
 1357 0098 1A00     		movs	r2, r3
 1358 009a 2300     		movs	r3, r4
 1359 009c 0800     		movs	r0, r1
 1360 009e FFF7FEFF 		bl	printf
 349:main.c        ****     
 350:main.c        ****     printf("=== ELECTRODE TEST END ===\n\n");
 1361              		.loc 1 350 0
 1362 00a2 0F4B     		ldr	r3, .L36+48
 1363 00a4 1800     		movs	r0, r3
 1364 00a6 FFF7FEFF 		bl	puts
 351:main.c        **** }
 1365              		.loc 1 351 0
 1366 00aa C046     		nop
 1367 00ac BD46     		mov	sp, r7
 1368              		@ sp needed
 1369 00ae B0BD     		pop	{r4, r5, r7, pc}
 1370              	.L37:
 1371              		.align	2
 1372              	.L36:
 1373 00b0 CC0A0000 		.word	.LC142
 1374 00b4 F00A0000 		.word	.LC144
 1375 00b8 180B0000 		.word	.LC146
 1376 00bc 340B0000 		.word	.LC148
 1377 00c0 500B0000 		.word	.LC150
 1378 00c4 700B0000 		.word	.LC152
 1379 00c8 880B0000 		.word	.LC154
 1380 00cc C80B0000 		.word	.LC156
 1381 00d0 0C0C0000 		.word	.LC158
 1382 00d4 00000000 		.word	pAmpCfg
 1383 00d8 4C0C0000 		.word	.LC161
 1384 00dc 740C0000 		.word	.LC163
 1385 00e0 940C0000 		.word	.LC165
 1386              		.cfi_endproc
 1387              	.LFE39:
 1388              		.size	DiagnosticsElectrodes, .-DiagnosticsElectrodes
 1389              		.section	.rodata
 1390              		.align	2
 1391              	.LC167:
 1392 0cb0 0A3D3D3D 		.ascii	"\012=== RAW SPI TEST ===\000"
 1392      20524157 
 1392      20535049 
 1392      20544553 
 1392      54203D3D 
 1393 0cc6 0000     		.align	2
 1394              	.LC169:
 1395 0cc8 5B544553 		.ascii	"[TEST 1] Sending 0x00, 0x00, 0x00, 0x00...\000"
 1395      5420315D 
 1395      2053656E 
 1395      64696E67 
 1395      20307830 
 1396 0cf3 00       		.align	2
 1397              	.LC171:
 1398 0cf4 20205458 		.ascii	"  TX: 0x00 0x00 0x00 0x00\000"
 1398      3A203078 
ARM GAS  C:\Users\13740\AppData\Local\Temp\cckeVujV.s 			page 38


 1398      30302030 
 1398      78303020 
 1398      30783030 
 1399 0d0e 0000     		.align	2
 1400              	.LC173:
 1401 0d10 20205258 		.ascii	"  RX: 0x%02X 0x%02X 0x%02X 0x%02X\012\000"
 1401      3A203078 
 1401      25303258 
 1401      20307825 
 1401      30325820 
 1402 0d33 00       		.align	2
 1403              	.LC175:
 1404 0d34 5B544553 		.ascii	"[TEST 2] Sending 0xFF, 0xFF, 0xFF, 0xFF...\000"
 1404      5420325D 
 1404      2053656E 
 1404      64696E67 
 1404      20307846 
 1405 0d5f 00       		.align	2
 1406              	.LC177:
 1407 0d60 20205458 		.ascii	"  TX: 0xFF 0xFF 0xFF 0xFF\000"
 1407      3A203078 
 1407      46462030 
 1407      78464620 
 1407      30784646 
 1408 0d7a 0000     		.align	2
 1409              	.LC179:
 1410 0d7c 5B544553 		.ascii	"[TEST 3] Sending 0xAA, 0x55, 0xAA, 0x55...\000"
 1410      5420335D 
 1410      2053656E 
 1410      64696E67 
 1410      20307841 
 1411 0da7 00       		.align	2
 1412              	.LC181:
 1413 0da8 20205458 		.ascii	"  TX: 0xAA 0x55 0xAA 0x55\000"
 1413      3A203078 
 1413      41412030 
 1413      78353520 
 1413      30784141 
 1414 0dc2 0000     		.align	2
 1415              	.LC184:
 1416 0dc4 20205B43 		.ascii	"  [CRITICAL] All tests return same value!\000"
 1416      52495449 
 1416      43414C5D 
 1416      20416C6C 
 1416      20746573 
 1417 0dee 0000     		.align	2
 1418              	.LC186:
 1419 0df0 20205468 		.ascii	"  This indicates MISO line is:\000"
 1419      69732069 
 1419      6E646963 
 1419      61746573 
 1419      204D4953 
 1420 0e0f 00       		.align	2
 1421              	.LC188:
 1422 0e10 20202D20 		.ascii	"  - Stuck or floating with 0x80 pattern (10000000 b"
 1422      53747563 
 1422      6B206F72 
ARM GAS  C:\Users\13740\AppData\Local\Temp\cckeVujV.s 			page 39


 1422      20666C6F 
 1422      6174696E 
 1423 0e43 696E6172 		.ascii	"inary)\000"
 1423      792900
 1424 0e4a 0000     		.align	2
 1425              	.LC190:
 1426 0e4c 20202D20 		.ascii	"  - Pulled high (0xFF = 11111111 binary, likely flo"
 1426      50756C6C 
 1426      65642068 
 1426      69676820 
 1426      28307846 
 1427 0e7f 6174696E 		.ascii	"ating/not connected)\000"
 1427      672F6E6F 
 1427      7420636F 
 1427      6E6E6563 
 1427      74656429 
 1428              		.align	2
 1429              	.LC192:
 1430 0e94 20202D20 		.ascii	"  - Stuck low or shorted to ground\000"
 1430      53747563 
 1430      6B206C6F 
 1430      77206F72 
 1430      2073686F 
 1431 0eb7 00       		.align	2
 1432              	.LC194:
 1433 0eb8 0A202048 		.ascii	"\012  HARDWARE CHECK REQUIRED:\000"
 1433      41524457 
 1433      41524520 
 1433      43484543 
 1433      4B205245 
 1434              		.align	2
 1435              	.LC196:
 1436 0ed4 2020312E 		.ascii	"  1. Verify MISO pin (PSoC P0.5) is physically conn"
 1436      20566572 
 1436      69667920 
 1436      4D49534F 
 1436      2070696E 
 1437 0f07 65637465 		.ascii	"ected to AD5940 DOUT\000"
 1437      6420746F 
 1437      20414435 
 1437      39343020 
 1437      444F5554 
 1438              		.align	2
 1439              	.LC198:
 1440 0f1c 2020322E 		.ascii	"  2. Check for shorts or cold solder joints\000"
 1440      20436865 
 1440      636B2066 
 1440      6F722073 
 1440      686F7274 
 1441              		.align	2
 1442              	.LC200:
 1443 0f48 2020332E 		.ascii	"  3. Verify AD5940 is powered correctly (3.3V)\000"
 1443      20566572 
 1443      69667920 
 1443      41443539 
 1443      34302069 
 1444 0f77 00       		.align	2
ARM GAS  C:\Users\13740\AppData\Local\Temp\cckeVujV.s 			page 40


 1445              	.LC202:
 1446 0f78 2020342E 		.ascii	"  4. Check CS and SCLK connections\000"
 1446      20436865 
 1446      636B2043 
 1446      5320616E 
 1446      64205343 
 1447 0f9b 00       		.align	2
 1448              	.LC204:
 1449 0f9c 20205B4F 		.ascii	"  [OK] SPI is responding with variable data\000"
 1449      4B5D2053 
 1449      50492069 
 1449      73207265 
 1449      73706F6E 
 1450              		.align	2
 1451              	.LC206:
 1452 0fc8 0A3D3D3D 		.ascii	"\012=== RAW SPI TEST END ===\012\000"
 1452      20524157 
 1452      20535049 
 1452      20544553 
 1452      5420454E 
 1453              		.section	.text.TestRawSPI,"ax",%progbits
 1454              		.align	2
 1455              		.global	TestRawSPI
 1456              		.code	16
 1457              		.thumb_func
 1458              		.type	TestRawSPI, %function
 1459              	TestRawSPI:
 1460              	.LFB40:
 352:main.c        **** 
 353:main.c        **** /*******************************************************************************
 354:main.c        **** * Function Name: TestRawSPI
 355:main.c        **** ********************************************************************************
 356:main.c        **** * Summary:
 357:main.c        **** *   ÊµãËØïÂéüÁîü SPI ÈÄöËÆØÔºà‰ΩøÁî®Â∫ïÂ±ÇAD5940Êé•Âè£Ôºâ
 358:main.c        **** *   Áî®‰∫éÁ°ÆËÆ§ SPI Á°¨‰ª∂ÊòØÂê¶Â∑•‰Ωú
 359:main.c        **** *******************************************************************************/
 360:main.c        **** void TestRawSPI(void)
 361:main.c        **** {
 1461              		.loc 1 361 0
 1462              		.cfi_startproc
 1463              		@ args = 0, pretend = 0, frame = 24
 1464              		@ frame_needed = 1, uses_anonymous_args = 0
 1465 0000 90B5     		push	{r4, r7, lr}
 1466              		.cfi_def_cfa_offset 12
 1467              		.cfi_offset 4, -12
 1468              		.cfi_offset 7, -8
 1469              		.cfi_offset 14, -4
 1470 0002 89B0     		sub	sp, sp, #36
 1471              		.cfi_def_cfa_offset 48
 1472 0004 02AF     		add	r7, sp, #8
 1473              		.cfi_def_cfa 7, 40
 362:main.c        ****     printf("\n=== RAW SPI TEST ===\n");
 1474              		.loc 1 362 0
 1475 0006 954B     		ldr	r3, .L51
 1476 0008 1800     		movs	r0, r3
 1477 000a FFF7FEFF 		bl	puts
 363:main.c        ****     
ARM GAS  C:\Users\13740\AppData\Local\Temp\cckeVujV.s 			page 41


 364:main.c        ****     uint8 txBuffer[8];
 365:main.c        ****     uint8 rxBuffer[8];
 366:main.c        ****     int i;
 367:main.c        ****     
 368:main.c        ****     // ÊµãËØï 1: ÂèëÈÄÅ 0x00 Ê®°Âºè
 369:main.c        ****     printf("[TEST 1] Sending 0x00, 0x00, 0x00, 0x00...\n");
 1478              		.loc 1 369 0
 1479 000e 944B     		ldr	r3, .L51+4
 1480 0010 1800     		movs	r0, r3
 1481 0012 FFF7FEFF 		bl	puts
 370:main.c        ****     for(i = 0; i < 4; i++)
 1482              		.loc 1 370 0
 1483 0016 0023     		movs	r3, #0
 1484 0018 7B61     		str	r3, [r7, #20]
 1485 001a 08E0     		b	.L39
 1486              	.L40:
 371:main.c        ****         txBuffer[i] = 0x00;
 1487              		.loc 1 371 0 discriminator 3
 1488 001c 0C23     		movs	r3, #12
 1489 001e FA18     		adds	r2, r7, r3
 1490 0020 7B69     		ldr	r3, [r7, #20]
 1491 0022 D318     		adds	r3, r2, r3
 1492 0024 0022     		movs	r2, #0
 1493 0026 1A70     		strb	r2, [r3]
 370:main.c        ****     for(i = 0; i < 4; i++)
 1494              		.loc 1 370 0 discriminator 3
 1495 0028 7B69     		ldr	r3, [r7, #20]
 1496 002a 0133     		adds	r3, r3, #1
 1497 002c 7B61     		str	r3, [r7, #20]
 1498              	.L39:
 370:main.c        ****     for(i = 0; i < 4; i++)
 1499              		.loc 1 370 0 is_stmt 0 discriminator 1
 1500 002e 7B69     		ldr	r3, [r7, #20]
 1501 0030 032B     		cmp	r3, #3
 1502 0032 F3DD     		ble	.L40
 372:main.c        ****     
 373:main.c        ****     AD5940_CsClr();
 1503              		.loc 1 373 0 is_stmt 1
 1504 0034 FFF7FEFF 		bl	AD5940_CsClr
 374:main.c        ****     CyDelay(2);
 1505              		.loc 1 374 0
 1506 0038 0220     		movs	r0, #2
 1507 003a FFF7FEFF 		bl	CyDelay
 375:main.c        ****     AD5940_ReadWriteNBytes(txBuffer, rxBuffer, 4);
 1508              		.loc 1 375 0
 1509 003e 391D     		adds	r1, r7, #4
 1510 0040 0C23     		movs	r3, #12
 1511 0042 FB18     		adds	r3, r7, r3
 1512 0044 0422     		movs	r2, #4
 1513 0046 1800     		movs	r0, r3
 1514 0048 FFF7FEFF 		bl	AD5940_ReadWriteNBytes
 376:main.c        ****     CyDelay(2);
 1515              		.loc 1 376 0
 1516 004c 0220     		movs	r0, #2
 1517 004e FFF7FEFF 		bl	CyDelay
 377:main.c        ****     AD5940_CsSet();
 1518              		.loc 1 377 0
ARM GAS  C:\Users\13740\AppData\Local\Temp\cckeVujV.s 			page 42


 1519 0052 FFF7FEFF 		bl	AD5940_CsSet
 378:main.c        ****     
 379:main.c        ****     printf("  TX: 0x00 0x00 0x00 0x00\n");
 1520              		.loc 1 379 0
 1521 0056 834B     		ldr	r3, .L51+8
 1522 0058 1800     		movs	r0, r3
 1523 005a FFF7FEFF 		bl	puts
 380:main.c        ****     printf("  RX: 0x%02X 0x%02X 0x%02X 0x%02X\n", rxBuffer[0], rxBuffer[1], rxBuffer[2], rxBuffer[3
 1524              		.loc 1 380 0
 1525 005e 3B1D     		adds	r3, r7, #4
 1526 0060 1B78     		ldrb	r3, [r3]
 1527 0062 1900     		movs	r1, r3
 1528 0064 3B1D     		adds	r3, r7, #4
 1529 0066 5B78     		ldrb	r3, [r3, #1]
 1530 0068 1A00     		movs	r2, r3
 1531 006a 3B1D     		adds	r3, r7, #4
 1532 006c 9B78     		ldrb	r3, [r3, #2]
 1533 006e 1C00     		movs	r4, r3
 1534 0070 3B1D     		adds	r3, r7, #4
 1535 0072 DB78     		ldrb	r3, [r3, #3]
 1536 0074 7C48     		ldr	r0, .L51+12
 1537 0076 0093     		str	r3, [sp]
 1538 0078 2300     		movs	r3, r4
 1539 007a FFF7FEFF 		bl	printf
 381:main.c        ****     
 382:main.c        ****     CyDelay(100);
 1540              		.loc 1 382 0
 1541 007e 6420     		movs	r0, #100
 1542 0080 FFF7FEFF 		bl	CyDelay
 383:main.c        ****     
 384:main.c        ****     // ÊµãËØï 2: ÂèëÈÄÅ 0xFF Ê®°Âºè
 385:main.c        ****     printf("[TEST 2] Sending 0xFF, 0xFF, 0xFF, 0xFF...\n");
 1543              		.loc 1 385 0
 1544 0084 794B     		ldr	r3, .L51+16
 1545 0086 1800     		movs	r0, r3
 1546 0088 FFF7FEFF 		bl	puts
 386:main.c        ****     for(i = 0; i < 4; i++)
 1547              		.loc 1 386 0
 1548 008c 0023     		movs	r3, #0
 1549 008e 7B61     		str	r3, [r7, #20]
 1550 0090 08E0     		b	.L41
 1551              	.L42:
 387:main.c        ****         txBuffer[i] = 0xFF;
 1552              		.loc 1 387 0 discriminator 3
 1553 0092 0C23     		movs	r3, #12
 1554 0094 FA18     		adds	r2, r7, r3
 1555 0096 7B69     		ldr	r3, [r7, #20]
 1556 0098 D318     		adds	r3, r2, r3
 1557 009a FF22     		movs	r2, #255
 1558 009c 1A70     		strb	r2, [r3]
 386:main.c        ****     for(i = 0; i < 4; i++)
 1559              		.loc 1 386 0 discriminator 3
 1560 009e 7B69     		ldr	r3, [r7, #20]
 1561 00a0 0133     		adds	r3, r3, #1
 1562 00a2 7B61     		str	r3, [r7, #20]
 1563              	.L41:
 386:main.c        ****     for(i = 0; i < 4; i++)
ARM GAS  C:\Users\13740\AppData\Local\Temp\cckeVujV.s 			page 43


 1564              		.loc 1 386 0 is_stmt 0 discriminator 1
 1565 00a4 7B69     		ldr	r3, [r7, #20]
 1566 00a6 032B     		cmp	r3, #3
 1567 00a8 F3DD     		ble	.L42
 388:main.c        ****     
 389:main.c        ****     AD5940_CsClr();
 1568              		.loc 1 389 0 is_stmt 1
 1569 00aa FFF7FEFF 		bl	AD5940_CsClr
 390:main.c        ****     CyDelay(2);
 1570              		.loc 1 390 0
 1571 00ae 0220     		movs	r0, #2
 1572 00b0 FFF7FEFF 		bl	CyDelay
 391:main.c        ****     AD5940_ReadWriteNBytes(txBuffer, rxBuffer, 4);
 1573              		.loc 1 391 0
 1574 00b4 391D     		adds	r1, r7, #4
 1575 00b6 0C23     		movs	r3, #12
 1576 00b8 FB18     		adds	r3, r7, r3
 1577 00ba 0422     		movs	r2, #4
 1578 00bc 1800     		movs	r0, r3
 1579 00be FFF7FEFF 		bl	AD5940_ReadWriteNBytes
 392:main.c        ****     CyDelay(2);
 1580              		.loc 1 392 0
 1581 00c2 0220     		movs	r0, #2
 1582 00c4 FFF7FEFF 		bl	CyDelay
 393:main.c        ****     AD5940_CsSet();
 1583              		.loc 1 393 0
 1584 00c8 FFF7FEFF 		bl	AD5940_CsSet
 394:main.c        ****     
 395:main.c        ****     printf("  TX: 0xFF 0xFF 0xFF 0xFF\n");
 1585              		.loc 1 395 0
 1586 00cc 684B     		ldr	r3, .L51+20
 1587 00ce 1800     		movs	r0, r3
 1588 00d0 FFF7FEFF 		bl	puts
 396:main.c        ****     printf("  RX: 0x%02X 0x%02X 0x%02X 0x%02X\n", rxBuffer[0], rxBuffer[1], rxBuffer[2], rxBuffer[3
 1589              		.loc 1 396 0
 1590 00d4 3B1D     		adds	r3, r7, #4
 1591 00d6 1B78     		ldrb	r3, [r3]
 1592 00d8 1900     		movs	r1, r3
 1593 00da 3B1D     		adds	r3, r7, #4
 1594 00dc 5B78     		ldrb	r3, [r3, #1]
 1595 00de 1A00     		movs	r2, r3
 1596 00e0 3B1D     		adds	r3, r7, #4
 1597 00e2 9B78     		ldrb	r3, [r3, #2]
 1598 00e4 1C00     		movs	r4, r3
 1599 00e6 3B1D     		adds	r3, r7, #4
 1600 00e8 DB78     		ldrb	r3, [r3, #3]
 1601 00ea 5F48     		ldr	r0, .L51+12
 1602 00ec 0093     		str	r3, [sp]
 1603 00ee 2300     		movs	r3, r4
 1604 00f0 FFF7FEFF 		bl	printf
 397:main.c        ****     
 398:main.c        ****     CyDelay(100);
 1605              		.loc 1 398 0
 1606 00f4 6420     		movs	r0, #100
 1607 00f6 FFF7FEFF 		bl	CyDelay
 399:main.c        ****     
 400:main.c        ****     // ÊµãËØï 3: ÂèëÈÄÅ 0xAA 0x55 ‰∫§ÊõøÊ®°Âºè
ARM GAS  C:\Users\13740\AppData\Local\Temp\cckeVujV.s 			page 44


 401:main.c        ****     printf("[TEST 3] Sending 0xAA, 0x55, 0xAA, 0x55...\n");
 1608              		.loc 1 401 0
 1609 00fa 5E4B     		ldr	r3, .L51+24
 1610 00fc 1800     		movs	r0, r3
 1611 00fe FFF7FEFF 		bl	puts
 402:main.c        ****     txBuffer[0] = 0xAA;
 1612              		.loc 1 402 0
 1613 0102 0C23     		movs	r3, #12
 1614 0104 FB18     		adds	r3, r7, r3
 1615 0106 AA22     		movs	r2, #170
 1616 0108 1A70     		strb	r2, [r3]
 403:main.c        ****     txBuffer[1] = 0x55;
 1617              		.loc 1 403 0
 1618 010a 0C23     		movs	r3, #12
 1619 010c FB18     		adds	r3, r7, r3
 1620 010e 5522     		movs	r2, #85
 1621 0110 5A70     		strb	r2, [r3, #1]
 404:main.c        ****     txBuffer[2] = 0xAA;
 1622              		.loc 1 404 0
 1623 0112 0C23     		movs	r3, #12
 1624 0114 FB18     		adds	r3, r7, r3
 1625 0116 AA22     		movs	r2, #170
 1626 0118 9A70     		strb	r2, [r3, #2]
 405:main.c        ****     txBuffer[3] = 0x55;
 1627              		.loc 1 405 0
 1628 011a 0C23     		movs	r3, #12
 1629 011c FB18     		adds	r3, r7, r3
 1630 011e 5522     		movs	r2, #85
 1631 0120 DA70     		strb	r2, [r3, #3]
 406:main.c        ****     
 407:main.c        ****     AD5940_CsClr();
 1632              		.loc 1 407 0
 1633 0122 FFF7FEFF 		bl	AD5940_CsClr
 408:main.c        ****     CyDelay(2);
 1634              		.loc 1 408 0
 1635 0126 0220     		movs	r0, #2
 1636 0128 FFF7FEFF 		bl	CyDelay
 409:main.c        ****     AD5940_ReadWriteNBytes(txBuffer, rxBuffer, 4);
 1637              		.loc 1 409 0
 1638 012c 391D     		adds	r1, r7, #4
 1639 012e 0C23     		movs	r3, #12
 1640 0130 FB18     		adds	r3, r7, r3
 1641 0132 0422     		movs	r2, #4
 1642 0134 1800     		movs	r0, r3
 1643 0136 FFF7FEFF 		bl	AD5940_ReadWriteNBytes
 410:main.c        ****     CyDelay(2);
 1644              		.loc 1 410 0
 1645 013a 0220     		movs	r0, #2
 1646 013c FFF7FEFF 		bl	CyDelay
 411:main.c        ****     AD5940_CsSet();
 1647              		.loc 1 411 0
 1648 0140 FFF7FEFF 		bl	AD5940_CsSet
 412:main.c        ****     
 413:main.c        ****     printf("  TX: 0xAA 0x55 0xAA 0x55\n");
 1649              		.loc 1 413 0
 1650 0144 4C4B     		ldr	r3, .L51+28
 1651 0146 1800     		movs	r0, r3
ARM GAS  C:\Users\13740\AppData\Local\Temp\cckeVujV.s 			page 45


 1652 0148 FFF7FEFF 		bl	puts
 414:main.c        ****     printf("  RX: 0x%02X 0x%02X 0x%02X 0x%02X\n", rxBuffer[0], rxBuffer[1], rxBuffer[2], rxBuffer[3
 1653              		.loc 1 414 0
 1654 014c 3B1D     		adds	r3, r7, #4
 1655 014e 1B78     		ldrb	r3, [r3]
 1656 0150 1900     		movs	r1, r3
 1657 0152 3B1D     		adds	r3, r7, #4
 1658 0154 5B78     		ldrb	r3, [r3, #1]
 1659 0156 1A00     		movs	r2, r3
 1660 0158 3B1D     		adds	r3, r7, #4
 1661 015a 9B78     		ldrb	r3, [r3, #2]
 1662 015c 1C00     		movs	r4, r3
 1663 015e 3B1D     		adds	r3, r7, #4
 1664 0160 DB78     		ldrb	r3, [r3, #3]
 1665 0162 4148     		ldr	r0, .L51+12
 1666 0164 0093     		str	r3, [sp]
 1667 0166 2300     		movs	r3, r4
 1668 0168 FFF7FEFF 		bl	printf
 415:main.c        ****     
 416:main.c        ****     // ÂàÜÊûêÁªìÊûú
 417:main.c        ****     printf("\n[ANALYSIS]\n");
 1669              		.loc 1 417 0
 1670 016c 434B     		ldr	r3, .L51+32
 1671 016e 1800     		movs	r0, r3
 1672 0170 FFF7FEFF 		bl	puts
 418:main.c        ****     
 419:main.c        ****     // Â¶ÇÊûúÊâÄÊúâÊµãËØïÈÉΩËøîÂõûÁõ∏ÂêåÁöÑÂÄºÔºåËØ¥ÊòéÊúâ‰∏•ÈáçÁöÑÁ°¨‰ª∂ÈóÆÈ¢ò
 420:main.c        ****     if((rxBuffer[0] == 0x80 && rxBuffer[1] == 0x80 && rxBuffer[2] == 0x80 && rxBuffer[3] == 0x80) |
 1673              		.loc 1 420 0
 1674 0174 3B1D     		adds	r3, r7, #4
 1675 0176 1B78     		ldrb	r3, [r3]
 1676 0178 802B     		cmp	r3, #128
 1677 017a 0BD1     		bne	.L43
 1678              		.loc 1 420 0 is_stmt 0 discriminator 1
 1679 017c 3B1D     		adds	r3, r7, #4
 1680 017e 5B78     		ldrb	r3, [r3, #1]
 1681 0180 802B     		cmp	r3, #128
 1682 0182 07D1     		bne	.L43
 1683              		.loc 1 420 0 discriminator 3
 1684 0184 3B1D     		adds	r3, r7, #4
 1685 0186 9B78     		ldrb	r3, [r3, #2]
 1686 0188 802B     		cmp	r3, #128
 1687 018a 03D1     		bne	.L43
 1688              		.loc 1 420 0 discriminator 5
 1689 018c 3B1D     		adds	r3, r7, #4
 1690 018e DB78     		ldrb	r3, [r3, #3]
 1691 0190 802B     		cmp	r3, #128
 1692 0192 1FD0     		beq	.L44
 1693              	.L43:
 421:main.c        ****        (rxBuffer[0] == 0xFF && rxBuffer[1] == 0xFF && rxBuffer[2] == 0xFF && rxBuffer[3] == 0xFF) |
 1694              		.loc 1 421 0 is_stmt 1 discriminator 7
 1695 0194 3B1D     		adds	r3, r7, #4
 1696 0196 1B78     		ldrb	r3, [r3]
 420:main.c        ****        (rxBuffer[0] == 0xFF && rxBuffer[1] == 0xFF && rxBuffer[2] == 0xFF && rxBuffer[3] == 0xFF) |
 1697              		.loc 1 420 0 discriminator 7
 1698 0198 FF2B     		cmp	r3, #255
 1699 019a 0BD1     		bne	.L45
ARM GAS  C:\Users\13740\AppData\Local\Temp\cckeVujV.s 			page 46


 1700              		.loc 1 421 0
 1701 019c 3B1D     		adds	r3, r7, #4
 1702 019e 5B78     		ldrb	r3, [r3, #1]
 1703 01a0 FF2B     		cmp	r3, #255
 1704 01a2 07D1     		bne	.L45
 1705              		.loc 1 421 0 is_stmt 0 discriminator 1
 1706 01a4 3B1D     		adds	r3, r7, #4
 1707 01a6 9B78     		ldrb	r3, [r3, #2]
 1708 01a8 FF2B     		cmp	r3, #255
 1709 01aa 03D1     		bne	.L45
 1710              		.loc 1 421 0 discriminator 3
 1711 01ac 3B1D     		adds	r3, r7, #4
 1712 01ae DB78     		ldrb	r3, [r3, #3]
 1713 01b0 FF2B     		cmp	r3, #255
 1714 01b2 0FD0     		beq	.L44
 1715              	.L45:
 422:main.c        ****        (rxBuffer[0] == 0x00 && rxBuffer[1] == 0x00 && rxBuffer[2] == 0x00 && rxBuffer[3] == 0x00))
 1716              		.loc 1 422 0 is_stmt 1 discriminator 5
 1717 01b4 3B1D     		adds	r3, r7, #4
 1718 01b6 1B78     		ldrb	r3, [r3]
 421:main.c        ****        (rxBuffer[0] == 0xFF && rxBuffer[1] == 0xFF && rxBuffer[2] == 0xFF && rxBuffer[3] == 0xFF) |
 1719              		.loc 1 421 0 discriminator 5
 1720 01b8 002B     		cmp	r3, #0
 1721 01ba 42D1     		bne	.L46
 1722              		.loc 1 422 0
 1723 01bc 3B1D     		adds	r3, r7, #4
 1724 01be 5B78     		ldrb	r3, [r3, #1]
 1725 01c0 002B     		cmp	r3, #0
 1726 01c2 3ED1     		bne	.L46
 1727              		.loc 1 422 0 is_stmt 0 discriminator 1
 1728 01c4 3B1D     		adds	r3, r7, #4
 1729 01c6 9B78     		ldrb	r3, [r3, #2]
 1730 01c8 002B     		cmp	r3, #0
 1731 01ca 3AD1     		bne	.L46
 1732              		.loc 1 422 0 discriminator 2
 1733 01cc 3B1D     		adds	r3, r7, #4
 1734 01ce DB78     		ldrb	r3, [r3, #3]
 1735 01d0 002B     		cmp	r3, #0
 1736 01d2 36D1     		bne	.L46
 1737              	.L44:
 423:main.c        ****     {
 424:main.c        ****         printf("  [CRITICAL] All tests return same value!\n");
 1738              		.loc 1 424 0 is_stmt 1
 1739 01d4 2A4B     		ldr	r3, .L51+36
 1740 01d6 1800     		movs	r0, r3
 1741 01d8 FFF7FEFF 		bl	puts
 425:main.c        ****         printf("  This indicates MISO line is:\n");
 1742              		.loc 1 425 0
 1743 01dc 294B     		ldr	r3, .L51+40
 1744 01de 1800     		movs	r0, r3
 1745 01e0 FFF7FEFF 		bl	puts
 426:main.c        ****         
 427:main.c        ****         if(rxBuffer[0] == 0x80)
 1746              		.loc 1 427 0
 1747 01e4 3B1D     		adds	r3, r7, #4
 1748 01e6 1B78     		ldrb	r3, [r3]
 1749 01e8 802B     		cmp	r3, #128
ARM GAS  C:\Users\13740\AppData\Local\Temp\cckeVujV.s 			page 47


 1750 01ea 04D1     		bne	.L47
 428:main.c        ****             printf("  - Stuck or floating with 0x80 pattern (10000000 binary)\n");
 1751              		.loc 1 428 0
 1752 01ec 264B     		ldr	r3, .L51+44
 1753 01ee 1800     		movs	r0, r3
 1754 01f0 FFF7FEFF 		bl	puts
 1755 01f4 10E0     		b	.L48
 1756              	.L47:
 429:main.c        ****         else if(rxBuffer[0] == 0xFF)
 1757              		.loc 1 429 0
 1758 01f6 3B1D     		adds	r3, r7, #4
 1759 01f8 1B78     		ldrb	r3, [r3]
 1760 01fa FF2B     		cmp	r3, #255
 1761 01fc 04D1     		bne	.L49
 430:main.c        ****             printf("  - Pulled high (0xFF = 11111111 binary, likely floating/not connected)\n");
 1762              		.loc 1 430 0
 1763 01fe 234B     		ldr	r3, .L51+48
 1764 0200 1800     		movs	r0, r3
 1765 0202 FFF7FEFF 		bl	puts
 1766 0206 07E0     		b	.L48
 1767              	.L49:
 431:main.c        ****         else if(rxBuffer[0] == 0x00)
 1768              		.loc 1 431 0
 1769 0208 3B1D     		adds	r3, r7, #4
 1770 020a 1B78     		ldrb	r3, [r3]
 1771 020c 002B     		cmp	r3, #0
 1772 020e 03D1     		bne	.L48
 432:main.c        ****             printf("  - Stuck low or shorted to ground\n");
 1773              		.loc 1 432 0
 1774 0210 1F4B     		ldr	r3, .L51+52
 1775 0212 1800     		movs	r0, r3
 1776 0214 FFF7FEFF 		bl	puts
 1777              	.L48:
 433:main.c        ****             
 434:main.c        ****         printf("\n  HARDWARE CHECK REQUIRED:\n");
 1778              		.loc 1 434 0
 1779 0218 1E4B     		ldr	r3, .L51+56
 1780 021a 1800     		movs	r0, r3
 1781 021c FFF7FEFF 		bl	puts
 435:main.c        ****         printf("  1. Verify MISO pin (PSoC P0.5) is physically connected to AD5940 DOUT\n");
 1782              		.loc 1 435 0
 1783 0220 1D4B     		ldr	r3, .L51+60
 1784 0222 1800     		movs	r0, r3
 1785 0224 FFF7FEFF 		bl	puts
 436:main.c        ****         printf("  2. Check for shorts or cold solder joints\n");
 1786              		.loc 1 436 0
 1787 0228 1C4B     		ldr	r3, .L51+64
 1788 022a 1800     		movs	r0, r3
 1789 022c FFF7FEFF 		bl	puts
 437:main.c        ****         printf("  3. Verify AD5940 is powered correctly (3.3V)\n");
 1790              		.loc 1 437 0
 1791 0230 1B4B     		ldr	r3, .L51+68
 1792 0232 1800     		movs	r0, r3
 1793 0234 FFF7FEFF 		bl	puts
 438:main.c        ****         printf("  4. Check CS and SCLK connections\n");
 1794              		.loc 1 438 0
 1795 0238 1A4B     		ldr	r3, .L51+72
ARM GAS  C:\Users\13740\AppData\Local\Temp\cckeVujV.s 			page 48


 1796 023a 1800     		movs	r0, r3
 1797 023c FFF7FEFF 		bl	puts
 1798 0240 03E0     		b	.L50
 1799              	.L46:
 439:main.c        ****     }
 440:main.c        ****     else
 441:main.c        ****     {
 442:main.c        ****         printf("  [OK] SPI is responding with variable data\n");
 1800              		.loc 1 442 0
 1801 0242 194B     		ldr	r3, .L51+76
 1802 0244 1800     		movs	r0, r3
 1803 0246 FFF7FEFF 		bl	puts
 1804              	.L50:
 443:main.c        ****     }
 444:main.c        ****     
 445:main.c        ****     printf("\n=== RAW SPI TEST END ===\n\n");
 1805              		.loc 1 445 0
 1806 024a 184B     		ldr	r3, .L51+80
 1807 024c 1800     		movs	r0, r3
 1808 024e FFF7FEFF 		bl	puts
 446:main.c        **** }
 1809              		.loc 1 446 0
 1810 0252 C046     		nop
 1811 0254 BD46     		mov	sp, r7
 1812 0256 07B0     		add	sp, sp, #28
 1813              		@ sp needed
 1814 0258 90BD     		pop	{r4, r7, pc}
 1815              	.L52:
 1816 025a C046     		.align	2
 1817              	.L51:
 1818 025c B00C0000 		.word	.LC167
 1819 0260 C80C0000 		.word	.LC169
 1820 0264 F40C0000 		.word	.LC171
 1821 0268 100D0000 		.word	.LC173
 1822 026c 340D0000 		.word	.LC175
 1823 0270 600D0000 		.word	.LC177
 1824 0274 7C0D0000 		.word	.LC179
 1825 0278 A80D0000 		.word	.LC181
 1826 027c 14050000 		.word	.LC70
 1827 0280 C40D0000 		.word	.LC184
 1828 0284 F00D0000 		.word	.LC186
 1829 0288 100E0000 		.word	.LC188
 1830 028c 4C0E0000 		.word	.LC190
 1831 0290 940E0000 		.word	.LC192
 1832 0294 B80E0000 		.word	.LC194
 1833 0298 D40E0000 		.word	.LC196
 1834 029c 1C0F0000 		.word	.LC198
 1835 02a0 480F0000 		.word	.LC200
 1836 02a4 780F0000 		.word	.LC202
 1837 02a8 9C0F0000 		.word	.LC204
 1838 02ac C80F0000 		.word	.LC206
 1839              		.cfi_endproc
 1840              	.LFE40:
 1841              		.size	TestRawSPI, .-TestRawSPI
 1842              		.section	.rodata
 1843 0fe3 00       		.align	2
 1844              	.LC208:
ARM GAS  C:\Users\13740\AppData\Local\Temp\cckeVujV.s 			page 49


 1845 0fe4 0A00     		.ascii	"\012\000"
 1846 0fe6 0000     		.align	2
 1847              	.LC210:
 1848 0fe8 E29594E2 		.ascii	"\342\225\224\342\225\220\342\225\220\342\225\220\342"
 1848      9590E295 
 1848      90E29590 
 1848      E2
 1849 0ff5 9590E295 		.ascii	"\225\220\342\225\220\342\225\220\342\225\220\342\225"
 1849      90E29590 
 1849      E29590E2 
 1849      95
 1850 1002 90E29590 		.ascii	"\220\342\225\220\342\225\220\342\225\220\342\225\220"
 1850      E29590E2 
 1850      9590E295 
 1850      90
 1851 100f E29590E2 		.ascii	"\342\225\220\342\225\220\342\225\220\342\225\220\342"
 1851      9590E295 
 1851      90E29590 
 1851      E2
 1852 101c 9590E295 		.ascii	"\225\220\342\225\220\342\225\220\342\225\220\342\225"
 1852      90E29590 
 1852      E29590E2 
 1852      95
 1853 1029 90E29590 		.ascii	"\220\342\225\220\342\225\220\342\225\220\342\225\220"
 1853      E29590E2 
 1853      9590E295 
 1853      90
 1854 1036 E29590E2 		.ascii	"\342\225\220\342\225\220\342\225\220\342\225\220\342"
 1854      9590E295 
 1854      90E29590 
 1854      E2
 1855 1043 9590E295 		.ascii	"\225\220\342\225\220\342\225\220\342\225\220\342\225"
 1855      90E29590 
 1855      E29590E2 
 1855      95
 1856 1050 90E29590 		.ascii	"\220\342\225\220\342\225\220\342\225\220\342\225\220"
 1856      E29590E2 
 1856      9590E295 
 1856      90
 1857 105d E29590E2 		.ascii	"\342\225\220\342\225\220\342\225\220\342\225\220\342"
 1857      9590E295 
 1857      90E29590 
 1857      E2
 1858 106a 9590E295 		.ascii	"\225\220\342\225\220\342\225\220\342\225\220\342\225"
 1858      90E29590 
 1858      E29590E2 
 1858      95
 1859 1077 90E29590 		.ascii	"\220\342\225\220\342\225\220\342\225\220\342\225\220"
 1859      E29590E2 
 1859      9590E295 
 1859      90
 1860 1084 E29590E2 		.ascii	"\342\225\220\342\225\220\342\225\220\342\225\220\342"
 1860      9590E295 
 1860      90E29590 
 1860      E2
 1861 1091 9590E295 		.ascii	"\225\220\342\225\227\000"
 1861      9700
ARM GAS  C:\Users\13740\AppData\Local\Temp\cckeVujV.s 			page 50


 1862 1097 00       		.align	2
 1863              	.LC212:
 1864 1098 E2959120 		.ascii	"\342\225\221        AD5941 COMPLETE DIAGNOSTIC SUIT"
 1864      20202020 
 1864      20202041 
 1864      44353934 
 1864      3120434F 
 1865 10c2 45202020 		.ascii	"E                \342\225\221\000"
 1865      20202020 
 1865      20202020 
 1865      20202020 
 1865      20E29591 
 1866 10d7 00       		.align	2
 1867              	.LC214:
 1868 10d8 E2959120 		.ascii	"\342\225\221         Troubleshooting BLE Data Trans"
 1868      20202020 
 1868      20202020 
 1868      54726F75 
 1868      626C6573 
 1869 1102 6D697373 		.ascii	"mission          \342\225\221\000"
 1869      696F6E20 
 1869      20202020 
 1869      20202020 
 1869      20E29591 
 1870 1117 00       		.align	2
 1871              	.LC216:
 1872 1118 E2959AE2 		.ascii	"\342\225\232\342\225\220\342\225\220\342\225\220\342"
 1872      9590E295 
 1872      90E29590 
 1872      E2
 1873 1125 9590E295 		.ascii	"\225\220\342\225\220\342\225\220\342\225\220\342\225"
 1873      90E29590 
 1873      E29590E2 
 1873      95
 1874 1132 90E29590 		.ascii	"\220\342\225\220\342\225\220\342\225\220\342\225\220"
 1874      E29590E2 
 1874      9590E295 
 1874      90
 1875 113f E29590E2 		.ascii	"\342\225\220\342\225\220\342\225\220\342\225\220\342"
 1875      9590E295 
 1875      90E29590 
 1875      E2
 1876 114c 9590E295 		.ascii	"\225\220\342\225\220\342\225\220\342\225\220\342\225"
 1876      90E29590 
 1876      E29590E2 
 1876      95
 1877 1159 90E29590 		.ascii	"\220\342\225\220\342\225\220\342\225\220\342\225\220"
 1877      E29590E2 
 1877      9590E295 
 1877      90
 1878 1166 E29590E2 		.ascii	"\342\225\220\342\225\220\342\225\220\342\225\220\342"
 1878      9590E295 
 1878      90E29590 
 1878      E2
 1879 1173 9590E295 		.ascii	"\225\220\342\225\220\342\225\220\342\225\220\342\225"
 1879      90E29590 
 1879      E29590E2 
ARM GAS  C:\Users\13740\AppData\Local\Temp\cckeVujV.s 			page 51


 1879      95
 1880 1180 90E29590 		.ascii	"\220\342\225\220\342\225\220\342\225\220\342\225\220"
 1880      E29590E2 
 1880      9590E295 
 1880      90
 1881 118d E29590E2 		.ascii	"\342\225\220\342\225\220\342\225\220\342\225\220\342"
 1881      9590E295 
 1881      90E29590 
 1881      E2
 1882 119a 9590E295 		.ascii	"\225\220\342\225\220\342\225\220\342\225\220\342\225"
 1882      90E29590 
 1882      E29590E2 
 1882      95
 1883 11a7 90E29590 		.ascii	"\220\342\225\220\342\225\220\342\225\220\342\225\220"
 1883      E29590E2 
 1883      9590E295 
 1883      90
 1884 11b4 E29590E2 		.ascii	"\342\225\220\342\225\220\342\225\220\342\225\220\342"
 1884      9590E295 
 1884      90E29590 
 1884      E2
 1885 11c1 9590E295 		.ascii	"\225\220\342\225\235\000"
 1885      9D00
 1886 11c7 00       		.align	2
 1887              	.LC218:
 1888 11c8 0A5B5354 		.ascii	"\012[STEP 0] Testing Raw SPI Communication...\000"
 1888      45502030 
 1888      5D205465 
 1888      7374696E 
 1888      67205261 
 1889 11f3 00       		.align	2
 1890              	.LC220:
 1891 11f4 5B535445 		.ascii	"[STEP 1] Verifying AD5940 SPI Communication...\000"
 1891      5020315D 
 1891      20566572 
 1891      69667969 
 1891      6E672041 
 1892 1223 00       		.align	2
 1893              	.LC222:
 1894 1224 5B535445 		.ascii	"[STEP 2] Checking FIFO and Interrupts...\000"
 1894      5020325D 
 1894      20436865 
 1894      636B696E 
 1894      67204649 
 1895 124d 000000   		.align	2
 1896              	.LC224:
 1897 1250 5B535445 		.ascii	"[STEP 3] Verifying Electrode Configuration...\000"
 1897      5020335D 
 1897      20566572 
 1897      69667969 
 1897      6E672045 
 1898 127e 0000     		.align	2
 1899              	.LC226:
 1900 1280 0AE29594 		.ascii	"\012\342\225\224\342\225\220\342\225\220\342\225\220"
 1900      E29590E2 
 1900      9590E295 
 1900      90
ARM GAS  C:\Users\13740\AppData\Local\Temp\cckeVujV.s 			page 52


 1901 128d E29590E2 		.ascii	"\342\225\220\342\225\220\342\225\220\342\225\220\342"
 1901      9590E295 
 1901      90E29590 
 1901      E2
 1902 129a 9590E295 		.ascii	"\225\220\342\225\220\342\225\220\342\225\220\342\225"
 1902      90E29590 
 1902      E29590E2 
 1902      95
 1903 12a7 90E29590 		.ascii	"\220\342\225\220\342\225\220\342\225\220\342\225\220"
 1903      E29590E2 
 1903      9590E295 
 1903      90
 1904 12b4 E29590E2 		.ascii	"\342\225\220\342\225\220\342\225\220\342\225\220\342"
 1904      9590E295 
 1904      90E29590 
 1904      E2
 1905 12c1 9590E295 		.ascii	"\225\220\342\225\220\342\225\220\342\225\220\342\225"
 1905      90E29590 
 1905      E29590E2 
 1905      95
 1906 12ce 90E29590 		.ascii	"\220\342\225\220\342\225\220\342\225\220\342\225\220"
 1906      E29590E2 
 1906      9590E295 
 1906      90
 1907 12db E29590E2 		.ascii	"\342\225\220\342\225\220\342\225\220\342\225\220\342"
 1907      9590E295 
 1907      90E29590 
 1907      E2
 1908 12e8 9590E295 		.ascii	"\225\220\342\225\220\342\225\220\342\225\220\342\225"
 1908      90E29590 
 1908      E29590E2 
 1908      95
 1909 12f5 90E29590 		.ascii	"\220\342\225\220\342\225\220\342\225\220\342\225\220"
 1909      E29590E2 
 1909      9590E295 
 1909      90
 1910 1302 E29590E2 		.ascii	"\342\225\220\342\225\220\342\225\220\342\225\220\342"
 1910      9590E295 
 1910      90E29590 
 1910      E2
 1911 130f 9590E295 		.ascii	"\225\220\342\225\220\342\225\220\342\225\220\342\225"
 1911      90E29590 
 1911      E29590E2 
 1911      95
 1912 131c 90E29590 		.ascii	"\220\342\225\220\342\225\220\342\225\220\342\225\220"
 1912      E29590E2 
 1912      9590E295 
 1912      90
 1913 1329 E29590E2 		.ascii	"\342\225\220\342\225\227\000"
 1913      959700
 1914              		.align	2
 1915              	.LC228:
 1916 1330 E2959120 		.ascii	"\342\225\221  DIAGNOSTIC COMPLETE - Check output ab"
 1916      20444941 
 1916      474E4F53 
 1916      54494320 
 1916      434F4D50 
ARM GAS  C:\Users\13740\AppData\Local\Temp\cckeVujV.s 			page 53


 1917 135a 6F766520 		.ascii	"ove for issues   \342\225\221\000"
 1917      666F7220 
 1917      69737375 
 1917      65732020 
 1917      20E29591 
 1918 136f 00       		.align	2
 1919              	.LC230:
 1920 1370 E2959AE2 		.ascii	"\342\225\232\342\225\220\342\225\220\342\225\220\342"
 1920      9590E295 
 1920      90E29590 
 1920      E2
 1921 137d 9590E295 		.ascii	"\225\220\342\225\220\342\225\220\342\225\220\342\225"
 1921      90E29590 
 1921      E29590E2 
 1921      95
 1922 138a 90E29590 		.ascii	"\220\342\225\220\342\225\220\342\225\220\342\225\220"
 1922      E29590E2 
 1922      9590E295 
 1922      90
 1923 1397 E29590E2 		.ascii	"\342\225\220\342\225\220\342\225\220\342\225\220\342"
 1923      9590E295 
 1923      90E29590 
 1923      E2
 1924 13a4 9590E295 		.ascii	"\225\220\342\225\220\342\225\220\342\225\220\342\225"
 1924      90E29590 
 1924      E29590E2 
 1924      95
 1925 13b1 90E29590 		.ascii	"\220\342\225\220\342\225\220\342\225\220\342\225\220"
 1925      E29590E2 
 1925      9590E295 
 1925      90
 1926 13be E29590E2 		.ascii	"\342\225\220\342\225\220\342\225\220\342\225\220\342"
 1926      9590E295 
 1926      90E29590 
 1926      E2
 1927 13cb 9590E295 		.ascii	"\225\220\342\225\220\342\225\220\342\225\220\342\225"
 1927      90E29590 
 1927      E29590E2 
 1927      95
 1928 13d8 90E29590 		.ascii	"\220\342\225\220\342\225\220\342\225\220\342\225\220"
 1928      E29590E2 
 1928      9590E295 
 1928      90
 1929 13e5 E29590E2 		.ascii	"\342\225\220\342\225\220\342\225\220\342\225\220\342"
 1929      9590E295 
 1929      90E29590 
 1929      E2
 1930 13f2 9590E295 		.ascii	"\225\220\342\225\220\342\225\220\342\225\220\342\225"
 1930      90E29590 
 1930      E29590E2 
 1930      95
 1931 13ff 90E29590 		.ascii	"\220\342\225\220\342\225\220\342\225\220\342\225\220"
 1931      E29590E2 
 1931      9590E295 
 1931      90
 1932 140c E29590E2 		.ascii	"\342\225\220\342\225\220\342\225\220\342\225\220\342"
 1932      9590E295 
ARM GAS  C:\Users\13740\AppData\Local\Temp\cckeVujV.s 			page 54


 1932      90E29590 
 1932      E2
 1933 1419 9590E295 		.ascii	"\225\220\342\225\235\012\000"
 1933      9D0A00
 1934              		.section	.text.FullDiagnostics,"ax",%progbits
 1935              		.align	2
 1936              		.global	FullDiagnostics
 1937              		.code	16
 1938              		.thumb_func
 1939              		.type	FullDiagnostics, %function
 1940              	FullDiagnostics:
 1941              	.LFB41:
 447:main.c        **** 
 448:main.c        **** /*******************************************************************************
 449:main.c        **** * Function Name: FullDiagnostics
 450:main.c        **** ********************************************************************************
 451:main.c        **** * Summary:
 452:main.c        **** *   ÊâßË°åÂÆåÊï¥ËØäÊñ≠ - ÂåÖÂê´ÂéüÁîüSPIÊµãËØï
 453:main.c        **** *******************************************************************************/
 454:main.c        **** void FullDiagnostics(void)
 455:main.c        **** {
 1942              		.loc 1 455 0
 1943              		.cfi_startproc
 1944              		@ args = 0, pretend = 0, frame = 0
 1945              		@ frame_needed = 1, uses_anonymous_args = 0
 1946 0000 80B5     		push	{r7, lr}
 1947              		.cfi_def_cfa_offset 8
 1948              		.cfi_offset 7, -8
 1949              		.cfi_offset 14, -4
 1950 0002 00AF     		add	r7, sp, #0
 1951              		.cfi_def_cfa_register 7
 456:main.c        ****     printf("\n\n");
 1952              		.loc 1 456 0
 1953 0004 214B     		ldr	r3, .L54
 1954 0006 1800     		movs	r0, r3
 1955 0008 FFF7FEFF 		bl	puts
 457:main.c        ****     printf("‚ïî‚ïê‚ïê‚ïê‚ïê‚ïê‚ïê‚ïê‚ïê‚ïê‚ïê‚ïê‚ïê‚ïê‚ïê‚ïê‚ïê‚ïê‚ïê‚ïê‚ïê‚ïê‚ïê‚ïê‚ïê‚ïê‚ïê‚ïê‚ïê
 1956              		.loc 1 457 0
 1957 000c 204B     		ldr	r3, .L54+4
 1958 000e 1800     		movs	r0, r3
 1959 0010 FFF7FEFF 		bl	puts
 458:main.c        ****     printf("‚ïë        AD5941 COMPLETE DIAGNOSTIC SUITE                ‚ïë\n");
 1960              		.loc 1 458 0
 1961 0014 1F4B     		ldr	r3, .L54+8
 1962 0016 1800     		movs	r0, r3
 1963 0018 FFF7FEFF 		bl	puts
 459:main.c        ****     printf("‚ïë         Troubleshooting BLE Data Transmission          ‚ïë\n");
 1964              		.loc 1 459 0
 1965 001c 1E4B     		ldr	r3, .L54+12
 1966 001e 1800     		movs	r0, r3
 1967 0020 FFF7FEFF 		bl	puts
 460:main.c        ****     printf("‚ïö‚ïê‚ïê‚ïê‚ïê‚ïê‚ïê‚ïê‚ïê‚ïê‚ïê‚ïê‚ïê‚ïê‚ïê‚ïê‚ïê‚ïê‚ïê‚ïê‚ïê‚ïê‚ïê‚ïê‚ïê‚ïê‚ïê‚ïê‚ïê
 1968              		.loc 1 460 0
 1969 0024 1D4B     		ldr	r3, .L54+16
 1970 0026 1800     		movs	r0, r3
 1971 0028 FFF7FEFF 		bl	puts
 461:main.c        ****     
ARM GAS  C:\Users\13740\AppData\Local\Temp\cckeVujV.s 			page 55


 462:main.c        ****     printf("\n[STEP 0] Testing Raw SPI Communication...\n");
 1972              		.loc 1 462 0
 1973 002c 1C4B     		ldr	r3, .L54+20
 1974 002e 1800     		movs	r0, r3
 1975 0030 FFF7FEFF 		bl	puts
 463:main.c        ****     TestRawSPI();
 1976              		.loc 1 463 0
 1977 0034 FFF7FEFF 		bl	TestRawSPI
 464:main.c        ****     
 465:main.c        ****     CyDelay(100);
 1978              		.loc 1 465 0
 1979 0038 6420     		movs	r0, #100
 1980 003a FFF7FEFF 		bl	CyDelay
 466:main.c        ****     
 467:main.c        ****     printf("[STEP 1] Verifying AD5940 SPI Communication...\n");
 1981              		.loc 1 467 0
 1982 003e 194B     		ldr	r3, .L54+24
 1983 0040 1800     		movs	r0, r3
 1984 0042 FFF7FEFF 		bl	puts
 468:main.c        ****     DiagnosticsSPI();
 1985              		.loc 1 468 0
 1986 0046 FFF7FEFF 		bl	DiagnosticsSPI
 469:main.c        ****     
 470:main.c        ****     CyDelay(100);
 1987              		.loc 1 470 0
 1988 004a 6420     		movs	r0, #100
 1989 004c FFF7FEFF 		bl	CyDelay
 471:main.c        ****     
 472:main.c        ****     printf("[STEP 2] Checking FIFO and Interrupts...\n");
 1990              		.loc 1 472 0
 1991 0050 154B     		ldr	r3, .L54+28
 1992 0052 1800     		movs	r0, r3
 1993 0054 FFF7FEFF 		bl	puts
 473:main.c        ****     DiagnosticsFIFO();
 1994              		.loc 1 473 0
 1995 0058 FFF7FEFF 		bl	DiagnosticsFIFO
 474:main.c        ****     
 475:main.c        ****     CyDelay(100);
 1996              		.loc 1 475 0
 1997 005c 6420     		movs	r0, #100
 1998 005e FFF7FEFF 		bl	CyDelay
 476:main.c        ****     
 477:main.c        ****     printf("[STEP 3] Verifying Electrode Configuration...\n");
 1999              		.loc 1 477 0
 2000 0062 124B     		ldr	r3, .L54+32
 2001 0064 1800     		movs	r0, r3
 2002 0066 FFF7FEFF 		bl	puts
 478:main.c        ****     DiagnosticsElectrodes();
 2003              		.loc 1 478 0
 2004 006a FFF7FEFF 		bl	DiagnosticsElectrodes
 479:main.c        ****     
 480:main.c        ****     printf("\n‚ïî‚ïê‚ïê‚ïê‚ïê‚ïê‚ïê‚ïê‚ïê‚ïê‚ïê‚ïê‚ïê‚ïê‚ïê‚ïê‚ïê‚ïê‚ïê‚ïê‚ïê‚ïê‚ïê‚ïê‚ïê‚ïê‚ïê‚ïê‚
 2005              		.loc 1 480 0
 2006 006e 104B     		ldr	r3, .L54+36
 2007 0070 1800     		movs	r0, r3
 2008 0072 FFF7FEFF 		bl	puts
 481:main.c        ****     printf("‚ïë  DIAGNOSTIC COMPLETE - Check output above for issues   ‚ïë\n");
ARM GAS  C:\Users\13740\AppData\Local\Temp\cckeVujV.s 			page 56


 2009              		.loc 1 481 0
 2010 0076 0F4B     		ldr	r3, .L54+40
 2011 0078 1800     		movs	r0, r3
 2012 007a FFF7FEFF 		bl	puts
 482:main.c        ****     printf("‚ïö‚ïê‚ïê‚ïê‚ïê‚ïê‚ïê‚ïê‚ïê‚ïê‚ïê‚ïê‚ïê‚ïê‚ïê‚ïê‚ïê‚ïê‚ïê‚ïê‚ïê‚ïê‚ïê‚ïê‚ïê‚ïê‚ïê‚ïê‚ïê
 2013              		.loc 1 482 0
 2014 007e 0E4B     		ldr	r3, .L54+44
 2015 0080 1800     		movs	r0, r3
 2016 0082 FFF7FEFF 		bl	puts
 483:main.c        **** }
 2017              		.loc 1 483 0
 2018 0086 C046     		nop
 2019 0088 BD46     		mov	sp, r7
 2020              		@ sp needed
 2021 008a 80BD     		pop	{r7, pc}
 2022              	.L55:
 2023              		.align	2
 2024              	.L54:
 2025 008c E40F0000 		.word	.LC208
 2026 0090 E80F0000 		.word	.LC210
 2027 0094 98100000 		.word	.LC212
 2028 0098 D8100000 		.word	.LC214
 2029 009c 18110000 		.word	.LC216
 2030 00a0 C8110000 		.word	.LC218
 2031 00a4 F4110000 		.word	.LC220
 2032 00a8 24120000 		.word	.LC222
 2033 00ac 50120000 		.word	.LC224
 2034 00b0 80120000 		.word	.LC226
 2035 00b4 30130000 		.word	.LC228
 2036 00b8 70130000 		.word	.LC230
 2037              		.cfi_endproc
 2038              	.LFE41:
 2039              		.size	FullDiagnostics, .-FullDiagnostics
 2040              		.global	__aeabi_fmul
 2041              		.section	.text.MeasureAmperometricSensor,"ax",%progbits
 2042              		.align	2
 2043              		.global	MeasureAmperometricSensor
 2044              		.code	16
 2045              		.thumb_func
 2046              		.type	MeasureAmperometricSensor, %function
 2047              	MeasureAmperometricSensor:
 2048              	.LFB42:
 484:main.c        **** 
 485:main.c        **** /*******************************************************************************
 486:main.c        **** * Function Name: MeasureAmperometricSensor
 487:main.c        **** ********************************************************************************
 488:main.c        **** * Summary:
 489:main.c        **** *   ÊµãÈáèÂÆâÂüπÊ≥ï‰º†ÊÑüÂô® - ‰øÆÂ§çÂêéÁâàÊú¨
 490:main.c        **** *   ‰∏ç‰ΩøÁî®AMuxÔºåÁõ¥Êé•‰ΩøÁî®AD5941ÁöÑWE0/WE1/WE2ÈÄöÈÅì
 491:main.c        **** *******************************************************************************/
 492:main.c        **** float MeasureAmperometricSensor(AmperometricSensor_t sensorType)
 493:main.c        **** {
 2049              		.loc 1 493 0
 2050              		.cfi_startproc
 2051              		@ args = 0, pretend = 0, frame = 24
 2052              		@ frame_needed = 1, uses_anonymous_args = 0
 2053 0000 80B5     		push	{r7, lr}
ARM GAS  C:\Users\13740\AppData\Local\Temp\cckeVujV.s 			page 57


 2054              		.cfi_def_cfa_offset 8
 2055              		.cfi_offset 7, -8
 2056              		.cfi_offset 14, -4
 2057 0002 86B0     		sub	sp, sp, #24
 2058              		.cfi_def_cfa_offset 32
 2059 0004 00AF     		add	r7, sp, #0
 2060              		.cfi_def_cfa_register 7
 2061 0006 0200     		movs	r2, r0
 2062 0008 FB1D     		adds	r3, r7, #7
 2063 000a 1A70     		strb	r2, [r3]
 494:main.c        ****     float current_uA = 0;
 2064              		.loc 1 494 0
 2065 000c 0023     		movs	r3, #0
 2066 000e 7B61     		str	r3, [r7, #20]
 495:main.c        ****     uint32_t dataCount = 0;
 2067              		.loc 1 495 0
 2068 0010 0023     		movs	r3, #0
 2069 0012 FB60     		str	r3, [r7, #12]
 496:main.c        ****     AD5940Err error;
 497:main.c        ****     
 498:main.c        ****     
 499:main.c        ****     // Ê≥®ÊÑèÔºöÂ¶ÇÊûú‰∏ç‰ΩøÁî®AMuxÔºåAD5941‰ºö‰ΩøÁî®ÈªòËÆ§ÁöÑWE0ÈÄöÈÅì
 500:main.c        ****     // Â¶ÇÊûúÈúÄË¶ÅÂàáÊç¢WEÈÄöÈÅìÔºåÈúÄË¶ÅÂú®ÈÖçÁΩÆ‰∏≠‰øÆÊîπ
 501:main.c        ****     
 502:main.c        ****     // ÂêØÂä®ÊµãÈáè
 503:main.c        ****     error = AppAMPCtrl(AMPCTRL_START, NULL);
 2070              		.loc 1 503 0
 2071 0014 0021     		movs	r1, #0
 2072 0016 0020     		movs	r0, #0
 2073 0018 FFF7FEFF 		bl	AppAMPCtrl
 2074 001c 0300     		movs	r3, r0
 2075 001e 3B61     		str	r3, [r7, #16]
 504:main.c        ****     if(error != AD5940ERR_OK)
 2076              		.loc 1 504 0
 2077 0020 3B69     		ldr	r3, [r7, #16]
 2078 0022 002B     		cmp	r3, #0
 2079 0024 01D0     		beq	.L57
 505:main.c        ****     {
 506:main.c        ****         return 0;
 2080              		.loc 1 506 0
 2081 0026 0023     		movs	r3, #0
 2082 0028 20E0     		b	.L60
 2083              	.L57:
 507:main.c        ****     }
 508:main.c        ****     
 509:main.c        ****     // Á≠âÂæÖÊµãÈáèÁ®≥ÂÆöÔºàÂÆâÂüπÊ≥ïÈúÄË¶Å500msÔºâ
 510:main.c        ****     CyDelay(500);
 2084              		.loc 1 510 0
 2085 002a FA23     		movs	r3, #250
 2086 002c 5B00     		lsls	r3, r3, #1
 2087 002e 1800     		movs	r0, r3
 2088 0030 FFF7FEFF 		bl	CyDelay
 511:main.c        ****     
 512:main.c        ****     // ËØªÂèñFIFOÊï∞ÊçÆ
 513:main.c        ****     error = AppAMPISR(&ampResult, &dataCount);
 2089              		.loc 1 513 0
 2090 0034 0C23     		movs	r3, #12
ARM GAS  C:\Users\13740\AppData\Local\Temp\cckeVujV.s 			page 58


 2091 0036 FA18     		adds	r2, r7, r3
 2092 0038 0E4B     		ldr	r3, .L61
 2093 003a 1100     		movs	r1, r2
 2094 003c 1800     		movs	r0, r3
 2095 003e FFF7FEFF 		bl	AppAMPISR
 2096 0042 0300     		movs	r3, r0
 2097 0044 3B61     		str	r3, [r7, #16]
 514:main.c        ****     
 515:main.c        ****     if(error == AD5940ERR_OK && dataCount > 0)
 2098              		.loc 1 515 0
 2099 0046 3B69     		ldr	r3, [r7, #16]
 2100 0048 002B     		cmp	r3, #0
 2101 004a 0AD1     		bne	.L59
 2102              		.loc 1 515 0 is_stmt 0 discriminator 1
 2103 004c FB68     		ldr	r3, [r7, #12]
 2104 004e 002B     		cmp	r3, #0
 2105 0050 07D0     		beq	.L59
 516:main.c        ****     {
 517:main.c        ****         // Ëé∑ÂèñÁîµÊµÅÂÄºÔºàfAmpRes_TypeÁªìÊûÑ‰Ωì‰∏≠ÁöÑCurrentÊàêÂëòÔºâ
 518:main.c        ****         current_uA = ampResult.Current * 1000.0;  // ËΩ¨Êç¢‰∏∫nA
 2106              		.loc 1 518 0 is_stmt 1
 2107 0052 084B     		ldr	r3, .L61
 2108 0054 1B68     		ldr	r3, [r3]
 2109 0056 0849     		ldr	r1, .L61+4
 2110 0058 181C     		adds	r0, r3, #0
 2111 005a FFF7FEFF 		bl	__aeabi_fmul
 2112 005e 031C     		adds	r3, r0, #0
 2113 0060 7B61     		str	r3, [r7, #20]
 2114              	.L59:
 519:main.c        ****     }
 520:main.c        ****     else
 521:main.c        ****     {
 522:main.c        ****     }
 523:main.c        ****     
 524:main.c        ****     // ÂÅúÊ≠¢ÊµãÈáè
 525:main.c        ****     AppAMPCtrl(AMPCTRL_STOPNOW, NULL);
 2115              		.loc 1 525 0
 2116 0062 0021     		movs	r1, #0
 2117 0064 0120     		movs	r0, #1
 2118 0066 FFF7FEFF 		bl	AppAMPCtrl
 526:main.c        ****     
 527:main.c        ****     return current_uA;
 2119              		.loc 1 527 0
 2120 006a 7B69     		ldr	r3, [r7, #20]
 2121              	.L60:
 528:main.c        **** }
 2122              		.loc 1 528 0 discriminator 1
 2123 006c 181C     		adds	r0, r3, #0
 2124 006e BD46     		mov	sp, r7
 2125 0070 06B0     		add	sp, sp, #24
 2126              		@ sp needed
 2127 0072 80BD     		pop	{r7, pc}
 2128              	.L62:
 2129              		.align	2
 2130              	.L61:
 2131 0074 00000000 		.word	ampResult
 2132 0078 00007A44 		.word	1148846080
ARM GAS  C:\Users\13740\AppData\Local\Temp\cckeVujV.s 			page 59


 2133              		.cfi_endproc
 2134              	.LFE42:
 2135              		.size	MeasureAmperometricSensor, .-MeasureAmperometricSensor
 2136              		.global	__aeabi_ddiv
 2137              		.global	__aeabi_d2f
 2138              		.section	.text.ConvertCurrentToConcentration,"ax",%progbits
 2139              		.align	2
 2140              		.global	ConvertCurrentToConcentration
 2141              		.code	16
 2142              		.thumb_func
 2143              		.type	ConvertCurrentToConcentration, %function
 2144              	ConvertCurrentToConcentration:
 2145              	.LFB43:
 529:main.c        **** 
 530:main.c        **** /*******************************************************************************
 531:main.c        **** * Function Name: ConvertCurrentToConcentration
 532:main.c        **** ********************************************************************************
 533:main.c        **** * Summary:
 534:main.c        **** *   Â∞ÜÁîµÊµÅÂÄºËΩ¨Êç¢‰∏∫ÊµìÂ∫¶ÔºàÊ†πÊçÆËÆ∫ÊñáÊ†°ÂáÜÁ≥ªÊï∞Ôºâ
 535:main.c        **** *******************************************************************************/
 536:main.c        **** float ConvertCurrentToConcentration(float current_nA, uint8 sensorType)
 537:main.c        **** {
 2146              		.loc 1 537 0
 2147              		.cfi_startproc
 2148              		@ args = 0, pretend = 0, frame = 16
 2149              		@ frame_needed = 1, uses_anonymous_args = 0
 2150 0000 90B5     		push	{r4, r7, lr}
 2151              		.cfi_def_cfa_offset 12
 2152              		.cfi_offset 4, -12
 2153              		.cfi_offset 7, -8
 2154              		.cfi_offset 14, -4
 2155 0002 85B0     		sub	sp, sp, #20
 2156              		.cfi_def_cfa_offset 32
 2157 0004 00AF     		add	r7, sp, #0
 2158              		.cfi_def_cfa_register 7
 2159 0006 7860     		str	r0, [r7, #4]
 2160 0008 0A00     		movs	r2, r1
 2161 000a FB1C     		adds	r3, r7, #3
 2162 000c 1A70     		strb	r2, [r3]
 538:main.c        ****     float concentration = 0;
 2163              		.loc 1 538 0
 2164 000e 0023     		movs	r3, #0
 2165 0010 FB60     		str	r3, [r7, #12]
 539:main.c        ****     
 540:main.c        ****     switch(sensorType)
 2166              		.loc 1 540 0
 2167 0012 FB1C     		adds	r3, r7, #3
 2168 0014 1B78     		ldrb	r3, [r3]
 2169 0016 012B     		cmp	r3, #1
 2170 0018 13D0     		beq	.L65
 2171 001a 022B     		cmp	r3, #2
 2172 001c 21D0     		beq	.L66
 2173 001e 002B     		cmp	r3, #0
 2174 0020 2FD1     		bne	.L70
 541:main.c        ****     {
 542:main.c        ****         case SENSOR_GLUCOSE:
 543:main.c        ****             concentration = current_nA / 16.34;  // 16.34 nA/mM
ARM GAS  C:\Users\13740\AppData\Local\Temp\cckeVujV.s 			page 60


 2175              		.loc 1 543 0
 2176 0022 7868     		ldr	r0, [r7, #4]
 2177 0024 FFF7FEFF 		bl	__aeabi_f2d
 2178 0028 1A4A     		ldr	r2, .L71
 2179 002a 1B4B     		ldr	r3, .L71+4
 2180 002c FFF7FEFF 		bl	__aeabi_ddiv
 2181 0030 0300     		movs	r3, r0
 2182 0032 0C00     		movs	r4, r1
 2183 0034 1800     		movs	r0, r3
 2184 0036 2100     		movs	r1, r4
 2185 0038 FFF7FEFF 		bl	__aeabi_d2f
 2186 003c 031C     		adds	r3, r0, #0
 2187 003e FB60     		str	r3, [r7, #12]
 544:main.c        ****             break;
 2188              		.loc 1 544 0
 2189 0040 22E0     		b	.L68
 2190              	.L65:
 545:main.c        ****             
 546:main.c        ****         case SENSOR_LACTATE:
 547:main.c        ****             concentration = current_nA / 41.44;  // 41.44 nA/mM
 2191              		.loc 1 547 0
 2192 0042 7868     		ldr	r0, [r7, #4]
 2193 0044 FFF7FEFF 		bl	__aeabi_f2d
 2194 0048 144A     		ldr	r2, .L71+8
 2195 004a 154B     		ldr	r3, .L71+12
 2196 004c FFF7FEFF 		bl	__aeabi_ddiv
 2197 0050 0300     		movs	r3, r0
 2198 0052 0C00     		movs	r4, r1
 2199 0054 1800     		movs	r0, r3
 2200 0056 2100     		movs	r1, r4
 2201 0058 FFF7FEFF 		bl	__aeabi_d2f
 2202 005c 031C     		adds	r3, r0, #0
 2203 005e FB60     		str	r3, [r7, #12]
 548:main.c        ****             break;
 2204              		.loc 1 548 0
 2205 0060 12E0     		b	.L68
 2206              	.L66:
 549:main.c        ****             
 550:main.c        ****         case SENSOR_URIC_ACID:
 551:main.c        ****             concentration = current_nA / 189.60; // 189.60 nA/ŒºM
 2207              		.loc 1 551 0
 2208 0062 7868     		ldr	r0, [r7, #4]
 2209 0064 FFF7FEFF 		bl	__aeabi_f2d
 2210 0068 0E4A     		ldr	r2, .L71+16
 2211 006a 0F4B     		ldr	r3, .L71+20
 2212 006c FFF7FEFF 		bl	__aeabi_ddiv
 2213 0070 0300     		movs	r3, r0
 2214 0072 0C00     		movs	r4, r1
 2215 0074 1800     		movs	r0, r3
 2216 0076 2100     		movs	r1, r4
 2217 0078 FFF7FEFF 		bl	__aeabi_d2f
 2218 007c 031C     		adds	r3, r0, #0
 2219 007e FB60     		str	r3, [r7, #12]
 552:main.c        ****             break;
 2220              		.loc 1 552 0
 2221 0080 02E0     		b	.L68
 2222              	.L70:
ARM GAS  C:\Users\13740\AppData\Local\Temp\cckeVujV.s 			page 61


 553:main.c        ****             
 554:main.c        ****         default:
 555:main.c        ****             concentration = 0;
 2223              		.loc 1 555 0
 2224 0082 0023     		movs	r3, #0
 2225 0084 FB60     		str	r3, [r7, #12]
 556:main.c        ****             break;
 2226              		.loc 1 556 0
 2227 0086 C046     		nop
 2228              	.L68:
 557:main.c        ****     }
 558:main.c        ****     
 559:main.c        ****     return concentration;
 2229              		.loc 1 559 0
 2230 0088 FB68     		ldr	r3, [r7, #12]
 560:main.c        **** }
 2231              		.loc 1 560 0
 2232 008a 181C     		adds	r0, r3, #0
 2233 008c BD46     		mov	sp, r7
 2234 008e 05B0     		add	sp, sp, #20
 2235              		@ sp needed
 2236 0090 90BD     		pop	{r4, r7, pc}
 2237              	.L72:
 2238 0092 C046     		.align	2
 2239              	.L71:
 2240 0094 D7A3703D 		.word	1030792151
 2241 0098 0A573040 		.word	1076909834
 2242 009c B81E85EB 		.word	-343597384
 2243 00a0 51B84440 		.word	1078245457
 2244 00a4 33333333 		.word	858993459
 2245 00a8 33B36740 		.word	1080537907
 2246              		.cfi_endproc
 2247              	.LFE43:
 2248              		.size	ConvertCurrentToConcentration, .-ConvertCurrentToConcentration
 2249              		.section	.text.MeasureTemperature,"ax",%progbits
 2250              		.align	2
 2251              		.global	MeasureTemperature
 2252              		.code	16
 2253              		.thumb_func
 2254              		.type	MeasureTemperature, %function
 2255              	MeasureTemperature:
 2256              	.LFB44:
 561:main.c        **** 
 562:main.c        **** /*******************************************************************************
 563:main.c        **** * Function Name: MeasureTemperature
 564:main.c        **** ********************************************************************************
 565:main.c        **** * Summary:
 566:main.c        **** *   ‰ΩøÁî®AD5940ÁöÑADCÊµãÈáèÊ∏©Â∫¶‰º†ÊÑüÂô®
 567:main.c        **** *   Êõø‰ª£PSoCÁöÑADCÊ®°Âùó
 568:main.c        **** *******************************************************************************/
 569:main.c        **** float MeasureTemperature(void)
 570:main.c        **** {
 2257              		.loc 1 570 0
 2258              		.cfi_startproc
 2259              		@ args = 0, pretend = 0, frame = 8
 2260              		@ frame_needed = 1, uses_anonymous_args = 0
 2261 0000 80B5     		push	{r7, lr}
ARM GAS  C:\Users\13740\AppData\Local\Temp\cckeVujV.s 			page 62


 2262              		.cfi_def_cfa_offset 8
 2263              		.cfi_offset 7, -8
 2264              		.cfi_offset 14, -4
 2265 0002 82B0     		sub	sp, sp, #8
 2266              		.cfi_def_cfa_offset 16
 2267 0004 00AF     		add	r7, sp, #0
 2268              		.cfi_def_cfa_register 7
 571:main.c        ****     float temperature = 25.0;  // ÈªòËÆ§ÂÆ§Ê∏©
 2269              		.loc 1 571 0
 2270 0006 044B     		ldr	r3, .L75
 2271 0008 7B60     		str	r3, [r7, #4]
 572:main.c        ****     uint32_t adcCode;
 573:main.c        ****     float voltage, resistance;
 574:main.c        ****     
 575:main.c        ****     
 576:main.c        ****     // ÊñπÊ≥ï1: ‰ΩøÁî®AD5940ÁöÑËæÖÂä©ADCÔºàAUX ADCÔºâÊµãÈáèÊ∏©Â∫¶‰º†ÊÑüÂô®
 577:main.c        ****     // Ê≥®ÊÑèÔºöÈúÄË¶ÅÈÖçÁΩÆAD5940ÁöÑGPIOÊàñËÄÖAUXËæìÂÖ•Êù•ËøûÊé•Ê∏©Â∫¶‰º†ÊÑüÂô®
 578:main.c        ****     
 579:main.c        ****     // ËøôÈáåÊèê‰æõ‰∏Ä‰∏™ÁÆÄÂåñÁöÑÂÆûÁé∞
 580:main.c        ****     // ÂÆûÈôÖÂ∫îÁî®‰∏≠Ôºå‰Ω†ÈúÄË¶ÅÔºö
 581:main.c        ****     // 1. ÈÖçÁΩÆAD5940ÁöÑGPIO/AUX‰∏∫ADCËæìÂÖ•
 582:main.c        ****     // 2. ËØªÂèñADCÂÄº
 583:main.c        ****     // 3. ËΩ¨Êç¢‰∏∫Ê∏©Â∫¶
 584:main.c        ****     
 585:main.c        ****     // Á§∫‰æã‰ª£Á†ÅÔºàÈúÄË¶ÅÊ†πÊçÆÂÆûÈôÖÁ°¨‰ª∂Ë∞ÉÊï¥Ôºâ:
 586:main.c        ****     /*
 587:main.c        ****     AD5940_StructInit(&ADCInit, sizeof(ADCInit));
 588:main.c        ****     ADCInit.ADCMuxP = ADCMUXP_AIN2;  // ÂÅáËÆæÊ∏©Â∫¶‰º†ÊÑüÂô®ËøûÊé•Âà∞AIN2
 589:main.c        ****     ADCInit.ADCMuxN = ADCMUXN_VSET1P1;
 590:main.c        ****     AD5940_ADCInit(&ADCInit);
 591:main.c        ****     
 592:main.c        ****     AD5940_ADCStart();
 593:main.c        ****     CyDelay(10);
 594:main.c        ****     adcCode = AD5940_ReadADC();
 595:main.c        ****     
 596:main.c        ****     voltage = (adcCode * 1.82) / 32768.0;  // ËΩ¨Êç¢‰∏∫ÁîµÂéã
 597:main.c        ****     resistance = 1000.0 * voltage / (3.3 - voltage);  // ÂÅáËÆæÂàÜÂéãÁîµË∑Ø
 598:main.c        ****     temperature = 25.0 + (resistance - 1000.0) / (1000.0 * 0.0021);
 599:main.c        ****     */
 600:main.c        ****     
 601:main.c        ****     // ‰∏¥Êó∂ÊñπÊ°àÔºö‰ªéÁ≥ªÁªüËØªÂèñÊàñ‰ΩøÁî®Âõ∫ÂÆöÂÄº
 602:main.c        ****     temperature = 37.0;  // ÂÅáËÆæ‰ΩìÊ∏©
 2272              		.loc 1 602 0
 2273 000a 044B     		ldr	r3, .L75+4
 2274 000c 7B60     		str	r3, [r7, #4]
 603:main.c        ****     
 604:main.c        ****     
 605:main.c        ****     return temperature;
 2275              		.loc 1 605 0
 2276 000e 7B68     		ldr	r3, [r7, #4]
 606:main.c        **** }
 2277              		.loc 1 606 0
 2278 0010 181C     		adds	r0, r3, #0
 2279 0012 BD46     		mov	sp, r7
 2280 0014 02B0     		add	sp, sp, #8
 2281              		@ sp needed
 2282 0016 80BD     		pop	{r7, pc}
ARM GAS  C:\Users\13740\AppData\Local\Temp\cckeVujV.s 			page 63


 2283              	.L76:
 2284              		.align	2
 2285              	.L75:
 2286 0018 0000C841 		.word	1103626240
 2287 001c 00001442 		.word	1108606976
 2288              		.cfi_endproc
 2289              	.LFE44:
 2290              		.size	MeasureTemperature, .-MeasureTemperature
 2291              		.section	.text.ReadCurrentFromAD5940,"ax",%progbits
 2292              		.align	2
 2293              		.global	ReadCurrentFromAD5940
 2294              		.code	16
 2295              		.thumb_func
 2296              		.type	ReadCurrentFromAD5940, %function
 2297              	ReadCurrentFromAD5940:
 2298              	.LFB45:
 607:main.c        **** 
 608:main.c        **** 
 609:main.c        **** /*******************************************************************************
 610:main.c        **** * Function Name: ReadCurrentFromAD5940
 611:main.c        **** ********************************************************************************
 612:main.c        **** * Summary:
 613:main.c        **** *   ‰ªé AD5940 ËØªÂèñÂÆûÈôÖÁîµÊµÅÂÄºÔºàÂÆâÂüπÊ≥ïÊµãÈáèÔºâ
 614:main.c        **** *   
 615:main.c        **** * Parameters:
 616:main.c        **** *   sensorType: ‰º†ÊÑüÂô®Á±ªÂûãÔºàGLUCOSE, LACTATE, URIC_ACIDÔºâ
 617:main.c        **** *
 618:main.c        **** * Return:
 619:main.c        **** *   float: ÁîµÊµÅÂÄºÔºàÂçï‰ΩçÔºönAÔºâ
 620:main.c        **** *******************************************************************************/
 621:main.c        **** float ReadCurrentFromAD5940(AmperometricSensor_t sensorType)
 622:main.c        **** {
 2299              		.loc 1 622 0
 2300              		.cfi_startproc
 2301              		@ args = 0, pretend = 0, frame = 24
 2302              		@ frame_needed = 1, uses_anonymous_args = 0
 2303 0000 80B5     		push	{r7, lr}
 2304              		.cfi_def_cfa_offset 8
 2305              		.cfi_offset 7, -8
 2306              		.cfi_offset 14, -4
 2307 0002 86B0     		sub	sp, sp, #24
 2308              		.cfi_def_cfa_offset 32
 2309 0004 00AF     		add	r7, sp, #0
 2310              		.cfi_def_cfa_register 7
 2311 0006 0200     		movs	r2, r0
 2312 0008 FB1D     		adds	r3, r7, #7
 2313 000a 1A70     		strb	r2, [r3]
 623:main.c        ****     float current_nA = 0;
 2314              		.loc 1 623 0
 2315 000c 0023     		movs	r3, #0
 2316 000e 7B61     		str	r3, [r7, #20]
 624:main.c        ****     uint32_t dataCount = 0;
 2317              		.loc 1 624 0
 2318 0010 0023     		movs	r3, #0
 2319 0012 BB60     		str	r3, [r7, #8]
 625:main.c        ****     AD5940Err error;
 626:main.c        ****     static uint32_t ampFifoBuffer[256];  // Â≠òÂÇ®FIFOÊï∞ÊçÆÁöÑÁºìÂÜ≤Âå∫
ARM GAS  C:\Users\13740\AppData\Local\Temp\cckeVujV.s 			page 64


 627:main.c        ****     
 628:main.c        ****     // 1. ÈÖçÁΩÆ AD5940 ‰∏∫ÂÆâÂüπÊ≥ïÊµãÈáèÊ®°Âºè
 629:main.c        ****     AppAMPGetCfg(&pAmpCfg);
 2320              		.loc 1 629 0
 2321 0014 494B     		ldr	r3, .L90
 2322 0016 1800     		movs	r0, r3
 2323 0018 FFF7FEFF 		bl	AppAMPGetCfg
 630:main.c        ****     
 631:main.c        ****     // Ê†πÊçÆ‰º†ÊÑüÂô®Á±ªÂûãËÆæÁΩÆÂ∑•‰ΩúÁîµÊûÅ
 632:main.c        ****     switch(sensorType)
 2324              		.loc 1 632 0
 2325 001c FB1D     		adds	r3, r7, #7
 2326 001e 1B78     		ldrb	r3, [r3]
 2327 0020 012B     		cmp	r3, #1
 2328 0022 0DD0     		beq	.L79
 2329 0024 022B     		cmp	r3, #2
 2330 0026 15D0     		beq	.L80
 2331 0028 002B     		cmp	r3, #0
 2332 002a 1DD1     		bne	.L78
 633:main.c        ****     {
 634:main.c        ****         case SENSOR_GLUCOSE:
 635:main.c        ****             AMP1_EN_Write(1);  // ÂêØÁî®ÈÄöÈÅì1
 2333              		.loc 1 635 0
 2334 002c 0120     		movs	r0, #1
 2335 002e FFF7FEFF 		bl	AMP1_EN_Write
 636:main.c        ****             AMP2_EN_Write(0);
 2336              		.loc 1 636 0
 2337 0032 0020     		movs	r0, #0
 2338 0034 FFF7FEFF 		bl	AMP2_EN_Write
 637:main.c        ****             AMP3_EN_Write(0);
 2339              		.loc 1 637 0
 2340 0038 0020     		movs	r0, #0
 2341 003a FFF7FEFF 		bl	AMP3_EN_Write
 638:main.c        ****             break;
 2342              		.loc 1 638 0
 2343 003e 13E0     		b	.L78
 2344              	.L79:
 639:main.c        ****             
 640:main.c        ****         case SENSOR_LACTATE:
 641:main.c        ****             AMP1_EN_Write(0);
 2345              		.loc 1 641 0
 2346 0040 0020     		movs	r0, #0
 2347 0042 FFF7FEFF 		bl	AMP1_EN_Write
 642:main.c        ****             AMP2_EN_Write(1);  // ÂêØÁî®ÈÄöÈÅì2
 2348              		.loc 1 642 0
 2349 0046 0120     		movs	r0, #1
 2350 0048 FFF7FEFF 		bl	AMP2_EN_Write
 643:main.c        ****             AMP3_EN_Write(0);
 2351              		.loc 1 643 0
 2352 004c 0020     		movs	r0, #0
 2353 004e FFF7FEFF 		bl	AMP3_EN_Write
 644:main.c        ****             break;
 2354              		.loc 1 644 0
 2355 0052 09E0     		b	.L78
 2356              	.L80:
 645:main.c        ****             
 646:main.c        ****         case SENSOR_URIC_ACID:
ARM GAS  C:\Users\13740\AppData\Local\Temp\cckeVujV.s 			page 65


 647:main.c        ****             AMP1_EN_Write(0);
 2357              		.loc 1 647 0
 2358 0054 0020     		movs	r0, #0
 2359 0056 FFF7FEFF 		bl	AMP1_EN_Write
 648:main.c        ****             AMP2_EN_Write(0);
 2360              		.loc 1 648 0
 2361 005a 0020     		movs	r0, #0
 2362 005c FFF7FEFF 		bl	AMP2_EN_Write
 649:main.c        ****             AMP3_EN_Write(1);  // ÂêØÁî®ÈÄöÈÅì3
 2363              		.loc 1 649 0
 2364 0060 0120     		movs	r0, #1
 2365 0062 FFF7FEFF 		bl	AMP3_EN_Write
 650:main.c        ****             break;
 2366              		.loc 1 650 0
 2367 0066 C046     		nop
 2368              	.L78:
 651:main.c        ****     }
 652:main.c        ****     
 653:main.c        ****     CyDelay(50);  // Á≠âÂæÖÈÄöÈÅìÂàáÊç¢Á®≥ÂÆö
 2369              		.loc 1 653 0
 2370 0068 3220     		movs	r0, #50
 2371 006a FFF7FEFF 		bl	CyDelay
 654:main.c        ****     
 655:main.c        ****     // 2. ÂêØÂä®ÊµãÈáè
 656:main.c        ****     error = AppAMPCtrl(AMPCTRL_START, NULL);
 2372              		.loc 1 656 0
 2373 006e 0021     		movs	r1, #0
 2374 0070 0020     		movs	r0, #0
 2375 0072 FFF7FEFF 		bl	AppAMPCtrl
 2376 0076 0300     		movs	r3, r0
 2377 0078 3B61     		str	r3, [r7, #16]
 657:main.c        ****     if(error != AD5940ERR_OK)
 2378              		.loc 1 657 0
 2379 007a 3B69     		ldr	r3, [r7, #16]
 2380 007c 002B     		cmp	r3, #0
 2381 007e 01D0     		beq	.L82
 658:main.c        ****     {
 659:main.c        ****         return 0;
 2382              		.loc 1 659 0
 2383 0080 0023     		movs	r3, #0
 2384 0082 56E0     		b	.L89
 2385              	.L82:
 660:main.c        ****     }
 661:main.c        ****     
 662:main.c        ****     // 3. Á≠âÂæÖÊµãÈáèÁ®≥ÂÆöÔºàÂÆâÂüπÊ≥ïÈúÄË¶Å 500msÔºâ
 663:main.c        ****     CyDelay(500);
 2386              		.loc 1 663 0
 2387 0084 FA23     		movs	r3, #250
 2388 0086 5B00     		lsls	r3, r3, #1
 2389 0088 1800     		movs	r0, r3
 2390 008a FFF7FEFF 		bl	CyDelay
 664:main.c        ****     
 665:main.c        ****     // 4. ËØªÂèñ FIFO Êï∞ÊçÆ
 666:main.c        ****     // Á¨¨‰∏Ä‰∏™ÂèÇÊï∞ÔºöÊåáÂêëFIFOÊï∞ÊçÆÁºìÂÜ≤Âå∫ÔºåAppAMPISR‰ºöÂ∞ÜADC‰ª£Á†ÅËØªÂà∞ËøôÈáåÔºåÁÑ∂ÂêéË
 667:main.c        ****     // Á¨¨‰∫å‰∏™ÂèÇÊï∞ÔºöÊåáÂêëÊï∞ÊçÆËÆ°Êï∞ÔºåËøîÂõûËØªÂèñÁöÑÊï∞ÊçÆÁÇπÊï∞
 668:main.c        ****     error = AppAMPISR(ampFifoBuffer, &dataCount);
 2391              		.loc 1 668 0
ARM GAS  C:\Users\13740\AppData\Local\Temp\cckeVujV.s 			page 66


 2392 008e 0823     		movs	r3, #8
 2393 0090 FA18     		adds	r2, r7, r3
 2394 0092 2B4B     		ldr	r3, .L90+4
 2395 0094 1100     		movs	r1, r2
 2396 0096 1800     		movs	r0, r3
 2397 0098 FFF7FEFF 		bl	AppAMPISR
 2398 009c 0300     		movs	r3, r0
 2399 009e 3B61     		str	r3, [r7, #16]
 669:main.c        ****     
 670:main.c        ****     if(error == AD5940ERR_OK && dataCount > 0)
 2400              		.loc 1 670 0
 2401 00a0 3B69     		ldr	r3, [r7, #16]
 2402 00a2 002B     		cmp	r3, #0
 2403 00a4 0DD1     		bne	.L84
 2404              		.loc 1 670 0 is_stmt 0 discriminator 1
 2405 00a6 BB68     		ldr	r3, [r7, #8]
 2406 00a8 002B     		cmp	r3, #0
 2407 00aa 0AD0     		beq	.L84
 2408              	.LBB2:
 671:main.c        ****     {
 672:main.c        ****         // 5. ‰ªéÁºìÂÜ≤Âå∫‰∏≠ÊèêÂèñÁîµÊµÅÂÄº
 673:main.c        ****         // AppAMPDataProcess Â∑≤ÁªèÂ∞ÜADCÂÄºËΩ¨Êç¢‰∏∫ÁîµÊµÅÂÄºÔºàfloatÔºâ
 674:main.c        ****         // ÁªìÊûúÂ≠òÂÇ®Âú® ampFifoBuffer ‰∏≠ÔºàÂ∑≤ËΩ¨Êç¢‰∏∫floatÊåáÈíàÔºâ
 675:main.c        ****         float *pCurrentData = (float *)ampFifoBuffer;
 2409              		.loc 1 675 0 is_stmt 1
 2410 00ac 244B     		ldr	r3, .L90+4
 2411 00ae FB60     		str	r3, [r7, #12]
 676:main.c        ****         
 677:main.c        ****         // ÂèñÁ¨¨‰∏Ä‰∏™Ê†∑Êú¨ÁöÑÁîµÊµÅÂÄºÔºàÂçï‰ΩçÔºöAÔºâ
 678:main.c        ****         current_nA = pCurrentData[0] * 1e9;  // ËΩ¨Êç¢‰∏∫ nA
 2412              		.loc 1 678 0
 2413 00b0 FB68     		ldr	r3, [r7, #12]
 2414 00b2 1B68     		ldr	r3, [r3]
 2415 00b4 2349     		ldr	r1, .L90+8
 2416 00b6 181C     		adds	r0, r3, #0
 2417 00b8 FFF7FEFF 		bl	__aeabi_fmul
 2418 00bc 031C     		adds	r3, r0, #0
 2419 00be 7B61     		str	r3, [r7, #20]
 2420              	.LBE2:
 671:main.c        ****     {
 2421              		.loc 1 671 0
 2422 00c0 01E0     		b	.L85
 2423              	.L84:
 679:main.c        ****         
 680:main.c        ****     }
 681:main.c        ****     else
 682:main.c        ****     {
 683:main.c        ****         current_nA = 0;
 2424              		.loc 1 683 0
 2425 00c2 0023     		movs	r3, #0
 2426 00c4 7B61     		str	r3, [r7, #20]
 2427              	.L85:
 684:main.c        ****     }
 685:main.c        ****     
 686:main.c        ****     // 6. ÂÅúÊ≠¢ÊµãÈáè
 687:main.c        ****     AppAMPCtrl(AMPCTRL_STOPNOW, NULL);
 2428              		.loc 1 687 0
ARM GAS  C:\Users\13740\AppData\Local\Temp\cckeVujV.s 			page 67


 2429 00c6 0021     		movs	r1, #0
 2430 00c8 0120     		movs	r0, #1
 2431 00ca FFF7FEFF 		bl	AppAMPCtrl
 688:main.c        ****     
 689:main.c        **** 
 690:main.c        ****     
 691:main.c        ****     
 692:main.c        ****     
 693:main.c        **** 
 694:main.c        ****     CyDelay(50);  // Á≠âÂæÖÈÄöÈÅìÂàáÊç¢Á®≥ÂÆö
 2432              		.loc 1 694 0
 2433 00ce 3220     		movs	r0, #50
 2434 00d0 FFF7FEFF 		bl	CyDelay
 695:main.c        ****     
 696:main.c        ****     // 2. ÂêØÂä®ÊµãÈáè
 697:main.c        ****     error = AppAMPCtrl(AMPCTRL_START, NULL);
 2435              		.loc 1 697 0
 2436 00d4 0021     		movs	r1, #0
 2437 00d6 0020     		movs	r0, #0
 2438 00d8 FFF7FEFF 		bl	AppAMPCtrl
 2439 00dc 0300     		movs	r3, r0
 2440 00de 3B61     		str	r3, [r7, #16]
 698:main.c        ****     if(error != AD5940ERR_OK)
 2441              		.loc 1 698 0
 2442 00e0 3B69     		ldr	r3, [r7, #16]
 2443 00e2 002B     		cmp	r3, #0
 2444 00e4 01D0     		beq	.L86
 699:main.c        ****     {
 700:main.c        ****         return 0;
 2445              		.loc 1 700 0
 2446 00e6 0023     		movs	r3, #0
 2447 00e8 23E0     		b	.L89
 2448              	.L86:
 701:main.c        ****     }
 702:main.c        ****     
 703:main.c        ****     // 3. Á≠âÂæÖÊµãÈáèÁ®≥ÂÆöÔºàÂÆâÂüπÊ≥ïÈúÄË¶Å 500msÔºâ
 704:main.c        ****     CyDelay(500);
 2449              		.loc 1 704 0
 2450 00ea FA23     		movs	r3, #250
 2451 00ec 5B00     		lsls	r3, r3, #1
 2452 00ee 1800     		movs	r0, r3
 2453 00f0 FFF7FEFF 		bl	CyDelay
 705:main.c        ****     
 706:main.c        ****     // 4. ËØªÂèñ FIFO Êï∞ÊçÆ
 707:main.c        ****     error = AppAMPISR(&ampResult, &dataCount);
 2454              		.loc 1 707 0
 2455 00f4 0823     		movs	r3, #8
 2456 00f6 FA18     		adds	r2, r7, r3
 2457 00f8 134B     		ldr	r3, .L90+12
 2458 00fa 1100     		movs	r1, r2
 2459 00fc 1800     		movs	r0, r3
 2460 00fe FFF7FEFF 		bl	AppAMPISR
 2461 0102 0300     		movs	r3, r0
 2462 0104 3B61     		str	r3, [r7, #16]
 708:main.c        ****     
 709:main.c        ****     if(error == AD5940ERR_OK && dataCount > 0)
 2463              		.loc 1 709 0
ARM GAS  C:\Users\13740\AppData\Local\Temp\cckeVujV.s 			page 68


 2464 0106 3B69     		ldr	r3, [r7, #16]
 2465 0108 002B     		cmp	r3, #0
 2466 010a 0BD1     		bne	.L87
 2467              		.loc 1 709 0 is_stmt 0 discriminator 1
 2468 010c BB68     		ldr	r3, [r7, #8]
 2469 010e 002B     		cmp	r3, #0
 2470 0110 08D0     		beq	.L87
 710:main.c        ****     {
 711:main.c        ****         // 5. ‰ªéÁªìÊûú‰∏≠ÊèêÂèñÁîµÊµÅÂÄº
 712:main.c        ****         current_nA = ampResult.Current * 1e9;  // ËΩ¨Êç¢‰∏∫ nA
 2471              		.loc 1 712 0 is_stmt 1
 2472 0112 0D4B     		ldr	r3, .L90+12
 2473 0114 1B68     		ldr	r3, [r3]
 2474 0116 0B49     		ldr	r1, .L90+8
 2475 0118 181C     		adds	r0, r3, #0
 2476 011a FFF7FEFF 		bl	__aeabi_fmul
 2477 011e 031C     		adds	r3, r0, #0
 2478 0120 7B61     		str	r3, [r7, #20]
 2479 0122 01E0     		b	.L88
 2480              	.L87:
 713:main.c        ****         
 714:main.c        ****     }
 715:main.c        ****     else
 716:main.c        ****     {
 717:main.c        ****         current_nA = 0;
 2481              		.loc 1 717 0
 2482 0124 0023     		movs	r3, #0
 2483 0126 7B61     		str	r3, [r7, #20]
 2484              	.L88:
 718:main.c        ****     }
 719:main.c        ****     
 720:main.c        ****     // 6. ÂÅúÊ≠¢ÊµãÈáè
 721:main.c        ****     AppAMPCtrl(AMPCTRL_STOPNOW, NULL);
 2485              		.loc 1 721 0
 2486 0128 0021     		movs	r1, #0
 2487 012a 0120     		movs	r0, #1
 2488 012c FFF7FEFF 		bl	AppAMPCtrl
 722:main.c        ****     
 723:main.c        ****     return current_nA;
 2489              		.loc 1 723 0
 2490 0130 7B69     		ldr	r3, [r7, #20]
 2491              	.L89:
 724:main.c        **** }
 2492              		.loc 1 724 0 discriminator 1
 2493 0132 181C     		adds	r0, r3, #0
 2494 0134 BD46     		mov	sp, r7
 2495 0136 06B0     		add	sp, sp, #24
 2496              		@ sp needed
 2497 0138 80BD     		pop	{r7, pc}
 2498              	.L91:
 2499 013a C046     		.align	2
 2500              	.L90:
 2501 013c 00000000 		.word	pAmpCfg
 2502 0140 2C000000 		.word	ampFifoBuffer.9595
 2503 0144 286B6E4E 		.word	1315859240
 2504 0148 00000000 		.word	ampResult
 2505              		.cfi_endproc
ARM GAS  C:\Users\13740\AppData\Local\Temp\cckeVujV.s 			page 69


 2506              	.LFE45:
 2507              		.size	ReadCurrentFromAD5940, .-ReadCurrentFromAD5940
 2508              		.global	__aeabi_idivmod
 2509              		.global	__aeabi_i2d
 2510              		.global	__aeabi_dadd
 2511              		.section	.text.ReadCurrentFromSourceMeter_Simulated,"ax",%progbits
 2512              		.align	2
 2513              		.global	ReadCurrentFromSourceMeter_Simulated
 2514              		.code	16
 2515              		.thumb_func
 2516              		.type	ReadCurrentFromSourceMeter_Simulated, %function
 2517              	ReadCurrentFromSourceMeter_Simulated:
 2518              	.LFB46:
 725:main.c        **** 
 726:main.c        **** /*******************************************************************************
 727:main.c        **** * Function Name: ReadCurrentFromSourceMeter_Simulated
 728:main.c        **** ********************************************************************************
 729:main.c        **** * Summary:
 730:main.c        **** *   Ê®°Êãü‰ªéÊ∫êË°®ËØªÂèñÁîµÊµÅÂÄºÔºàÁî®‰∫éÊµãËØïÔºâ
 731:main.c        **** *   ÂÆûÈôÖ‰ΩøÁî®Êó∂ÊõøÊç¢‰∏∫ÁúüÂÆûÁöÑÊ∫êË°®ËØªÂèñ‰ª£Á†Å
 732:main.c        **** *
 733:main.c        **** * Return:
 734:main.c        **** *   float: ÁîµÊµÅÂÄºÔºàÂçï‰ΩçÔºönAÔºâ
 735:main.c        **** *******************************************************************************/
 736:main.c        **** float ReadCurrentFromSourceMeter_Simulated(AmperometricSensor_t sensorType)
 737:main.c        **** {
 2519              		.loc 1 737 0
 2520              		.cfi_startproc
 2521              		@ args = 0, pretend = 0, frame = 16
 2522              		@ frame_needed = 1, uses_anonymous_args = 0
 2523 0000 90B5     		push	{r4, r7, lr}
 2524              		.cfi_def_cfa_offset 12
 2525              		.cfi_offset 4, -12
 2526              		.cfi_offset 7, -8
 2527              		.cfi_offset 14, -4
 2528 0002 85B0     		sub	sp, sp, #20
 2529              		.cfi_def_cfa_offset 32
 2530 0004 00AF     		add	r7, sp, #0
 2531              		.cfi_def_cfa_register 7
 2532 0006 0200     		movs	r2, r0
 2533 0008 FB1D     		adds	r3, r7, #7
 2534 000a 1A70     		strb	r2, [r3]
 738:main.c        ****     float current_nA = 0;
 2535              		.loc 1 738 0
 2536 000c 0023     		movs	r3, #0
 2537 000e FB60     		str	r3, [r7, #12]
 739:main.c        ****     
 740:main.c        ****     // Ê®°Êãü‰∏çÂêå‰º†ÊÑüÂô®ÁöÑÂÖ∏ÂûãÁîµÊµÅÂìçÂ∫î
 741:main.c        ****     switch(sensorType)
 2538              		.loc 1 741 0
 2539 0010 FB1D     		adds	r3, r7, #7
 2540 0012 1B78     		ldrb	r3, [r3]
 2541 0014 012B     		cmp	r3, #1
 2542 0016 1CD0     		beq	.L94
 2543 0018 022B     		cmp	r3, #2
 2544 001a 33D0     		beq	.L95
 2545 001c 002B     		cmp	r3, #0
ARM GAS  C:\Users\13740\AppData\Local\Temp\cckeVujV.s 			page 70


 2546 001e 4AD1     		bne	.L99
 2547              	.LBB3:
 742:main.c        ****     {
 743:main.c        ****         case SENSOR_GLUCOSE:
 744:main.c        ****             // 5 mM Ëë°ËêÑÁ≥ñ ‚Üí Á∫¶ 80 nAÔºàÊ†πÊçÆËÆ∫ÊñáÊ†°ÂáÜÁ≥ªÊï∞ 16.34 nA/mMÔºâ
 745:main.c        ****             current_nA = 85.0 + (rand() % 10 - 5);  // 80-90 nA
 2548              		.loc 1 745 0
 2549 0020 FFF7FEFF 		bl	rand
 2550 0024 0300     		movs	r3, r0
 2551 0026 0A21     		movs	r1, #10
 2552 0028 1800     		movs	r0, r3
 2553 002a FFF7FEFF 		bl	__aeabi_idivmod
 2554 002e 0B00     		movs	r3, r1
 2555 0030 053B     		subs	r3, r3, #5
 2556 0032 1800     		movs	r0, r3
 2557 0034 FFF7FEFF 		bl	__aeabi_i2d
 2558 0038 0022     		movs	r2, #0
 2559 003a 234B     		ldr	r3, .L100
 2560 003c FFF7FEFF 		bl	__aeabi_dadd
 2561 0040 0300     		movs	r3, r0
 2562 0042 0C00     		movs	r4, r1
 2563 0044 1800     		movs	r0, r3
 2564 0046 2100     		movs	r1, r4
 2565 0048 FFF7FEFF 		bl	__aeabi_d2f
 2566 004c 031C     		adds	r3, r0, #0
 2567 004e FB60     		str	r3, [r7, #12]
 746:main.c        ****             break;
 2568              		.loc 1 746 0
 2569 0050 34E0     		b	.L97
 2570              	.L94:
 747:main.c        ****             
 748:main.c        ****         case SENSOR_LACTATE:
 749:main.c        ****             // 2 mM ‰π≥ÈÖ∏ ‚Üí Á∫¶ 100 nAÔºàÊ†πÊçÆËÆ∫ÊñáÊ†°ÂáÜÁ≥ªÊï∞ 41.44 nA/mMÔºâ
 750:main.c        ****             current_nA = 100.0 + (rand() % 10 - 5);  // 95-105 nA
 2571              		.loc 1 750 0
 2572 0052 FFF7FEFF 		bl	rand
 2573 0056 0300     		movs	r3, r0
 2574 0058 0A21     		movs	r1, #10
 2575 005a 1800     		movs	r0, r3
 2576 005c FFF7FEFF 		bl	__aeabi_idivmod
 2577 0060 0B00     		movs	r3, r1
 2578 0062 053B     		subs	r3, r3, #5
 2579 0064 1800     		movs	r0, r3
 2580 0066 FFF7FEFF 		bl	__aeabi_i2d
 2581 006a 0022     		movs	r2, #0
 2582 006c 174B     		ldr	r3, .L100+4
 2583 006e FFF7FEFF 		bl	__aeabi_dadd
 2584 0072 0300     		movs	r3, r0
 2585 0074 0C00     		movs	r4, r1
 2586 0076 1800     		movs	r0, r3
 2587 0078 2100     		movs	r1, r4
 2588 007a FFF7FEFF 		bl	__aeabi_d2f
 2589 007e 031C     		adds	r3, r0, #0
 2590 0080 FB60     		str	r3, [r7, #12]
 751:main.c        ****             break;
 2591              		.loc 1 751 0
 2592 0082 1BE0     		b	.L97
ARM GAS  C:\Users\13740\AppData\Local\Temp\cckeVujV.s 			page 71


 2593              	.L95:
 752:main.c        ****             
 753:main.c        ****         case SENSOR_URIC_ACID:
 754:main.c        ****             // 300 ŒºM Â∞øÈÖ∏ ‚Üí Á∫¶ 57000 nAÔºàÊ†πÊçÆËÆ∫ÊñáÊ†°ÂáÜÁ≥ªÊï∞ 189.60 nA/ŒºMÔºâ
 755:main.c        ****             //current_nA = 57000.0 + (rand() % 100 - 50);
 756:main.c        ****             current_nA = 570.0 + (rand() % 100 - 50);
 2594              		.loc 1 756 0
 2595 0084 FFF7FEFF 		bl	rand
 2596 0088 0300     		movs	r3, r0
 2597 008a 6421     		movs	r1, #100
 2598 008c 1800     		movs	r0, r3
 2599 008e FFF7FEFF 		bl	__aeabi_idivmod
 2600 0092 0B00     		movs	r3, r1
 2601 0094 323B     		subs	r3, r3, #50
 2602 0096 1800     		movs	r0, r3
 2603 0098 FFF7FEFF 		bl	__aeabi_i2d
 2604 009c 0022     		movs	r2, #0
 2605 009e 0C4B     		ldr	r3, .L100+8
 2606 00a0 FFF7FEFF 		bl	__aeabi_dadd
 2607 00a4 0300     		movs	r3, r0
 2608 00a6 0C00     		movs	r4, r1
 2609 00a8 1800     		movs	r0, r3
 2610 00aa 2100     		movs	r1, r4
 2611 00ac FFF7FEFF 		bl	__aeabi_d2f
 2612 00b0 031C     		adds	r3, r0, #0
 2613 00b2 FB60     		str	r3, [r7, #12]
 757:main.c        ****             break;
 2614              		.loc 1 757 0
 2615 00b4 02E0     		b	.L97
 2616              	.L99:
 758:main.c        ****             
 759:main.c        ****         default:
 760:main.c        ****             current_nA = 0;
 2617              		.loc 1 760 0
 2618 00b6 0023     		movs	r3, #0
 2619 00b8 FB60     		str	r3, [r7, #12]
 761:main.c        ****             break;
 2620              		.loc 1 761 0
 2621 00ba C046     		nop
 2622              	.L97:
 2623              	.LBE3:
 762:main.c        ****     }
 763:main.c        ****     
 764:main.c        **** 
 765:main.c        ****     
 766:main.c        ****     return current_nA;
 2624              		.loc 1 766 0
 2625 00bc FB68     		ldr	r3, [r7, #12]
 767:main.c        **** }
 2626              		.loc 1 767 0
 2627 00be 181C     		adds	r0, r3, #0
 2628 00c0 BD46     		mov	sp, r7
 2629 00c2 05B0     		add	sp, sp, #20
 2630              		@ sp needed
 2631 00c4 90BD     		pop	{r4, r7, pc}
 2632              	.L101:
 2633 00c6 C046     		.align	2
ARM GAS  C:\Users\13740\AppData\Local\Temp\cckeVujV.s 			page 72


 2634              	.L100:
 2635 00c8 00405540 		.word	1079328768
 2636 00cc 00005940 		.word	1079574528
 2637 00d0 00D08140 		.word	1082249216
 2638              		.cfi_endproc
 2639              	.LFE46:
 2640              		.size	ReadCurrentFromSourceMeter_Simulated, .-ReadCurrentFromSourceMeter_Simulated
 2641              		.global	__aeabi_dsub
 2642              		.global	__aeabi_dmul
 2643              		.section	.text.MeasureAllSensorsWithCurrent,"ax",%progbits
 2644              		.align	2
 2645              		.global	MeasureAllSensorsWithCurrent
 2646              		.code	16
 2647              		.thumb_func
 2648              		.type	MeasureAllSensorsWithCurrent, %function
 2649              	MeasureAllSensorsWithCurrent:
 2650              	.LFB47:
 768:main.c        **** 
 769:main.c        **** /*******************************************************************************
 770:main.c        **** * Function Name: MeasureAllSensorsWithCurrent
 771:main.c        **** ********************************************************************************
 772:main.c        **** * Summary:
 773:main.c        **** *   ÊµãÈáèÊâÄÊúâ‰º†ÊÑüÂô® - ÂåÖÂê´ÂÆûÈôÖÁîµÊµÅÂÄº
 774:main.c        **** *******************************************************************************/
 775:main.c        **** void MeasureAllSensorsWithCurrent(void)
 776:main.c        **** {
 2651              		.loc 1 776 0
 2652              		.cfi_startproc
 2653              		@ args = 0, pretend = 0, frame = 8
 2654              		@ frame_needed = 1, uses_anonymous_args = 0
 2655 0000 90B5     		push	{r4, r7, lr}
 2656              		.cfi_def_cfa_offset 12
 2657              		.cfi_offset 4, -12
 2658              		.cfi_offset 7, -8
 2659              		.cfi_offset 14, -4
 2660 0002 83B0     		sub	sp, sp, #12
 2661              		.cfi_def_cfa_offset 24
 2662 0004 00AF     		add	r7, sp, #0
 2663              		.cfi_def_cfa_register 7
 777:main.c        ****  
 778:main.c        ****     // 1. Ê∏©Â∫¶ÊµãÈáè
 779:main.c        ****     sensorData.temperature = MeasureTemperature();
 2664              		.loc 1 779 0
 2665 0006 FFF7FEFF 		bl	MeasureTemperature
 2666 000a 021C     		adds	r2, r0, #0
 2667 000c 3A4B     		ldr	r3, .L103
 2668 000e 1A60     		str	r2, [r3]
 780:main.c        ****     
 781:main.c        ****     // 2. Ëë°ËêÑÁ≥ñÊµãÈáè
 782:main.c        **** 
 783:main.c        ****     
 784:main.c        ****     // ÊñπÊ≥ï A: ‰ΩøÁî® AD5940 ËØªÂèñÔºàÊé®ËçêÔºâ
 785:main.c        ****    sensorData.current_glucose_nA = ReadCurrentFromAD5940(SENSOR_GLUCOSE);
 2669              		.loc 1 785 0
 2670 0010 0020     		movs	r0, #0
 2671 0012 FFF7FEFF 		bl	ReadCurrentFromAD5940
 2672 0016 021C     		adds	r2, r0, #0
ARM GAS  C:\Users\13740\AppData\Local\Temp\cckeVujV.s 			page 73


 2673 0018 374B     		ldr	r3, .L103
 2674 001a 5A61     		str	r2, [r3, #20]
 786:main.c        ****     
 787:main.c        ****     // ÊñπÊ≥ï B: ‰ΩøÁî®Ê®°ÊãüÂÄºÊµãËØïÔºàÊµãËØïÁî®Ôºâ
 788:main.c        ****     //sensorData.current_glucose_nA = ReadCurrentFromSourceMeter_Simulated(SENSOR_GLUCOSE);
 789:main.c        ****     
 790:main.c        ****     // ËΩ¨Êç¢‰∏∫ÊµìÂ∫¶
 791:main.c        ****     sensorData.glucose = ConvertCurrentToConcentration(sensorData.current_glucose_nA, SENSOR_GLUCOS
 2675              		.loc 1 791 0
 2676 001c 364B     		ldr	r3, .L103
 2677 001e 5B69     		ldr	r3, [r3, #20]
 2678 0020 0021     		movs	r1, #0
 2679 0022 181C     		adds	r0, r3, #0
 2680 0024 FFF7FEFF 		bl	ConvertCurrentToConcentration
 2681 0028 021C     		adds	r2, r0, #0
 2682 002a 334B     		ldr	r3, .L103
 2683 002c 5A60     		str	r2, [r3, #4]
 792:main.c        ****     
 793:main.c        ****     
 794:main.c        ****     // 3. ‰π≥ÈÖ∏ÊµãÈáè
 795:main.c        **** 
 796:main.c        ****      sensorData.current_lactate_nA = ReadCurrentFromAD5940(SENSOR_LACTATE); 
 2684              		.loc 1 796 0
 2685 002e 0120     		movs	r0, #1
 2686 0030 FFF7FEFF 		bl	ReadCurrentFromAD5940
 2687 0034 021C     		adds	r2, r0, #0
 2688 0036 304B     		ldr	r3, .L103
 2689 0038 9A61     		str	r2, [r3, #24]
 797:main.c        ****     //sensorData.current_lactate_nA = ReadCurrentFromSourceMeter_Simulated(SENSOR_LACTATE);
 798:main.c        ****     sensorData.lactate = ConvertCurrentToConcentration(sensorData.current_lactate_nA, SENSOR_LACTAT
 2690              		.loc 1 798 0
 2691 003a 2F4B     		ldr	r3, .L103
 2692 003c 9B69     		ldr	r3, [r3, #24]
 2693 003e 0121     		movs	r1, #1
 2694 0040 181C     		adds	r0, r3, #0
 2695 0042 FFF7FEFF 		bl	ConvertCurrentToConcentration
 2696 0046 021C     		adds	r2, r0, #0
 2697 0048 2B4B     		ldr	r3, .L103
 2698 004a 9A60     		str	r2, [r3, #8]
 799:main.c        ****     
 800:main.c        ****     // 4. Â∞øÈÖ∏ÊµãÈáè
 801:main.c        **** 
 802:main.c        ****     sensorData.current_uric_nA = ReadCurrentFromAD5940(SENSOR_URIC_ACID);
 2699              		.loc 1 802 0
 2700 004c 0220     		movs	r0, #2
 2701 004e FFF7FEFF 		bl	ReadCurrentFromAD5940
 2702 0052 021C     		adds	r2, r0, #0
 2703 0054 284B     		ldr	r3, .L103
 2704 0056 DA61     		str	r2, [r3, #28]
 803:main.c        ****     //sensorData.uric_acid = ConvertCurrentToConcentration(sensorData.current_uric_nA,SENSOR_URIC_A
 804:main.c        ****     // [‰øÆÊîπ] ÂàáÊç¢‰∏∫Ê®°ÊãüÊï∞ÊçÆ
 805:main.c        ****     // sensorData.current_uric_acid_nA = ReadCurrentFromAD5940(SENSOR_URIC_ACID);
 806:main.c        ****     //sensorData.current_uric_nA = ReadCurrentFromSourceMeter_Simulated(SENSOR_URIC_ACID); 
 807:main.c        ****     // [Â¢ûÂä†] ÁîµÊµÅÊç¢ÁÆóÂà∞ÊµìÂ∫¶
 808:main.c        ****     sensorData.uric_acid = ConvertCurrentToConcentration(sensorData.current_uric_nA, SENSOR_URIC_AC
 2705              		.loc 1 808 0
 2706 0058 274B     		ldr	r3, .L103
ARM GAS  C:\Users\13740\AppData\Local\Temp\cckeVujV.s 			page 74


 2707 005a DB69     		ldr	r3, [r3, #28]
 2708 005c 0221     		movs	r1, #2
 2709 005e 181C     		adds	r0, r3, #0
 2710 0060 FFF7FEFF 		bl	ConvertCurrentToConcentration
 2711 0064 021C     		adds	r2, r0, #0
 2712 0066 244B     		ldr	r3, .L103
 2713 0068 DA60     		str	r2, [r3, #12]
 809:main.c        **** 
 810:main.c        ****     
 811:main.c        **** 
 812:main.c        ****     
 813:main.c        ****     // 6. Ê∏©Â∫¶Ê†°ÂáÜ
 814:main.c        ****     float temp_factor = 1.0 + 0.03 * (sensorData.temperature - 37.0);
 2714              		.loc 1 814 0
 2715 006a 234B     		ldr	r3, .L103
 2716 006c 1B68     		ldr	r3, [r3]
 2717 006e 181C     		adds	r0, r3, #0
 2718 0070 FFF7FEFF 		bl	__aeabi_f2d
 2719 0074 0022     		movs	r2, #0
 2720 0076 214B     		ldr	r3, .L103+4
 2721 0078 FFF7FEFF 		bl	__aeabi_dsub
 2722 007c 0300     		movs	r3, r0
 2723 007e 0C00     		movs	r4, r1
 2724 0080 1800     		movs	r0, r3
 2725 0082 2100     		movs	r1, r4
 2726 0084 1E4A     		ldr	r2, .L103+8
 2727 0086 1F4B     		ldr	r3, .L103+12
 2728 0088 FFF7FEFF 		bl	__aeabi_dmul
 2729 008c 0300     		movs	r3, r0
 2730 008e 0C00     		movs	r4, r1
 2731 0090 1800     		movs	r0, r3
 2732 0092 2100     		movs	r1, r4
 2733 0094 0022     		movs	r2, #0
 2734 0096 1C4B     		ldr	r3, .L103+16
 2735 0098 FFF7FEFF 		bl	__aeabi_dadd
 2736 009c 0300     		movs	r3, r0
 2737 009e 0C00     		movs	r4, r1
 2738 00a0 1800     		movs	r0, r3
 2739 00a2 2100     		movs	r1, r4
 2740 00a4 FFF7FEFF 		bl	__aeabi_d2f
 2741 00a8 031C     		adds	r3, r0, #0
 2742 00aa 7B60     		str	r3, [r7, #4]
 815:main.c        ****     sensorData.glucose *= temp_factor;
 2743              		.loc 1 815 0
 2744 00ac 124B     		ldr	r3, .L103
 2745 00ae 5B68     		ldr	r3, [r3, #4]
 2746 00b0 7968     		ldr	r1, [r7, #4]
 2747 00b2 181C     		adds	r0, r3, #0
 2748 00b4 FFF7FEFF 		bl	__aeabi_fmul
 2749 00b8 031C     		adds	r3, r0, #0
 2750 00ba 1A1C     		adds	r2, r3, #0
 2751 00bc 0E4B     		ldr	r3, .L103
 2752 00be 5A60     		str	r2, [r3, #4]
 816:main.c        ****     sensorData.lactate *= temp_factor;
 2753              		.loc 1 816 0
 2754 00c0 0D4B     		ldr	r3, .L103
 2755 00c2 9B68     		ldr	r3, [r3, #8]
ARM GAS  C:\Users\13740\AppData\Local\Temp\cckeVujV.s 			page 75


 2756 00c4 7968     		ldr	r1, [r7, #4]
 2757 00c6 181C     		adds	r0, r3, #0
 2758 00c8 FFF7FEFF 		bl	__aeabi_fmul
 2759 00cc 031C     		adds	r3, r0, #0
 2760 00ce 1A1C     		adds	r2, r3, #0
 2761 00d0 094B     		ldr	r3, .L103
 2762 00d2 9A60     		str	r2, [r3, #8]
 817:main.c        ****     sensorData.uric_acid *= temp_factor;
 2763              		.loc 1 817 0
 2764 00d4 084B     		ldr	r3, .L103
 2765 00d6 DB68     		ldr	r3, [r3, #12]
 2766 00d8 7968     		ldr	r1, [r7, #4]
 2767 00da 181C     		adds	r0, r3, #0
 2768 00dc FFF7FEFF 		bl	__aeabi_fmul
 2769 00e0 031C     		adds	r3, r0, #0
 2770 00e2 1A1C     		adds	r2, r3, #0
 2771 00e4 044B     		ldr	r3, .L103
 2772 00e6 DA60     		str	r2, [r3, #12]
 818:main.c        ****     
 819:main.c        ****     sensorData.timestamp = mainTimer;
 2773              		.loc 1 819 0
 2774 00e8 084B     		ldr	r3, .L103+20
 2775 00ea 1A68     		ldr	r2, [r3]
 2776 00ec 024B     		ldr	r3, .L103
 2777 00ee 1A61     		str	r2, [r3, #16]
 820:main.c        ****     
 821:main.c        **** }
 2778              		.loc 1 821 0
 2779 00f0 C046     		nop
 2780 00f2 BD46     		mov	sp, r7
 2781 00f4 03B0     		add	sp, sp, #12
 2782              		@ sp needed
 2783 00f6 90BD     		pop	{r4, r7, pc}
 2784              	.L104:
 2785              		.align	2
 2786              	.L103:
 2787 00f8 00000000 		.word	sensorData
 2788 00fc 00804240 		.word	1078099968
 2789 0100 B81E85EB 		.word	-343597384
 2790 0104 51B89E3F 		.word	1067366481
 2791 0108 0000F03F 		.word	1072693248
 2792 010c 00000000 		.word	mainTimer
 2793              		.cfi_endproc
 2794              	.LFE47:
 2795              		.size	MeasureAllSensorsWithCurrent, .-MeasureAllSensorsWithCurrent
 2796              		.section	.text.ControlDrugRelease,"ax",%progbits
 2797              		.align	2
 2798              		.global	ControlDrugRelease
 2799              		.code	16
 2800              		.thumb_func
 2801              		.type	ControlDrugRelease, %function
 2802              	ControlDrugRelease:
 2803              	.LFB48:
 822:main.c        **** 
 823:main.c        **** 
 824:main.c        **** /*******************************************************************************
 825:main.c        **** * Function Name: ControlDrugRelease
ARM GAS  C:\Users\13740\AppData\Local\Temp\cckeVujV.s 			page 76


 826:main.c        **** ********************************************************************************
 827:main.c        **** * Summary:
 828:main.c        **** *   ÊéßÂà∂ËçØÁâ©ÈáäÊîæÔºàÁîµÊéßÊ∞¥ÂáùËÉ∂Ôºâ
 829:main.c        **** *******************************************************************************/
 830:main.c        **** void ControlDrugRelease(uint8 enable)
 831:main.c        **** {
 2804              		.loc 1 831 0
 2805              		.cfi_startproc
 2806              		@ args = 0, pretend = 0, frame = 8
 2807              		@ frame_needed = 1, uses_anonymous_args = 0
 2808 0000 80B5     		push	{r7, lr}
 2809              		.cfi_def_cfa_offset 8
 2810              		.cfi_offset 7, -8
 2811              		.cfi_offset 14, -4
 2812 0002 82B0     		sub	sp, sp, #8
 2813              		.cfi_def_cfa_offset 16
 2814 0004 00AF     		add	r7, sp, #0
 2815              		.cfi_def_cfa_register 7
 2816 0006 0200     		movs	r2, r0
 2817 0008 FB1D     		adds	r3, r7, #7
 2818 000a 1A70     		strb	r2, [r3]
 832:main.c        ****     if(enable)
 2819              		.loc 1 832 0
 2820 000c FB1D     		adds	r3, r7, #7
 2821 000e 1B78     		ldrb	r3, [r3]
 2822 0010 002B     		cmp	r3, #0
 2823 0012 03D0     		beq	.L106
 833:main.c        ****     {
 834:main.c        ****         DRUG_EN_1_Write(1);
 2824              		.loc 1 834 0
 2825 0014 0120     		movs	r0, #1
 2826 0016 FFF7FEFF 		bl	DRUG_EN_1_Write
 835:main.c        ****     }
 836:main.c        ****     else
 837:main.c        ****     {
 838:main.c        ****         DRUG_EN_1_Write(0);
 839:main.c        ****     }
 840:main.c        **** }
 2827              		.loc 1 840 0
 2828 001a 02E0     		b	.L108
 2829              	.L106:
 838:main.c        ****     }
 2830              		.loc 1 838 0
 2831 001c 0020     		movs	r0, #0
 2832 001e FFF7FEFF 		bl	DRUG_EN_1_Write
 2833              	.L108:
 2834              		.loc 1 840 0
 2835 0022 C046     		nop
 2836 0024 BD46     		mov	sp, r7
 2837 0026 02B0     		add	sp, sp, #8
 2838              		@ sp needed
 2839 0028 80BD     		pop	{r7, pc}
 2840              		.cfi_endproc
 2841              	.LFE48:
 2842              		.size	ControlDrugRelease, .-ControlDrugRelease
 2843 002a C046     		.section	.text.ControlElectricalStimulation,"ax",%progbits
 2844              		.align	2
ARM GAS  C:\Users\13740\AppData\Local\Temp\cckeVujV.s 			page 77


 2845              		.global	ControlElectricalStimulation
 2846              		.code	16
 2847              		.thumb_func
 2848              		.type	ControlElectricalStimulation, %function
 2849              	ControlElectricalStimulation:
 2850              	.LFB49:
 841:main.c        **** 
 842:main.c        **** /*******************************************************************************
 843:main.c        **** * Function Name: ControlElectricalStimulation
 844:main.c        **** ********************************************************************************
 845:main.c        **** * Summary:
 846:main.c        **** *   ÊéßÂà∂ÁîµÂà∫ÊøÄÊ≤ªÁñó
 847:main.c        **** *******************************************************************************/
 848:main.c        **** void ControlElectricalStimulation(uint8 enable)
 849:main.c        **** {
 2851              		.loc 1 849 0
 2852              		.cfi_startproc
 2853              		@ args = 0, pretend = 0, frame = 8
 2854              		@ frame_needed = 1, uses_anonymous_args = 0
 2855 0000 80B5     		push	{r7, lr}
 2856              		.cfi_def_cfa_offset 8
 2857              		.cfi_offset 7, -8
 2858              		.cfi_offset 14, -4
 2859 0002 82B0     		sub	sp, sp, #8
 2860              		.cfi_def_cfa_offset 16
 2861 0004 00AF     		add	r7, sp, #0
 2862              		.cfi_def_cfa_register 7
 2863 0006 0200     		movs	r2, r0
 2864 0008 FB1D     		adds	r3, r7, #7
 2865 000a 1A70     		strb	r2, [r3]
 850:main.c        ****     if(enable)
 2866              		.loc 1 850 0
 2867 000c FB1D     		adds	r3, r7, #7
 2868 000e 1B78     		ldrb	r3, [r3]
 2869 0010 002B     		cmp	r3, #0
 2870 0012 03D0     		beq	.L110
 851:main.c        ****     {
 852:main.c        ****         STIM_EN_A_Write(1);
 2871              		.loc 1 852 0
 2872 0014 0120     		movs	r0, #1
 2873 0016 FFF7FEFF 		bl	STIM_EN_A_Write
 853:main.c        ****     }
 854:main.c        ****     else
 855:main.c        ****     {
 856:main.c        ****         STIM_EN_A_Write(0);
 857:main.c        ****     }
 858:main.c        **** }
 2874              		.loc 1 858 0
 2875 001a 02E0     		b	.L112
 2876              	.L110:
 856:main.c        ****     }
 2877              		.loc 1 856 0
 2878 001c 0020     		movs	r0, #0
 2879 001e FFF7FEFF 		bl	STIM_EN_A_Write
 2880              	.L112:
 2881              		.loc 1 858 0
 2882 0022 C046     		nop
ARM GAS  C:\Users\13740\AppData\Local\Temp\cckeVujV.s 			page 78


 2883 0024 BD46     		mov	sp, r7
 2884 0026 02B0     		add	sp, sp, #8
 2885              		@ sp needed
 2886 0028 80BD     		pop	{r7, pc}
 2887              		.cfi_endproc
 2888              	.LFE49:
 2889              		.size	ControlElectricalStimulation, .-ControlElectricalStimulation
 2890 002a C046     		.section	.rodata
 2891              		.align	2
 2892              	.LC240:
 2893 1420 252E3266 		.ascii	"%.2f mM (%.1f nA)\000"
 2893      206D4D20 
 2893      28252E31 
 2893      66206E41 
 2893      2900
 2894              		.section	.text.SendGlucoseDataViaBLE,"ax",%progbits
 2895              		.align	2
 2896              		.global	SendGlucoseDataViaBLE
 2897              		.code	16
 2898              		.thumb_func
 2899              		.type	SendGlucoseDataViaBLE, %function
 2900              	SendGlucoseDataViaBLE:
 2901              	.LFB50:
 859:main.c        **** 
 860:main.c        **** /*******************************************************************************
 861:main.c        **** * Function Name: SendCurrentDataViaBLE
 862:main.c        **** ********************************************************************************
 863:main.c        **** * Summary:
 864:main.c        **** *   ÂèëÈÄÅÁîµÊµÅÂÄºÂà∞ BLEÔºàÊòæÁ§∫Âú®ÊâãÊú∫ App ‰∏äÔºâ
 865:main.c        **** *******************************************************************************/
 866:main.c        **** 
 867:main.c        **** // ÂèëÈÄÅËë°ËêÑÁ≥ñÊï∞ÊçÆÔºàÊµìÂ∫¶ + ÁîµÊµÅÔºâ
 868:main.c        **** void SendGlucoseDataViaBLE(void)
 869:main.c        **** {
 2902              		.loc 1 869 0
 2903              		.cfi_startproc
 2904              		@ args = 0, pretend = 0, frame = 16
 2905              		@ frame_needed = 1, uses_anonymous_args = 0
 2906 0000 F0B5     		push	{r4, r5, r6, r7, lr}
 2907              		.cfi_def_cfa_offset 20
 2908              		.cfi_offset 4, -20
 2909              		.cfi_offset 5, -16
 2910              		.cfi_offset 6, -12
 2911              		.cfi_offset 7, -8
 2912              		.cfi_offset 14, -4
 2913 0002 87B0     		sub	sp, sp, #28
 2914              		.cfi_def_cfa_offset 48
 2915 0004 02AF     		add	r7, sp, #8
 2916              		.cfi_def_cfa 7, 40
 870:main.c        ****     CYBLE_GATTS_HANDLE_VALUE_NTF_T notificationHandle;
 871:main.c        ****     static char dataString[30];
 872:main.c        ****     
 873:main.c        ****     if(CyBle_GetState() == CYBLE_STATE_CONNECTED)
 2917              		.loc 1 873 0
 2918 0006 1D4B     		ldr	r3, .L116
 2919 0008 1B78     		ldrb	r3, [r3]
 2920 000a 022B     		cmp	r3, #2
ARM GAS  C:\Users\13740\AppData\Local\Temp\cckeVujV.s 			page 79


 2921 000c 32D1     		bne	.L115
 874:main.c        ****     {
 875:main.c        ****         sprintf(dataString, "%.2f mM (%.1f nA)", 
 876:main.c        ****                 sensorData.glucose, 
 2922              		.loc 1 876 0
 2923 000e 1C4B     		ldr	r3, .L116+4
 2924 0010 5B68     		ldr	r3, [r3, #4]
 875:main.c        ****                 sensorData.glucose, 
 2925              		.loc 1 875 0
 2926 0012 181C     		adds	r0, r3, #0
 2927 0014 FFF7FEFF 		bl	__aeabi_f2d
 2928 0018 0500     		movs	r5, r0
 2929 001a 0E00     		movs	r6, r1
 877:main.c        ****                 sensorData.current_glucose_nA);
 2930              		.loc 1 877 0
 2931 001c 184B     		ldr	r3, .L116+4
 2932 001e 5B69     		ldr	r3, [r3, #20]
 875:main.c        ****                 sensorData.glucose, 
 2933              		.loc 1 875 0
 2934 0020 181C     		adds	r0, r3, #0
 2935 0022 FFF7FEFF 		bl	__aeabi_f2d
 2936 0026 0300     		movs	r3, r0
 2937 0028 0C00     		movs	r4, r1
 2938 002a 1649     		ldr	r1, .L116+8
 2939 002c 1648     		ldr	r0, .L116+12
 2940 002e 0093     		str	r3, [sp]
 2941 0030 0194     		str	r4, [sp, #4]
 2942 0032 2A00     		movs	r2, r5
 2943 0034 3300     		movs	r3, r6
 2944 0036 FFF7FEFF 		bl	sprintf
 878:main.c        ****         
 879:main.c        ****         notificationHandle.attrHandle = CYBLE_CUSTOM_SERVICE_GLUCOSE_MEASUREMENT_CHAR_HANDLE;
 2945              		.loc 1 879 0
 2946 003a 3B1D     		adds	r3, r7, #4
 2947 003c 1722     		movs	r2, #23
 2948 003e 1A81     		strh	r2, [r3, #8]
 880:main.c        ****         notificationHandle.value.val = (uint8*)dataString;
 2949              		.loc 1 880 0
 2950 0040 3B1D     		adds	r3, r7, #4
 2951 0042 114A     		ldr	r2, .L116+12
 2952 0044 1A60     		str	r2, [r3]
 881:main.c        ****         notificationHandle.value.len = strlen(dataString);
 2953              		.loc 1 881 0
 2954 0046 104B     		ldr	r3, .L116+12
 2955 0048 1800     		movs	r0, r3
 2956 004a FFF7FEFF 		bl	strlen
 2957 004e 0300     		movs	r3, r0
 2958 0050 9AB2     		uxth	r2, r3
 2959 0052 3B1D     		adds	r3, r7, #4
 2960 0054 9A80     		strh	r2, [r3, #4]
 882:main.c        ****         
 883:main.c        ****         if(CyBle_GattsNotification(cyBle_connHandle, &notificationHandle) == CYBLE_ERROR_OK)
 2961              		.loc 1 883 0
 2962 0056 391D     		adds	r1, r7, #4
 2963 0058 0C4B     		ldr	r3, .L116+16
 2964 005a 1A78     		ldrb	r2, [r3]
 2965 005c 5B78     		ldrb	r3, [r3, #1]
ARM GAS  C:\Users\13740\AppData\Local\Temp\cckeVujV.s 			page 80


 2966 005e 1B02     		lsls	r3, r3, #8
 2967 0060 1A43     		orrs	r2, r3
 2968 0062 0023     		movs	r3, #0
 2969 0064 1204     		lsls	r2, r2, #16
 2970 0066 120C     		lsrs	r2, r2, #16
 2971 0068 1B0C     		lsrs	r3, r3, #16
 2972 006a 1B04     		lsls	r3, r3, #16
 2973 006c 1343     		orrs	r3, r2
 2974 006e 1800     		movs	r0, r3
 2975 0070 FFF7FEFF 		bl	CyBle_GattsNotification
 2976              	.L115:
 884:main.c        ****         {
 885:main.c        ****         }
 886:main.c        ****     }
 887:main.c        **** }
 2977              		.loc 1 887 0
 2978 0074 C046     		nop
 2979 0076 BD46     		mov	sp, r7
 2980 0078 05B0     		add	sp, sp, #20
 2981              		@ sp needed
 2982 007a F0BD     		pop	{r4, r5, r6, r7, pc}
 2983              	.L117:
 2984              		.align	2
 2985              	.L116:
 2986 007c 00000000 		.word	cyBle_state
 2987 0080 00000000 		.word	sensorData
 2988 0084 20140000 		.word	.LC240
 2989 0088 2C040000 		.word	dataString.9626
 2990 008c 00000000 		.word	cyBle_connHandle
 2991              		.cfi_endproc
 2992              	.LFE50:
 2993              		.size	SendGlucoseDataViaBLE, .-SendGlucoseDataViaBLE
 2994              		.section	.rodata
 2995 1432 0000     		.align	2
 2996              	.LC246:
 2997 1434 5265673A 		.ascii	"Reg:0x%lX\000"
 2997      3078256C 
 2997      5800
 2998 143e 0000     		.align	2
 2999              	.LC250:
 3000 1440 496E6974 		.ascii	"Init:%d\000"
 3000      3A256400 
 3001              		.align	2
 3002              	.LC252:
 3003 1448 4649464F 		.ascii	"FIFO:%lu\000"
 3003      3A256C75 
 3003      00
 3004 1451 000000   		.align	2
 3005              	.LC254:
 3006 1454 41313A25 		.ascii	"A1:%d A2:%d A3:%d\000"
 3006      64204132 
 3006      3A256420 
 3006      41333A25 
 3006      6400
 3007              		.section	.text.SendLactateDataViaBLE,"ax",%progbits
 3008              		.align	2
 3009              		.global	SendLactateDataViaBLE
ARM GAS  C:\Users\13740\AppData\Local\Temp\cckeVujV.s 			page 81


 3010              		.code	16
 3011              		.thumb_func
 3012              		.type	SendLactateDataViaBLE, %function
 3013              	SendLactateDataViaBLE:
 3014              	.LFB51:
 888:main.c        **** 
 889:main.c        **** // ÂèëÈÄÅ‰π≥ÈÖ∏Êï∞ÊçÆÔºàÊîπ‰∏∫ËØäÊñ≠Êó•ÂøóËæìÂá∫Ôºâ
 890:main.c        **** void SendLactateDataViaBLE(void)
 891:main.c        **** {
 3015              		.loc 1 891 0
 3016              		.cfi_startproc
 3017              		@ args = 0, pretend = 0, frame = 24
 3018              		@ frame_needed = 1, uses_anonymous_args = 0
 3019 0000 B0B5     		push	{r4, r5, r7, lr}
 3020              		.cfi_def_cfa_offset 16
 3021              		.cfi_offset 4, -16
 3022              		.cfi_offset 5, -12
 3023              		.cfi_offset 7, -8
 3024              		.cfi_offset 14, -4
 3025 0002 88B0     		sub	sp, sp, #32
 3026              		.cfi_def_cfa_offset 48
 3027 0004 02AF     		add	r7, sp, #8
 3028              		.cfi_def_cfa 7, 40
 892:main.c        ****     CYBLE_GATTS_HANDLE_VALUE_NTF_T notificationHandle;
 893:main.c        ****     static char dataString[40];
 894:main.c        ****     static uint8 diagStep = 0;
 895:main.c        ****     uint32 regValue;
 896:main.c        ****     uint8 initStatus;
 897:main.c        ****     uint32 fifoCount;
 898:main.c        ****     
 899:main.c        ****     if(CyBle_GetState() == CYBLE_STATE_CONNECTED)
 3029              		.loc 1 899 0
 3030 0006 424B     		ldr	r3, .L131
 3031 0008 1B78     		ldrb	r3, [r3]
 3032 000a 022B     		cmp	r3, #2
 3033 000c 00D0     		beq	.LCB2183
 3034 000e 7BE0     		b	.L130	@long jump
 3035              	.LCB2183:
 900:main.c        ****     {
 901:main.c        ****         // ËΩÆÊµÅÊòæÁ§∫‰∏çÂêåÁöÑËØäÊñ≠‰ø°ÊÅØ
 902:main.c        ****         switch(diagStep % 4)
 3036              		.loc 1 902 0
 3037 0010 404B     		ldr	r3, .L131+4
 3038 0012 1B78     		ldrb	r3, [r3]
 3039 0014 1A00     		movs	r2, r3
 3040 0016 0323     		movs	r3, #3
 3041 0018 1340     		ands	r3, r2
 3042 001a 012B     		cmp	r3, #1
 3043 001c 16D0     		beq	.L121
 3044 001e 02DC     		bgt	.L122
 3045 0020 002B     		cmp	r3, #0
 3046 0022 05D0     		beq	.L123
 3047 0024 4DE0     		b	.L120
 3048              	.L122:
 3049 0026 022B     		cmp	r3, #2
 3050 0028 26D0     		beq	.L124
 3051 002a 032B     		cmp	r3, #3
ARM GAS  C:\Users\13740\AppData\Local\Temp\cckeVujV.s 			page 82


 3052 002c 36D0     		beq	.L125
 3053 002e 48E0     		b	.L120
 3054              	.L123:
 903:main.c        ****         {
 904:main.c        ****             case 0:
 905:main.c        ****                 // ÊòæÁ§∫ÂéüÂßãÂØÑÂ≠òÂô®ÂÄºÔºà‰∏çÂÅö & 0xFFFFFFÔºâ
 906:main.c        ****                 regValue = AD5940_ReadReg(REG_AFECON_ADIID);
 3055              		.loc 1 906 0
 3056 0030 8023     		movs	r3, #128
 3057 0032 DB00     		lsls	r3, r3, #3
 3058 0034 1800     		movs	r0, r3
 3059 0036 FFF7FEFF 		bl	AD5940_ReadReg
 3060 003a 0300     		movs	r3, r0
 3061 003c 7B61     		str	r3, [r7, #20]
 907:main.c        ****                 sprintf(dataString, "Reg:0x%lX", (unsigned long)regValue);
 3062              		.loc 1 907 0
 3063 003e 7A69     		ldr	r2, [r7, #20]
 3064 0040 3549     		ldr	r1, .L131+8
 3065 0042 364B     		ldr	r3, .L131+12
 3066 0044 1800     		movs	r0, r3
 3067 0046 FFF7FEFF 		bl	sprintf
 908:main.c        ****                 break;
 3068              		.loc 1 908 0
 3069 004a 3AE0     		b	.L120
 3070              	.L121:
 909:main.c        ****             case 1:
 910:main.c        ****                 // ÊòæÁ§∫ÂàùÂßãÂåñÁä∂ÊÄÅ
 911:main.c        ****                 initStatus = (pAmpCfg != NULL) ? (uint8)pAmpCfg->AMPInited : 99;
 3071              		.loc 1 911 0
 3072 004c 344B     		ldr	r3, .L131+16
 3073 004e 1B68     		ldr	r3, [r3]
 3074 0050 002B     		cmp	r3, #0
 3075 0052 04D0     		beq	.L126
 3076              		.loc 1 911 0 is_stmt 0 discriminator 1
 3077 0054 324B     		ldr	r3, .L131+16
 3078 0056 1B68     		ldr	r3, [r3]
 3079 0058 6C22     		movs	r2, #108
 3080 005a 9A5C     		ldrb	r2, [r3, r2]
 3081 005c 00E0     		b	.L127
 3082              	.L126:
 3083              		.loc 1 911 0 discriminator 2
 3084 005e 6322     		movs	r2, #99
 3085              	.L127:
 3086              		.loc 1 911 0 discriminator 4
 3087 0060 1323     		movs	r3, #19
 3088 0062 FB18     		adds	r3, r7, r3
 3089 0064 1A70     		strb	r2, [r3]
 912:main.c        ****                 sprintf(dataString, "Init:%d", (int)initStatus);
 3090              		.loc 1 912 0 is_stmt 1 discriminator 4
 3091 0066 1323     		movs	r3, #19
 3092 0068 FB18     		adds	r3, r7, r3
 3093 006a 1A78     		ldrb	r2, [r3]
 3094 006c 2D49     		ldr	r1, .L131+20
 3095 006e 2B4B     		ldr	r3, .L131+12
 3096 0070 1800     		movs	r0, r3
 3097 0072 FFF7FEFF 		bl	sprintf
 913:main.c        ****                 break;
ARM GAS  C:\Users\13740\AppData\Local\Temp\cckeVujV.s 			page 83


 3098              		.loc 1 913 0 discriminator 4
 3099 0076 24E0     		b	.L120
 3100              	.L124:
 914:main.c        ****             case 2:
 915:main.c        ****                 // ÊòæÁ§∫ FIFO ËÆ°Êï∞
 916:main.c        ****                 fifoCount = (pAmpCfg != NULL) ? pAmpCfg->FifoDataCount : 0;
 3101              		.loc 1 916 0
 3102 0078 294B     		ldr	r3, .L131+16
 3103 007a 1B68     		ldr	r3, [r3]
 3104 007c 002B     		cmp	r3, #0
 3105 007e 04D0     		beq	.L128
 3106              		.loc 1 916 0 is_stmt 0 discriminator 1
 3107 0080 274B     		ldr	r3, .L131+16
 3108 0082 1B68     		ldr	r3, [r3]
 3109 0084 9C22     		movs	r2, #156
 3110 0086 9B58     		ldr	r3, [r3, r2]
 3111 0088 00E0     		b	.L129
 3112              	.L128:
 3113              		.loc 1 916 0 discriminator 2
 3114 008a 0023     		movs	r3, #0
 3115              	.L129:
 3116              		.loc 1 916 0 discriminator 4
 3117 008c FB60     		str	r3, [r7, #12]
 917:main.c        ****                 sprintf(dataString, "FIFO:%lu", fifoCount);
 3118              		.loc 1 917 0 is_stmt 1 discriminator 4
 3119 008e FA68     		ldr	r2, [r7, #12]
 3120 0090 2549     		ldr	r1, .L131+24
 3121 0092 224B     		ldr	r3, .L131+12
 3122 0094 1800     		movs	r0, r3
 3123 0096 FFF7FEFF 		bl	sprintf
 918:main.c        ****                 break;
 3124              		.loc 1 918 0 discriminator 4
 3125 009a 12E0     		b	.L120
 3126              	.L125:
 919:main.c        ****             case 3:
 920:main.c        ****                 // ÊòæÁ§∫ÁîµÊûÅÂºïËÑöÁä∂ÊÄÅ
 921:main.c        ****                 sprintf(dataString, "A1:%d A2:%d A3:%d", 
 922:main.c        ****                         (int)AMP1_EN_Read(), 
 3127              		.loc 1 922 0
 3128 009c FFF7FEFF 		bl	AMP1_EN_Read
 3129 00a0 0300     		movs	r3, r0
 921:main.c        ****                         (int)AMP1_EN_Read(), 
 3130              		.loc 1 921 0
 3131 00a2 1C00     		movs	r4, r3
 923:main.c        ****                         (int)AMP2_EN_Read(), 
 3132              		.loc 1 923 0
 3133 00a4 FFF7FEFF 		bl	AMP2_EN_Read
 3134 00a8 0300     		movs	r3, r0
 921:main.c        ****                         (int)AMP1_EN_Read(), 
 3135              		.loc 1 921 0
 3136 00aa 1D00     		movs	r5, r3
 924:main.c        ****                         (int)AMP3_EN_Read());
 3137              		.loc 1 924 0
 3138 00ac FFF7FEFF 		bl	AMP3_EN_Read
 3139 00b0 0300     		movs	r3, r0
 921:main.c        ****                         (int)AMP1_EN_Read(), 
 3140              		.loc 1 921 0
ARM GAS  C:\Users\13740\AppData\Local\Temp\cckeVujV.s 			page 84


 3141 00b2 1E49     		ldr	r1, .L131+28
 3142 00b4 1948     		ldr	r0, .L131+12
 3143 00b6 0093     		str	r3, [sp]
 3144 00b8 2B00     		movs	r3, r5
 3145 00ba 2200     		movs	r2, r4
 3146 00bc FFF7FEFF 		bl	sprintf
 925:main.c        ****                 break;
 3147              		.loc 1 925 0
 3148 00c0 C046     		nop
 3149              	.L120:
 926:main.c        ****         }
 927:main.c        ****         diagStep++;
 3150              		.loc 1 927 0
 3151 00c2 144B     		ldr	r3, .L131+4
 3152 00c4 1B78     		ldrb	r3, [r3]
 3153 00c6 0133     		adds	r3, r3, #1
 3154 00c8 DAB2     		uxtb	r2, r3
 3155 00ca 124B     		ldr	r3, .L131+4
 3156 00cc 1A70     		strb	r2, [r3]
 928:main.c        ****         
 929:main.c        ****         notificationHandle.attrHandle = CYBLE_CUSTOM_SERVICE_LACTATE_CHAR_HANDLE;
 3157              		.loc 1 929 0
 3158 00ce 3B00     		movs	r3, r7
 3159 00d0 1222     		movs	r2, #18
 3160 00d2 1A81     		strh	r2, [r3, #8]
 930:main.c        ****         notificationHandle.value.val = (uint8*)dataString;
 3161              		.loc 1 930 0
 3162 00d4 3B00     		movs	r3, r7
 3163 00d6 114A     		ldr	r2, .L131+12
 3164 00d8 1A60     		str	r2, [r3]
 931:main.c        ****         notificationHandle.value.len = strlen(dataString);
 3165              		.loc 1 931 0
 3166 00da 104B     		ldr	r3, .L131+12
 3167 00dc 1800     		movs	r0, r3
 3168 00de FFF7FEFF 		bl	strlen
 3169 00e2 0300     		movs	r3, r0
 3170 00e4 9AB2     		uxth	r2, r3
 3171 00e6 3B00     		movs	r3, r7
 3172 00e8 9A80     		strh	r2, [r3, #4]
 932:main.c        ****         
 933:main.c        ****         if(CyBle_GattsNotification(cyBle_connHandle, &notificationHandle) == CYBLE_ERROR_OK)
 3173              		.loc 1 933 0
 3174 00ea 3900     		movs	r1, r7
 3175 00ec 104B     		ldr	r3, .L131+32
 3176 00ee 1A78     		ldrb	r2, [r3]
 3177 00f0 5B78     		ldrb	r3, [r3, #1]
 3178 00f2 1B02     		lsls	r3, r3, #8
 3179 00f4 1A43     		orrs	r2, r3
 3180 00f6 0023     		movs	r3, #0
 3181 00f8 1204     		lsls	r2, r2, #16
 3182 00fa 120C     		lsrs	r2, r2, #16
 3183 00fc 1B0C     		lsrs	r3, r3, #16
 3184 00fe 1B04     		lsls	r3, r3, #16
 3185 0100 1343     		orrs	r3, r2
 3186 0102 1800     		movs	r0, r3
 3187 0104 FFF7FEFF 		bl	CyBle_GattsNotification
 3188              	.L130:
ARM GAS  C:\Users\13740\AppData\Local\Temp\cckeVujV.s 			page 85


 934:main.c        ****         {
 935:main.c        ****         }
 936:main.c        ****     }
 937:main.c        **** }
 3189              		.loc 1 937 0
 3190 0108 C046     		nop
 3191 010a BD46     		mov	sp, r7
 3192 010c 06B0     		add	sp, sp, #24
 3193              		@ sp needed
 3194 010e B0BD     		pop	{r4, r5, r7, pc}
 3195              	.L132:
 3196              		.align	2
 3197              	.L131:
 3198 0110 00000000 		.word	cyBle_state
 3199 0114 4A040000 		.word	diagStep.9632
 3200 0118 34140000 		.word	.LC246
 3201 011c 4C040000 		.word	dataString.9631
 3202 0120 00000000 		.word	pAmpCfg
 3203 0124 40140000 		.word	.LC250
 3204 0128 48140000 		.word	.LC252
 3205 012c 54140000 		.word	.LC254
 3206 0130 00000000 		.word	cyBle_connHandle
 3207              		.cfi_endproc
 3208              	.LFE51:
 3209              		.size	SendLactateDataViaBLE, .-SendLactateDataViaBLE
 3210              		.section	.rodata
 3211 1466 0000     		.align	2
 3212              	.LC259:
 3213 1468 5350493A 		.ascii	"SPI:0x%lX Init:%d\000"
 3213      3078256C 
 3213      5820496E 
 3213      69743A25 
 3213      6400
 3214              		.section	.text.SendTemperatureViaBLE,"ax",%progbits
 3215              		.align	2
 3216              		.global	SendTemperatureViaBLE
 3217              		.code	16
 3218              		.thumb_func
 3219              		.type	SendTemperatureViaBLE, %function
 3220              	SendTemperatureViaBLE:
 3221              	.LFB52:
 938:main.c        **** 
 939:main.c        **** // ÂèëÈÄÅÊ∏©Â∫¶Êï∞ÊçÆÔºàÊîπ‰∏∫ËäØÁâáÁä∂ÊÄÅËØäÊñ≠Ôºâ
 940:main.c        **** void SendTemperatureViaBLE(void)
 941:main.c        **** {
 3222              		.loc 1 941 0
 3223              		.cfi_startproc
 3224              		@ args = 0, pretend = 0, frame = 24
 3225              		@ frame_needed = 1, uses_anonymous_args = 0
 3226 0000 80B5     		push	{r7, lr}
 3227              		.cfi_def_cfa_offset 8
 3228              		.cfi_offset 7, -8
 3229              		.cfi_offset 14, -4
 3230 0002 86B0     		sub	sp, sp, #24
 3231              		.cfi_def_cfa_offset 32
 3232 0004 00AF     		add	r7, sp, #0
 3233              		.cfi_def_cfa_register 7
ARM GAS  C:\Users\13740\AppData\Local\Temp\cckeVujV.s 			page 86


 942:main.c        ****     CYBLE_GATTS_HANDLE_VALUE_NTF_T notificationHandle;
 943:main.c        ****     static char tempString[40];
 944:main.c        ****     
 945:main.c        ****     if(CyBle_GetState() == CYBLE_STATE_CONNECTED)
 3234              		.loc 1 945 0
 3235 0006 214B     		ldr	r3, .L137
 3236 0008 1B78     		ldrb	r3, [r3]
 3237 000a 022B     		cmp	r3, #2
 3238 000c 3AD1     		bne	.L136
 3239              	.LBB4:
 946:main.c        ****     {
 947:main.c        ****         // ËØªÂèñ SPI ÂØÑÂ≠òÂô®Ê£ÄÊü•ËäØÁâáÁä∂ÊÄÅ
 948:main.c        ****         uint32 regValue = AD5940_ReadReg(REG_AFE_AFECON);
 3240              		.loc 1 948 0
 3241 000e 8023     		movs	r3, #128
 3242 0010 9B01     		lsls	r3, r3, #6
 3243 0012 1800     		movs	r0, r3
 3244 0014 FFF7FEFF 		bl	AD5940_ReadReg
 3245 0018 0300     		movs	r3, r0
 3246 001a 3B61     		str	r3, [r7, #16]
 949:main.c        ****         uint8 initStatus = 0;
 3247              		.loc 1 949 0
 3248 001c 1723     		movs	r3, #23
 3249 001e FB18     		adds	r3, r7, r3
 3250 0020 0022     		movs	r2, #0
 3251 0022 1A70     		strb	r2, [r3]
 950:main.c        ****         
 951:main.c        ****         // Ê£ÄÊü• pAmpCfg ÊåáÈíàÊòØÂê¶ÊúâÊïà
 952:main.c        ****         if(pAmpCfg != NULL)
 3252              		.loc 1 952 0
 3253 0024 1A4B     		ldr	r3, .L137+4
 3254 0026 1B68     		ldr	r3, [r3]
 3255 0028 002B     		cmp	r3, #0
 3256 002a 06D0     		beq	.L135
 953:main.c        ****         {
 954:main.c        ****             initStatus = (uint8)pAmpCfg->AMPInited;
 3257              		.loc 1 954 0
 3258 002c 184B     		ldr	r3, .L137+4
 3259 002e 1A68     		ldr	r2, [r3]
 3260 0030 1723     		movs	r3, #23
 3261 0032 FB18     		adds	r3, r7, r3
 3262 0034 6C21     		movs	r1, #108
 3263 0036 525C     		ldrb	r2, [r2, r1]
 3264 0038 1A70     		strb	r2, [r3]
 3265              	.L135:
 955:main.c        ****         }
 956:main.c        ****         
 957:main.c        ****         // ÊòæÁ§∫ SPI ÂØÑÂ≠òÂô®ÂÄº + ÂàùÂßãÂåñÁä∂ÊÄÅ
 958:main.c        ****         sprintf(tempString, "SPI:0x%lX Init:%d", 
 3266              		.loc 1 958 0
 3267 003a 1723     		movs	r3, #23
 3268 003c FB18     		adds	r3, r7, r3
 3269 003e 1B78     		ldrb	r3, [r3]
 3270 0040 3A69     		ldr	r2, [r7, #16]
 3271 0042 1449     		ldr	r1, .L137+8
 3272 0044 1448     		ldr	r0, .L137+12
 3273 0046 FFF7FEFF 		bl	sprintf
ARM GAS  C:\Users\13740\AppData\Local\Temp\cckeVujV.s 			page 87


 959:main.c        ****                 (unsigned long)regValue,
 960:main.c        ****                 (int)initStatus);
 961:main.c        ****         
 962:main.c        ****         notificationHandle.attrHandle = CYBLE_CUSTOM_SERVICE_LACTATE_CHAR_HANDLE;
 3274              		.loc 1 962 0
 3275 004a 3B1D     		adds	r3, r7, #4
 3276 004c 1222     		movs	r2, #18
 3277 004e 1A81     		strh	r2, [r3, #8]
 963:main.c        ****         notificationHandle.value.val = (uint8*)tempString;
 3278              		.loc 1 963 0
 3279 0050 3B1D     		adds	r3, r7, #4
 3280 0052 114A     		ldr	r2, .L137+12
 3281 0054 1A60     		str	r2, [r3]
 964:main.c        ****         notificationHandle.value.len = strlen(tempString);
 3282              		.loc 1 964 0
 3283 0056 104B     		ldr	r3, .L137+12
 3284 0058 1800     		movs	r0, r3
 3285 005a FFF7FEFF 		bl	strlen
 3286 005e 0300     		movs	r3, r0
 3287 0060 9AB2     		uxth	r2, r3
 3288 0062 3B1D     		adds	r3, r7, #4
 3289 0064 9A80     		strh	r2, [r3, #4]
 965:main.c        ****         
 966:main.c        ****         CyBle_GattsNotification(cyBle_connHandle, &notificationHandle);
 3290              		.loc 1 966 0
 3291 0066 391D     		adds	r1, r7, #4
 3292 0068 0C4B     		ldr	r3, .L137+16
 3293 006a 1A78     		ldrb	r2, [r3]
 3294 006c 5B78     		ldrb	r3, [r3, #1]
 3295 006e 1B02     		lsls	r3, r3, #8
 3296 0070 1A43     		orrs	r2, r3
 3297 0072 0023     		movs	r3, #0
 3298 0074 1204     		lsls	r2, r2, #16
 3299 0076 120C     		lsrs	r2, r2, #16
 3300 0078 1B0C     		lsrs	r3, r3, #16
 3301 007a 1B04     		lsls	r3, r3, #16
 3302 007c 1343     		orrs	r3, r2
 3303 007e 1800     		movs	r0, r3
 3304 0080 FFF7FEFF 		bl	CyBle_GattsNotification
 3305              	.L136:
 3306              	.LBE4:
 967:main.c        ****     }
 968:main.c        **** }
 3307              		.loc 1 968 0
 3308 0084 C046     		nop
 3309 0086 BD46     		mov	sp, r7
 3310 0088 06B0     		add	sp, sp, #24
 3311              		@ sp needed
 3312 008a 80BD     		pop	{r7, pc}
 3313              	.L138:
 3314              		.align	2
 3315              	.L137:
 3316 008c 00000000 		.word	cyBle_state
 3317 0090 00000000 		.word	pAmpCfg
 3318 0094 68140000 		.word	.LC259
 3319 0098 74040000 		.word	tempString.9645
 3320 009c 00000000 		.word	cyBle_connHandle
ARM GAS  C:\Users\13740\AppData\Local\Temp\cckeVujV.s 			page 88


 3321              		.cfi_endproc
 3322              	.LFE52:
 3323              		.size	SendTemperatureViaBLE, .-SendTemperatureViaBLE
 3324              		.section	.text.SendAllSensorDataViaBLE,"ax",%progbits
 3325              		.align	2
 3326              		.global	SendAllSensorDataViaBLE
 3327              		.code	16
 3328              		.thumb_func
 3329              		.type	SendAllSensorDataViaBLE, %function
 3330              	SendAllSensorDataViaBLE:
 3331              	.LFB53:
 969:main.c        **** 
 970:main.c        **** 
 971:main.c        **** 
 972:main.c        **** 
 973:main.c        **** 
 974:main.c        **** 
 975:main.c        **** 
 976:main.c        **** 
 977:main.c        **** /*******************************************************************************
 978:main.c        **** * Function Name: SendAllSensorDataViaBLE
 979:main.c        **** ********************************************************************************
 980:main.c        **** * Summary:
 981:main.c        **** *   ÂèëÈÄÅÊâÄÊúâ‰º†ÊÑüÂô®Êï∞ÊçÆÔºàÂåÖÂê´ÁîµÊµÅÂÄºÔºâ
 982:main.c        **** *******************************************************************************/
 983:main.c        **** void SendAllSensorDataViaBLE(void)
 984:main.c        **** {
 3332              		.loc 1 984 0
 3333              		.cfi_startproc
 3334              		@ args = 0, pretend = 0, frame = 0
 3335              		@ frame_needed = 1, uses_anonymous_args = 0
 3336 0000 80B5     		push	{r7, lr}
 3337              		.cfi_def_cfa_offset 8
 3338              		.cfi_offset 7, -8
 3339              		.cfi_offset 14, -4
 3340 0002 00AF     		add	r7, sp, #0
 3341              		.cfi_def_cfa_register 7
 985:main.c        ****     if(CyBle_GetState() == CYBLE_STATE_CONNECTED)
 3342              		.loc 1 985 0
 3343 0004 0A4B     		ldr	r3, .L142
 3344 0006 1B78     		ldrb	r3, [r3]
 3345 0008 022B     		cmp	r3, #2
 3346 000a 0ED1     		bne	.L141
 986:main.c        ****     {
 987:main.c        ****         
 988:main.c        ****         SendTemperatureViaBLE();
 3347              		.loc 1 988 0
 3348 000c FFF7FEFF 		bl	SendTemperatureViaBLE
 989:main.c        ****         CyDelay(50);
 3349              		.loc 1 989 0
 3350 0010 3220     		movs	r0, #50
 3351 0012 FFF7FEFF 		bl	CyDelay
 990:main.c        ****         
 991:main.c        ****         SendGlucoseDataViaBLE();  // ÂåÖÂê´ÁîµÊµÅÂÄº
 3352              		.loc 1 991 0
 3353 0016 FFF7FEFF 		bl	SendGlucoseDataViaBLE
 992:main.c        ****         CyDelay(50);
ARM GAS  C:\Users\13740\AppData\Local\Temp\cckeVujV.s 			page 89


 3354              		.loc 1 992 0
 3355 001a 3220     		movs	r0, #50
 3356 001c FFF7FEFF 		bl	CyDelay
 993:main.c        ****         
 994:main.c        ****         SendLactateDataViaBLE();  // ÂåÖÂê´ÁîµÊµÅÂÄº
 3357              		.loc 1 994 0
 3358 0020 FFF7FEFF 		bl	SendLactateDataViaBLE
 995:main.c        ****         CyDelay(50);
 3359              		.loc 1 995 0
 3360 0024 3220     		movs	r0, #50
 3361 0026 FFF7FEFF 		bl	CyDelay
 3362              	.L141:
 996:main.c        ****         
 997:main.c        ****        
 998:main.c        ****     }
 999:main.c        **** }
 3363              		.loc 1 999 0
 3364 002a C046     		nop
 3365 002c BD46     		mov	sp, r7
 3366              		@ sp needed
 3367 002e 80BD     		pop	{r7, pc}
 3368              	.L143:
 3369              		.align	2
 3370              	.L142:
 3371 0030 00000000 		.word	cyBle_state
 3372              		.cfi_endproc
 3373              	.LFE53:
 3374              		.size	SendAllSensorDataViaBLE, .-SendAllSensorDataViaBLE
 3375              		.section	.text.Timer_Interrupt,"ax",%progbits
 3376              		.align	2
 3377              		.global	Timer_Interrupt
 3378              		.code	16
 3379              		.thumb_func
 3380              		.type	Timer_Interrupt, %function
 3381              	Timer_Interrupt:
 3382              	.LFB54:
1000:main.c        **** 
1001:main.c        **** /*******************************************************************************
1002:main.c        **** * Function Name: Timer_Interrupt
1003:main.c        **** ********************************************************************************
1004:main.c        **** * Summary:
1005:main.c        **** *   ÂÆöÊó∂Âô®‰∏≠Êñ≠ - ÊØèÁßíËß¶Âèë‰∏ÄÊ¨°
1006:main.c        **** *******************************************************************************/
1007:main.c        **** CY_ISR(Timer_Interrupt)
1008:main.c        **** {
 3383              		.loc 1 1008 0
 3384              		.cfi_startproc
 3385              		@ args = 0, pretend = 0, frame = 0
 3386              		@ frame_needed = 1, uses_anonymous_args = 0
 3387 0000 80B5     		push	{r7, lr}
 3388              		.cfi_def_cfa_offset 8
 3389              		.cfi_offset 7, -8
 3390              		.cfi_offset 14, -4
 3391 0002 00AF     		add	r7, sp, #0
 3392              		.cfi_def_cfa_register 7
1009:main.c        ****     static uint8 led = LED_OFF;
1010:main.c        ****     
ARM GAS  C:\Users\13740\AppData\Local\Temp\cckeVujV.s 			page 90


1011:main.c        ****     if(CYBLE_STATE_ADVERTISING == CyBle_GetState())
 3393              		.loc 1 1011 0
 3394 0004 0D4B     		ldr	r3, .L146
 3395 0006 1B78     		ldrb	r3, [r3]
 3396 0008 032B     		cmp	r3, #3
 3397 000a 0BD1     		bne	.L145
1012:main.c        ****     {
1013:main.c        ****         led ^= LED_OFF;
 3398              		.loc 1 1013 0
 3399 000c 0C4B     		ldr	r3, .L146+4
 3400 000e 1B78     		ldrb	r3, [r3]
 3401 0010 0122     		movs	r2, #1
 3402 0012 5340     		eors	r3, r2
 3403 0014 DAB2     		uxtb	r2, r3
 3404 0016 0A4B     		ldr	r3, .L146+4
 3405 0018 1A70     		strb	r2, [r3]
1014:main.c        ****         Advertising_LED_Write(led);
 3406              		.loc 1 1014 0
 3407 001a 094B     		ldr	r3, .L146+4
 3408 001c 1B78     		ldrb	r3, [r3]
 3409 001e 1800     		movs	r0, r3
 3410 0020 FFF7FEFF 		bl	Advertising_LED_Write
 3411              	.L145:
1015:main.c        ****     }
1016:main.c        ****     
1017:main.c        ****     mainTimer++;
 3412              		.loc 1 1017 0
 3413 0024 074B     		ldr	r3, .L146+8
 3414 0026 1B68     		ldr	r3, [r3]
 3415 0028 5A1C     		adds	r2, r3, #1
 3416 002a 064B     		ldr	r3, .L146+8
 3417 002c 1A60     		str	r2, [r3]
1018:main.c        ****     measurementFlag = 1;  // ÊØèÁßíËÆæÁΩÆÊµãÈáèÊ†áÂøó
 3418              		.loc 1 1018 0
 3419 002e 064B     		ldr	r3, .L146+12
 3420 0030 0122     		movs	r2, #1
 3421 0032 1A70     		strb	r2, [r3]
1019:main.c        **** }
 3422              		.loc 1 1019 0
 3423 0034 C046     		nop
 3424 0036 BD46     		mov	sp, r7
 3425              		@ sp needed
 3426 0038 80BD     		pop	{r7, pc}
 3427              	.L147:
 3428 003a C046     		.align	2
 3429              	.L146:
 3430 003c 00000000 		.word	cyBle_state
 3431 0040 00000000 		.word	led.9654
 3432 0044 00000000 		.word	mainTimer
 3433 0048 00000000 		.word	measurementFlag
 3434              		.cfi_endproc
 3435              	.LFE54:
 3436              		.size	Timer_Interrupt, .-Timer_Interrupt
 3437              		.section	.text.AppCallBack,"ax",%progbits
 3438              		.align	2
 3439              		.global	AppCallBack
 3440              		.code	16
ARM GAS  C:\Users\13740\AppData\Local\Temp\cckeVujV.s 			page 91


 3441              		.thumb_func
 3442              		.type	AppCallBack, %function
 3443              	AppCallBack:
 3444              	.LFB55:
1020:main.c        **** 
1021:main.c        **** /*******************************************************************************
1022:main.c        **** * Function Name: AppCallBack
1023:main.c        **** ********************************************************************************
1024:main.c        **** * Summary:
1025:main.c        **** *   BLE‰∫ã‰ª∂ÂõûË∞ÉÂáΩÊï∞
1026:main.c        **** *******************************************************************************/
1027:main.c        **** void AppCallBack(uint32 event, void* eventParam)
1028:main.c        **** {
 3445              		.loc 1 1028 0
 3446              		.cfi_startproc
 3447              		@ args = 0, pretend = 0, frame = 8
 3448              		@ frame_needed = 1, uses_anonymous_args = 0
 3449 0000 80B5     		push	{r7, lr}
 3450              		.cfi_def_cfa_offset 8
 3451              		.cfi_offset 7, -8
 3452              		.cfi_offset 14, -4
 3453 0002 82B0     		sub	sp, sp, #8
 3454              		.cfi_def_cfa_offset 16
 3455 0004 00AF     		add	r7, sp, #0
 3456              		.cfi_def_cfa_register 7
 3457 0006 7860     		str	r0, [r7, #4]
 3458 0008 3960     		str	r1, [r7]
1029:main.c        ****     uint16 i;
1030:main.c        ****     
1031:main.c        ****     switch(event)
 3459              		.loc 1 1031 0
 3460 000a 7B68     		ldr	r3, [r7, #4]
 3461 000c 272B     		cmp	r3, #39
 3462 000e 0DD0     		beq	.L150
 3463 0010 04D8     		bhi	.L151
 3464 0012 012B     		cmp	r3, #1
 3465 0014 07D0     		beq	.L152
 3466 0016 262B     		cmp	r3, #38
 3467 0018 12D0     		beq	.L153
1032:main.c        ****     {
1033:main.c        ****         case CYBLE_EVT_STACK_ON:
1034:main.c        ****             StartAdvertisement();
1035:main.c        ****             break;
1036:main.c        **** 
1037:main.c        ****         case CYBLE_EVT_GAP_DEVICE_CONNECTED:
1038:main.c        ****             Advertising_LED_Write(LED_OFF);
1039:main.c        ****             break;
1040:main.c        **** 
1041:main.c        ****         case CYBLE_EVT_GAP_DEVICE_DISCONNECTED:
1042:main.c        ****             StartAdvertisement();
1043:main.c        ****             LowPower_LED_Write(LED_OFF);
1044:main.c        ****             break;
1045:main.c        ****             
1046:main.c        ****         case CYBLE_EVT_GAPP_ADVERTISEMENT_START_STOP:
1047:main.c        ****             if(CYBLE_STATE_DISCONNECTED == CyBle_GetState())
1048:main.c        ****             {
1049:main.c        ****                 Advertising_LED_Write(LED_OFF);
ARM GAS  C:\Users\13740\AppData\Local\Temp\cckeVujV.s 			page 92


1050:main.c        ****                 Disconnect_LED_Write(LED_ON);
1051:main.c        ****                 LowPower_LED_Write(LED_OFF);
1052:main.c        ****                 
1053:main.c        ****                 // Ê∏ÖÈô§‰∏≠Êñ≠Âπ∂ËøõÂÖ•‰ºëÁú†
1054:main.c        ****                 AD5940_EXTI_ClearInterrupt();
1055:main.c        ****                 AD5940_Interrupt_ClearPending();
1056:main.c        ****                 AD5940_Interrupt_Start();
1057:main.c        ****                 CySysPmHibernate();
1058:main.c        ****             }
1059:main.c        ****             break;
1060:main.c        **** 
1061:main.c        ****         case CYBLE_EVT_PENDING_FLASH_WRITE:
1062:main.c        ****             break;
1063:main.c        **** 
1064:main.c        ****         default:
1065:main.c        ****             break;
 3468              		.loc 1 1065 0
 3469 001a 2AE0     		b	.L156
 3470              	.L151:
1031:main.c        ****     {
 3471              		.loc 1 1031 0
 3472 001c 282B     		cmp	r3, #40
 3473 001e 09D0     		beq	.L154
 3474 0020 FA2B     		cmp	r3, #250
 3475 0022 23D0     		beq	.L158
 3476              		.loc 1 1065 0
 3477 0024 25E0     		b	.L156
 3478              	.L152:
1034:main.c        ****             break;
 3479              		.loc 1 1034 0
 3480 0026 FFF7FEFF 		bl	StartAdvertisement
1035:main.c        **** 
 3481              		.loc 1 1035 0
 3482 002a 22E0     		b	.L156
 3483              	.L150:
1038:main.c        ****             break;
 3484              		.loc 1 1038 0
 3485 002c 0120     		movs	r0, #1
 3486 002e FFF7FEFF 		bl	Advertising_LED_Write
1039:main.c        **** 
 3487              		.loc 1 1039 0
 3488 0032 1EE0     		b	.L156
 3489              	.L154:
1042:main.c        ****             LowPower_LED_Write(LED_OFF);
 3490              		.loc 1 1042 0
 3491 0034 FFF7FEFF 		bl	StartAdvertisement
1043:main.c        ****             break;
 3492              		.loc 1 1043 0
 3493 0038 0120     		movs	r0, #1
 3494 003a FFF7FEFF 		bl	LowPower_LED_Write
1044:main.c        ****             
 3495              		.loc 1 1044 0
 3496 003e 18E0     		b	.L156
 3497              	.L153:
1047:main.c        ****             {
 3498              		.loc 1 1047 0
 3499 0040 0E4B     		ldr	r3, .L160
ARM GAS  C:\Users\13740\AppData\Local\Temp\cckeVujV.s 			page 93


 3500 0042 1B78     		ldrb	r3, [r3]
 3501 0044 042B     		cmp	r3, #4
 3502 0046 13D1     		bne	.L159
1049:main.c        ****                 Disconnect_LED_Write(LED_ON);
 3503              		.loc 1 1049 0
 3504 0048 0120     		movs	r0, #1
 3505 004a FFF7FEFF 		bl	Advertising_LED_Write
1050:main.c        ****                 LowPower_LED_Write(LED_OFF);
 3506              		.loc 1 1050 0
 3507 004e 0020     		movs	r0, #0
 3508 0050 FFF7FEFF 		bl	Disconnect_LED_Write
1051:main.c        ****                 
 3509              		.loc 1 1051 0
 3510 0054 0120     		movs	r0, #1
 3511 0056 FFF7FEFF 		bl	LowPower_LED_Write
1054:main.c        ****                 AD5940_Interrupt_ClearPending();
 3512              		.loc 1 1054 0
 3513 005a FFF7FEFF 		bl	AD5940_EXTI_ClearInterrupt
1055:main.c        ****                 AD5940_Interrupt_Start();
 3514              		.loc 1 1055 0
 3515 005e FFF7FEFF 		bl	AD5940_Interrupt_ClearPending
1056:main.c        ****                 CySysPmHibernate();
 3516              		.loc 1 1056 0
 3517 0062 FFF7FEFF 		bl	AD5940_Interrupt_Start
1057:main.c        ****             }
 3518              		.loc 1 1057 0
 3519 0066 FFF7FEFF 		bl	CySysPmHibernate
1059:main.c        **** 
 3520              		.loc 1 1059 0
 3521 006a 01E0     		b	.L159
 3522              	.L158:
1062:main.c        **** 
 3523              		.loc 1 1062 0
 3524 006c C046     		nop
 3525 006e 00E0     		b	.L156
 3526              	.L159:
1059:main.c        **** 
 3527              		.loc 1 1059 0
 3528 0070 C046     		nop
 3529              	.L156:
1066:main.c        ****     }
1067:main.c        **** }
 3530              		.loc 1 1067 0
 3531 0072 C046     		nop
 3532 0074 BD46     		mov	sp, r7
 3533 0076 02B0     		add	sp, sp, #8
 3534              		@ sp needed
 3535 0078 80BD     		pop	{r7, pc}
 3536              	.L161:
 3537 007a C046     		.align	2
 3538              	.L160:
 3539 007c 00000000 		.word	cyBle_state
 3540              		.cfi_endproc
 3541              	.LFE55:
 3542              		.size	AppCallBack, .-AppCallBack
 3543              		.section	.text.LowPowerImplementation,"ax",%progbits
 3544              		.align	2
ARM GAS  C:\Users\13740\AppData\Local\Temp\cckeVujV.s 			page 94


 3545              		.code	16
 3546              		.thumb_func
 3547              		.type	LowPowerImplementation, %function
 3548              	LowPowerImplementation:
 3549              	.LFB56:
1068:main.c        **** 
1069:main.c        **** /*******************************************************************************
1070:main.c        **** * Function Name: LowPowerImplementation
1071:main.c        **** ********************************************************************************
1072:main.c        **** * Summary:
1073:main.c        **** *   ‰ΩéÂäüËÄóÂÆûÁé∞
1074:main.c        **** *******************************************************************************/
1075:main.c        **** static void LowPowerImplementation(void)
1076:main.c        **** {
 3550              		.loc 1 1076 0
 3551              		.cfi_startproc
 3552              		@ args = 0, pretend = 0, frame = 8
 3553              		@ frame_needed = 1, uses_anonymous_args = 0
 3554 0000 90B5     		push	{r4, r7, lr}
 3555              		.cfi_def_cfa_offset 12
 3556              		.cfi_offset 4, -12
 3557              		.cfi_offset 7, -8
 3558              		.cfi_offset 14, -4
 3559 0002 83B0     		sub	sp, sp, #12
 3560              		.cfi_def_cfa_offset 24
 3561 0004 00AF     		add	r7, sp, #0
 3562              		.cfi_def_cfa_register 7
1077:main.c        ****     CYBLE_LP_MODE_T bleMode;
1078:main.c        ****     uint8 interruptStatus;
1079:main.c        ****     
1080:main.c        ****     if((CyBle_GetState() == CYBLE_STATE_ADVERTISING) || 
 3563              		.loc 1 1080 0
 3564 0006 1A4B     		ldr	r3, .L170
 3565 0008 1B78     		ldrb	r3, [r3]
 3566 000a 032B     		cmp	r3, #3
 3567 000c 03D0     		beq	.L163
1081:main.c        ****        (CyBle_GetState() == CYBLE_STATE_CONNECTED))
 3568              		.loc 1 1081 0 discriminator 1
 3569 000e 184B     		ldr	r3, .L170
 3570 0010 1B78     		ldrb	r3, [r3]
1080:main.c        ****        (CyBle_GetState() == CYBLE_STATE_CONNECTED))
 3571              		.loc 1 1080 0 discriminator 1
 3572 0012 022B     		cmp	r3, #2
 3573 0014 27D1     		bne	.L169
 3574              	.L163:
1082:main.c        ****     {
1083:main.c        ****         bleMode = CyBle_EnterLPM(CYBLE_BLESS_DEEPSLEEP);
 3575              		.loc 1 1083 0
 3576 0016 FC1D     		adds	r4, r7, #7
 3577 0018 0320     		movs	r0, #3
 3578 001a FFF7FEFF 		bl	CyBle_EnterLPM
 3579 001e 0300     		movs	r3, r0
 3580 0020 2370     		strb	r3, [r4]
1084:main.c        ****         interruptStatus = CyEnterCriticalSection();
 3581              		.loc 1 1084 0
 3582 0022 BC1D     		adds	r4, r7, #6
 3583 0024 FFF7FEFF 		bl	CyEnterCriticalSection
ARM GAS  C:\Users\13740\AppData\Local\Temp\cckeVujV.s 			page 95


 3584 0028 0300     		movs	r3, r0
 3585 002a 2370     		strb	r3, [r4]
1085:main.c        ****         
1086:main.c        ****         if(bleMode == CYBLE_BLESS_DEEPSLEEP)
 3586              		.loc 1 1086 0
 3587 002c FB1D     		adds	r3, r7, #7
 3588 002e 1B78     		ldrb	r3, [r3]
 3589 0030 032B     		cmp	r3, #3
 3590 0032 0CD1     		bne	.L165
1087:main.c        ****         {
1088:main.c        ****             if((CyBle_GetBleSsState() == CYBLE_BLESS_STATE_ECO_ON) || 
 3591              		.loc 1 1088 0
 3592 0034 FFF7FEFF 		bl	CyBle_GetBleSsState
 3593 0038 0300     		movs	r3, r0
 3594 003a 042B     		cmp	r3, #4
 3595 003c 04D0     		beq	.L166
1089:main.c        ****                (CyBle_GetBleSsState() == CYBLE_BLESS_STATE_DEEPSLEEP))
 3596              		.loc 1 1089 0 discriminator 1
 3597 003e FFF7FEFF 		bl	CyBle_GetBleSsState
 3598 0042 0300     		movs	r3, r0
1088:main.c        ****                (CyBle_GetBleSsState() == CYBLE_BLESS_STATE_DEEPSLEEP))
 3599              		.loc 1 1088 0 discriminator 1
 3600 0044 062B     		cmp	r3, #6
 3601 0046 09D1     		bne	.L168
 3602              	.L166:
1090:main.c        ****             {
1091:main.c        ****                 CySysPmDeepSleep();
 3603              		.loc 1 1091 0
 3604 0048 FFF7FEFF 		bl	CySysPmDeepSleep
 3605 004c 06E0     		b	.L168
 3606              	.L165:
1092:main.c        ****             }
1093:main.c        ****         }
1094:main.c        ****         else
1095:main.c        ****         {
1096:main.c        ****             if(CyBle_GetBleSsState() != CYBLE_BLESS_STATE_EVENT_CLOSE)
 3607              		.loc 1 1096 0
 3608 004e FFF7FEFF 		bl	CyBle_GetBleSsState
 3609 0052 0300     		movs	r3, r0
 3610 0054 022B     		cmp	r3, #2
 3611 0056 01D0     		beq	.L168
1097:main.c        ****             {
1098:main.c        ****                 CySysPmSleep();
 3612              		.loc 1 1098 0
 3613 0058 FFF7FEFF 		bl	CySysPmSleep
 3614              	.L168:
1099:main.c        ****             }
1100:main.c        ****         }
1101:main.c        ****         
1102:main.c        ****         CyExitCriticalSection(interruptStatus);
 3615              		.loc 1 1102 0
 3616 005c BB1D     		adds	r3, r7, #6
 3617 005e 1B78     		ldrb	r3, [r3]
 3618 0060 1800     		movs	r0, r3
 3619 0062 FFF7FEFF 		bl	CyExitCriticalSection
 3620              	.L169:
1103:main.c        ****     }
ARM GAS  C:\Users\13740\AppData\Local\Temp\cckeVujV.s 			page 96


1104:main.c        **** }
 3621              		.loc 1 1104 0
 3622 0066 C046     		nop
 3623 0068 BD46     		mov	sp, r7
 3624 006a 03B0     		add	sp, sp, #12
 3625              		@ sp needed
 3626 006c 90BD     		pop	{r4, r7, pc}
 3627              	.L171:
 3628 006e C046     		.align	2
 3629              	.L170:
 3630 0070 00000000 		.word	cyBle_state
 3631              		.cfi_endproc
 3632              	.LFE56:
 3633              		.size	LowPowerImplementation, .-LowPowerImplementation
 3634              		.section	.text.AD5941_HardReset,"ax",%progbits
 3635              		.align	2
 3636              		.global	AD5941_HardReset
 3637              		.code	16
 3638              		.thumb_func
 3639              		.type	AD5941_HardReset, %function
 3640              	AD5941_HardReset:
 3641              	.LFB57:
1105:main.c        **** 
1106:main.c        **** void AD5941_HardReset(void)
1107:main.c        **** {
 3642              		.loc 1 1107 0
 3643              		.cfi_startproc
 3644              		@ args = 0, pretend = 0, frame = 0
 3645              		@ frame_needed = 1, uses_anonymous_args = 0
 3646 0000 80B5     		push	{r7, lr}
 3647              		.cfi_def_cfa_offset 8
 3648              		.cfi_offset 7, -8
 3649              		.cfi_offset 14, -4
 3650 0002 00AF     		add	r7, sp, #0
 3651              		.cfi_def_cfa_register 7
1108:main.c        ****     AD5940_RST_Write(0);
 3652              		.loc 1 1108 0
 3653 0004 0020     		movs	r0, #0
 3654 0006 FFF7FEFF 		bl	AD5940_RST_Write
1109:main.c        ****     CyDelay(20);          // ‚â•10ms
 3655              		.loc 1 1109 0
 3656 000a 1420     		movs	r0, #20
 3657 000c FFF7FEFF 		bl	CyDelay
1110:main.c        ****     AD5940_RST_Write(1);
 3658              		.loc 1 1110 0
 3659 0010 0120     		movs	r0, #1
 3660 0012 FFF7FEFF 		bl	AD5940_RST_Write
1111:main.c        ****     CyDelay(100);         // ‚â•50msÔºåÁªôË∂≥
 3661              		.loc 1 1111 0
 3662 0016 6420     		movs	r0, #100
 3663 0018 FFF7FEFF 		bl	CyDelay
1112:main.c        **** }
 3664              		.loc 1 1112 0
 3665 001c C046     		nop
 3666 001e BD46     		mov	sp, r7
 3667              		@ sp needed
 3668 0020 80BD     		pop	{r7, pc}
ARM GAS  C:\Users\13740\AppData\Local\Temp\cckeVujV.s 			page 97


 3669              		.cfi_endproc
 3670              	.LFE57:
 3671              		.size	AD5941_HardReset, .-AD5941_HardReset
 3672 0022 C046     		.section	.rodata
 3673 147a 0000     		.align	2
 3674              	.LC270:
 3675 147c 0A2A2A2A 		.ascii	"\012*** SYSTEM STARTUP ***\000"
 3675      20535953 
 3675      54454D20 
 3675      53544152 
 3675      54555020 
 3676              		.align	2
 3677              	.LC274:
 3678 1494 5B455252 		.ascii	"[ERROR] BLE initialization failed\000"
 3678      4F525D20 
 3678      424C4520 
 3678      696E6974 
 3678      69616C69 
 3679 14b6 0000     		.align	2
 3680              	.LC276:
 3681 14b8 5B4F4B5D 		.ascii	"[OK] BLE initialized\000"
 3681      20424C45 
 3681      20696E69 
 3681      7469616C 
 3681      697A6564 
 3682 14cd 000000   		.align	2
 3683              	.LC278:
 3684 14d0 5B494E46 		.ascii	"[INFO] Initializing Software SPI on GPIO pins...\000"
 3684      4F5D2049 
 3684      6E697469 
 3684      616C697A 
 3684      696E6720 
 3685 1501 000000   		.align	2
 3686              	.LC280:
 3687 1504 5B4F4B5D 		.ascii	"[OK] Software SPI initialized\000"
 3687      20536F66 
 3687      74776172 
 3687      65205350 
 3687      4920696E 
 3688 1522 0000     		.align	2
 3689              	.LC282:
 3690 1524 0A5B4449 		.ascii	"\012[DIAGNOSTIC] Software SPI GPIO Pin Status:\000"
 3690      41474E4F 
 3690      53544943 
 3690      5D20536F 
 3690      66747761 
 3691              		.align	2
 3692              	.LC284:
 3693 1550 20205343 		.ascii	"  SCLK (P1.7): %d (should be 1 at idle)\012\000"
 3693      4C4B2028 
 3693      50312E37 
 3693      293A2025 
 3693      64202873 
 3694 1579 000000   		.align	2
 3695              	.LC286:
 3696 157c 20204D4F 		.ascii	"  MOSI (P0.4): %d\012\000"
 3696      53492028 
ARM GAS  C:\Users\13740\AppData\Local\Temp\cckeVujV.s 			page 98


 3696      50302E34 
 3696      293A2025 
 3696      640A00
 3697 158f 00       		.align	2
 3698              	.LC288:
 3699 1590 20204D49 		.ascii	"  MISO (P0.5): %d\012\000"
 3699      534F2028 
 3699      50302E35 
 3699      293A2025 
 3699      640A00
 3700 15a3 00       		.align	2
 3701              	.LC290:
 3702 15a4 20204353 		.ascii	"  CS   (P?.?): %d (should be 1 at idle)\012\000"
 3702      20202028 
 3702      503F2E3F 
 3702      293A2025 
 3702      64202873 
 3703 15cd 000000   		.align	2
 3704              	.LC292:
 3705 15d0 0A5B4449 		.ascii	"\012[DIAGNOSTIC] SCLK Toggle Test:\000"
 3705      41474E4F 
 3705      53544943 
 3705      5D205343 
 3705      4C4B2054 
 3706              		.align	2
 3707              	.LC294:
 3708 15f0 20205343 		.ascii	"  SCLK Low: %d (expect 0)\012\000"
 3708      4C4B204C 
 3708      6F773A20 
 3708      25642028 
 3708      65787065 
 3709 160b 00       		.align	2
 3710              	.LC296:
 3711 160c 20205343 		.ascii	"  SCLK High: %d (expect 1)\012\000"
 3711      4C4B2048 
 3711      6967683A 
 3711      20256420 
 3711      28657870 
 3712              		.align	2
 3713              	.LC298:
 3714 1628 2020E29C 		.ascii	"  \342\234\205 SCLK can toggle correctly!\000"
 3714      85205343 
 3714      4C4B2063 
 3714      616E2074 
 3714      6F67676C 
 3715 1649 000000   		.align	2
 3716              	.LC300:
 3717 164c 2020E29D 		.ascii	"  \342\235\214 SCLK toggle test FAILED - pin may be"
 3717      8C205343 
 3717      4C4B2074 
 3717      6F67676C 
 3717      65207465 
 3718 1676 20737475 		.ascii	" stuck!\000"
 3718      636B2100 
 3719 167e 0000     		.align	2
 3720              	.LC302:
 3721 1680 5B494E46 		.ascii	"[INFO] Initializing control pins...\000"
ARM GAS  C:\Users\13740\AppData\Local\Temp\cckeVujV.s 			page 99


 3721      4F5D2049 
 3721      6E697469 
 3721      616C697A 
 3721      696E6720 
 3722              		.align	2
 3723              	.LC304:
 3724 16a4 5B4F4B5D 		.ascii	"[OK] Control pins initialized\000"
 3724      20436F6E 
 3724      74726F6C 
 3724      2070696E 
 3724      7320696E 
 3725 16c2 0000     		.align	2
 3726              	.LC306:
 3727 16c4 5B494E46 		.ascii	"[INFO] Initializing AD5941...\000"
 3727      4F5D2049 
 3727      6E697469 
 3727      616C697A 
 3727      696E6720 
 3728 16e2 0000     		.align	2
 3729              	.LC308:
 3730 16e4 5B494E46 		.ascii	"[INFO] Starting timer interrupt...\000"
 3730      4F5D2053 
 3730      74617274 
 3730      696E6720 
 3730      74696D65 
 3731 1707 00       		.align	2
 3732              	.LC311:
 3733 1708 5B4F4B5D 		.ascii	"[OK] Timer started\000"
 3733      2054696D 
 3733      65722073 
 3733      74617274 
 3733      656400
 3734 171b 00       		.align	2
 3735              	.LC313:
 3736 171c 0A5B4449 		.ascii	"\012[DIAGNOSTIC] Running full system diagnostics..."
 3736      41474E4F 
 3736      53544943 
 3736      5D205275 
 3736      6E6E696E 
 3737 174c 00       		.ascii	"\000"
 3738 174d 000000   		.align	2
 3739              	.LC315:
 3740 1750 5B494E46 		.ascii	"[INFO] Waiting for AD5941 initialization...\000"
 3740      4F5D2057 
 3740      61697469 
 3740      6E672066 
 3740      6F722041 
 3741              		.align	2
 3742              	.LC318:
 3743 177c 5B494E46 		.ascii	"[INFO] Init status: %d (waited %lu ms)\012\000"
 3743      4F5D2049 
 3743      6E697420 
 3743      73746174 
 3743      75733A20 
 3744              		.align	2
 3745              	.LC320:
 3746 17a4 5B494E46 		.ascii	"[INFO] Enabling electrode channels...\000"
ARM GAS  C:\Users\13740\AppData\Local\Temp\cckeVujV.s 			page 100


 3746      4F5D2045 
 3746      6E61626C 
 3746      696E6720 
 3746      656C6563 
 3747 17ca 0000     		.align	2
 3748              	.LC322:
 3749 17cc 5B4F4B5D 		.ascii	"[OK] AD5941 initialization COMPLETE!\000"
 3749      20414435 
 3749      39343120 
 3749      696E6974 
 3749      69616C69 
 3750 17f1 000000   		.align	2
 3751              	.LC324:
 3752 17f4 5B574152 		.ascii	"[WARNING] AD5941 initialization timeout or failed\000"
 3752      4E494E47 
 3752      5D204144 
 3752      35393431 
 3752      20696E69 
 3753 1826 0000     		.align	2
 3754              	.LC326:
 3755 1828 5B494E46 		.ascii	"[INFO] Entering main loop...\000"
 3755      4F5D2045 
 3755      6E746572 
 3755      696E6720 
 3755      6D61696E 
 3756 1845 000000   		.align	2
 3757              	.LC328:
 3758 1848 2A2A2A20 		.ascii	"*** SYSTEM READY ***\012\000"
 3758      53595354 
 3758      454D2052 
 3758      45414459 
 3758      202A2A2A 
 3759              		.global	__aeabi_fcmpgt
 3760              		.section	.text.main,"ax",%progbits
 3761              		.align	2
 3762              		.global	main
 3763              		.code	16
 3764              		.thumb_func
 3765              		.type	main, %function
 3766              	main:
 3767              	.LFB58:
1113:main.c        **** 
1114:main.c        **** /*******************************************************************************
1115:main.c        **** * Function Name: main
1116:main.c        **** ********************************************************************************
1117:main.c        **** * Summary:
1118:main.c        **** *   ‰∏ªÂáΩÊï∞
1119:main.c        **** *******************************************************************************/
1120:main.c        **** int main()
1121:main.c        **** {
 3768              		.loc 1 1121 0
 3769              		.cfi_startproc
 3770              		@ args = 0, pretend = 0, frame = 24
 3771              		@ frame_needed = 1, uses_anonymous_args = 0
 3772 0000 90B5     		push	{r4, r7, lr}
 3773              		.cfi_def_cfa_offset 12
 3774              		.cfi_offset 4, -12
ARM GAS  C:\Users\13740\AppData\Local\Temp\cckeVujV.s 			page 101


 3775              		.cfi_offset 7, -8
 3776              		.cfi_offset 14, -4
 3777 0002 87B0     		sub	sp, sp, #28
 3778              		.cfi_def_cfa_offset 40
 3779 0004 00AF     		add	r7, sp, #0
 3780              		.cfi_def_cfa_register 7
1122:main.c        ****     CyGlobalIntEnable;
 3781              		.loc 1 1122 0
 3782              		.syntax divided
 3783              	@ 1122 "main.c" 1
 3784 0006 62B6     		CPSIE   i
 3785              	@ 0 "" 2
1123:main.c        ****     
1124:main.c        ****     // ÂàùÂßãÂåñLED
1125:main.c        ****     Disconnect_LED_Write(LED_OFF);
 3786              		.loc 1 1125 0
 3787              		.thumb
 3788              		.syntax unified
 3789 0008 0120     		movs	r0, #1
 3790 000a FFF7FEFF 		bl	Disconnect_LED_Write
1126:main.c        ****     Advertising_LED_Write(LED_OFF);
 3791              		.loc 1 1126 0
 3792 000e 0120     		movs	r0, #1
 3793 0010 FFF7FEFF 		bl	Advertising_LED_Write
1127:main.c        ****     LowPower_LED_Write(LED_OFF);
 3794              		.loc 1 1127 0
 3795 0014 0120     		movs	r0, #1
 3796 0016 FFF7FEFF 		bl	LowPower_LED_Write
1128:main.c        ****     
1129:main.c        ****     printf("\n*** SYSTEM STARTUP ***\n");
 3797              		.loc 1 1129 0
 3798 001a C34B     		ldr	r3, .L195
 3799 001c 1800     		movs	r0, r3
 3800 001e FFF7FEFF 		bl	puts
1130:main.c        ****     
1131:main.c        ****     // ÂàùÂßãÂåñBLE
1132:main.c        ****     apiResult = CyBle_Start(AppCallBack);
 3801              		.loc 1 1132 0
 3802 0022 C24B     		ldr	r3, .L195+4
 3803 0024 1800     		movs	r0, r3
 3804 0026 FFF7FEFF 		bl	CyBle_Start
 3805 002a 0300     		movs	r3, r0
 3806 002c 1A00     		movs	r2, r3
 3807 002e C04B     		ldr	r3, .L195+8
 3808 0030 1A80     		strh	r2, [r3]
1133:main.c        ****     if(apiResult != CYBLE_ERROR_OK)
 3809              		.loc 1 1133 0
 3810 0032 BF4B     		ldr	r3, .L195+8
 3811 0034 1B88     		ldrh	r3, [r3]
 3812 0036 002B     		cmp	r3, #0
 3813 0038 04D0     		beq	.L174
1134:main.c        ****     {
1135:main.c        ****         printf("[ERROR] BLE initialization failed\n");
 3814              		.loc 1 1135 0
 3815 003a BE4B     		ldr	r3, .L195+12
 3816 003c 1800     		movs	r0, r3
 3817 003e FFF7FEFF 		bl	puts
ARM GAS  C:\Users\13740\AppData\Local\Temp\cckeVujV.s 			page 102


 3818 0042 03E0     		b	.L175
 3819              	.L174:
1136:main.c        ****     }
1137:main.c        ****     else
1138:main.c        ****     {
1139:main.c        ****         printf("[OK] BLE initialized\n");
 3820              		.loc 1 1139 0
 3821 0044 BC4B     		ldr	r3, .L195+16
 3822 0046 1800     		movs	r0, r3
 3823 0048 FFF7FEFF 		bl	puts
 3824              	.L175:
1140:main.c        ****     }
1141:main.c        ****     
1142:main.c        ****     // ÂàùÂßãÂåñSPIÂºïËÑö‰∏∫GPIOÔºàËΩØ‰ª∂SPI‰∏çÈúÄË¶ÅÁ°¨‰ª∂SPI_1Ôºâ
1143:main.c        ****     printf("[INFO] Initializing Software SPI on GPIO pins...\n");
 3825              		.loc 1 1143 0
 3826 004c BB4B     		ldr	r3, .L195+20
 3827 004e 1800     		movs	r0, r3
 3828 0050 FFF7FEFF 		bl	puts
1144:main.c        ****     
1145:main.c        ****     // ÂàùÂßãÂåñSPIÂºïËÑö‰∏∫ËæìÂá∫
1146:main.c        ****     // SCLK„ÄÅMOSI„ÄÅCSËÆæÁΩÆ‰∏∫ËæìÂá∫
1147:main.c        ****     // MISOËÆæÁΩÆ‰∏∫ËæìÂÖ•ÔºàÂú®readÂáΩÊï∞‰∏≠Ôºâ
1148:main.c        ****     
1149:main.c        ****     // ËÆæÁΩÆSCLKÂàùÂßãÁä∂ÊÄÅ‰∏∫È´òÔºàÁ©∫Èó≤Ôºâ
1150:main.c        ****     AD5940_SCLK_Write(1);
 3829              		.loc 1 1150 0
 3830 0054 0120     		movs	r0, #1
 3831 0056 FFF7FEFF 		bl	AD5940_SCLK_Write
1151:main.c        ****     CyDelay(10);
 3832              		.loc 1 1151 0
 3833 005a 0A20     		movs	r0, #10
 3834 005c FFF7FEFF 		bl	CyDelay
1152:main.c        ****     printf("[OK] Software SPI initialized\n");
 3835              		.loc 1 1152 0
 3836 0060 B74B     		ldr	r3, .L195+24
 3837 0062 1800     		movs	r0, r3
 3838 0064 FFF7FEFF 		bl	puts
1153:main.c        ****     
1154:main.c        ****     // üîç ËΩØ‰ª∂SPIËØäÊñ≠
1155:main.c        ****     printf("\n[DIAGNOSTIC] Software SPI GPIO Pin Status:\n");
 3839              		.loc 1 1155 0
 3840 0068 B64B     		ldr	r3, .L195+28
 3841 006a 1800     		movs	r0, r3
 3842 006c FFF7FEFF 		bl	puts
1156:main.c        ****     
1157:main.c        ****     // Ê£ÄÊü•ÂêÑÂºïËÑöÁöÑÂàùÂßãÁä∂ÊÄÅ
1158:main.c        ****     uint8_t sclk_data = AD5940_SCLK_Read();
 3843              		.loc 1 1158 0
 3844 0070 0F23     		movs	r3, #15
 3845 0072 FC18     		adds	r4, r7, r3
 3846 0074 FFF7FEFF 		bl	AD5940_SCLK_Read
 3847 0078 0300     		movs	r3, r0
 3848 007a 2370     		strb	r3, [r4]
1159:main.c        ****     uint8_t mosi_data = AD5940_MOSI_Read();
 3849              		.loc 1 1159 0
 3850 007c 0E23     		movs	r3, #14
ARM GAS  C:\Users\13740\AppData\Local\Temp\cckeVujV.s 			page 103


 3851 007e FC18     		adds	r4, r7, r3
 3852 0080 FFF7FEFF 		bl	AD5940_MOSI_Read
 3853 0084 0300     		movs	r3, r0
 3854 0086 2370     		strb	r3, [r4]
1160:main.c        ****     uint8_t miso_data = AD5940_MISO_Read();
 3855              		.loc 1 1160 0
 3856 0088 0D23     		movs	r3, #13
 3857 008a FC18     		adds	r4, r7, r3
 3858 008c FFF7FEFF 		bl	AD5940_MISO_Read
 3859 0090 0300     		movs	r3, r0
 3860 0092 2370     		strb	r3, [r4]
1161:main.c        ****     uint8_t cs_data = AD5940_CS_Read();
 3861              		.loc 1 1161 0
 3862 0094 0C23     		movs	r3, #12
 3863 0096 FC18     		adds	r4, r7, r3
 3864 0098 FFF7FEFF 		bl	AD5940_CS_Read
 3865 009c 0300     		movs	r3, r0
 3866 009e 2370     		strb	r3, [r4]
1162:main.c        ****     
1163:main.c        ****     printf("  SCLK (P1.7): %d (should be 1 at idle)\n", sclk_data);
 3867              		.loc 1 1163 0
 3868 00a0 0F23     		movs	r3, #15
 3869 00a2 FB18     		adds	r3, r7, r3
 3870 00a4 1A78     		ldrb	r2, [r3]
 3871 00a6 A84B     		ldr	r3, .L195+32
 3872 00a8 1100     		movs	r1, r2
 3873 00aa 1800     		movs	r0, r3
 3874 00ac FFF7FEFF 		bl	printf
1164:main.c        ****     printf("  MOSI (P0.4): %d\n", mosi_data);
 3875              		.loc 1 1164 0
 3876 00b0 0E23     		movs	r3, #14
 3877 00b2 FB18     		adds	r3, r7, r3
 3878 00b4 1A78     		ldrb	r2, [r3]
 3879 00b6 A54B     		ldr	r3, .L195+36
 3880 00b8 1100     		movs	r1, r2
 3881 00ba 1800     		movs	r0, r3
 3882 00bc FFF7FEFF 		bl	printf
1165:main.c        ****     printf("  MISO (P0.5): %d\n", miso_data);
 3883              		.loc 1 1165 0
 3884 00c0 0D23     		movs	r3, #13
 3885 00c2 FB18     		adds	r3, r7, r3
 3886 00c4 1A78     		ldrb	r2, [r3]
 3887 00c6 A24B     		ldr	r3, .L195+40
 3888 00c8 1100     		movs	r1, r2
 3889 00ca 1800     		movs	r0, r3
 3890 00cc FFF7FEFF 		bl	printf
1166:main.c        ****     printf("  CS   (P?.?): %d (should be 1 at idle)\n", cs_data);
 3891              		.loc 1 1166 0
 3892 00d0 0C23     		movs	r3, #12
 3893 00d2 FB18     		adds	r3, r7, r3
 3894 00d4 1A78     		ldrb	r2, [r3]
 3895 00d6 9F4B     		ldr	r3, .L195+44
 3896 00d8 1100     		movs	r1, r2
 3897 00da 1800     		movs	r0, r3
 3898 00dc FFF7FEFF 		bl	printf
1167:main.c        ****     
1168:main.c        ****     // È™åËØÅSCLKËÉΩÂê¶Ê≠£Á°ÆË∑≥ÂèòÔºàÂø´ÈÄüÊµãËØïÔºâ
ARM GAS  C:\Users\13740\AppData\Local\Temp\cckeVujV.s 			page 104


1169:main.c        ****     printf("\n[DIAGNOSTIC] SCLK Toggle Test:\n");
 3899              		.loc 1 1169 0
 3900 00e0 9D4B     		ldr	r3, .L195+48
 3901 00e2 1800     		movs	r0, r3
 3902 00e4 FFF7FEFF 		bl	puts
1170:main.c        ****     AD5940_SCLK_Write(0);
 3903              		.loc 1 1170 0
 3904 00e8 0020     		movs	r0, #0
 3905 00ea FFF7FEFF 		bl	AD5940_SCLK_Write
1171:main.c        ****     CyDelayUs(1);
 3906              		.loc 1 1171 0
 3907 00ee 0120     		movs	r0, #1
 3908 00f0 FFF7FEFF 		bl	CyDelayUs
1172:main.c        ****     uint8_t sclk_low = AD5940_SCLK_Read();
 3909              		.loc 1 1172 0
 3910 00f4 0B23     		movs	r3, #11
 3911 00f6 FC18     		adds	r4, r7, r3
 3912 00f8 FFF7FEFF 		bl	AD5940_SCLK_Read
 3913 00fc 0300     		movs	r3, r0
 3914 00fe 2370     		strb	r3, [r4]
1173:main.c        ****     
1174:main.c        ****     AD5940_SCLK_Write(1);
 3915              		.loc 1 1174 0
 3916 0100 0120     		movs	r0, #1
 3917 0102 FFF7FEFF 		bl	AD5940_SCLK_Write
1175:main.c        ****     CyDelayUs(1);
 3918              		.loc 1 1175 0
 3919 0106 0120     		movs	r0, #1
 3920 0108 FFF7FEFF 		bl	CyDelayUs
1176:main.c        ****     uint8_t sclk_high = AD5940_SCLK_Read();
 3921              		.loc 1 1176 0
 3922 010c 0A23     		movs	r3, #10
 3923 010e FC18     		adds	r4, r7, r3
 3924 0110 FFF7FEFF 		bl	AD5940_SCLK_Read
 3925 0114 0300     		movs	r3, r0
 3926 0116 2370     		strb	r3, [r4]
1177:main.c        ****     
1178:main.c        ****     printf("  SCLK Low: %d (expect 0)\n", sclk_low);
 3927              		.loc 1 1178 0
 3928 0118 0B23     		movs	r3, #11
 3929 011a FB18     		adds	r3, r7, r3
 3930 011c 1A78     		ldrb	r2, [r3]
 3931 011e 8F4B     		ldr	r3, .L195+52
 3932 0120 1100     		movs	r1, r2
 3933 0122 1800     		movs	r0, r3
 3934 0124 FFF7FEFF 		bl	printf
1179:main.c        ****     printf("  SCLK High: %d (expect 1)\n", sclk_high);
 3935              		.loc 1 1179 0
 3936 0128 0A23     		movs	r3, #10
 3937 012a FB18     		adds	r3, r7, r3
 3938 012c 1A78     		ldrb	r2, [r3]
 3939 012e 8C4B     		ldr	r3, .L195+56
 3940 0130 1100     		movs	r1, r2
 3941 0132 1800     		movs	r0, r3
 3942 0134 FFF7FEFF 		bl	printf
1180:main.c        ****     
1181:main.c        ****     if(sclk_low == 0 && sclk_high == 1)
ARM GAS  C:\Users\13740\AppData\Local\Temp\cckeVujV.s 			page 105


 3943              		.loc 1 1181 0
 3944 0138 0B23     		movs	r3, #11
 3945 013a FB18     		adds	r3, r7, r3
 3946 013c 1B78     		ldrb	r3, [r3]
 3947 013e 002B     		cmp	r3, #0
 3948 0140 09D1     		bne	.L176
 3949              		.loc 1 1181 0 is_stmt 0 discriminator 1
 3950 0142 0A23     		movs	r3, #10
 3951 0144 FB18     		adds	r3, r7, r3
 3952 0146 1B78     		ldrb	r3, [r3]
 3953 0148 012B     		cmp	r3, #1
 3954 014a 04D1     		bne	.L176
1182:main.c        ****     {
1183:main.c        ****         printf("  ‚úÖ SCLK can toggle correctly!\n");
 3955              		.loc 1 1183 0 is_stmt 1
 3956 014c 854B     		ldr	r3, .L195+60
 3957 014e 1800     		movs	r0, r3
 3958 0150 FFF7FEFF 		bl	puts
 3959 0154 03E0     		b	.L177
 3960              	.L176:
1184:main.c        ****     }
1185:main.c        ****     else
1186:main.c        ****     {
1187:main.c        ****         printf("  ‚ùå SCLK toggle test FAILED - pin may be stuck!\n");
 3961              		.loc 1 1187 0
 3962 0156 844B     		ldr	r3, .L195+64
 3963 0158 1800     		movs	r0, r3
 3964 015a FFF7FEFF 		bl	puts
 3965              	.L177:
1188:main.c        ****     }
1189:main.c        ****     printf("\n");
 3966              		.loc 1 1189 0
 3967 015e 0A20     		movs	r0, #10
 3968 0160 FFF7FEFF 		bl	putchar
1190:main.c        ****     
1191:main.c        ****     AD5941_HardReset();   // ‚Üê ÂøÖÈ°ªÂú®‰ªª‰Ωï SPI Ââç
 3969              		.loc 1 1191 0
 3970 0164 FFF7FEFF 		bl	AD5941_HardReset
1192:main.c        **** 
1193:main.c        ****     
1194:main.c        ****     
1195:main.c        ****    
1196:main.c        ****     // üîç Âø´ÈÄüÈ™åËØÅ CHIPID - Âú® AD5941_Initialize ÂâçËøõË°åÁÆÄÂçïÊµãËØï
1197:main.c        ****   
1198:main.c        ****     uint32_t testChipID = AD5940_ReadReg(REG_AFECON_CHIPID);
 3971              		.loc 1 1198 0
 3972 0168 804B     		ldr	r3, .L195+68
 3973 016a 1800     		movs	r0, r3
 3974 016c FFF7FEFF 		bl	AD5940_ReadReg
 3975 0170 0300     		movs	r3, r0
 3976 0172 7B60     		str	r3, [r7, #4]
1199:main.c        **** 
1200:main.c        ****     
1201:main.c        ****     // ÂàùÂßãÂåñÊéßÂà∂ÂºïËÑö
1202:main.c        ****     printf("[INFO] Initializing control pins...\n");
 3977              		.loc 1 1202 0
 3978 0174 7E4B     		ldr	r3, .L195+72
ARM GAS  C:\Users\13740\AppData\Local\Temp\cckeVujV.s 			page 106


 3979 0176 1800     		movs	r0, r3
 3980 0178 FFF7FEFF 		bl	puts
1203:main.c        ****     DRUG_EN_1_Write(0);
 3981              		.loc 1 1203 0
 3982 017c 0020     		movs	r0, #0
 3983 017e FFF7FEFF 		bl	DRUG_EN_1_Write
1204:main.c        ****     STIM_EN_A_Write(0);
 3984              		.loc 1 1204 0
 3985 0182 0020     		movs	r0, #0
 3986 0184 FFF7FEFF 		bl	STIM_EN_A_Write
1205:main.c        ****     AMP1_EN_Write(0);
 3987              		.loc 1 1205 0
 3988 0188 0020     		movs	r0, #0
 3989 018a FFF7FEFF 		bl	AMP1_EN_Write
1206:main.c        ****     AMP2_EN_Write(0);
 3990              		.loc 1 1206 0
 3991 018e 0020     		movs	r0, #0
 3992 0190 FFF7FEFF 		bl	AMP2_EN_Write
1207:main.c        ****     AMP3_EN_Write(0);
 3993              		.loc 1 1207 0
 3994 0194 0020     		movs	r0, #0
 3995 0196 FFF7FEFF 		bl	AMP3_EN_Write
1208:main.c        ****     printf("[OK] Control pins initialized\n");
 3996              		.loc 1 1208 0
 3997 019a 764B     		ldr	r3, .L195+76
 3998 019c 1800     		movs	r0, r3
 3999 019e FFF7FEFF 		bl	puts
1209:main.c        ****         // ÂàùÂßãÂåñAD5941
1210:main.c        ****     printf("[INFO] Initializing AD5941...\n");
 4000              		.loc 1 1210 0
 4001 01a2 754B     		ldr	r3, .L195+80
 4002 01a4 1800     		movs	r0, r3
 4003 01a6 FFF7FEFF 		bl	puts
1211:main.c        ****     AD5941_Initialize();
 4004              		.loc 1 1211 0
 4005 01aa FFF7FEFF 		bl	AD5941_Initialize
1212:main.c        ****     // ÂêØÂä®ÂÆöÊó∂Âô®‰∏≠Êñ≠
1213:main.c        ****     printf("[INFO] Starting timer interrupt...\n");
 4006              		.loc 1 1213 0
 4007 01ae 734B     		ldr	r3, .L195+84
 4008 01b0 1800     		movs	r0, r3
 4009 01b2 FFF7FEFF 		bl	puts
1214:main.c        ****     CySysWdtSetInterruptCallback(CY_SYS_WDT_COUNTER2, Timer_Interrupt);
 4010              		.loc 1 1214 0
 4011 01b6 724B     		ldr	r3, .L195+88
 4012 01b8 1900     		movs	r1, r3
 4013 01ba 0220     		movs	r0, #2
 4014 01bc FFF7FEFF 		bl	CySysWdtSetInterruptCallback
1215:main.c        ****     CySysWdtEnableCounterIsr(CY_SYS_WDT_COUNTER2);
 4015              		.loc 1 1215 0
 4016 01c0 0220     		movs	r0, #2
 4017 01c2 FFF7FEFF 		bl	CySysWdtEnableCounterIsr
1216:main.c        ****     printf("[OK] Timer started\n");
 4018              		.loc 1 1216 0
 4019 01c6 6F4B     		ldr	r3, .L195+92
 4020 01c8 1800     		movs	r0, r3
 4021 01ca FFF7FEFF 		bl	puts
ARM GAS  C:\Users\13740\AppData\Local\Temp\cckeVujV.s 			page 107


1217:main.c        ****     
1218:main.c        ****     // ===== ÂÆåÊï¥ËØäÊñ≠ =====
1219:main.c        ****     printf("\n[DIAGNOSTIC] Running full system diagnostics...\n");
 4022              		.loc 1 1219 0
 4023 01ce 6E4B     		ldr	r3, .L195+96
 4024 01d0 1800     		movs	r0, r3
 4025 01d2 FFF7FEFF 		bl	puts
1220:main.c        ****     CyDelay(500);
 4026              		.loc 1 1220 0
 4027 01d6 FA23     		movs	r3, #250
 4028 01d8 5B00     		lsls	r3, r3, #1
 4029 01da 1800     		movs	r0, r3
 4030 01dc FFF7FEFF 		bl	CyDelay
1221:main.c        ****     FullDiagnostics();
 4031              		.loc 1 1221 0
 4032 01e0 FFF7FEFF 		bl	FullDiagnostics
1222:main.c        ****     CyDelay(500);
 4033              		.loc 1 1222 0
 4034 01e4 FA23     		movs	r3, #250
 4035 01e6 5B00     		lsls	r3, r3, #1
 4036 01e8 1800     		movs	r0, r3
 4037 01ea FFF7FEFF 		bl	CyDelay
1223:main.c        ****     
1224:main.c        ****     // Á≠âÂæÖÂàùÂßãÂåñÂÆåÊàê
1225:main.c        ****     printf("[INFO] Waiting for AD5941 initialization...\n");
 4038              		.loc 1 1225 0
 4039 01ee 674B     		ldr	r3, .L195+100
 4040 01f0 1800     		movs	r0, r3
 4041 01f2 FFF7FEFF 		bl	puts
1226:main.c        ****     uint32 initWaitTime = 0;
 4042              		.loc 1 1226 0
 4043 01f6 0023     		movs	r3, #0
 4044 01f8 7B61     		str	r3, [r7, #20]
1227:main.c        ****     while((pAmpCfg->AMPInited == bFALSE) && (initWaitTime < 5000))
 4045              		.loc 1 1227 0
 4046 01fa 0FE0     		b	.L178
 4047              	.L180:
1228:main.c        ****     {
1229:main.c        ****         CyDelay(100);
 4048              		.loc 1 1229 0
 4049 01fc 6420     		movs	r0, #100
 4050 01fe FFF7FEFF 		bl	CyDelay
1230:main.c        ****         initWaitTime += 100;
 4051              		.loc 1 1230 0
 4052 0202 7B69     		ldr	r3, [r7, #20]
 4053 0204 6433     		adds	r3, r3, #100
 4054 0206 7B61     		str	r3, [r7, #20]
1231:main.c        ****         printf("[INFO] Init status: %d (waited %lu ms)\n", (int)pAmpCfg->AMPInited, initWaitTime);
 4055              		.loc 1 1231 0
 4056 0208 614B     		ldr	r3, .L195+104
 4057 020a 1B68     		ldr	r3, [r3]
 4058 020c 6C22     		movs	r2, #108
 4059 020e 9B5C     		ldrb	r3, [r3, r2]
 4060 0210 1900     		movs	r1, r3
 4061 0212 7A69     		ldr	r2, [r7, #20]
 4062 0214 5F4B     		ldr	r3, .L195+108
 4063 0216 1800     		movs	r0, r3
ARM GAS  C:\Users\13740\AppData\Local\Temp\cckeVujV.s 			page 108


 4064 0218 FFF7FEFF 		bl	printf
 4065              	.L178:
1227:main.c        ****     {
 4066              		.loc 1 1227 0
 4067 021c 5C4B     		ldr	r3, .L195+104
 4068 021e 1B68     		ldr	r3, [r3]
 4069 0220 6C22     		movs	r2, #108
 4070 0222 9B5C     		ldrb	r3, [r3, r2]
 4071 0224 002B     		cmp	r3, #0
 4072 0226 03D1     		bne	.L179
1227:main.c        ****     {
 4073              		.loc 1 1227 0 is_stmt 0 discriminator 1
 4074 0228 7B69     		ldr	r3, [r7, #20]
 4075 022a 5B4A     		ldr	r2, .L195+112
 4076 022c 9342     		cmp	r3, r2
 4077 022e E5D9     		bls	.L180
 4078              	.L179:
1232:main.c        ****     }
1233:main.c        ****         if(pAmpCfg->AMPInited == bTRUE)
 4079              		.loc 1 1233 0 is_stmt 1
 4080 0230 574B     		ldr	r3, .L195+104
 4081 0232 1B68     		ldr	r3, [r3]
 4082 0234 6C22     		movs	r2, #108
 4083 0236 9B5C     		ldrb	r3, [r3, r2]
 4084 0238 012B     		cmp	r3, #1
 4085 023a 0CD1     		bne	.L181
1234:main.c        ****     {
1235:main.c        ****         printf("[INFO] Enabling electrode channels...\n");
 4086              		.loc 1 1235 0
 4087 023c 574B     		ldr	r3, .L195+116
 4088 023e 1800     		movs	r0, r3
 4089 0240 FFF7FEFF 		bl	puts
1236:main.c        ****         AMP1_EN_Write(1);
 4090              		.loc 1 1236 0
 4091 0244 0120     		movs	r0, #1
 4092 0246 FFF7FEFF 		bl	AMP1_EN_Write
1237:main.c        ****         AMP2_EN_Write(1);
 4093              		.loc 1 1237 0
 4094 024a 0120     		movs	r0, #1
 4095 024c FFF7FEFF 		bl	AMP2_EN_Write
1238:main.c        ****         AMP3_EN_Write(1);
 4096              		.loc 1 1238 0
 4097 0250 0120     		movs	r0, #1
 4098 0252 FFF7FEFF 		bl	AMP3_EN_Write
 4099              	.L181:
1239:main.c        ****     }
1240:main.c        ****     if(pAmpCfg->AMPInited == bTRUE)
 4100              		.loc 1 1240 0
 4101 0256 4E4B     		ldr	r3, .L195+104
 4102 0258 1B68     		ldr	r3, [r3]
 4103 025a 6C22     		movs	r2, #108
 4104 025c 9B5C     		ldrb	r3, [r3, r2]
 4105 025e 012B     		cmp	r3, #1
