ARM GAS  C:\Users\13740\AppData\Local\Temp\cc4654uj.s 			page 1


   1              		.syntax unified
   2              		.cpu cortex-m0
   3              		.fpu softvfp
   4              		.eabi_attribute 20, 1
   5              		.eabi_attribute 21, 1
   6              		.eabi_attribute 23, 3
   7              		.eabi_attribute 24, 1
   8              		.eabi_attribute 25, 1
   9              		.eabi_attribute 26, 1
  10              		.eabi_attribute 30, 6
  11              		.eabi_attribute 34, 0
  12              		.eabi_attribute 18, 4
  13              		.thumb
  14              		.syntax unified
  15              		.file	"main.c"
  16              		.text
  17              	.Ltext0:
  18              		.cfi_sections	.debug_frame
  19              		.global	g_SPI_Debug_Buf
  20              		.bss
  21              		.align	2
  22              		.type	g_SPI_Debug_Buf, %object
  23              		.size	g_SPI_Debug_Buf, 8
  24              	g_SPI_Debug_Buf:
  25 0000 00000000 		.space	8
  25      00000000 
  26              	g_amp_running:
  27 0008 00       		.space	1
  28              		.global	lastSendTime
  29 0009 000000   		.align	2
  30              		.type	lastSendTime, %object
  31              		.size	lastSendTime, 4
  32              	lastSendTime:
  33 000c 00000000 		.space	4
  34              		.global	mainTimer
  35              		.align	2
  36              		.type	mainTimer, %object
  37              		.size	mainTimer, 4
  38              	mainTimer:
  39 0010 00000000 		.space	4
  40              		.global	measurementFlag
  41              		.type	measurementFlag, %object
  42              		.size	measurementFlag, 1
  43              	measurementFlag:
  44 0014 00       		.space	1
  45              		.comm	apiResult,2,2
  46              		.global	sensorData
  47 0015 000000   		.align	2
  48              		.type	sensorData, %object
  49              		.size	sensorData, 32
  50              	sensorData:
  51 0018 00000000 		.space	32
  51      00000000 
  51      00000000 
  51      00000000 
  51      00000000 
  52              		.comm	pAmpCfg,4,4
ARM GAS  C:\Users\13740\AppData\Local\Temp\cc4654uj.s 			page 2


  53              		.comm	ampBuffer,2048,4
  54              		.comm	ampResult,8,4
  55              		.section	.rodata
  56              		.align	2
  57              	.LC0:
  58 0000 5B494E49 		.ascii	"[INIT] Step 1: Resetting hardware...\015\000"
  58      545D2053 
  58      74657020 
  58      313A2052 
  58      65736574 
  59 0026 0000     		.align	2
  60              	.LC2:
  61 0028 5B494E49 		.ascii	"[INIT] Hardware Reset complete.\015\000"
  61      545D2048 
  61      61726477 
  61      61726520 
  61      52657365 
  62 0049 000000   		.align	2
  63              	.LC4:
  64 004c 5B494E49 		.ascii	"[INIT] Step 2: Waking up SPI interface...\015\000"
  64      545D2053 
  64      74657020 
  64      323A2057 
  64      616B696E 
  65 0077 00       		.align	2
  66              	.LC6:
  67 0078 0D0A5B44 		.ascii	"\015\012[DEBUG] Verifying SPI Communication...\015\000"
  67      45425547 
  67      5D205665 
  67      72696679 
  67      696E6720 
  68 00a2 0000     		.align	2
  69              	.LC8:
  70 00a4 20205B41 		.ascii	"  [Attempt %d] ADIID: 0x%08lX, CHIPID: 0x%08lX\015\012"
  70      7474656D 
  70      70742025 
  70      645D2041 
  70      44494944 
  71 00d4 00       		.ascii	"\000"
  72 00d5 000000   		.align	2
  73              	.LC10:
  74 00d8 2020E29C 		.ascii	"  \342\234\205 Communication Success!\015\000"
  74      8520436F 
  74      6D6D756E 
  74      69636174 
  74      696F6E20 
  75 00f6 0000     		.align	2
  76              	.LC12:
  77 00f8 20202020 		.ascii	"     -> Warning: Read 0x00. Check MISO Connection o"
  77      202D3E20 
  77      5761726E 
  77      696E673A 
  77      20526561 
  78 012b 7220506F 		.ascii	"r Power.\015\000"
  78      7765722E 
  78      0D00
  79 0135 000000   		.align	2
ARM GAS  C:\Users\13740\AppData\Local\Temp\cc4654uj.s 			page 3


  80              	.LC14:
  81 0138 20202020 		.ascii	"     -> Warning: Read 0xFF. Check if MISO is shorte"
  81      202D3E20 
  81      5761726E 
  81      696E673A 
  81      20526561 
  82 016b 6420746F 		.ascii	"d to VDD.\015\000"
  82      20564444 
  82      2E0D00
  83 0176 0000     		.align	2
  84              	.LC16:
  85 0178 5B455252 		.ascii	"[ERROR] SPI Communication Failed. Halting Initializ"
  85      4F525D20 
  85      53504920 
  85      436F6D6D 
  85      756E6963 
  86 01ab 6174696F 		.ascii	"ation.\015\000"
  86      6E2E0D00 
  87 01b3 00       		.align	2
  88              	.LC18:
  89 01b4 0D0A5B49 		.ascii	"\015\012[INIT] Step 4: Running ADI Library Init (Ta"
  89      4E49545D 
  89      20537465 
  89      7020343A 
  89      2052756E 
  90 01e1 626C6520 		.ascii	"ble 14)...\015\000"
  90      3134292E 
  90      2E2E0D00 
  91 01ed 000000   		.align	2
  92              	.LC20:
  93 01f0 5B494E49 		.ascii	"[INIT] Library Init complete.\015\000"
  93      545D204C 
  93      69627261 
  93      72792049 
  93      6E697420 
  94 020f 00       		.align	2
  95              	.LC22:
  96 0210 5B494E49 		.ascii	"[INIT] Step 5: Configuring Application Parameters.."
  96      545D2053 
  96      74657020 
  96      353A2043 
  96      6F6E6669 
  97 0243 2E0D00   		.ascii	".\015\000"
  98 0246 0000     		.align	2
  99              	.LC25:
 100 0248 5B455252 		.ascii	"[ERROR] pAmpCfg is NULL!\015\000"
 100      4F525D20 
 100      70416D70 
 100      43666720 
 100      6973204E 
 101 0262 0000     		.align	2
 102              	.LC27:
 103 0264 5B494E49 		.ascii	"[INIT] Step 6: Calling AppAMPInit...\015\000"
 103      545D2053 
 103      74657020 
 103      363A2043 
 103      616C6C69 
ARM GAS  C:\Users\13740\AppData\Local\Temp\cc4654uj.s 			page 4


 104 028a 0000     		.align	2
 105              	.LC30:
 106 028c 5B4F4B5D 		.ascii	"[OK] AD5941 System Initialized Successfully.\015\000"
 106      20414435 
 106      39343120 
 106      53797374 
 106      656D2049 
 107 02ba 0000     		.align	2
 108              	.LC32:
 109 02bc 20202020 		.ascii	"     AMPInited Flag: %d\015\012\000"
 109      20414D50 
 109      496E6974 
 109      65642046 
 109      6C61673A 
 110 02d6 0000     		.align	2
 111              	.LC34:
 112 02d8 5B455252 		.ascii	"[ERROR] AppAMPInit failed with error code: %d\015\012"
 112      4F525D20 
 112      41707041 
 112      4D50496E 
 112      69742066 
 113 0307 00       		.ascii	"\000"
 114              		.section	.text.AD5941_Initialize,"ax",%progbits
 115              		.align	2
 116              		.global	AD5941_Initialize
 117              		.code	16
 118              		.thumb_func
 119              		.type	AD5941_Initialize, %function
 120              	AD5941_Initialize:
 121              	.LFB36:
 122              		.file 1 "main.c"
   1:main.c        **** 
   2:main.c        **** /*******************************************************************************
   3:main.c        **** * File Name: main.c
   4:main.c        **** *
   5:main.c        **** * Version 2.0
   6:main.c        **** *
   7:main.c        **** * Description:
   8:main.c        **** *  多路生物传感器系统 - 修复后的完整版本
   9:main.c        **** *  使用AD5940内置ADC，不依赖PSoC ADC模块
  10:main.c        **** *
  11:main.c        **** ********************************************************************************/
  12:main.c        **** 
  13:main.c        **** // /* 链接数学库（GCC编译器） */
  14:main.c        **** // #pragma comment(lib, "libm.a")
  15:main.c        **** 
  16:main.c        **** #include "main.h"
  17:main.c        **** #include "ad5940.h"
  18:main.c        **** #include "ad5941_platform.h"
  19:main.c        **** #include "Amperometric.h"
  20:main.c        **** uint8_t g_SPI_Debug_Buf[8] = {0}; // 全局变量，记录最后一次读取的原始字节
  21:main.c        **** static uint8_t g_amp_running = 0;
  22:main.c        **** 
  23:main.c        **** // 在 main() 函数开头添加变量
  24:main.c        **** uint32 lastSendTime = 0;  // 上次发送数据的时间
  25:main.c        **** #define SEND_INTERVAL 3   // 每3秒发送一次数据
  26:main.c        **** 
ARM GAS  C:\Users\13740\AppData\Local\Temp\cc4654uj.s 			page 5


  27:main.c        **** /*******************************************************************************
  28:main.c        **** * 全局变量
  29:main.c        **** *******************************************************************************/
  30:main.c        **** volatile uint32 mainTimer = 0;
  31:main.c        **** volatile uint8 measurementFlag = 0;
  32:main.c        **** CYBLE_API_RESULT_T apiResult;
  33:main.c        **** 
  34:main.c        **** // 传感器数据结构
  35:main.c        **** typedef struct {
  36:main.c        ****     float temperature;      // 温度 (°C) - 从AD5940读取
  37:main.c        ****     float glucose;         // 葡萄糖 (mM)
  38:main.c        ****     float lactate;         // 乳酸 (mM)
  39:main.c        ****     float uric_acid;       // 尿酸 (μM)
  40:main.c        ****     uint32 timestamp;      // 时间戳
  41:main.c        ****     
  42:main.c        ****     // 新增：原始电流值（从源表/AD5940读取）
  43:main.c        ****     float current_glucose_nA;   // 葡萄糖传感器电流 (nA)
  44:main.c        ****     float current_lactate_nA;   // 乳酸传感器电流 (nA)
  45:main.c        ****     float current_uric_nA;      // 尿酸传感器电流 (nA)    
  46:main.c        **** } SensorData_t;
  47:main.c        **** 
  48:main.c        **** // 传感器数据全局变量（定义在main.h中的SensorData_t结构）
  49:main.c        **** SensorData_t sensorData = {0};
  50:main.c        **** 
  51:main.c        **** typedef enum {
  52:main.c        ****     SENSOR_GLUCOSE = 0,
  53:main.c        ****     SENSOR_LACTATE = 1,
  54:main.c        ****     SENSOR_URIC_ACID = 2,
  55:main.c        ****     SENSOR_COUNT = 3
  56:main.c        **** } AmperometricSensor_t;
  57:main.c        **** 
  58:main.c        **** 
  59:main.c        **** 
  60:main.c        **** 
  61:main.c        **** 
  62:main.c        **** // AD5941相关变量
  63:main.c        **** AppAMPCfg_Type *pAmpCfg;
  64:main.c        **** uint32 ampBuffer[512];  // 用于AppAMPInit的缓冲区
  65:main.c        **** fAmpRes_Type ampResult;
  66:main.c        **** 
  67:main.c        **** /*******************************************************************************
  68:main.c        **** * Function Name: AD5941_Initialize
  69:main.c        **** ********************************************************************************
  70:main.c        **** * Summary:
  71:main.c        **** *   初始化AD5941电化学前端芯片 - 修复后的版本
  72:main.c        **** *******************************************************************************/
  73:main.c        **** void AD5941_Initialize(void)
  74:main.c        **** {
 123              		.loc 1 74 0
 124              		.cfi_startproc
 125              		@ args = 0, pretend = 0, frame = 24
 126              		@ frame_needed = 1, uses_anonymous_args = 0
 127 0000 80B5     		push	{r7, lr}
 128              		.cfi_def_cfa_offset 8
 129              		.cfi_offset 7, -8
 130              		.cfi_offset 14, -4
 131 0002 86B0     		sub	sp, sp, #24
ARM GAS  C:\Users\13740\AppData\Local\Temp\cc4654uj.s 			page 6


 132              		.cfi_def_cfa_offset 32
 133 0004 00AF     		add	r7, sp, #0
 134              		.cfi_def_cfa_register 7
  75:main.c        ****     AD5940Err error;
  76:main.c        ****     
  77:main.c        ****     // ====================================================================
  78:main.c        ****     // 步骤 1: 硬件复位与引脚状态强制初始化
  79:main.c        ****     // ====================================================================
  80:main.c        ****     printf("[INIT] Step 1: Resetting hardware...\r\n");
 135              		.loc 1 80 0
 136 0006 A94B     		ldr	r3, .L13
 137 0008 1800     		movs	r0, r3
 138 000a FFF7FEFF 		bl	puts
  81:main.c        ****     
  82:main.c        ****     // 1.1 确保SPI总线处于空闲状态 (Mode 0: SCLK=0, CS=1)
  83:main.c        ****     // 防止引脚之前的状态导致芯片误判
  84:main.c        ****     AD5940_CS_Write(1);   
 139              		.loc 1 84 0
 140 000e 0120     		movs	r0, #1
 141 0010 FFF7FEFF 		bl	AD5940_CS_Write
  85:main.c        ****     AD5940_SCLK_Write(0); 
 142              		.loc 1 85 0
 143 0014 0020     		movs	r0, #0
 144 0016 FFF7FEFF 		bl	AD5940_SCLK_Write
  86:main.c        ****     AD5940_MOSI_Write(0); 
 145              		.loc 1 86 0
 146 001a 0020     		movs	r0, #0
 147 001c FFF7FEFF 		bl	AD5940_MOSI_Write
  87:main.c        ****     CyDelay(10);
 148              		.loc 1 87 0
 149 0020 0A20     		movs	r0, #10
 150 0022 FFF7FEFF 		bl	CyDelay
  88:main.c        **** 
  89:main.c        ****     // 1.2 执行硬件复位
  90:main.c        ****     AD5940_RST_Write(0);  // 拉低复位
 151              		.loc 1 90 0
 152 0026 0020     		movs	r0, #0
 153 0028 FFF7FEFF 		bl	AD5940_RST_Write
  91:main.c        ****     CyDelay(10);          // 保持10ms
 154              		.loc 1 91 0
 155 002c 0A20     		movs	r0, #10
 156 002e FFF7FEFF 		bl	CyDelay
  92:main.c        ****     AD5940_RST_Write(1);  // 释放复位
 157              		.loc 1 92 0
 158 0032 0120     		movs	r0, #1
 159 0034 FFF7FEFF 		bl	AD5940_RST_Write
  93:main.c        ****     CyDelay(100);         // 等待芯片内部加载 (Boot time)
 160              		.loc 1 93 0
 161 0038 6420     		movs	r0, #100
 162 003a FFF7FEFF 		bl	CyDelay
  94:main.c        ****     
  95:main.c        ****     printf("[INIT] Hardware Reset complete.\r\n");
 163              		.loc 1 95 0
 164 003e 9C4B     		ldr	r3, .L13+4
 165 0040 1800     		movs	r0, r3
 166 0042 FFF7FEFF 		bl	puts
  96:main.c        **** 
ARM GAS  C:\Users\13740\AppData\Local\Temp\cc4654uj.s 			page 7


  97:main.c        ****     // ====================================================================
  98:main.c        ****     // 步骤 2: 唤醒 SPI 接口 (关键步骤！)
  99:main.c        ****     // ====================================================================
 100:main.c        ****     // AD5940 复位后处于休眠状态，需要一个 CS 下降沿来唤醒 SPI 接口
 101:main.c        ****     printf("[INIT] Step 2: Waking up SPI interface...\r\n");
 167              		.loc 1 101 0
 168 0046 9B4B     		ldr	r3, .L13+8
 169 0048 1800     		movs	r0, r3
 170 004a FFF7FEFF 		bl	puts
 102:main.c        ****     
 103:main.c        ****     AD5940_CS_Write(0);   // 拉低 CS 唤醒
 171              		.loc 1 103 0
 172 004e 0020     		movs	r0, #0
 173 0050 FFF7FEFF 		bl	AD5940_CS_Write
 104:main.c        ****     CyDelayUs(100);       // 保持一小段时间
 174              		.loc 1 104 0
 175 0054 6420     		movs	r0, #100
 176 0056 FFF7FEFF 		bl	CyDelayUs
 105:main.c        ****     AD5940_CS_Write(1);   // 拉高 CS
 177              		.loc 1 105 0
 178 005a 0120     		movs	r0, #1
 179 005c FFF7FEFF 		bl	AD5940_CS_Write
 106:main.c        ****     CyDelay(10);          // 等待接口准备就绪
 180              		.loc 1 106 0
 181 0060 0A20     		movs	r0, #10
 182 0062 FFF7FEFF 		bl	CyDelay
 107:main.c        **** 
 108:main.c        ****     // 初始化 MCU SPI 资源变量
 109:main.c        ****     AD5940_MCUResourceInit(NULL);
 183              		.loc 1 109 0
 184 0066 0020     		movs	r0, #0
 185 0068 FFF7FEFF 		bl	AD5940_MCUResourceInit
 110:main.c        **** 
 111:main.c        ****     // ====================================================================
 112:main.c        ****     // 步骤 3: 寄存器通信测试 (ID 检查)
 113:main.c        ****     // ====================================================================
 114:main.c        ****     printf("\r\n[DEBUG] Verifying SPI Communication...\r\n");
 186              		.loc 1 114 0
 187 006c 924B     		ldr	r3, .L13+12
 188 006e 1800     		movs	r0, r3
 189 0070 FFF7FEFF 		bl	puts
 115:main.c        ****     
 116:main.c        ****     uint32_t adiid = 0;
 190              		.loc 1 116 0
 191 0074 0023     		movs	r3, #0
 192 0076 FB60     		str	r3, [r7, #12]
 117:main.c        ****     uint32_t chipid = 0;
 193              		.loc 1 117 0
 194 0078 0023     		movs	r3, #0
 195 007a BB60     		str	r3, [r7, #8]
 118:main.c        ****     uint8_t id_valid = 0;
 196              		.loc 1 118 0
 197 007c 1723     		movs	r3, #23
 198 007e FB18     		adds	r3, r7, r3
 199 0080 0022     		movs	r2, #0
 200 0082 1A70     		strb	r2, [r3]
 201              	.LBB2:
ARM GAS  C:\Users\13740\AppData\Local\Temp\cc4654uj.s 			page 8


 119:main.c        **** 
 120:main.c        ****     // 尝试读取3次，排除偶发的上电不稳定
 121:main.c        ****     for(int attempt = 1; attempt <= 3; attempt++)
 202              		.loc 1 121 0
 203 0084 0123     		movs	r3, #1
 204 0086 3B61     		str	r3, [r7, #16]
 205 0088 45E0     		b	.L2
 206              	.L8:
 122:main.c        ****     {
 123:main.c        ****         adiid = AD5940_ReadReg(REG_AFECON_ADIID);
 207              		.loc 1 123 0
 208 008a 8023     		movs	r3, #128
 209 008c DB00     		lsls	r3, r3, #3
 210 008e 1800     		movs	r0, r3
 211 0090 FFF7FEFF 		bl	AD5940_ReadReg
 212 0094 0300     		movs	r3, r0
 213 0096 FB60     		str	r3, [r7, #12]
 124:main.c        ****         chipid = AD5940_ReadReg(REG_AFECON_CHIPID);
 214              		.loc 1 124 0
 215 0098 884B     		ldr	r3, .L13+16
 216 009a 1800     		movs	r0, r3
 217 009c FFF7FEFF 		bl	AD5940_ReadReg
 218 00a0 0300     		movs	r3, r0
 219 00a2 BB60     		str	r3, [r7, #8]
 125:main.c        ****         
 126:main.c        ****         printf("  [Attempt %d] ADIID: 0x%08lX, CHIPID: 0x%08lX\r\n", attempt, adiid, chipid);
 220              		.loc 1 126 0
 221 00a4 BB68     		ldr	r3, [r7, #8]
 222 00a6 FA68     		ldr	r2, [r7, #12]
 223 00a8 3969     		ldr	r1, [r7, #16]
 224 00aa 8548     		ldr	r0, .L13+20
 225 00ac FFF7FEFF 		bl	printf
 127:main.c        **** 
 128:main.c        ****         // 判定标准：ADIID 应为 0x4144, CHIPID 应为 0x5502 (AD5941) 或 0x5501 (AD5940)
 129:main.c        ****         if(adiid == 0x4144 && (chipid == 0x5501 || chipid == 0x5502))
 226              		.loc 1 129 0
 227 00b0 FB68     		ldr	r3, [r7, #12]
 228 00b2 844A     		ldr	r2, .L13+24
 229 00b4 9342     		cmp	r3, r2
 230 00b6 10D1     		bne	.L3
 231              		.loc 1 129 0 is_stmt 0 discriminator 1
 232 00b8 BB68     		ldr	r3, [r7, #8]
 233 00ba 834A     		ldr	r2, .L13+28
 234 00bc 9342     		cmp	r3, r2
 235 00be 03D0     		beq	.L4
 236              		.loc 1 129 0 discriminator 2
 237 00c0 BB68     		ldr	r3, [r7, #8]
 238 00c2 824A     		ldr	r2, .L13+32
 239 00c4 9342     		cmp	r3, r2
 240 00c6 08D1     		bne	.L3
 241              	.L4:
 130:main.c        ****         {
 131:main.c        ****             id_valid = 1;
 242              		.loc 1 131 0 is_stmt 1
 243 00c8 1723     		movs	r3, #23
 244 00ca FB18     		adds	r3, r7, r3
 245 00cc 0122     		movs	r2, #1
ARM GAS  C:\Users\13740\AppData\Local\Temp\cc4654uj.s 			page 9


 246 00ce 1A70     		strb	r2, [r3]
 132:main.c        ****             printf("  ✅ Communication Success!\r\n");
 247              		.loc 1 132 0
 248 00d0 7F4B     		ldr	r3, .L13+36
 249 00d2 1800     		movs	r0, r3
 250 00d4 FFF7FEFF 		bl	puts
 133:main.c        ****             break;
 251              		.loc 1 133 0
 252 00d8 20E0     		b	.L5
 253              	.L3:
 134:main.c        ****         }
 135:main.c        ****         else
 136:main.c        ****         {
 137:main.c        ****             // 如果读到全是 0，可能是 MISO 没连好或者芯片没电
 138:main.c        ****             // 如果读到全是 F，可能是 MISO 短路到 VCC
 139:main.c        ****             if(adiid == 0x0000) printf("     -> Warning: Read 0x00. Check MISO Connection or Power.
 254              		.loc 1 139 0
 255 00da FB68     		ldr	r3, [r7, #12]
 256 00dc 002B     		cmp	r3, #0
 257 00de 03D1     		bne	.L6
 258              		.loc 1 139 0 is_stmt 0 discriminator 1
 259 00e0 7C4B     		ldr	r3, .L13+40
 260 00e2 1800     		movs	r0, r3
 261 00e4 FFF7FEFF 		bl	puts
 262              	.L6:
 140:main.c        ****             if(adiid == 0xFFFF) printf("     -> Warning: Read 0xFF. Check if MISO is shorted to VDD
 263              		.loc 1 140 0 is_stmt 1
 264 00e8 FB68     		ldr	r3, [r7, #12]
 265 00ea 7B4A     		ldr	r2, .L13+44
 266 00ec 9342     		cmp	r3, r2
 267 00ee 03D1     		bne	.L7
 268              		.loc 1 140 0 is_stmt 0 discriminator 1
 269 00f0 7A4B     		ldr	r3, .L13+48
 270 00f2 1800     		movs	r0, r3
 271 00f4 FFF7FEFF 		bl	puts
 272              	.L7:
 141:main.c        ****             
 142:main.c        ****             // 失败重试前再次尝试唤醒
 143:main.c        ****             AD5940_CS_Write(0); CyDelayUs(20); AD5940_CS_Write(1);
 273              		.loc 1 143 0 is_stmt 1 discriminator 2
 274 00f8 0020     		movs	r0, #0
 275 00fa FFF7FEFF 		bl	AD5940_CS_Write
 276 00fe 1420     		movs	r0, #20
 277 0100 FFF7FEFF 		bl	CyDelayUs
 278 0104 0120     		movs	r0, #1
 279 0106 FFF7FEFF 		bl	AD5940_CS_Write
 144:main.c        ****             CyDelay(50);
 280              		.loc 1 144 0 discriminator 2
 281 010a 3220     		movs	r0, #50
 282 010c FFF7FEFF 		bl	CyDelay
 121:main.c        ****     {
 283              		.loc 1 121 0 discriminator 2
 284 0110 3B69     		ldr	r3, [r7, #16]
 285 0112 0133     		adds	r3, r3, #1
 286 0114 3B61     		str	r3, [r7, #16]
 287              	.L2:
 121:main.c        ****     {
ARM GAS  C:\Users\13740\AppData\Local\Temp\cc4654uj.s 			page 10


 288              		.loc 1 121 0 is_stmt 0 discriminator 1
 289 0116 3B69     		ldr	r3, [r7, #16]
 290 0118 032B     		cmp	r3, #3
 291 011a B6DD     		ble	.L8
 292              	.L5:
 293              	.LBE2:
 145:main.c        ****         }
 146:main.c        ****     }
 147:main.c        **** 
 148:main.c        ****     if(!id_valid)
 294              		.loc 1 148 0 is_stmt 1
 295 011c 1723     		movs	r3, #23
 296 011e FB18     		adds	r3, r7, r3
 297 0120 1B78     		ldrb	r3, [r3]
 298 0122 002B     		cmp	r3, #0
 299 0124 03D1     		bne	.L9
 149:main.c        ****     {
 150:main.c        ****         printf("[ERROR] SPI Communication Failed. Halting Initialization.\r\n");
 300              		.loc 1 150 0
 301 0126 6E4B     		ldr	r3, .L13+52
 302 0128 1800     		movs	r0, r3
 303 012a FFF7FEFF 		bl	puts
 304              	.L9:
 151:main.c        ****         // 这里可以选择 return，或者继续尝试(有时候是 glitch)
 152:main.c        ****         // return; 
 153:main.c        ****     }
 154:main.c        **** 
 155:main.c        ****     // ====================================================================
 156:main.c        ****     // 步骤 4: 执行 ADI 库初始化 (AD5940_Initialize)
 157:main.c        ****     // ====================================================================
 158:main.c        ****     // 这个函数会向芯片写入大量的校准数据和默认配置
 159:main.c        ****     printf("\r\n[INIT] Step 4: Running ADI Library Init (Table 14)...\r\n");
 305              		.loc 1 159 0
 306 012e 6D4B     		ldr	r3, .L13+56
 307 0130 1800     		movs	r0, r3
 308 0132 FFF7FEFF 		bl	puts
 160:main.c        ****     AD5940_Initialize(); 
 309              		.loc 1 160 0
 310 0136 FFF7FEFF 		bl	AD5940_Initialize
 161:main.c        ****     printf("[INIT] Library Init complete.\r\n");
 311              		.loc 1 161 0
 312 013a 6B4B     		ldr	r3, .L13+60
 313 013c 1800     		movs	r0, r3
 314 013e FFF7FEFF 		bl	puts
 162:main.c        ****     
 163:main.c        ****     // 再次等待 AFE 稳定
 164:main.c        ****     CyDelay(100); 
 315              		.loc 1 164 0
 316 0142 6420     		movs	r0, #100
 317 0144 FFF7FEFF 		bl	CyDelay
 165:main.c        **** 
 166:main.c        ****     // ====================================================================
 167:main.c        ****     // 步骤 5: 配置安培法 (Amperometric) 参数
 168:main.c        ****     // ====================================================================
 169:main.c        ****     printf("[INIT] Step 5: Configuring Application Parameters...\r\n");
 318              		.loc 1 169 0
 319 0148 684B     		ldr	r3, .L13+64
ARM GAS  C:\Users\13740\AppData\Local\Temp\cc4654uj.s 			page 11


 320 014a 1800     		movs	r0, r3
 321 014c FFF7FEFF 		bl	puts
 170:main.c        ****     
 171:main.c        ****     AppAMPGetCfg(&pAmpCfg);
 322              		.loc 1 171 0
 323 0150 674B     		ldr	r3, .L13+68
 324 0152 1800     		movs	r0, r3
 325 0154 FFF7FEFF 		bl	AppAMPGetCfg
 172:main.c        ****     if(pAmpCfg == NULL)
 326              		.loc 1 172 0
 327 0158 654B     		ldr	r3, .L13+68
 328 015a 1B68     		ldr	r3, [r3]
 329 015c 002B     		cmp	r3, #0
 330 015e 04D1     		bne	.L10
 173:main.c        ****     {
 174:main.c        ****         printf("[ERROR] pAmpCfg is NULL!\r\n");
 331              		.loc 1 174 0
 332 0160 644B     		ldr	r3, .L13+72
 333 0162 1800     		movs	r0, r3
 334 0164 FFF7FEFF 		bl	puts
 175:main.c        ****         return;
 335              		.loc 1 175 0
 336 0168 9CE0     		b	.L1
 337              	.L10:
 176:main.c        ****     }
 177:main.c        ****     
 178:main.c        ****     AD5940_LPModeClkS(LPMODECLK_LFOSC);
 338              		.loc 1 178 0
 339 016a 0120     		movs	r0, #1
 340 016c FFF7FEFF 		bl	AD5940_LPModeClkS
 179:main.c        **** 
 180:main.c        ****     // --- 基础配置 ---
 181:main.c        ****     pAmpCfg->bParaChanged = bTRUE;
 341              		.loc 1 181 0
 342 0170 5F4B     		ldr	r3, .L13+68
 343 0172 1B68     		ldr	r3, [r3]
 344 0174 0122     		movs	r2, #1
 345 0176 1A70     		strb	r2, [r3]
 182:main.c        ****     pAmpCfg->SeqStartAddr = 0;
 346              		.loc 1 182 0
 347 0178 5D4B     		ldr	r3, .L13+68
 348 017a 1B68     		ldr	r3, [r3]
 349 017c 0022     		movs	r2, #0
 350 017e 5A60     		str	r2, [r3, #4]
 183:main.c        ****     pAmpCfg->MaxSeqLen = 512;
 351              		.loc 1 183 0
 352 0180 5B4B     		ldr	r3, .L13+68
 353 0182 1B68     		ldr	r3, [r3]
 354 0184 8022     		movs	r2, #128
 355 0186 9200     		lsls	r2, r2, #2
 356 0188 9A60     		str	r2, [r3, #8]
 184:main.c        ****     pAmpCfg->SeqStartAddrCal = 0;
 357              		.loc 1 184 0
 358 018a 594B     		ldr	r3, .L13+68
 359 018c 1B68     		ldr	r3, [r3]
 360 018e 0022     		movs	r2, #0
 361 0190 DA60     		str	r2, [r3, #12]
ARM GAS  C:\Users\13740\AppData\Local\Temp\cc4654uj.s 			page 12


 185:main.c        ****     pAmpCfg->MaxSeqLenCal = 512;
 362              		.loc 1 185 0
 363 0192 574B     		ldr	r3, .L13+68
 364 0194 1B68     		ldr	r3, [r3]
 365 0196 8022     		movs	r2, #128
 366 0198 9200     		lsls	r2, r2, #2
 367 019a 1A61     		str	r2, [r3, #16]
 186:main.c        ****     
 187:main.c        ****     // --- 时钟与电源 ---
 188:main.c        ****     pAmpCfg->SysClkFreq = 16000000.0;
 368              		.loc 1 188 0
 369 019c 544B     		ldr	r3, .L13+68
 370 019e 1B68     		ldr	r3, [r3]
 371 01a0 554A     		ldr	r2, .L13+76
 372 01a2 9A61     		str	r2, [r3, #24]
 189:main.c        ****     pAmpCfg->WuptClkFreq = 32000.0;
 373              		.loc 1 189 0
 374 01a4 524B     		ldr	r3, .L13+68
 375 01a6 1B68     		ldr	r3, [r3]
 376 01a8 544A     		ldr	r2, .L13+80
 377 01aa DA61     		str	r2, [r3, #28]
 190:main.c        ****     pAmpCfg->AdcClkFreq = 16000000.0;
 378              		.loc 1 190 0
 379 01ac 504B     		ldr	r3, .L13+68
 380 01ae 1B68     		ldr	r3, [r3]
 381 01b0 514A     		ldr	r2, .L13+76
 382 01b2 1A62     		str	r2, [r3, #32]
 191:main.c        ****     pAmpCfg->PwrMod = AFEPWR_LP; // 低功耗
 383              		.loc 1 191 0
 384 01b4 4E4B     		ldr	r3, .L13+68
 385 01b6 1B68     		ldr	r3, [r3]
 386 01b8 0022     		movs	r2, #0
 387 01ba 9A63     		str	r2, [r3, #56]
 192:main.c        **** 
 193:main.c        ****     // --- 测量参数 ---
 194:main.c        ****     pAmpCfg->AmpODR = 10.0;      // 采样率 10Hz
 388              		.loc 1 194 0
 389 01bc 4C4B     		ldr	r3, .L13+68
 390 01be 1B68     		ldr	r3, [r3]
 391 01c0 4F4A     		ldr	r2, .L13+84
 392 01c2 9A62     		str	r2, [r3, #40]
 195:main.c        ****     pAmpCfg->NumOfData = -1;     // -1 表示无限连续测量
 393              		.loc 1 195 0
 394 01c4 4A4B     		ldr	r3, .L13+68
 395 01c6 1B68     		ldr	r3, [r3]
 396 01c8 0122     		movs	r2, #1
 397 01ca 5242     		rsbs	r2, r2, #0
 398 01cc DA62     		str	r2, [r3, #44]
 196:main.c        ****     pAmpCfg->FifoThresh = 4;     // FIFO 阈值
 399              		.loc 1 196 0
 400 01ce 484B     		ldr	r3, .L13+68
 401 01d0 1B68     		ldr	r3, [r3]
 402 01d2 0422     		movs	r2, #4
 403 01d4 5A62     		str	r2, [r3, #36]
 197:main.c        **** 
 198:main.c        ****     // --- 电化学参数 (根据你的代码) ---
 199:main.c        ****     pAmpCfg->RcalVal = 10000.0;     // 10k 校准电阻
ARM GAS  C:\Users\13740\AppData\Local\Temp\cc4654uj.s 			page 13


 404              		.loc 1 199 0
 405 01d6 464B     		ldr	r3, .L13+68
 406 01d8 1B68     		ldr	r3, [r3]
 407 01da 4A4A     		ldr	r2, .L13+88
 408 01dc 1A63     		str	r2, [r3, #48]
 200:main.c        ****     pAmpCfg->ADCRefVolt = 1.82;     // Vref 1.82V
 409              		.loc 1 200 0
 410 01de 444B     		ldr	r3, .L13+68
 411 01e0 1B68     		ldr	r3, [r3]
 412 01e2 494A     		ldr	r2, .L13+92
 413 01e4 5A63     		str	r2, [r3, #52]
 201:main.c        ****     pAmpCfg->ExtRtia = bFALSE;      // 使用内部 RTIA
 414              		.loc 1 201 0
 415 01e6 424B     		ldr	r3, .L13+68
 416 01e8 1B68     		ldr	r3, [r3]
 417 01ea 6422     		movs	r2, #100
 418 01ec 0021     		movs	r1, #0
 419 01ee 9954     		strb	r1, [r3, r2]
 202:main.c        **** 
 203:main.c        ****     // --- LPTIA (低功耗跨阻放大器) ---
 204:main.c        ****     pAmpCfg->LptiaRtiaSel = LPTIARTIA_10K; // 反馈电阻 10k
 420              		.loc 1 204 0
 421 01f0 3F4B     		ldr	r3, .L13+68
 422 01f2 1B68     		ldr	r3, [r3]
 423 01f4 0822     		movs	r2, #8
 424 01f6 9A64     		str	r2, [r3, #72]
 205:main.c        ****     pAmpCfg->LpTiaRf = LPTIARF_1M;         // 滤波电阻
 425              		.loc 1 205 0
 426 01f8 3D4B     		ldr	r3, .L13+68
 427 01fa 1B68     		ldr	r3, [r3]
 428 01fc 0722     		movs	r2, #7
 429 01fe DA64     		str	r2, [r3, #76]
 206:main.c        ****     pAmpCfg->LpTiaRl = LPTIARLOAD_100R;    // 负载电阻
 430              		.loc 1 206 0
 431 0200 3B4B     		ldr	r3, .L13+68
 432 0202 1B68     		ldr	r3, [r3]
 433 0204 0422     		movs	r2, #4
 434 0206 1A65     		str	r2, [r3, #80]
 207:main.c        ****     
 208:main.c        ****     // --- 偏置电压 ---
 209:main.c        ****     pAmpCfg->Vzero = 1100.0;      // Vzero = 1.1V
 435              		.loc 1 209 0
 436 0208 394B     		ldr	r3, .L13+68
 437 020a 1B68     		ldr	r3, [r3]
 438 020c 3F4A     		ldr	r2, .L13+96
 439 020e DA65     		str	r2, [r3, #92]
 210:main.c        ****     pAmpCfg->SensorBias = 0.0;    // Vbias = 0V (Sensor = Vzero)
 440              		.loc 1 210 0
 441 0210 374B     		ldr	r3, .L13+68
 442 0212 1B68     		ldr	r3, [r3]
 443 0214 0022     		movs	r2, #0
 444 0216 1A66     		str	r2, [r3, #96]
 211:main.c        **** 
 212:main.c        ****     // --- ADC ---
 213:main.c        ****     pAmpCfg->ADCPgaGain = ADCPGA_1P5;
 445              		.loc 1 213 0
 446 0218 354B     		ldr	r3, .L13+68
ARM GAS  C:\Users\13740\AppData\Local\Temp\cc4654uj.s 			page 14


 447 021a 1B68     		ldr	r3, [r3]
 448 021c 0122     		movs	r2, #1
 449 021e DA63     		str	r2, [r3, #60]
 214:main.c        ****     pAmpCfg->ADCSinc3Osr = ADCSINC3OSR_4;
 450              		.loc 1 214 0
 451 0220 334B     		ldr	r3, .L13+68
 452 0222 1B68     		ldr	r3, [r3]
 453 0224 4022     		movs	r2, #64
 454 0226 0121     		movs	r1, #1
 455 0228 9954     		strb	r1, [r3, r2]
 215:main.c        ****     pAmpCfg->ADCSinc2Osr = ADCSINC2OSR_178;
 456              		.loc 1 215 0
 457 022a 314B     		ldr	r3, .L13+68
 458 022c 1B68     		ldr	r3, [r3]
 459 022e 4122     		movs	r2, #65
 460 0230 0321     		movs	r1, #3
 461 0232 9954     		strb	r1, [r3, r2]
 216:main.c        ****     pAmpCfg->DataFifoSrc = FIFOSRC_SINC3;
 462              		.loc 1 216 0
 463 0234 2E4B     		ldr	r3, .L13+68
 464 0236 1B68     		ldr	r3, [r3]
 465 0238 0022     		movs	r2, #0
 466 023a 5A64     		str	r2, [r3, #68]
 217:main.c        **** 
 218:main.c        ****     // 清除状态
 219:main.c        ****     pAmpCfg->AMPInited = bFALSE;
 467              		.loc 1 219 0
 468 023c 2C4B     		ldr	r3, .L13+68
 469 023e 1B68     		ldr	r3, [r3]
 470 0240 6C22     		movs	r2, #108
 471 0242 0021     		movs	r1, #0
 472 0244 9954     		strb	r1, [r3, r2]
 220:main.c        ****     pAmpCfg->StopRequired = bFALSE;
 473              		.loc 1 220 0
 474 0246 2A4B     		ldr	r3, .L13+68
 475 0248 1B68     		ldr	r3, [r3]
 476 024a 9822     		movs	r2, #152
 477 024c 0021     		movs	r1, #0
 478 024e 9954     		strb	r1, [r3, r2]
 221:main.c        ****     pAmpCfg->FifoDataCount = 0;
 479              		.loc 1 221 0
 480 0250 274B     		ldr	r3, .L13+68
 481 0252 1B68     		ldr	r3, [r3]
 482 0254 9C22     		movs	r2, #156
 483 0256 0021     		movs	r1, #0
 484 0258 9950     		str	r1, [r3, r2]
 222:main.c        **** 
 223:main.c        ****     // ====================================================================
 224:main.c        ****     // 步骤 6: 启动应用
 225:main.c        ****     // ====================================================================
 226:main.c        ****     printf("[INIT] Step 6: Calling AppAMPInit...\r\n");
 485              		.loc 1 226 0
 486 025a 2D4B     		ldr	r3, .L13+100
 487 025c 1800     		movs	r0, r3
 488 025e FFF7FEFF 		bl	puts
 227:main.c        ****     error = AppAMPInit(ampBuffer, 512);
 489              		.loc 1 227 0
ARM GAS  C:\Users\13740\AppData\Local\Temp\cc4654uj.s 			page 15


 490 0262 8023     		movs	r3, #128
 491 0264 9A00     		lsls	r2, r3, #2
 492 0266 2B4B     		ldr	r3, .L13+104
 493 0268 1100     		movs	r1, r2
 494 026a 1800     		movs	r0, r3
 495 026c FFF7FEFF 		bl	AppAMPInit
 496 0270 0300     		movs	r3, r0
 497 0272 7B60     		str	r3, [r7, #4]
 228:main.c        ****     
 229:main.c        ****     if(error == AD5940ERR_OK)
 498              		.loc 1 229 0
 499 0274 7B68     		ldr	r3, [r7, #4]
 500 0276 002B     		cmp	r3, #0
 501 0278 0ED1     		bne	.L12
 230:main.c        ****     {
 231:main.c        ****         printf("[OK] AD5941 System Initialized Successfully.\r\n");
 502              		.loc 1 231 0
 503 027a 274B     		ldr	r3, .L13+108
 504 027c 1800     		movs	r0, r3
 505 027e FFF7FEFF 		bl	puts
 232:main.c        ****         printf("     AMPInited Flag: %d\r\n", pAmpCfg->AMPInited);
 506              		.loc 1 232 0
 507 0282 1B4B     		ldr	r3, .L13+68
 508 0284 1B68     		ldr	r3, [r3]
 509 0286 6C22     		movs	r2, #108
 510 0288 9B5C     		ldrb	r3, [r3, r2]
 511 028a 1A00     		movs	r2, r3
 512 028c 234B     		ldr	r3, .L13+112
 513 028e 1100     		movs	r1, r2
 514 0290 1800     		movs	r0, r3
 515 0292 FFF7FEFF 		bl	printf
 516 0296 05E0     		b	.L1
 517              	.L12:
 233:main.c        ****     }
 234:main.c        ****     else
 235:main.c        ****     {
 236:main.c        ****         printf("[ERROR] AppAMPInit failed with error code: %d\r\n", error);
 518              		.loc 1 236 0
 519 0298 7A68     		ldr	r2, [r7, #4]
 520 029a 214B     		ldr	r3, .L13+116
 521 029c 1100     		movs	r1, r2
 522 029e 1800     		movs	r0, r3
 523 02a0 FFF7FEFF 		bl	printf
 524              	.L1:
 237:main.c        ****     }
 238:main.c        **** }
 525              		.loc 1 238 0
 526 02a4 BD46     		mov	sp, r7
 527 02a6 06B0     		add	sp, sp, #24
 528              		@ sp needed
 529 02a8 80BD     		pop	{r7, pc}
 530              	.L14:
 531 02aa C046     		.align	2
 532              	.L13:
 533 02ac 00000000 		.word	.LC0
 534 02b0 28000000 		.word	.LC2
 535 02b4 4C000000 		.word	.LC4
ARM GAS  C:\Users\13740\AppData\Local\Temp\cc4654uj.s 			page 16


 536 02b8 78000000 		.word	.LC6
 537 02bc 04040000 		.word	1028
 538 02c0 A4000000 		.word	.LC8
 539 02c4 44410000 		.word	16708
 540 02c8 01550000 		.word	21761
 541 02cc 02550000 		.word	21762
 542 02d0 D8000000 		.word	.LC10
 543 02d4 F8000000 		.word	.LC12
 544 02d8 FFFF0000 		.word	65535
 545 02dc 38010000 		.word	.LC14
 546 02e0 78010000 		.word	.LC16
 547 02e4 B4010000 		.word	.LC18
 548 02e8 F0010000 		.word	.LC20
 549 02ec 10020000 		.word	.LC22
 550 02f0 00000000 		.word	pAmpCfg
 551 02f4 48020000 		.word	.LC25
 552 02f8 0024744B 		.word	1265902592
 553 02fc 0000FA46 		.word	1190789120
 554 0300 00002041 		.word	1092616192
 555 0304 00401C46 		.word	1176256512
 556 0308 C3F5E83F 		.word	1072231875
 557 030c 00808944 		.word	1149861888
 558 0310 64020000 		.word	.LC27
 559 0314 00000000 		.word	ampBuffer
 560 0318 8C020000 		.word	.LC30
 561 031c BC020000 		.word	.LC32
 562 0320 D8020000 		.word	.LC34
 563              		.cfi_endproc
 564              	.LFE36:
 565              		.size	AD5941_Initialize, .-AD5941_Initialize
 566              		.section	.rodata
 567              		.align	2
 568              	.LC36:
 569 0308 0A3D3D3D 		.ascii	"\012=== ELECTRODE CONFIGURATION ===\000"
 569      20454C45 
 569      4354524F 
 569      44452043 
 569      4F4E4649 
 570 0329 000000   		.align	2
 571              	.LC38:
 572 032c 5B444542 		.ascii	"[DEBUG] Electrode Control Pin Status:\000"
 572      55475D20 
 572      456C6563 
 572      74726F64 
 572      6520436F 
 573 0352 0000     		.align	2
 574              	.LC40:
 575 0354 20202020 		.ascii	"    AMP1_EN (Glucose): %d\012\000"
 575      414D5031 
 575      5F454E20 
 575      28476C75 
 575      636F7365 
 576 036f 00       		.align	2
 577              	.LC42:
 578 0370 20202020 		.ascii	"    AMP2_EN (Lactate): %d\012\000"
 578      414D5032 
 578      5F454E20 
ARM GAS  C:\Users\13740\AppData\Local\Temp\cc4654uj.s 			page 17


 578      284C6163 
 578      74617465 
 579 038b 00       		.align	2
 580              	.LC44:
 581 038c 20202020 		.ascii	"    AMP3_EN (Uric Acid): %d\012\000"
 581      414D5033 
 581      5F454E20 
 581      28557269 
 581      63204163 
 582 03a9 000000   		.align	2
 583              	.LC46:
 584 03ac 0A5B4348 		.ascii	"\012[CHECK] Please verify:\000"
 584      45434B5D 
 584      20506C65 
 584      61736520 
 584      76657269 
 585              		.align	2
 586              	.LC48:
 587 03c4 20202020 		.ascii	"    1. WE (Working Electrode): Connected to appropr"
 587      312E2057 
 587      45202857 
 587      6F726B69 
 587      6E672045 
 588 03f7 69617465 		.ascii	"iate sensor\000"
 588      2073656E 
 588      736F7200 
 589 0403 00       		.align	2
 590              	.LC50:
 591 0404 20202020 		.ascii	"    2. RE (Reference Electrode): Connected to Ag/Ag"
 591      322E2052 
 591      45202852 
 591      65666572 
 591      656E6365 
 592 0437 436C206F 		.ascii	"Cl or similar\000"
 592      72207369 
 592      6D696C61 
 592      7200
 593 0445 000000   		.align	2
 594              	.LC52:
 595 0448 20202020 		.ascii	"    3. CE (Counter Electrode): Connected to carbon "
 595      332E2043 
 595      45202843 
 595      6F756E74 
 595      65722045 
 596 047b 6F722073 		.ascii	"or similar\000"
 596      696D696C 
 596      617200
 597              		.global	__aeabi_f2d
 598 0486 0000     		.align	2
 599              	.LC55:
 600 0488 20202020 		.ascii	"    4. Sensor bias voltage: %.1f mV\012\000"
 600      342E2053 
 600      656E736F 
 600      72206269 
 600      61732076 
 601 04ad 000000   		.align	2
 602              	.LC57:
ARM GAS  C:\Users\13740\AppData\Local\Temp\cc4654uj.s 			page 18


 603 04b0 20202020 		.ascii	"    5. RTIA value: %.0f Ohm\012\000"
 603      352E2052 
 603      54494120 
 603      76616C75 
 603      653A2025 
 604 04cd 000000   		.align	2
 605              	.LC59:
 606 04d0 3D3D3D20 		.ascii	"=== ELECTRODE TEST END ===\012\000"
 606      454C4543 
 606      54524F44 
 606      45205445 
 606      53542045 
 607              		.section	.text.DiagnosticsElectrodes,"ax",%progbits
 608              		.align	2
 609              		.global	DiagnosticsElectrodes
 610              		.code	16
 611              		.thumb_func
 612              		.type	DiagnosticsElectrodes, %function
 613              	DiagnosticsElectrodes:
 614              	.LFB37:
 239:main.c        **** 
 240:main.c        **** 
 241:main.c        **** 
 242:main.c        **** /*******************************************************************************
 243:main.c        **** * Function Name: DiagnosticsElectrodes
 244:main.c        **** ********************************************************************************
 245:main.c        **** * Summary:
 246:main.c        **** *   诊断电极配置和接线
 247:main.c        **** *******************************************************************************/
 248:main.c        **** void DiagnosticsElectrodes(void)
 249:main.c        **** {
 615              		.loc 1 249 0
 616              		.cfi_startproc
 617              		@ args = 0, pretend = 0, frame = 0
 618              		@ frame_needed = 1, uses_anonymous_args = 0
 619 0000 B0B5     		push	{r4, r5, r7, lr}
 620              		.cfi_def_cfa_offset 16
 621              		.cfi_offset 4, -16
 622              		.cfi_offset 5, -12
 623              		.cfi_offset 7, -8
 624              		.cfi_offset 14, -4
 625 0002 00AF     		add	r7, sp, #0
 626              		.cfi_def_cfa_register 7
 250:main.c        ****     printf("\n=== ELECTRODE CONFIGURATION ===\n");
 627              		.loc 1 250 0
 628 0004 2A4B     		ldr	r3, .L16
 629 0006 1800     		movs	r0, r3
 630 0008 FFF7FEFF 		bl	puts
 251:main.c        ****     
 252:main.c        ****     printf("[DEBUG] Electrode Control Pin Status:\n");
 631              		.loc 1 252 0
 632 000c 294B     		ldr	r3, .L16+4
 633 000e 1800     		movs	r0, r3
 634 0010 FFF7FEFF 		bl	puts
 253:main.c        ****     printf("    AMP1_EN (Glucose): %d\n", (int)AMP1_EN_Read());
 635              		.loc 1 253 0
 636 0014 FFF7FEFF 		bl	AMP1_EN_Read
ARM GAS  C:\Users\13740\AppData\Local\Temp\cc4654uj.s 			page 19


 637 0018 0300     		movs	r3, r0
 638 001a 1A00     		movs	r2, r3
 639 001c 264B     		ldr	r3, .L16+8
 640 001e 1100     		movs	r1, r2
 641 0020 1800     		movs	r0, r3
 642 0022 FFF7FEFF 		bl	printf
 254:main.c        ****     printf("    AMP2_EN (Lactate): %d\n", (int)AMP2_EN_Read());
 643              		.loc 1 254 0
 644 0026 FFF7FEFF 		bl	AMP2_EN_Read
 645 002a 0300     		movs	r3, r0
 646 002c 1A00     		movs	r2, r3
 647 002e 234B     		ldr	r3, .L16+12
 648 0030 1100     		movs	r1, r2
 649 0032 1800     		movs	r0, r3
 650 0034 FFF7FEFF 		bl	printf
 255:main.c        ****     printf("    AMP3_EN (Uric Acid): %d\n", (int)AMP3_EN_Read());
 651              		.loc 1 255 0
 652 0038 FFF7FEFF 		bl	AMP3_EN_Read
 653 003c 0300     		movs	r3, r0
 654 003e 1A00     		movs	r2, r3
 655 0040 1F4B     		ldr	r3, .L16+16
 656 0042 1100     		movs	r1, r2
 657 0044 1800     		movs	r0, r3
 658 0046 FFF7FEFF 		bl	printf
 256:main.c        ****     
 257:main.c        ****     printf("\n[CHECK] Please verify:\n");
 659              		.loc 1 257 0
 660 004a 1E4B     		ldr	r3, .L16+20
 661 004c 1800     		movs	r0, r3
 662 004e FFF7FEFF 		bl	puts
 258:main.c        ****     printf("    1. WE (Working Electrode): Connected to appropriate sensor\n");
 663              		.loc 1 258 0
 664 0052 1D4B     		ldr	r3, .L16+24
 665 0054 1800     		movs	r0, r3
 666 0056 FFF7FEFF 		bl	puts
 259:main.c        ****     printf("    2. RE (Reference Electrode): Connected to Ag/AgCl or similar\n");
 667              		.loc 1 259 0
 668 005a 1C4B     		ldr	r3, .L16+28
 669 005c 1800     		movs	r0, r3
 670 005e FFF7FEFF 		bl	puts
 260:main.c        ****     printf("    3. CE (Counter Electrode): Connected to carbon or similar\n");
 671              		.loc 1 260 0
 672 0062 1B4B     		ldr	r3, .L16+32
 673 0064 1800     		movs	r0, r3
 674 0066 FFF7FEFF 		bl	puts
 261:main.c        ****     printf("    4. Sensor bias voltage: %.1f mV\n", (double)pAmpCfg->SensorBias);
 675              		.loc 1 261 0
 676 006a 1A4B     		ldr	r3, .L16+36
 677 006c 1B68     		ldr	r3, [r3]
 678 006e 1B6E     		ldr	r3, [r3, #96]
 679 0070 181C     		adds	r0, r3, #0
 680 0072 FFF7FEFF 		bl	__aeabi_f2d
 681 0076 0300     		movs	r3, r0
 682 0078 0C00     		movs	r4, r1
 683 007a 1749     		ldr	r1, .L16+40
 684 007c 1A00     		movs	r2, r3
 685 007e 2300     		movs	r3, r4
ARM GAS  C:\Users\13740\AppData\Local\Temp\cc4654uj.s 			page 20


 686 0080 0800     		movs	r0, r1
 687 0082 FFF7FEFF 		bl	printf
 262:main.c        ****     printf("    5. RTIA value: %.0f Ohm\n", (double)pAmpCfg->RtiaCalValue.Magnitude);
 688              		.loc 1 262 0
 689 0086 134B     		ldr	r3, .L16+36
 690 0088 1B68     		ldr	r3, [r3]
 691 008a 5B6D     		ldr	r3, [r3, #84]
 692 008c 181C     		adds	r0, r3, #0
 693 008e FFF7FEFF 		bl	__aeabi_f2d
 694 0092 0300     		movs	r3, r0
 695 0094 0C00     		movs	r4, r1
 696 0096 1149     		ldr	r1, .L16+44
 697 0098 1A00     		movs	r2, r3
 698 009a 2300     		movs	r3, r4
 699 009c 0800     		movs	r0, r1
 700 009e FFF7FEFF 		bl	printf
 263:main.c        ****     
 264:main.c        ****     printf("=== ELECTRODE TEST END ===\n\n");
 701              		.loc 1 264 0
 702 00a2 0F4B     		ldr	r3, .L16+48
 703 00a4 1800     		movs	r0, r3
 704 00a6 FFF7FEFF 		bl	puts
 265:main.c        **** }
 705              		.loc 1 265 0
 706 00aa C046     		nop
 707 00ac BD46     		mov	sp, r7
 708              		@ sp needed
 709 00ae B0BD     		pop	{r4, r5, r7, pc}
 710              	.L17:
 711              		.align	2
 712              	.L16:
 713 00b0 08030000 		.word	.LC36
 714 00b4 2C030000 		.word	.LC38
 715 00b8 54030000 		.word	.LC40
 716 00bc 70030000 		.word	.LC42
 717 00c0 8C030000 		.word	.LC44
 718 00c4 AC030000 		.word	.LC46
 719 00c8 C4030000 		.word	.LC48
 720 00cc 04040000 		.word	.LC50
 721 00d0 48040000 		.word	.LC52
 722 00d4 00000000 		.word	pAmpCfg
 723 00d8 88040000 		.word	.LC55
 724 00dc B0040000 		.word	.LC57
 725 00e0 D0040000 		.word	.LC59
 726              		.cfi_endproc
 727              	.LFE37:
 728              		.size	DiagnosticsElectrodes, .-DiagnosticsElectrodes
 729              		.global	__aeabi_fmul
 730              		.section	.text.MeasureAmperometricSensor,"ax",%progbits
 731              		.align	2
 732              		.global	MeasureAmperometricSensor
 733              		.code	16
 734              		.thumb_func
 735              		.type	MeasureAmperometricSensor, %function
 736              	MeasureAmperometricSensor:
 737              	.LFB38:
 266:main.c        **** 
ARM GAS  C:\Users\13740\AppData\Local\Temp\cc4654uj.s 			page 21


 267:main.c        **** 
 268:main.c        **** 
 269:main.c        **** /*******************************************************************************
 270:main.c        **** * Function Name: MeasureAmperometricSensor
 271:main.c        **** ********************************************************************************
 272:main.c        **** * Summary:
 273:main.c        **** *   测量安培法传感器 - 修复后版本
 274:main.c        **** *   不使用AMux，直接使用AD5941的WE0/WE1/WE2通道
 275:main.c        **** *******************************************************************************/
 276:main.c        **** float MeasureAmperometricSensor(AmperometricSensor_t sensorType)
 277:main.c        **** {
 738              		.loc 1 277 0
 739              		.cfi_startproc
 740              		@ args = 0, pretend = 0, frame = 24
 741              		@ frame_needed = 1, uses_anonymous_args = 0
 742 0000 80B5     		push	{r7, lr}
 743              		.cfi_def_cfa_offset 8
 744              		.cfi_offset 7, -8
 745              		.cfi_offset 14, -4
 746 0002 86B0     		sub	sp, sp, #24
 747              		.cfi_def_cfa_offset 32
 748 0004 00AF     		add	r7, sp, #0
 749              		.cfi_def_cfa_register 7
 750 0006 0200     		movs	r2, r0
 751 0008 FB1D     		adds	r3, r7, #7
 752 000a 1A70     		strb	r2, [r3]
 278:main.c        ****     float current_uA = 0;
 753              		.loc 1 278 0
 754 000c 0023     		movs	r3, #0
 755 000e 7B61     		str	r3, [r7, #20]
 279:main.c        ****     uint32_t dataCount = 0;
 756              		.loc 1 279 0
 757 0010 0023     		movs	r3, #0
 758 0012 FB60     		str	r3, [r7, #12]
 280:main.c        ****     AD5940Err error;
 281:main.c        ****     
 282:main.c        ****     
 283:main.c        ****     // 注意：如果不使用AMux，AD5941会使用默认的WE0通道
 284:main.c        ****     // 如果需要切换WE通道，需要在配置中修改
 285:main.c        ****     
 286:main.c        ****     // 启动测量
 287:main.c        ****     error = AppAMPCtrl(AMPCTRL_START, NULL);
 759              		.loc 1 287 0
 760 0014 0021     		movs	r1, #0
 761 0016 0020     		movs	r0, #0
 762 0018 FFF7FEFF 		bl	AppAMPCtrl
 763 001c 0300     		movs	r3, r0
 764 001e 3B61     		str	r3, [r7, #16]
 288:main.c        ****     if(error != AD5940ERR_OK)
 765              		.loc 1 288 0
 766 0020 3B69     		ldr	r3, [r7, #16]
 767 0022 002B     		cmp	r3, #0
 768 0024 01D0     		beq	.L19
 289:main.c        ****     {
 290:main.c        ****         return 0;
 769              		.loc 1 290 0
 770 0026 0023     		movs	r3, #0
ARM GAS  C:\Users\13740\AppData\Local\Temp\cc4654uj.s 			page 22


 771 0028 20E0     		b	.L22
 772              	.L19:
 291:main.c        ****     }
 292:main.c        ****     
 293:main.c        ****     // 等待测量稳定（安培法需要500ms）
 294:main.c        ****     CyDelay(500);
 773              		.loc 1 294 0
 774 002a FA23     		movs	r3, #250
 775 002c 5B00     		lsls	r3, r3, #1
 776 002e 1800     		movs	r0, r3
 777 0030 FFF7FEFF 		bl	CyDelay
 295:main.c        ****     
 296:main.c        ****     // 读取FIFO数据
 297:main.c        ****     error = AppAMPISR(&ampResult, &dataCount);
 778              		.loc 1 297 0
 779 0034 0C23     		movs	r3, #12
 780 0036 FA18     		adds	r2, r7, r3
 781 0038 0E4B     		ldr	r3, .L23
 782 003a 1100     		movs	r1, r2
 783 003c 1800     		movs	r0, r3
 784 003e FFF7FEFF 		bl	AppAMPISR
 785 0042 0300     		movs	r3, r0
 786 0044 3B61     		str	r3, [r7, #16]
 298:main.c        ****     
 299:main.c        ****     if(error == AD5940ERR_OK && dataCount > 0)
 787              		.loc 1 299 0
 788 0046 3B69     		ldr	r3, [r7, #16]
 789 0048 002B     		cmp	r3, #0
 790 004a 0AD1     		bne	.L21
 791              		.loc 1 299 0 is_stmt 0 discriminator 1
 792 004c FB68     		ldr	r3, [r7, #12]
 793 004e 002B     		cmp	r3, #0
 794 0050 07D0     		beq	.L21
 300:main.c        ****     {
 301:main.c        ****         // 获取电流值（fAmpRes_Type结构体中的Current成员）
 302:main.c        ****         current_uA = ampResult.Current * 1000.0;  // 转换为nA
 795              		.loc 1 302 0 is_stmt 1
 796 0052 084B     		ldr	r3, .L23
 797 0054 1B68     		ldr	r3, [r3]
 798 0056 0849     		ldr	r1, .L23+4
 799 0058 181C     		adds	r0, r3, #0
 800 005a FFF7FEFF 		bl	__aeabi_fmul
 801 005e 031C     		adds	r3, r0, #0
 802 0060 7B61     		str	r3, [r7, #20]
 803              	.L21:
 303:main.c        ****     }
 304:main.c        ****     else
 305:main.c        ****     {
 306:main.c        ****     }
 307:main.c        ****     
 308:main.c        ****     // 停止测量
 309:main.c        ****     AppAMPCtrl(AMPCTRL_STOPNOW, NULL);
 804              		.loc 1 309 0
 805 0062 0021     		movs	r1, #0
 806 0064 0120     		movs	r0, #1
 807 0066 FFF7FEFF 		bl	AppAMPCtrl
 310:main.c        ****     
ARM GAS  C:\Users\13740\AppData\Local\Temp\cc4654uj.s 			page 23


 311:main.c        ****     return current_uA;
 808              		.loc 1 311 0
 809 006a 7B69     		ldr	r3, [r7, #20]
 810              	.L22:
 312:main.c        **** }
 811              		.loc 1 312 0 discriminator 1
 812 006c 181C     		adds	r0, r3, #0
 813 006e BD46     		mov	sp, r7
 814 0070 06B0     		add	sp, sp, #24
 815              		@ sp needed
 816 0072 80BD     		pop	{r7, pc}
 817              	.L24:
 818              		.align	2
 819              	.L23:
 820 0074 00000000 		.word	ampResult
 821 0078 00007A44 		.word	1148846080
 822              		.cfi_endproc
 823              	.LFE38:
 824              		.size	MeasureAmperometricSensor, .-MeasureAmperometricSensor
 825              		.global	__aeabi_ddiv
 826              		.global	__aeabi_d2f
 827              		.section	.text.ConvertCurrentToConcentration,"ax",%progbits
 828              		.align	2
 829              		.global	ConvertCurrentToConcentration
 830              		.code	16
 831              		.thumb_func
 832              		.type	ConvertCurrentToConcentration, %function
 833              	ConvertCurrentToConcentration:
 834              	.LFB39:
 313:main.c        **** 
 314:main.c        **** /*******************************************************************************
 315:main.c        **** * Function Name: ConvertCurrentToConcentration
 316:main.c        **** ********************************************************************************
 317:main.c        **** * Summary:
 318:main.c        **** *   将电流值转换为浓度（根据论文校准系数）
 319:main.c        **** *******************************************************************************/
 320:main.c        **** float ConvertCurrentToConcentration(float current_nA, uint8 sensorType)
 321:main.c        **** {
 835              		.loc 1 321 0
 836              		.cfi_startproc
 837              		@ args = 0, pretend = 0, frame = 16
 838              		@ frame_needed = 1, uses_anonymous_args = 0
 839 0000 90B5     		push	{r4, r7, lr}
 840              		.cfi_def_cfa_offset 12
 841              		.cfi_offset 4, -12
 842              		.cfi_offset 7, -8
 843              		.cfi_offset 14, -4
 844 0002 85B0     		sub	sp, sp, #20
 845              		.cfi_def_cfa_offset 32
 846 0004 00AF     		add	r7, sp, #0
 847              		.cfi_def_cfa_register 7
 848 0006 7860     		str	r0, [r7, #4]
 849 0008 0A00     		movs	r2, r1
 850 000a FB1C     		adds	r3, r7, #3
 851 000c 1A70     		strb	r2, [r3]
 322:main.c        ****     float concentration = 0;
 852              		.loc 1 322 0
ARM GAS  C:\Users\13740\AppData\Local\Temp\cc4654uj.s 			page 24


 853 000e 0023     		movs	r3, #0
 854 0010 FB60     		str	r3, [r7, #12]
 323:main.c        ****     
 324:main.c        ****     switch(sensorType)
 855              		.loc 1 324 0
 856 0012 FB1C     		adds	r3, r7, #3
 857 0014 1B78     		ldrb	r3, [r3]
 858 0016 012B     		cmp	r3, #1
 859 0018 13D0     		beq	.L27
 860 001a 022B     		cmp	r3, #2
 861 001c 21D0     		beq	.L28
 862 001e 002B     		cmp	r3, #0
 863 0020 2FD1     		bne	.L32
 325:main.c        ****     {
 326:main.c        ****         case SENSOR_GLUCOSE:
 327:main.c        ****             concentration = current_nA / 16.34;  // 16.34 nA/mM
 864              		.loc 1 327 0
 865 0022 7868     		ldr	r0, [r7, #4]
 866 0024 FFF7FEFF 		bl	__aeabi_f2d
 867 0028 1A4A     		ldr	r2, .L33
 868 002a 1B4B     		ldr	r3, .L33+4
 869 002c FFF7FEFF 		bl	__aeabi_ddiv
 870 0030 0300     		movs	r3, r0
 871 0032 0C00     		movs	r4, r1
 872 0034 1800     		movs	r0, r3
 873 0036 2100     		movs	r1, r4
 874 0038 FFF7FEFF 		bl	__aeabi_d2f
 875 003c 031C     		adds	r3, r0, #0
 876 003e FB60     		str	r3, [r7, #12]
 328:main.c        ****             break;
 877              		.loc 1 328 0
 878 0040 22E0     		b	.L30
 879              	.L27:
 329:main.c        ****             
 330:main.c        ****         case SENSOR_LACTATE:
 331:main.c        ****             concentration = current_nA / 41.44;  // 41.44 nA/mM
 880              		.loc 1 331 0
 881 0042 7868     		ldr	r0, [r7, #4]
 882 0044 FFF7FEFF 		bl	__aeabi_f2d
 883 0048 144A     		ldr	r2, .L33+8
 884 004a 154B     		ldr	r3, .L33+12
 885 004c FFF7FEFF 		bl	__aeabi_ddiv
 886 0050 0300     		movs	r3, r0
 887 0052 0C00     		movs	r4, r1
 888 0054 1800     		movs	r0, r3
 889 0056 2100     		movs	r1, r4
 890 0058 FFF7FEFF 		bl	__aeabi_d2f
 891 005c 031C     		adds	r3, r0, #0
 892 005e FB60     		str	r3, [r7, #12]
 332:main.c        ****             break;
 893              		.loc 1 332 0
 894 0060 12E0     		b	.L30
 895              	.L28:
 333:main.c        ****             
 334:main.c        ****         case SENSOR_URIC_ACID:
 335:main.c        ****             concentration = current_nA / 189.60; // 189.60 nA/μM
 896              		.loc 1 335 0
ARM GAS  C:\Users\13740\AppData\Local\Temp\cc4654uj.s 			page 25


 897 0062 7868     		ldr	r0, [r7, #4]
 898 0064 FFF7FEFF 		bl	__aeabi_f2d
 899 0068 0E4A     		ldr	r2, .L33+16
 900 006a 0F4B     		ldr	r3, .L33+20
 901 006c FFF7FEFF 		bl	__aeabi_ddiv
 902 0070 0300     		movs	r3, r0
 903 0072 0C00     		movs	r4, r1
 904 0074 1800     		movs	r0, r3
 905 0076 2100     		movs	r1, r4
 906 0078 FFF7FEFF 		bl	__aeabi_d2f
 907 007c 031C     		adds	r3, r0, #0
 908 007e FB60     		str	r3, [r7, #12]
 336:main.c        ****             break;
 909              		.loc 1 336 0
 910 0080 02E0     		b	.L30
 911              	.L32:
 337:main.c        ****             
 338:main.c        ****         default:
 339:main.c        ****             concentration = 0;
 912              		.loc 1 339 0
 913 0082 0023     		movs	r3, #0
 914 0084 FB60     		str	r3, [r7, #12]
 340:main.c        ****             break;
 915              		.loc 1 340 0
 916 0086 C046     		nop
 917              	.L30:
 341:main.c        ****     }
 342:main.c        ****     
 343:main.c        ****     return concentration;
 918              		.loc 1 343 0
 919 0088 FB68     		ldr	r3, [r7, #12]
 344:main.c        **** }
 920              		.loc 1 344 0
 921 008a 181C     		adds	r0, r3, #0
 922 008c BD46     		mov	sp, r7
 923 008e 05B0     		add	sp, sp, #20
 924              		@ sp needed
 925 0090 90BD     		pop	{r4, r7, pc}
 926              	.L34:
 927 0092 C046     		.align	2
 928              	.L33:
 929 0094 D7A3703D 		.word	1030792151
 930 0098 0A573040 		.word	1076909834
 931 009c B81E85EB 		.word	-343597384
 932 00a0 51B84440 		.word	1078245457
 933 00a4 33333333 		.word	858993459
 934 00a8 33B36740 		.word	1080537907
 935              		.cfi_endproc
 936              	.LFE39:
 937              		.size	ConvertCurrentToConcentration, .-ConvertCurrentToConcentration
 938              		.section	.text.MeasureTemperature,"ax",%progbits
 939              		.align	2
 940              		.global	MeasureTemperature
 941              		.code	16
 942              		.thumb_func
 943              		.type	MeasureTemperature, %function
 944              	MeasureTemperature:
ARM GAS  C:\Users\13740\AppData\Local\Temp\cc4654uj.s 			page 26


 945              	.LFB40:
 345:main.c        **** 
 346:main.c        **** /*******************************************************************************
 347:main.c        **** * Function Name: MeasureTemperature
 348:main.c        **** ********************************************************************************
 349:main.c        **** * Summary:
 350:main.c        **** *   使用AD5940的ADC测量温度传感器
 351:main.c        **** *   替代PSoC的ADC模块
 352:main.c        **** *******************************************************************************/
 353:main.c        **** float MeasureTemperature(void)
 354:main.c        **** {
 946              		.loc 1 354 0
 947              		.cfi_startproc
 948              		@ args = 0, pretend = 0, frame = 8
 949              		@ frame_needed = 1, uses_anonymous_args = 0
 950 0000 80B5     		push	{r7, lr}
 951              		.cfi_def_cfa_offset 8
 952              		.cfi_offset 7, -8
 953              		.cfi_offset 14, -4
 954 0002 82B0     		sub	sp, sp, #8
 955              		.cfi_def_cfa_offset 16
 956 0004 00AF     		add	r7, sp, #0
 957              		.cfi_def_cfa_register 7
 355:main.c        ****     float temperature = 25.0;  // 默认室温
 958              		.loc 1 355 0
 959 0006 044B     		ldr	r3, .L37
 960 0008 7B60     		str	r3, [r7, #4]
 356:main.c        ****     uint32_t adcCode;
 357:main.c        ****     float voltage, resistance;
 358:main.c        ****     
 359:main.c        ****     
 360:main.c        ****     // 方法1: 使用AD5940的辅助ADC（AUX ADC）测量温度传感器
 361:main.c        ****     // 注意：需要配置AD5940的GPIO或者AUX输入来连接温度传感器
 362:main.c        ****     
 363:main.c        ****     // 这里提供一个简化的实现
 364:main.c        ****     // 实际应用中，你需要：
 365:main.c        ****     // 1. 配置AD5940的GPIO/AUX为ADC输入
 366:main.c        ****     // 2. 读取ADC值
 367:main.c        ****     // 3. 转换为温度
 368:main.c        ****     
 369:main.c        ****     // 示例代码（需要根据实际硬件调整）:
 370:main.c        ****     /*
 371:main.c        ****     AD5940_StructInit(&ADCInit, sizeof(ADCInit));
 372:main.c        ****     ADCInit.ADCMuxP = ADCMUXP_AIN2;  // 假设温度传感器连接到AIN2
 373:main.c        ****     ADCInit.ADCMuxN = ADCMUXN_VSET1P1;
 374:main.c        ****     AD5940_ADCInit(&ADCInit);
 375:main.c        ****     
 376:main.c        ****     AD5940_ADCStart();
 377:main.c        ****     CyDelay(10);
 378:main.c        ****     adcCode = AD5940_ReadADC();
 379:main.c        ****     
 380:main.c        ****     voltage = (adcCode * 1.82) / 32768.0;  // 转换为电压
 381:main.c        ****     resistance = 1000.0 * voltage / (3.3 - voltage);  // 假设分压电路
 382:main.c        ****     temperature = 25.0 + (resistance - 1000.0) / (1000.0 * 0.0021);
 383:main.c        ****     */
 384:main.c        ****     
 385:main.c        ****     // 临时方案：从系统读取或使用固定值
ARM GAS  C:\Users\13740\AppData\Local\Temp\cc4654uj.s 			page 27


 386:main.c        ****     temperature = 37.0;  // 假设体温
 961              		.loc 1 386 0
 962 000a 044B     		ldr	r3, .L37+4
 963 000c 7B60     		str	r3, [r7, #4]
 387:main.c        ****     
 388:main.c        ****     
 389:main.c        ****     return temperature;
 964              		.loc 1 389 0
 965 000e 7B68     		ldr	r3, [r7, #4]
 390:main.c        **** }
 966              		.loc 1 390 0
 967 0010 181C     		adds	r0, r3, #0
 968 0012 BD46     		mov	sp, r7
 969 0014 02B0     		add	sp, sp, #8
 970              		@ sp needed
 971 0016 80BD     		pop	{r7, pc}
 972              	.L38:
 973              		.align	2
 974              	.L37:
 975 0018 0000C841 		.word	1103626240
 976 001c 00001442 		.word	1108606976
 977              		.cfi_endproc
 978              	.LFE40:
 979              		.size	MeasureTemperature, .-MeasureTemperature
 980              		.section	.text.ReadCurrentFromAD5940,"ax",%progbits
 981              		.align	2
 982              		.global	ReadCurrentFromAD5940
 983              		.code	16
 984              		.thumb_func
 985              		.type	ReadCurrentFromAD5940, %function
 986              	ReadCurrentFromAD5940:
 987              	.LFB41:
 391:main.c        **** 
 392:main.c        **** 
 393:main.c        **** /*******************************************************************************
 394:main.c        **** * Function Name: ReadCurrentFromAD5940
 395:main.c        **** ********************************************************************************
 396:main.c        **** * Summary:
 397:main.c        **** *   从 AD5940 读取实际电流值（安培法测量）
 398:main.c        **** *   
 399:main.c        **** * Parameters:
 400:main.c        **** *   sensorType: 传感器类型（GLUCOSE, LACTATE, URIC_ACID）
 401:main.c        **** *
 402:main.c        **** * Return:
 403:main.c        **** *   float: 电流值（单位：nA）
 404:main.c        **** *******************************************************************************/
 405:main.c        **** float ReadCurrentFromAD5940(AmperometricSensor_t sensorType)
 406:main.c        **** {
 988              		.loc 1 406 0
 989              		.cfi_startproc
 990              		@ args = 0, pretend = 0, frame = 24
 991              		@ frame_needed = 1, uses_anonymous_args = 0
 992 0000 80B5     		push	{r7, lr}
 993              		.cfi_def_cfa_offset 8
 994              		.cfi_offset 7, -8
 995              		.cfi_offset 14, -4
 996 0002 86B0     		sub	sp, sp, #24
ARM GAS  C:\Users\13740\AppData\Local\Temp\cc4654uj.s 			page 28


 997              		.cfi_def_cfa_offset 32
 998 0004 00AF     		add	r7, sp, #0
 999              		.cfi_def_cfa_register 7
 1000 0006 0200     		movs	r2, r0
 1001 0008 FB1D     		adds	r3, r7, #7
 1002 000a 1A70     		strb	r2, [r3]
 407:main.c        ****     float current_nA = 0;
 1003              		.loc 1 407 0
 1004 000c 0023     		movs	r3, #0
 1005 000e 7B61     		str	r3, [r7, #20]
 408:main.c        ****     uint32_t dataCount = 0;
 1006              		.loc 1 408 0
 1007 0010 0023     		movs	r3, #0
 1008 0012 BB60     		str	r3, [r7, #8]
 409:main.c        ****     AD5940Err error;
 410:main.c        ****     static uint32_t ampFifoBuffer[256];  // 存储FIFO数据的缓冲区
 411:main.c        ****     
 412:main.c        ****     // 1. 配置 AD5940 为安培法测量模式
 413:main.c        ****     AppAMPGetCfg(&pAmpCfg);
 1009              		.loc 1 413 0
 1010 0014 494B     		ldr	r3, .L52
 1011 0016 1800     		movs	r0, r3
 1012 0018 FFF7FEFF 		bl	AppAMPGetCfg
 414:main.c        ****     
 415:main.c        ****     // 根据传感器类型设置工作电极
 416:main.c        ****     switch(sensorType)
 1013              		.loc 1 416 0
 1014 001c FB1D     		adds	r3, r7, #7
 1015 001e 1B78     		ldrb	r3, [r3]
 1016 0020 012B     		cmp	r3, #1
 1017 0022 0DD0     		beq	.L41
 1018 0024 022B     		cmp	r3, #2
 1019 0026 15D0     		beq	.L42
 1020 0028 002B     		cmp	r3, #0
 1021 002a 1DD1     		bne	.L40
 417:main.c        ****     {
 418:main.c        ****         case SENSOR_GLUCOSE:
 419:main.c        ****             AMP1_EN_Write(1);  // 启用通道1
 1022              		.loc 1 419 0
 1023 002c 0120     		movs	r0, #1
 1024 002e FFF7FEFF 		bl	AMP1_EN_Write
 420:main.c        ****             AMP2_EN_Write(0);
 1025              		.loc 1 420 0
 1026 0032 0020     		movs	r0, #0
 1027 0034 FFF7FEFF 		bl	AMP2_EN_Write
 421:main.c        ****             AMP3_EN_Write(0);
 1028              		.loc 1 421 0
 1029 0038 0020     		movs	r0, #0
 1030 003a FFF7FEFF 		bl	AMP3_EN_Write
 422:main.c        ****             break;
 1031              		.loc 1 422 0
 1032 003e 13E0     		b	.L40
 1033              	.L41:
 423:main.c        ****             
 424:main.c        ****         case SENSOR_LACTATE:
 425:main.c        ****             AMP1_EN_Write(0);
 1034              		.loc 1 425 0
ARM GAS  C:\Users\13740\AppData\Local\Temp\cc4654uj.s 			page 29


 1035 0040 0020     		movs	r0, #0
 1036 0042 FFF7FEFF 		bl	AMP1_EN_Write
 426:main.c        ****             AMP2_EN_Write(1);  // 启用通道2
 1037              		.loc 1 426 0
 1038 0046 0120     		movs	r0, #1
 1039 0048 FFF7FEFF 		bl	AMP2_EN_Write
 427:main.c        ****             AMP3_EN_Write(0);
 1040              		.loc 1 427 0
 1041 004c 0020     		movs	r0, #0
 1042 004e FFF7FEFF 		bl	AMP3_EN_Write
 428:main.c        ****             break;
 1043              		.loc 1 428 0
 1044 0052 09E0     		b	.L40
 1045              	.L42:
 429:main.c        ****             
 430:main.c        ****         case SENSOR_URIC_ACID:
 431:main.c        ****             AMP1_EN_Write(0);
 1046              		.loc 1 431 0
 1047 0054 0020     		movs	r0, #0
 1048 0056 FFF7FEFF 		bl	AMP1_EN_Write
 432:main.c        ****             AMP2_EN_Write(0);
 1049              		.loc 1 432 0
 1050 005a 0020     		movs	r0, #0
 1051 005c FFF7FEFF 		bl	AMP2_EN_Write
 433:main.c        ****             AMP3_EN_Write(1);  // 启用通道3
 1052              		.loc 1 433 0
 1053 0060 0120     		movs	r0, #1
 1054 0062 FFF7FEFF 		bl	AMP3_EN_Write
 434:main.c        ****             break;
 1055              		.loc 1 434 0
 1056 0066 C046     		nop
 1057              	.L40:
 435:main.c        ****     }
 436:main.c        ****     
 437:main.c        ****     CyDelay(50);  // 等待通道切换稳定
 1058              		.loc 1 437 0
 1059 0068 3220     		movs	r0, #50
 1060 006a FFF7FEFF 		bl	CyDelay
 438:main.c        ****     
 439:main.c        ****     // 2. 启动测量
 440:main.c        ****     error = AppAMPCtrl(AMPCTRL_START, NULL);
 1061              		.loc 1 440 0
 1062 006e 0021     		movs	r1, #0
 1063 0070 0020     		movs	r0, #0
 1064 0072 FFF7FEFF 		bl	AppAMPCtrl
 1065 0076 0300     		movs	r3, r0
 1066 0078 3B61     		str	r3, [r7, #16]
 441:main.c        ****     if(error != AD5940ERR_OK)
 1067              		.loc 1 441 0
 1068 007a 3B69     		ldr	r3, [r7, #16]
 1069 007c 002B     		cmp	r3, #0
 1070 007e 01D0     		beq	.L44
 442:main.c        ****     {
 443:main.c        ****         return 0;
 1071              		.loc 1 443 0
 1072 0080 0023     		movs	r3, #0
 1073 0082 56E0     		b	.L51
ARM GAS  C:\Users\13740\AppData\Local\Temp\cc4654uj.s 			page 30


 1074              	.L44:
 444:main.c        ****     }
 445:main.c        ****     
 446:main.c        ****     // 3. 等待测量稳定（安培法需要 500ms）
 447:main.c        ****     CyDelay(500);
 1075              		.loc 1 447 0
 1076 0084 FA23     		movs	r3, #250
 1077 0086 5B00     		lsls	r3, r3, #1
 1078 0088 1800     		movs	r0, r3
 1079 008a FFF7FEFF 		bl	CyDelay
 448:main.c        ****     
 449:main.c        ****     // 4. 读取 FIFO 数据
 450:main.c        ****     // 第一个参数：指向FIFO数据缓冲区，AppAMPISR会将ADC代码读到这里，然后
 451:main.c        ****     // 第二个参数：指向数据计数，返回读取的数据点数
 452:main.c        ****     error = AppAMPISR(ampFifoBuffer, &dataCount);
 1080              		.loc 1 452 0
 1081 008e 0823     		movs	r3, #8
 1082 0090 FA18     		adds	r2, r7, r3
 1083 0092 2B4B     		ldr	r3, .L52+4
 1084 0094 1100     		movs	r1, r2
 1085 0096 1800     		movs	r0, r3
 1086 0098 FFF7FEFF 		bl	AppAMPISR
 1087 009c 0300     		movs	r3, r0
 1088 009e 3B61     		str	r3, [r7, #16]
 453:main.c        ****     
 454:main.c        ****     if(error == AD5940ERR_OK && dataCount > 0)
 1089              		.loc 1 454 0
 1090 00a0 3B69     		ldr	r3, [r7, #16]
 1091 00a2 002B     		cmp	r3, #0
 1092 00a4 0DD1     		bne	.L46
 1093              		.loc 1 454 0 is_stmt 0 discriminator 1
 1094 00a6 BB68     		ldr	r3, [r7, #8]
 1095 00a8 002B     		cmp	r3, #0
 1096 00aa 0AD0     		beq	.L46
 1097              	.LBB3:
 455:main.c        ****     {
 456:main.c        ****         // 5. 从缓冲区中提取电流值
 457:main.c        ****         // AppAMPDataProcess 已经将ADC值转换为电流值（float）
 458:main.c        ****         // 结果存储在 ampFifoBuffer 中（已转换为float指针）
 459:main.c        ****         float *pCurrentData = (float *)ampFifoBuffer;
 1098              		.loc 1 459 0 is_stmt 1
 1099 00ac 244B     		ldr	r3, .L52+4
 1100 00ae FB60     		str	r3, [r7, #12]
 460:main.c        ****         
 461:main.c        ****         // 取第一个样本的电流值（单位：A）
 462:main.c        ****         current_nA = pCurrentData[0] * 1e9;  // 转换为 nA
 1101              		.loc 1 462 0
 1102 00b0 FB68     		ldr	r3, [r7, #12]
 1103 00b2 1B68     		ldr	r3, [r3]
 1104 00b4 2349     		ldr	r1, .L52+8
 1105 00b6 181C     		adds	r0, r3, #0
 1106 00b8 FFF7FEFF 		bl	__aeabi_fmul
 1107 00bc 031C     		adds	r3, r0, #0
 1108 00be 7B61     		str	r3, [r7, #20]
 1109              	.LBE3:
 455:main.c        ****     {
 1110              		.loc 1 455 0
ARM GAS  C:\Users\13740\AppData\Local\Temp\cc4654uj.s 			page 31


 1111 00c0 01E0     		b	.L47
 1112              	.L46:
 463:main.c        ****         
 464:main.c        ****     }
 465:main.c        ****     else
 466:main.c        ****     {
 467:main.c        ****         current_nA = 0;
 1113              		.loc 1 467 0
 1114 00c2 0023     		movs	r3, #0
 1115 00c4 7B61     		str	r3, [r7, #20]
 1116              	.L47:
 468:main.c        ****     }
 469:main.c        ****     
 470:main.c        ****     // 6. 停止测量
 471:main.c        ****     AppAMPCtrl(AMPCTRL_STOPNOW, NULL);
 1117              		.loc 1 471 0
 1118 00c6 0021     		movs	r1, #0
 1119 00c8 0120     		movs	r0, #1
 1120 00ca FFF7FEFF 		bl	AppAMPCtrl
 472:main.c        ****     
 473:main.c        **** 
 474:main.c        ****     
 475:main.c        ****     
 476:main.c        ****     
 477:main.c        **** 
 478:main.c        ****     CyDelay(50);  // 等待通道切换稳定
 1121              		.loc 1 478 0
 1122 00ce 3220     		movs	r0, #50
 1123 00d0 FFF7FEFF 		bl	CyDelay
 479:main.c        ****     
 480:main.c        ****     // 2. 启动测量
 481:main.c        ****     error = AppAMPCtrl(AMPCTRL_START, NULL);
 1124              		.loc 1 481 0
 1125 00d4 0021     		movs	r1, #0
 1126 00d6 0020     		movs	r0, #0
 1127 00d8 FFF7FEFF 		bl	AppAMPCtrl
 1128 00dc 0300     		movs	r3, r0
 1129 00de 3B61     		str	r3, [r7, #16]
 482:main.c        ****     if(error != AD5940ERR_OK)
 1130              		.loc 1 482 0
 1131 00e0 3B69     		ldr	r3, [r7, #16]
 1132 00e2 002B     		cmp	r3, #0
 1133 00e4 01D0     		beq	.L48
 483:main.c        ****     {
 484:main.c        ****         return 0;
 1134              		.loc 1 484 0
 1135 00e6 0023     		movs	r3, #0
 1136 00e8 23E0     		b	.L51
 1137              	.L48:
 485:main.c        ****     }
 486:main.c        ****     
 487:main.c        ****     // 3. 等待测量稳定（安培法需要 500ms）
 488:main.c        ****     CyDelay(500);
 1138              		.loc 1 488 0
 1139 00ea FA23     		movs	r3, #250
 1140 00ec 5B00     		lsls	r3, r3, #1
 1141 00ee 1800     		movs	r0, r3
ARM GAS  C:\Users\13740\AppData\Local\Temp\cc4654uj.s 			page 32


 1142 00f0 FFF7FEFF 		bl	CyDelay
 489:main.c        ****     
 490:main.c        ****     // 4. 读取 FIFO 数据
 491:main.c        ****     error = AppAMPISR(&ampResult, &dataCount);
 1143              		.loc 1 491 0
 1144 00f4 0823     		movs	r3, #8
 1145 00f6 FA18     		adds	r2, r7, r3
 1146 00f8 134B     		ldr	r3, .L52+12
 1147 00fa 1100     		movs	r1, r2
 1148 00fc 1800     		movs	r0, r3
 1149 00fe FFF7FEFF 		bl	AppAMPISR
 1150 0102 0300     		movs	r3, r0
 1151 0104 3B61     		str	r3, [r7, #16]
 492:main.c        ****     
 493:main.c        ****     if(error == AD5940ERR_OK && dataCount > 0)
 1152              		.loc 1 493 0
 1153 0106 3B69     		ldr	r3, [r7, #16]
 1154 0108 002B     		cmp	r3, #0
 1155 010a 0BD1     		bne	.L49
 1156              		.loc 1 493 0 is_stmt 0 discriminator 1
 1157 010c BB68     		ldr	r3, [r7, #8]
 1158 010e 002B     		cmp	r3, #0
 1159 0110 08D0     		beq	.L49
 494:main.c        ****     {
 495:main.c        ****         // 5. 从结果中提取电流值
 496:main.c        ****         current_nA = ampResult.Current * 1e9;  // 转换为 nA
 1160              		.loc 1 496 0 is_stmt 1
 1161 0112 0D4B     		ldr	r3, .L52+12
 1162 0114 1B68     		ldr	r3, [r3]
 1163 0116 0B49     		ldr	r1, .L52+8
 1164 0118 181C     		adds	r0, r3, #0
 1165 011a FFF7FEFF 		bl	__aeabi_fmul
 1166 011e 031C     		adds	r3, r0, #0
 1167 0120 7B61     		str	r3, [r7, #20]
 1168 0122 01E0     		b	.L50
 1169              	.L49:
 497:main.c        ****         
 498:main.c        ****     }
 499:main.c        ****     else
 500:main.c        ****     {
 501:main.c        ****         current_nA = 0;
 1170              		.loc 1 501 0
 1171 0124 0023     		movs	r3, #0
 1172 0126 7B61     		str	r3, [r7, #20]
 1173              	.L50:
 502:main.c        ****     }
 503:main.c        ****     
 504:main.c        ****     // 6. 停止测量
 505:main.c        ****     AppAMPCtrl(AMPCTRL_STOPNOW, NULL);
 1174              		.loc 1 505 0
 1175 0128 0021     		movs	r1, #0
 1176 012a 0120     		movs	r0, #1
 1177 012c FFF7FEFF 		bl	AppAMPCtrl
 506:main.c        ****     
 507:main.c        ****     return current_nA;
 1178              		.loc 1 507 0
 1179 0130 7B69     		ldr	r3, [r7, #20]
ARM GAS  C:\Users\13740\AppData\Local\Temp\cc4654uj.s 			page 33


 1180              	.L51:
 508:main.c        **** }
 1181              		.loc 1 508 0 discriminator 1
 1182 0132 181C     		adds	r0, r3, #0
 1183 0134 BD46     		mov	sp, r7
 1184 0136 06B0     		add	sp, sp, #24
 1185              		@ sp needed
 1186 0138 80BD     		pop	{r7, pc}
 1187              	.L53:
 1188 013a C046     		.align	2
 1189              	.L52:
 1190 013c 00000000 		.word	pAmpCfg
 1191 0140 5C000000 		.word	ampFifoBuffer.9565
 1192 0144 286B6E4E 		.word	1315859240
 1193 0148 00000000 		.word	ampResult
 1194              		.cfi_endproc
 1195              	.LFE41:
 1196              		.size	ReadCurrentFromAD5940, .-ReadCurrentFromAD5940
 1197              		.global	__aeabi_idivmod
 1198              		.global	__aeabi_i2d
 1199              		.global	__aeabi_dadd
 1200              		.section	.text.ReadCurrentFromSourceMeter_Simulated,"ax",%progbits
 1201              		.align	2
 1202              		.global	ReadCurrentFromSourceMeter_Simulated
 1203              		.code	16
 1204              		.thumb_func
 1205              		.type	ReadCurrentFromSourceMeter_Simulated, %function
 1206              	ReadCurrentFromSourceMeter_Simulated:
 1207              	.LFB42:
 509:main.c        **** 
 510:main.c        **** /*******************************************************************************
 511:main.c        **** * Function Name: ReadCurrentFromSourceMeter_Simulated
 512:main.c        **** ********************************************************************************
 513:main.c        **** * Summary:
 514:main.c        **** *   模拟从源表读取电流值（用于测试）
 515:main.c        **** *   实际使用时替换为真实的源表读取代码
 516:main.c        **** *
 517:main.c        **** * Return:
 518:main.c        **** *   float: 电流值（单位：nA）
 519:main.c        **** *******************************************************************************/
 520:main.c        **** float ReadCurrentFromSourceMeter_Simulated(AmperometricSensor_t sensorType)
 521:main.c        **** {
 1208              		.loc 1 521 0
 1209              		.cfi_startproc
 1210              		@ args = 0, pretend = 0, frame = 16
 1211              		@ frame_needed = 1, uses_anonymous_args = 0
 1212 0000 90B5     		push	{r4, r7, lr}
 1213              		.cfi_def_cfa_offset 12
 1214              		.cfi_offset 4, -12
 1215              		.cfi_offset 7, -8
 1216              		.cfi_offset 14, -4
 1217 0002 85B0     		sub	sp, sp, #20
 1218              		.cfi_def_cfa_offset 32
 1219 0004 00AF     		add	r7, sp, #0
 1220              		.cfi_def_cfa_register 7
 1221 0006 0200     		movs	r2, r0
 1222 0008 FB1D     		adds	r3, r7, #7
ARM GAS  C:\Users\13740\AppData\Local\Temp\cc4654uj.s 			page 34


 1223 000a 1A70     		strb	r2, [r3]
 522:main.c        ****     float current_nA = 0;
 1224              		.loc 1 522 0
 1225 000c 0023     		movs	r3, #0
 1226 000e FB60     		str	r3, [r7, #12]
 523:main.c        ****     
 524:main.c        ****     // 模拟不同传感器的典型电流响应
 525:main.c        ****     switch(sensorType)
 1227              		.loc 1 525 0
 1228 0010 FB1D     		adds	r3, r7, #7
 1229 0012 1B78     		ldrb	r3, [r3]
 1230 0014 012B     		cmp	r3, #1
 1231 0016 1CD0     		beq	.L56
 1232 0018 022B     		cmp	r3, #2
 1233 001a 33D0     		beq	.L57
 1234 001c 002B     		cmp	r3, #0
 1235 001e 4AD1     		bne	.L61
 1236              	.LBB4:
 526:main.c        ****     {
 527:main.c        ****         case SENSOR_GLUCOSE:
 528:main.c        ****             // 5 mM 葡萄糖 → 约 80 nA（根据论文校准系数 16.34 nA/mM）
 529:main.c        ****             current_nA = 85.0 + (rand() % 10 - 5);  // 80-90 nA
 1237              		.loc 1 529 0
 1238 0020 FFF7FEFF 		bl	rand
 1239 0024 0300     		movs	r3, r0
 1240 0026 0A21     		movs	r1, #10
 1241 0028 1800     		movs	r0, r3
 1242 002a FFF7FEFF 		bl	__aeabi_idivmod
 1243 002e 0B00     		movs	r3, r1
 1244 0030 053B     		subs	r3, r3, #5
 1245 0032 1800     		movs	r0, r3
 1246 0034 FFF7FEFF 		bl	__aeabi_i2d
 1247 0038 0022     		movs	r2, #0
 1248 003a 234B     		ldr	r3, .L62
 1249 003c FFF7FEFF 		bl	__aeabi_dadd
 1250 0040 0300     		movs	r3, r0
 1251 0042 0C00     		movs	r4, r1
 1252 0044 1800     		movs	r0, r3
 1253 0046 2100     		movs	r1, r4
 1254 0048 FFF7FEFF 		bl	__aeabi_d2f
 1255 004c 031C     		adds	r3, r0, #0
 1256 004e FB60     		str	r3, [r7, #12]
 530:main.c        ****             break;
 1257              		.loc 1 530 0
 1258 0050 34E0     		b	.L59
 1259              	.L56:
 531:main.c        ****             
 532:main.c        ****         case SENSOR_LACTATE:
 533:main.c        ****             // 2 mM 乳酸 → 约 100 nA（根据论文校准系数 41.44 nA/mM）
 534:main.c        ****             current_nA = 100.0 + (rand() % 10 - 5);  // 95-105 nA
 1260              		.loc 1 534 0
 1261 0052 FFF7FEFF 		bl	rand
 1262 0056 0300     		movs	r3, r0
 1263 0058 0A21     		movs	r1, #10
 1264 005a 1800     		movs	r0, r3
 1265 005c FFF7FEFF 		bl	__aeabi_idivmod
 1266 0060 0B00     		movs	r3, r1
ARM GAS  C:\Users\13740\AppData\Local\Temp\cc4654uj.s 			page 35


 1267 0062 053B     		subs	r3, r3, #5
 1268 0064 1800     		movs	r0, r3
 1269 0066 FFF7FEFF 		bl	__aeabi_i2d
 1270 006a 0022     		movs	r2, #0
 1271 006c 174B     		ldr	r3, .L62+4
 1272 006e FFF7FEFF 		bl	__aeabi_dadd
 1273 0072 0300     		movs	r3, r0
 1274 0074 0C00     		movs	r4, r1
 1275 0076 1800     		movs	r0, r3
 1276 0078 2100     		movs	r1, r4
 1277 007a FFF7FEFF 		bl	__aeabi_d2f
 1278 007e 031C     		adds	r3, r0, #0
 1279 0080 FB60     		str	r3, [r7, #12]
 535:main.c        ****             break;
 1280              		.loc 1 535 0
 1281 0082 1BE0     		b	.L59
 1282              	.L57:
 536:main.c        ****             
 537:main.c        ****         case SENSOR_URIC_ACID:
 538:main.c        ****             // 300 μM 尿酸 → 约 57000 nA（根据论文校准系数 189.60 nA/μM）
 539:main.c        ****             //current_nA = 57000.0 + (rand() % 100 - 50);
 540:main.c        ****             current_nA = 570.0 + (rand() % 100 - 50);
 1283              		.loc 1 540 0
 1284 0084 FFF7FEFF 		bl	rand
 1285 0088 0300     		movs	r3, r0
 1286 008a 6421     		movs	r1, #100
 1287 008c 1800     		movs	r0, r3
 1288 008e FFF7FEFF 		bl	__aeabi_idivmod
 1289 0092 0B00     		movs	r3, r1
 1290 0094 323B     		subs	r3, r3, #50
 1291 0096 1800     		movs	r0, r3
 1292 0098 FFF7FEFF 		bl	__aeabi_i2d
 1293 009c 0022     		movs	r2, #0
 1294 009e 0C4B     		ldr	r3, .L62+8
 1295 00a0 FFF7FEFF 		bl	__aeabi_dadd
 1296 00a4 0300     		movs	r3, r0
 1297 00a6 0C00     		movs	r4, r1
 1298 00a8 1800     		movs	r0, r3
 1299 00aa 2100     		movs	r1, r4
 1300 00ac FFF7FEFF 		bl	__aeabi_d2f
 1301 00b0 031C     		adds	r3, r0, #0
 1302 00b2 FB60     		str	r3, [r7, #12]
 541:main.c        ****             break;
 1303              		.loc 1 541 0
 1304 00b4 02E0     		b	.L59
 1305              	.L61:
 542:main.c        ****             
 543:main.c        ****         default:
 544:main.c        ****             current_nA = 0;
 1306              		.loc 1 544 0
 1307 00b6 0023     		movs	r3, #0
 1308 00b8 FB60     		str	r3, [r7, #12]
 545:main.c        ****             break;
 1309              		.loc 1 545 0
 1310 00ba C046     		nop
 1311              	.L59:
 1312              	.LBE4:
ARM GAS  C:\Users\13740\AppData\Local\Temp\cc4654uj.s 			page 36


 546:main.c        ****     }
 547:main.c        ****     
 548:main.c        **** 
 549:main.c        ****     
 550:main.c        ****     return current_nA;
 1313              		.loc 1 550 0
 1314 00bc FB68     		ldr	r3, [r7, #12]
 551:main.c        **** }
 1315              		.loc 1 551 0
 1316 00be 181C     		adds	r0, r3, #0
 1317 00c0 BD46     		mov	sp, r7
 1318 00c2 05B0     		add	sp, sp, #20
 1319              		@ sp needed
 1320 00c4 90BD     		pop	{r4, r7, pc}
 1321              	.L63:
 1322 00c6 C046     		.align	2
 1323              	.L62:
 1324 00c8 00405540 		.word	1079328768
 1325 00cc 00005940 		.word	1079574528
 1326 00d0 00D08140 		.word	1082249216
 1327              		.cfi_endproc
 1328              	.LFE42:
 1329              		.size	ReadCurrentFromSourceMeter_Simulated, .-ReadCurrentFromSourceMeter_Simulated
 1330              		.global	__aeabi_dsub
 1331              		.global	__aeabi_dmul
 1332              		.section	.text.MeasureAllSensorsWithCurrent,"ax",%progbits
 1333              		.align	2
 1334              		.global	MeasureAllSensorsWithCurrent
 1335              		.code	16
 1336              		.thumb_func
 1337              		.type	MeasureAllSensorsWithCurrent, %function
 1338              	MeasureAllSensorsWithCurrent:
 1339              	.LFB43:
 552:main.c        **** 
 553:main.c        **** /*******************************************************************************
 554:main.c        **** * Function Name: MeasureAllSensorsWithCurrent
 555:main.c        **** ********************************************************************************
 556:main.c        **** * Summary:
 557:main.c        **** *   测量所有传感器 - 包含实际电流值
 558:main.c        **** *******************************************************************************/
 559:main.c        **** void MeasureAllSensorsWithCurrent(void)
 560:main.c        **** {
 1340              		.loc 1 560 0
 1341              		.cfi_startproc
 1342              		@ args = 0, pretend = 0, frame = 8
 1343              		@ frame_needed = 1, uses_anonymous_args = 0
 1344 0000 90B5     		push	{r4, r7, lr}
 1345              		.cfi_def_cfa_offset 12
 1346              		.cfi_offset 4, -12
 1347              		.cfi_offset 7, -8
 1348              		.cfi_offset 14, -4
 1349 0002 83B0     		sub	sp, sp, #12
 1350              		.cfi_def_cfa_offset 24
 1351 0004 00AF     		add	r7, sp, #0
 1352              		.cfi_def_cfa_register 7
 561:main.c        ****  
 562:main.c        ****     // 1. 温度测量
ARM GAS  C:\Users\13740\AppData\Local\Temp\cc4654uj.s 			page 37


 563:main.c        ****     sensorData.temperature = MeasureTemperature();
 1353              		.loc 1 563 0
 1354 0006 FFF7FEFF 		bl	MeasureTemperature
 1355 000a 021C     		adds	r2, r0, #0
 1356 000c 3A4B     		ldr	r3, .L65
 1357 000e 1A60     		str	r2, [r3]
 564:main.c        ****     
 565:main.c        ****     // 2. 葡萄糖测量
 566:main.c        **** 
 567:main.c        ****     
 568:main.c        ****     // 方法 A: 使用 AD5940 读取（推荐）
 569:main.c        ****    sensorData.current_glucose_nA = ReadCurrentFromAD5940(SENSOR_GLUCOSE);
 1358              		.loc 1 569 0
 1359 0010 0020     		movs	r0, #0
 1360 0012 FFF7FEFF 		bl	ReadCurrentFromAD5940
 1361 0016 021C     		adds	r2, r0, #0
 1362 0018 374B     		ldr	r3, .L65
 1363 001a 5A61     		str	r2, [r3, #20]
 570:main.c        ****     
 571:main.c        ****     // 方法 B: 使用模拟值测试（测试用）
 572:main.c        ****     //sensorData.current_glucose_nA = ReadCurrentFromSourceMeter_Simulated(SENSOR_GLUCOSE);
 573:main.c        ****     
 574:main.c        ****     // 转换为浓度
 575:main.c        ****     sensorData.glucose = ConvertCurrentToConcentration(sensorData.current_glucose_nA, SENSOR_GLUCOS
 1364              		.loc 1 575 0
 1365 001c 364B     		ldr	r3, .L65
 1366 001e 5B69     		ldr	r3, [r3, #20]
 1367 0020 0021     		movs	r1, #0
 1368 0022 181C     		adds	r0, r3, #0
 1369 0024 FFF7FEFF 		bl	ConvertCurrentToConcentration
 1370 0028 021C     		adds	r2, r0, #0
 1371 002a 334B     		ldr	r3, .L65
 1372 002c 5A60     		str	r2, [r3, #4]
 576:main.c        ****     
 577:main.c        ****     
 578:main.c        ****     // 3. 乳酸测量
 579:main.c        **** 
 580:main.c        ****      sensorData.current_lactate_nA = ReadCurrentFromAD5940(SENSOR_LACTATE); 
 1373              		.loc 1 580 0
 1374 002e 0120     		movs	r0, #1
 1375 0030 FFF7FEFF 		bl	ReadCurrentFromAD5940
 1376 0034 021C     		adds	r2, r0, #0
 1377 0036 304B     		ldr	r3, .L65
 1378 0038 9A61     		str	r2, [r3, #24]
 581:main.c        ****     //sensorData.current_lactate_nA = ReadCurrentFromSourceMeter_Simulated(SENSOR_LACTATE);
 582:main.c        ****     sensorData.lactate = ConvertCurrentToConcentration(sensorData.current_lactate_nA, SENSOR_LACTAT
 1379              		.loc 1 582 0
 1380 003a 2F4B     		ldr	r3, .L65
 1381 003c 9B69     		ldr	r3, [r3, #24]
 1382 003e 0121     		movs	r1, #1
 1383 0040 181C     		adds	r0, r3, #0
 1384 0042 FFF7FEFF 		bl	ConvertCurrentToConcentration
 1385 0046 021C     		adds	r2, r0, #0
 1386 0048 2B4B     		ldr	r3, .L65
 1387 004a 9A60     		str	r2, [r3, #8]
 583:main.c        ****     
 584:main.c        ****     // 4. 尿酸测量
ARM GAS  C:\Users\13740\AppData\Local\Temp\cc4654uj.s 			page 38


 585:main.c        **** 
 586:main.c        ****     sensorData.current_uric_nA = ReadCurrentFromAD5940(SENSOR_URIC_ACID);
 1388              		.loc 1 586 0
 1389 004c 0220     		movs	r0, #2
 1390 004e FFF7FEFF 		bl	ReadCurrentFromAD5940
 1391 0052 021C     		adds	r2, r0, #0
 1392 0054 284B     		ldr	r3, .L65
 1393 0056 DA61     		str	r2, [r3, #28]
 587:main.c        ****     //sensorData.uric_acid = ConvertCurrentToConcentration(sensorData.current_uric_nA,SENSOR_URIC_A
 588:main.c        ****     // [修改] 切换为模拟数据
 589:main.c        ****     // sensorData.current_uric_acid_nA = ReadCurrentFromAD5940(SENSOR_URIC_ACID);
 590:main.c        ****     //sensorData.current_uric_nA = ReadCurrentFromSourceMeter_Simulated(SENSOR_URIC_ACID); 
 591:main.c        ****     // [增加] 电流换算到浓度
 592:main.c        ****     sensorData.uric_acid = ConvertCurrentToConcentration(sensorData.current_uric_nA, SENSOR_URIC_AC
 1394              		.loc 1 592 0
 1395 0058 274B     		ldr	r3, .L65
 1396 005a DB69     		ldr	r3, [r3, #28]
 1397 005c 0221     		movs	r1, #2
 1398 005e 181C     		adds	r0, r3, #0
 1399 0060 FFF7FEFF 		bl	ConvertCurrentToConcentration
 1400 0064 021C     		adds	r2, r0, #0
 1401 0066 244B     		ldr	r3, .L65
 1402 0068 DA60     		str	r2, [r3, #12]
 593:main.c        **** 
 594:main.c        ****     
 595:main.c        **** 
 596:main.c        ****     
 597:main.c        ****     // 6. 温度校准
 598:main.c        ****     float temp_factor = 1.0 + 0.03 * (sensorData.temperature - 37.0);
 1403              		.loc 1 598 0
 1404 006a 234B     		ldr	r3, .L65
 1405 006c 1B68     		ldr	r3, [r3]
 1406 006e 181C     		adds	r0, r3, #0
 1407 0070 FFF7FEFF 		bl	__aeabi_f2d
 1408 0074 0022     		movs	r2, #0
 1409 0076 214B     		ldr	r3, .L65+4
 1410 0078 FFF7FEFF 		bl	__aeabi_dsub
 1411 007c 0300     		movs	r3, r0
 1412 007e 0C00     		movs	r4, r1
 1413 0080 1800     		movs	r0, r3
 1414 0082 2100     		movs	r1, r4
 1415 0084 1E4A     		ldr	r2, .L65+8
 1416 0086 1F4B     		ldr	r3, .L65+12
 1417 0088 FFF7FEFF 		bl	__aeabi_dmul
 1418 008c 0300     		movs	r3, r0
 1419 008e 0C00     		movs	r4, r1
 1420 0090 1800     		movs	r0, r3
 1421 0092 2100     		movs	r1, r4
 1422 0094 0022     		movs	r2, #0
 1423 0096 1C4B     		ldr	r3, .L65+16
 1424 0098 FFF7FEFF 		bl	__aeabi_dadd
 1425 009c 0300     		movs	r3, r0
 1426 009e 0C00     		movs	r4, r1
 1427 00a0 1800     		movs	r0, r3
 1428 00a2 2100     		movs	r1, r4
 1429 00a4 FFF7FEFF 		bl	__aeabi_d2f
 1430 00a8 031C     		adds	r3, r0, #0
ARM GAS  C:\Users\13740\AppData\Local\Temp\cc4654uj.s 			page 39


 1431 00aa 7B60     		str	r3, [r7, #4]
 599:main.c        ****     sensorData.glucose *= temp_factor;
 1432              		.loc 1 599 0
 1433 00ac 124B     		ldr	r3, .L65
 1434 00ae 5B68     		ldr	r3, [r3, #4]
 1435 00b0 7968     		ldr	r1, [r7, #4]
 1436 00b2 181C     		adds	r0, r3, #0
 1437 00b4 FFF7FEFF 		bl	__aeabi_fmul
 1438 00b8 031C     		adds	r3, r0, #0
 1439 00ba 1A1C     		adds	r2, r3, #0
 1440 00bc 0E4B     		ldr	r3, .L65
 1441 00be 5A60     		str	r2, [r3, #4]
 600:main.c        ****     sensorData.lactate *= temp_factor;
 1442              		.loc 1 600 0
 1443 00c0 0D4B     		ldr	r3, .L65
 1444 00c2 9B68     		ldr	r3, [r3, #8]
 1445 00c4 7968     		ldr	r1, [r7, #4]
 1446 00c6 181C     		adds	r0, r3, #0
 1447 00c8 FFF7FEFF 		bl	__aeabi_fmul
 1448 00cc 031C     		adds	r3, r0, #0
 1449 00ce 1A1C     		adds	r2, r3, #0
 1450 00d0 094B     		ldr	r3, .L65
 1451 00d2 9A60     		str	r2, [r3, #8]
 601:main.c        ****     sensorData.uric_acid *= temp_factor;
 1452              		.loc 1 601 0
 1453 00d4 084B     		ldr	r3, .L65
 1454 00d6 DB68     		ldr	r3, [r3, #12]
 1455 00d8 7968     		ldr	r1, [r7, #4]
 1456 00da 181C     		adds	r0, r3, #0
 1457 00dc FFF7FEFF 		bl	__aeabi_fmul
 1458 00e0 031C     		adds	r3, r0, #0
 1459 00e2 1A1C     		adds	r2, r3, #0
 1460 00e4 044B     		ldr	r3, .L65
 1461 00e6 DA60     		str	r2, [r3, #12]
 602:main.c        ****     
 603:main.c        ****     sensorData.timestamp = mainTimer;
 1462              		.loc 1 603 0
 1463 00e8 084B     		ldr	r3, .L65+20
 1464 00ea 1A68     		ldr	r2, [r3]
 1465 00ec 024B     		ldr	r3, .L65
 1466 00ee 1A61     		str	r2, [r3, #16]
 604:main.c        ****     
 605:main.c        **** }
 1467              		.loc 1 605 0
 1468 00f0 C046     		nop
 1469 00f2 BD46     		mov	sp, r7
 1470 00f4 03B0     		add	sp, sp, #12
 1471              		@ sp needed
 1472 00f6 90BD     		pop	{r4, r7, pc}
 1473              	.L66:
 1474              		.align	2
 1475              	.L65:
 1476 00f8 00000000 		.word	sensorData
 1477 00fc 00804240 		.word	1078099968
 1478 0100 B81E85EB 		.word	-343597384
 1479 0104 51B89E3F 		.word	1067366481
 1480 0108 0000F03F 		.word	1072693248
ARM GAS  C:\Users\13740\AppData\Local\Temp\cc4654uj.s 			page 40


 1481 010c 00000000 		.word	mainTimer
 1482              		.cfi_endproc
 1483              	.LFE43:
 1484              		.size	MeasureAllSensorsWithCurrent, .-MeasureAllSensorsWithCurrent
 1485              		.section	.text.ControlDrugRelease,"ax",%progbits
 1486              		.align	2
 1487              		.global	ControlDrugRelease
 1488              		.code	16
 1489              		.thumb_func
 1490              		.type	ControlDrugRelease, %function
 1491              	ControlDrugRelease:
 1492              	.LFB44:
 606:main.c        **** 
 607:main.c        **** 
 608:main.c        **** /*******************************************************************************
 609:main.c        **** * Function Name: ControlDrugRelease
 610:main.c        **** ********************************************************************************
 611:main.c        **** * Summary:
 612:main.c        **** *   控制药物释放（电控水凝胶）
 613:main.c        **** *******************************************************************************/
 614:main.c        **** void ControlDrugRelease(uint8 enable)
 615:main.c        **** {
 1493              		.loc 1 615 0
 1494              		.cfi_startproc
 1495              		@ args = 0, pretend = 0, frame = 8
 1496              		@ frame_needed = 1, uses_anonymous_args = 0
 1497 0000 80B5     		push	{r7, lr}
 1498              		.cfi_def_cfa_offset 8
 1499              		.cfi_offset 7, -8
 1500              		.cfi_offset 14, -4
 1501 0002 82B0     		sub	sp, sp, #8
 1502              		.cfi_def_cfa_offset 16
 1503 0004 00AF     		add	r7, sp, #0
 1504              		.cfi_def_cfa_register 7
 1505 0006 0200     		movs	r2, r0
 1506 0008 FB1D     		adds	r3, r7, #7
 1507 000a 1A70     		strb	r2, [r3]
 616:main.c        ****     if(enable)
 1508              		.loc 1 616 0
 1509 000c FB1D     		adds	r3, r7, #7
 1510 000e 1B78     		ldrb	r3, [r3]
 1511 0010 002B     		cmp	r3, #0
 1512 0012 03D0     		beq	.L68
 617:main.c        ****     {
 618:main.c        ****         DRUG_EN_1_Write(1);
 1513              		.loc 1 618 0
 1514 0014 0120     		movs	r0, #1
 1515 0016 FFF7FEFF 		bl	DRUG_EN_1_Write
 619:main.c        ****     }
 620:main.c        ****     else
 621:main.c        ****     {
 622:main.c        ****         DRUG_EN_1_Write(0);
 623:main.c        ****     }
 624:main.c        **** }
 1516              		.loc 1 624 0
 1517 001a 02E0     		b	.L70
 1518              	.L68:
ARM GAS  C:\Users\13740\AppData\Local\Temp\cc4654uj.s 			page 41


 622:main.c        ****     }
 1519              		.loc 1 622 0
 1520 001c 0020     		movs	r0, #0
 1521 001e FFF7FEFF 		bl	DRUG_EN_1_Write
 1522              	.L70:
 1523              		.loc 1 624 0
 1524 0022 C046     		nop
 1525 0024 BD46     		mov	sp, r7
 1526 0026 02B0     		add	sp, sp, #8
 1527              		@ sp needed
 1528 0028 80BD     		pop	{r7, pc}
 1529              		.cfi_endproc
 1530              	.LFE44:
 1531              		.size	ControlDrugRelease, .-ControlDrugRelease
 1532 002a C046     		.section	.text.ControlElectricalStimulation,"ax",%progbits
 1533              		.align	2
 1534              		.global	ControlElectricalStimulation
 1535              		.code	16
 1536              		.thumb_func
 1537              		.type	ControlElectricalStimulation, %function
 1538              	ControlElectricalStimulation:
 1539              	.LFB45:
 625:main.c        **** 
 626:main.c        **** /*******************************************************************************
 627:main.c        **** * Function Name: ControlElectricalStimulation
 628:main.c        **** ********************************************************************************
 629:main.c        **** * Summary:
 630:main.c        **** *   控制电刺激治疗
 631:main.c        **** *******************************************************************************/
 632:main.c        **** void ControlElectricalStimulation(uint8 enable)
 633:main.c        **** {
 1540              		.loc 1 633 0
 1541              		.cfi_startproc
 1542              		@ args = 0, pretend = 0, frame = 8
 1543              		@ frame_needed = 1, uses_anonymous_args = 0
 1544 0000 80B5     		push	{r7, lr}
 1545              		.cfi_def_cfa_offset 8
 1546              		.cfi_offset 7, -8
 1547              		.cfi_offset 14, -4
 1548 0002 82B0     		sub	sp, sp, #8
 1549              		.cfi_def_cfa_offset 16
 1550 0004 00AF     		add	r7, sp, #0
 1551              		.cfi_def_cfa_register 7
 1552 0006 0200     		movs	r2, r0
 1553 0008 FB1D     		adds	r3, r7, #7
 1554 000a 1A70     		strb	r2, [r3]
 634:main.c        ****     if(enable)
 1555              		.loc 1 634 0
 1556 000c FB1D     		adds	r3, r7, #7
 1557 000e 1B78     		ldrb	r3, [r3]
 1558 0010 002B     		cmp	r3, #0
 1559 0012 03D0     		beq	.L72
 635:main.c        ****     {
 636:main.c        ****         STIM_EN_A_Write(1);
 1560              		.loc 1 636 0
 1561 0014 0120     		movs	r0, #1
 1562 0016 FFF7FEFF 		bl	STIM_EN_A_Write
ARM GAS  C:\Users\13740\AppData\Local\Temp\cc4654uj.s 			page 42


 637:main.c        ****     }
 638:main.c        ****     else
 639:main.c        ****     {
 640:main.c        ****         STIM_EN_A_Write(0);
 641:main.c        ****     }
 642:main.c        **** }
 1563              		.loc 1 642 0
 1564 001a 02E0     		b	.L74
 1565              	.L72:
 640:main.c        ****     }
 1566              		.loc 1 640 0
 1567 001c 0020     		movs	r0, #0
 1568 001e FFF7FEFF 		bl	STIM_EN_A_Write
 1569              	.L74:
 1570              		.loc 1 642 0
 1571 0022 C046     		nop
 1572 0024 BD46     		mov	sp, r7
 1573 0026 02B0     		add	sp, sp, #8
 1574              		@ sp needed
 1575 0028 80BD     		pop	{r7, pc}
 1576              		.cfi_endproc
 1577              	.LFE45:
 1578              		.size	ControlElectricalStimulation, .-ControlElectricalStimulation
 1579 002a C046     		.section	.text.SendGlucoseDataViaBLE,"ax",%progbits
 1580              		.align	2
 1581              		.global	SendGlucoseDataViaBLE
 1582              		.code	16
 1583              		.thumb_func
 1584              		.type	SendGlucoseDataViaBLE, %function
 1585              	SendGlucoseDataViaBLE:
 1586              	.LFB46:
 643:main.c        **** 
 644:main.c        **** /*******************************************************************************
 645:main.c        **** * Function Name: SendCurrentDataViaBLE
 646:main.c        **** ********************************************************************************
 647:main.c        **** * Summary:
 648:main.c        **** *   发送电流值到 BLE（显示在手机 App 上）
 649:main.c        **** *******************************************************************************/
 650:main.c        **** 
 651:main.c        **** /*
 652:main.c        **** 
 653:main.c        **** // 发送葡萄糖数据（浓度 + 电流）
 654:main.c        **** void SendGlucoseDataViaBLE(void)
 655:main.c        **** {
 656:main.c        ****     CYBLE_GATTS_HANDLE_VALUE_NTF_T notificationHandle;
 657:main.c        ****     static char dataString[30];
 658:main.c        ****     
 659:main.c        ****     if(CyBle_GetState() == CYBLE_STATE_CONNECTED)
 660:main.c        ****     {
 661:main.c        ****         sprintf(dataString, "%.2f mM (%.1f nA)", 
 662:main.c        ****                 sensorData.glucose, 
 663:main.c        ****                 sensorData.current_glucose_nA);
 664:main.c        ****         
 665:main.c        ****         notificationHandle.attrHandle = CYBLE_CUSTOM_SERVICE_GLUCOSE_MEASUREMENT_CHAR_HANDLE;
 666:main.c        ****         notificationHandle.value.val = (uint8*)dataString;
 667:main.c        ****         notificationHandle.value.len = strlen(dataString);
 668:main.c        ****         
ARM GAS  C:\Users\13740\AppData\Local\Temp\cc4654uj.s 			page 43


 669:main.c        ****         if(CyBle_GattsNotification(cyBle_connHandle, &notificationHandle) == CYBLE_ERROR_OK)
 670:main.c        ****         {
 671:main.c        ****         }
 672:main.c        ****     }
 673:main.c        **** }
 674:main.c        **** 
 675:main.c        **** */
 676:main.c        **** 
 677:main.c        **** void SendGlucoseDataViaBLE(void)
 678:main.c        **** {
 1587              		.loc 1 678 0
 1588              		.cfi_startproc
 1589              		@ args = 0, pretend = 0, frame = 0
 1590              		@ frame_needed = 1, uses_anonymous_args = 0
 1591 0000 80B5     		push	{r7, lr}
 1592              		.cfi_def_cfa_offset 8
 1593              		.cfi_offset 7, -8
 1594              		.cfi_offset 14, -4
 1595 0002 00AF     		add	r7, sp, #0
 1596              		.cfi_def_cfa_register 7
 679:main.c        **** 
 680:main.c        **** }
 1597              		.loc 1 680 0
 1598 0004 C046     		nop
 1599 0006 BD46     		mov	sp, r7
 1600              		@ sp needed
 1601 0008 80BD     		pop	{r7, pc}
 1602              		.cfi_endproc
 1603              	.LFE46:
 1604              		.size	SendGlucoseDataViaBLE, .-SendGlucoseDataViaBLE
 1605              		.global	__aeabi_uidivmod
 1606 000a C046     		.section	.rodata
 1607              		.align	2
 1608              	.LC69:
 1609 04ec 41444949 		.ascii	"ADIID:%04X\000"
 1609      443A2530 
 1609      345800
 1610 04f7 00       		.align	2
 1611              	.LC72:
 1612 04f8 43484950 		.ascii	"CHIP:%04X\000"
 1612      3A253034 
 1612      5800
 1613 0502 0000     		.align	2
 1614              	.LC74:
 1615 0504 49443A25 		.ascii	"ID:%04X-%04X\000"
 1615      3034582D 
 1615      25303458 
 1615      00
 1616              		.section	.text.SendLactateDataViaBLE,"ax",%progbits
 1617              		.align	2
 1618              		.global	SendLactateDataViaBLE
 1619              		.code	16
 1620              		.thumb_func
 1621              		.type	SendLactateDataViaBLE, %function
 1622              	SendLactateDataViaBLE:
 1623              	.LFB47:
 681:main.c        **** 
ARM GAS  C:\Users\13740\AppData\Local\Temp\cc4654uj.s 			page 44


 682:main.c        **** 
 683:main.c        **** // 发送乳酸数据（改为诊断日志输出）
 684:main.c        **** void SendLactateDataViaBLE(void)
 685:main.c        **** {
 1624              		.loc 1 685 0
 1625              		.cfi_startproc
 1626              		@ args = 0, pretend = 0, frame = 32
 1627              		@ frame_needed = 1, uses_anonymous_args = 0
 1628 0000 80B5     		push	{r7, lr}
 1629              		.cfi_def_cfa_offset 8
 1630              		.cfi_offset 7, -8
 1631              		.cfi_offset 14, -4
 1632 0002 88B0     		sub	sp, sp, #32
 1633              		.cfi_def_cfa_offset 40
 1634 0004 00AF     		add	r7, sp, #0
 1635              		.cfi_def_cfa_register 7
 686:main.c        ****     CYBLE_GATTS_HANDLE_VALUE_NTF_T notificationHandle;
 687:main.c        ****     static char dataString[40];
 688:main.c        ****     static uint8 diagStep = 0;
 689:main.c        ****     
 690:main.c        ****     if(CyBle_GetState() == CYBLE_STATE_CONNECTED)
 1636              		.loc 1 690 0
 1637 0006 344B     		ldr	r3, .L83
 1638 0008 1B78     		ldrb	r3, [r3]
 1639 000a 022B     		cmp	r3, #2
 1640 000c 5FD1     		bne	.L82
 691:main.c        ****     {
 692:main.c        ****         switch(diagStep % 3)
 1641              		.loc 1 692 0
 1642 000e 334B     		ldr	r3, .L83+4
 1643 0010 1B78     		ldrb	r3, [r3]
 1644 0012 0321     		movs	r1, #3
 1645 0014 1800     		movs	r0, r3
 1646 0016 FFF7FEFF 		bl	__aeabi_uidivmod
 1647 001a 0B00     		movs	r3, r1
 1648 001c DBB2     		uxtb	r3, r3
 1649 001e 012B     		cmp	r3, #1
 1650 0020 11D0     		beq	.L79
 1651 0022 022B     		cmp	r3, #2
 1652 0024 1CD0     		beq	.L80
 1653 0026 002B     		cmp	r3, #0
 1654 0028 2ED1     		bne	.L78
 1655              	.LBB5:
 693:main.c        ****         {
 694:main.c        ****             case 0:
 695:main.c        ****                 // 测试: 读取ADIID (应为0x4144)
 696:main.c        ****                 {
 697:main.c        ****                     uint32_t adiid = AD5940_ReadReg(REG_AFECON_ADIID);
 1656              		.loc 1 697 0
 1657 002a 8023     		movs	r3, #128
 1658 002c DB00     		lsls	r3, r3, #3
 1659 002e 1800     		movs	r0, r3
 1660 0030 FFF7FEFF 		bl	AD5940_ReadReg
 1661 0034 0300     		movs	r3, r0
 1662 0036 FB61     		str	r3, [r7, #28]
 698:main.c        ****                     sprintf(dataString, "ADIID:%04X", (unsigned int)adiid);
 1663              		.loc 1 698 0
ARM GAS  C:\Users\13740\AppData\Local\Temp\cc4654uj.s 			page 45


 1664 0038 FA69     		ldr	r2, [r7, #28]
 1665 003a 2949     		ldr	r1, .L83+8
 1666 003c 294B     		ldr	r3, .L83+12
 1667 003e 1800     		movs	r0, r3
 1668 0040 FFF7FEFF 		bl	sprintf
 1669              	.LBE5:
 699:main.c        ****                     // 预期: ADIID:4144
 700:main.c        ****                 }
 701:main.c        ****                 break;
 1670              		.loc 1 701 0
 1671 0044 20E0     		b	.L78
 1672              	.L79:
 1673              	.LBB6:
 702:main.c        ****                 
 703:main.c        ****             case 1:
 704:main.c        ****                 // 测试: 读取CHIPID (应为0x5502)
 705:main.c        ****                 {
 706:main.c        ****                     uint32_t chipid = AD5940_ReadReg(REG_AFECON_CHIPID);
 1674              		.loc 1 706 0
 1675 0046 284B     		ldr	r3, .L83+16
 1676 0048 1800     		movs	r0, r3
 1677 004a FFF7FEFF 		bl	AD5940_ReadReg
 1678 004e 0300     		movs	r3, r0
 1679 0050 BB61     		str	r3, [r7, #24]
 707:main.c        ****                     sprintf(dataString, "CHIP:%04X", (unsigned int)chipid);
 1680              		.loc 1 707 0
 1681 0052 BA69     		ldr	r2, [r7, #24]
 1682 0054 2549     		ldr	r1, .L83+20
 1683 0056 234B     		ldr	r3, .L83+12
 1684 0058 1800     		movs	r0, r3
 1685 005a FFF7FEFF 		bl	sprintf
 1686              	.LBE6:
 708:main.c        ****                     // 预期: CHIP:5502
 709:main.c        ****                 }
 710:main.c        ****                 break;
 1687              		.loc 1 710 0
 1688 005e 13E0     		b	.L78
 1689              	.L80:
 1690              	.LBB7:
 711:main.c        ****                 
 712:main.c        ****             case 2:
 713:main.c        ****                 // 测试: 同时读两个
 714:main.c        ****                 {
 715:main.c        ****                     uint32_t adiid = AD5940_ReadReg(REG_AFECON_ADIID);
 1691              		.loc 1 715 0
 1692 0060 8023     		movs	r3, #128
 1693 0062 DB00     		lsls	r3, r3, #3
 1694 0064 1800     		movs	r0, r3
 1695 0066 FFF7FEFF 		bl	AD5940_ReadReg
 1696 006a 0300     		movs	r3, r0
 1697 006c 7B61     		str	r3, [r7, #20]
 716:main.c        ****                     uint32_t chipid = AD5940_ReadReg(REG_AFECON_CHIPID);
 1698              		.loc 1 716 0
 1699 006e 1E4B     		ldr	r3, .L83+16
 1700 0070 1800     		movs	r0, r3
 1701 0072 FFF7FEFF 		bl	AD5940_ReadReg
 1702 0076 0300     		movs	r3, r0
ARM GAS  C:\Users\13740\AppData\Local\Temp\cc4654uj.s 			page 46


 1703 0078 3B61     		str	r3, [r7, #16]
 717:main.c        ****                     sprintf(dataString, "ID:%04X-%04X", 
 1704              		.loc 1 717 0
 1705 007a 3B69     		ldr	r3, [r7, #16]
 1706 007c 7A69     		ldr	r2, [r7, #20]
 1707 007e 1C49     		ldr	r1, .L83+24
 1708 0080 1848     		ldr	r0, .L83+12
 1709 0082 FFF7FEFF 		bl	sprintf
 1710              	.LBE7:
 718:main.c        ****                             (unsigned int)adiid, (unsigned int)chipid);
 719:main.c        ****                     // 预期: ID:4144-5502
 720:main.c        ****                 }
 721:main.c        ****                 break;
 1711              		.loc 1 721 0
 1712 0086 C046     		nop
 1713              	.L78:
 722:main.c        ****         }
 723:main.c        ****         
 724:main.c        ****         diagStep++;
 1714              		.loc 1 724 0
 1715 0088 144B     		ldr	r3, .L83+4
 1716 008a 1B78     		ldrb	r3, [r3]
 1717 008c 0133     		adds	r3, r3, #1
 1718 008e DAB2     		uxtb	r2, r3
 1719 0090 124B     		ldr	r3, .L83+4
 1720 0092 1A70     		strb	r2, [r3]
 725:main.c        ****         
 726:main.c        ****         notificationHandle.attrHandle = CYBLE_CUSTOM_SERVICE_LACTATE_CHAR_HANDLE;
 1721              		.loc 1 726 0
 1722 0094 3B1D     		adds	r3, r7, #4
 1723 0096 1222     		movs	r2, #18
 1724 0098 1A81     		strh	r2, [r3, #8]
 727:main.c        ****         notificationHandle.value.val = (uint8*)dataString;
 1725              		.loc 1 727 0
 1726 009a 3B1D     		adds	r3, r7, #4
 1727 009c 114A     		ldr	r2, .L83+12
 1728 009e 1A60     		str	r2, [r3]
 728:main.c        ****         notificationHandle.value.len = strlen(dataString);
 1729              		.loc 1 728 0
 1730 00a0 104B     		ldr	r3, .L83+12
 1731 00a2 1800     		movs	r0, r3
 1732 00a4 FFF7FEFF 		bl	strlen
 1733 00a8 0300     		movs	r3, r0
 1734 00aa 9AB2     		uxth	r2, r3
 1735 00ac 3B1D     		adds	r3, r7, #4
 1736 00ae 9A80     		strh	r2, [r3, #4]
 729:main.c        ****         CyBle_GattsNotification(cyBle_connHandle, &notificationHandle);
 1737              		.loc 1 729 0
 1738 00b0 391D     		adds	r1, r7, #4
 1739 00b2 104B     		ldr	r3, .L83+28
 1740 00b4 1A78     		ldrb	r2, [r3]
 1741 00b6 5B78     		ldrb	r3, [r3, #1]
 1742 00b8 1B02     		lsls	r3, r3, #8
 1743 00ba 1A43     		orrs	r2, r3
 1744 00bc 0023     		movs	r3, #0
 1745 00be 1204     		lsls	r2, r2, #16
 1746 00c0 120C     		lsrs	r2, r2, #16
ARM GAS  C:\Users\13740\AppData\Local\Temp\cc4654uj.s 			page 47


 1747 00c2 1B0C     		lsrs	r3, r3, #16
 1748 00c4 1B04     		lsls	r3, r3, #16
 1749 00c6 1343     		orrs	r3, r2
 1750 00c8 1800     		movs	r0, r3
 1751 00ca FFF7FEFF 		bl	CyBle_GattsNotification
 1752              	.L82:
 730:main.c        ****     }
 731:main.c        **** }
 1753              		.loc 1 731 0
 1754 00ce C046     		nop
 1755 00d0 BD46     		mov	sp, r7
 1756 00d2 08B0     		add	sp, sp, #32
 1757              		@ sp needed
 1758 00d4 80BD     		pop	{r7, pc}
 1759              	.L84:
 1760 00d6 C046     		.align	2
 1761              	.L83:
 1762 00d8 00000000 		.word	cyBle_state
 1763 00dc 5C040000 		.word	diagStep.9600
 1764 00e0 EC040000 		.word	.LC69
 1765 00e4 60040000 		.word	dataString.9599
 1766 00e8 04040000 		.word	1028
 1767 00ec F8040000 		.word	.LC72
 1768 00f0 04050000 		.word	.LC74
 1769 00f4 00000000 		.word	cyBle_connHandle
 1770              		.cfi_endproc
 1771              	.LFE47:
 1772              		.size	SendLactateDataViaBLE, .-SendLactateDataViaBLE
 1773              		.section	.rodata
 1774 0511 000000   		.align	2
 1775              	.LC80:
 1776 0514 53434C4B 		.ascii	"SCLK=0, Read:%d\000"
 1776      3D302C20 
 1776      52656164 
 1776      3A256400 
 1777              		.align	2
 1778              	.LC83:
 1779 0524 53434C4B 		.ascii	"SCLK=1, Read:%d\000"
 1779      3D312C20 
 1779      52656164 
 1779      3A256400 
 1780              		.align	2
 1781              	.LC85:
 1782 0534 43533A25 		.ascii	"CS:%d MOSI:%d MISO:%d\000"
 1782      64204D4F 
 1782      53493A25 
 1782      64204D49 
 1782      534F3A25 
 1783 054a 0000     		.align	2
 1784              	.LC87:
 1785 054c 53434C4B 		.ascii	"SCLK toggled 10x\000"
 1785      20746F67 
 1785      676C6564 
 1785      20313078 
 1785      00
 1786 055d 000000   		.align	2
 1787              	.LC89:
ARM GAS  C:\Users\13740\AppData\Local\Temp\cc4654uj.s 			page 48


 1788 0560 43686563 		.ascii	"Check TopDesign pin cfg\000"
 1788      6B20546F 
 1788      70446573 
 1788      69676E20 
 1788      70696E20 
 1789              		.section	.text.SendTemperatureViaBLE,"ax",%progbits
 1790              		.align	2
 1791              		.global	SendTemperatureViaBLE
 1792              		.code	16
 1793              		.thumb_func
 1794              		.type	SendTemperatureViaBLE, %function
 1795              	SendTemperatureViaBLE:
 1796              	.LFB48:
 732:main.c        **** 
 733:main.c        **** // 发送温度数据（改为芯片状态诊断）
 734:main.c        **** // void SendTemperatureViaBLE(void)
 735:main.c        **** // {
 736:main.c        **** //     CYBLE_GATTS_HANDLE_VALUE_NTF_T notificationHandle;
 737:main.c        **** //     static char tempString[40];
 738:main.c        ****     
 739:main.c        **** //     if(CyBle_GetState() == CYBLE_STATE_CONNECTED)
 740:main.c        **** //     {
 741:main.c        **** //         // 读取 SPI 寄存器检查芯片状态
 742:main.c        **** //         uint32 regValue = AD5940_ReadReg(REG_AFE_AFECON);
 743:main.c        **** //         uint8 initStatus = 0;
 744:main.c        ****         
 745:main.c        **** //         // 检查 pAmpCfg 指针是否有效
 746:main.c        **** //         if(pAmpCfg != NULL)
 747:main.c        **** //         {
 748:main.c        **** //             initStatus = (uint8)pAmpCfg->AMPInited;
 749:main.c        **** //         }
 750:main.c        ****         
 751:main.c        **** //         // 显示 SPI 寄存器值 + 初始化状态
 752:main.c        **** //         sprintf(tempString, "SPI:0x%lX Init:%d", 
 753:main.c        **** //                 (unsigned long)regValue,
 754:main.c        **** //                 (int)initStatus);
 755:main.c        ****         
 756:main.c        **** //         notificationHandle.attrHandle = CYBLE_CUSTOM_SERVICE_LACTATE_CHAR_HANDLE;
 757:main.c        **** //         notificationHandle.value.val = (uint8*)tempString;
 758:main.c        **** //         notificationHandle.value.len = strlen(tempString);
 759:main.c        ****         
 760:main.c        **** //         CyBle_GattsNotification(cyBle_connHandle, &notificationHandle);
 761:main.c        **** //     }
 762:main.c        **** // }
 763:main.c        **** 
 764:main.c        **** void SendTemperatureViaBLE(void)
 765:main.c        **** {
 1797              		.loc 1 765 0
 1798              		.cfi_startproc
 1799              		@ args = 0, pretend = 0, frame = 16
 1800              		@ frame_needed = 1, uses_anonymous_args = 0
 1801 0000 B0B5     		push	{r4, r5, r7, lr}
 1802              		.cfi_def_cfa_offset 16
 1803              		.cfi_offset 4, -16
 1804              		.cfi_offset 5, -12
 1805              		.cfi_offset 7, -8
 1806              		.cfi_offset 14, -4
ARM GAS  C:\Users\13740\AppData\Local\Temp\cc4654uj.s 			page 49


 1807 0002 86B0     		sub	sp, sp, #24
 1808              		.cfi_def_cfa_offset 40
 1809 0004 02AF     		add	r7, sp, #8
 1810              		.cfi_def_cfa 7, 32
 766:main.c        ****     CYBLE_GATTS_HANDLE_VALUE_NTF_T notificationHandle;
 767:main.c        ****     static char tempString[60];
 768:main.c        ****     static uint8 testStep = 0;
 769:main.c        ****     
 770:main.c        ****     if(CyBle_GetState() == CYBLE_STATE_CONNECTED)
 1811              		.loc 1 770 0
 1812 0006 494B     		ldr	r3, .L97
 1813 0008 1B78     		ldrb	r3, [r3]
 1814 000a 022B     		cmp	r3, #2
 1815 000c 00D0     		beq	.LCB1407
 1816 000e 89E0     		b	.L96	@long jump
 1817              	.LCB1407:
 771:main.c        ****     {
 772:main.c        ****         switch(testStep % 5)
 1818              		.loc 1 772 0
 1819 0010 474B     		ldr	r3, .L97+4
 1820 0012 1B78     		ldrb	r3, [r3]
 1821 0014 0521     		movs	r1, #5
 1822 0016 1800     		movs	r0, r3
 1823 0018 FFF7FEFF 		bl	__aeabi_uidivmod
 1824 001c 0B00     		movs	r3, r1
 1825 001e DBB2     		uxtb	r3, r3
 1826 0020 042B     		cmp	r3, #4
 1827 0022 5CD8     		bhi	.L87
 1828 0024 9A00     		lsls	r2, r3, #2
 1829 0026 434B     		ldr	r3, .L97+8
 1830 0028 D318     		adds	r3, r2, r3
 1831 002a 1B68     		ldr	r3, [r3]
 1832 002c 9F46     		mov	pc, r3
 1833              		.section	.rodata
 1834              		.align	2
 1835              	.L89:
 1836 0578 2E000000 		.word	.L88
 1837 057c 4E000000 		.word	.L90
 1838 0580 6E000000 		.word	.L91
 1839 0584 94000000 		.word	.L92
 1840 0588 D0000000 		.word	.L93
 1841              		.section	.text.SendTemperatureViaBLE
 1842              	.L88:
 773:main.c        ****         {
 774:main.c        ****             case 0:
 775:main.c        ****                 // 🔧 测试1：尝试设置SCLK为0
 776:main.c        ****                 AD5940_SCLK_Write(0);
 1843              		.loc 1 776 0
 1844 002e 0020     		movs	r0, #0
 1845 0030 FFF7FEFF 		bl	AD5940_SCLK_Write
 777:main.c        ****                 CyDelay(10);
 1846              		.loc 1 777 0
 1847 0034 0A20     		movs	r0, #10
 1848 0036 FFF7FEFF 		bl	CyDelay
 778:main.c        ****                 sprintf(tempString, "SCLK=0, Read:%d", AD5940_SCLK_Read());
 1849              		.loc 1 778 0
 1850 003a FFF7FEFF 		bl	AD5940_SCLK_Read
ARM GAS  C:\Users\13740\AppData\Local\Temp\cc4654uj.s 			page 50


 1851 003e 0300     		movs	r3, r0
 1852 0040 1A00     		movs	r2, r3
 1853 0042 3D49     		ldr	r1, .L97+12
 1854 0044 3D4B     		ldr	r3, .L97+16
 1855 0046 1800     		movs	r0, r3
 1856 0048 FFF7FEFF 		bl	sprintf
 779:main.c        ****                 break;
 1857              		.loc 1 779 0
 1858 004c 47E0     		b	.L87
 1859              	.L90:
 780:main.c        ****                 
 781:main.c        ****             case 1:
 782:main.c        ****                 // 🔧 测试2：尝试设置SCLK为1
 783:main.c        ****                 AD5940_SCLK_Write(1);
 1860              		.loc 1 783 0
 1861 004e 0120     		movs	r0, #1
 1862 0050 FFF7FEFF 		bl	AD5940_SCLK_Write
 784:main.c        ****                 CyDelay(10);
 1863              		.loc 1 784 0
 1864 0054 0A20     		movs	r0, #10
 1865 0056 FFF7FEFF 		bl	CyDelay
 785:main.c        ****                 sprintf(tempString, "SCLK=1, Read:%d", AD5940_SCLK_Read());
 1866              		.loc 1 785 0
 1867 005a FFF7FEFF 		bl	AD5940_SCLK_Read
 1868 005e 0300     		movs	r3, r0
 1869 0060 1A00     		movs	r2, r3
 1870 0062 3749     		ldr	r1, .L97+20
 1871 0064 354B     		ldr	r3, .L97+16
 1872 0066 1800     		movs	r0, r3
 1873 0068 FFF7FEFF 		bl	sprintf
 786:main.c        ****                 break;
 1874              		.loc 1 786 0
 1875 006c 37E0     		b	.L87
 1876              	.L91:
 787:main.c        ****                 
 788:main.c        ****             case 2:
 789:main.c        ****                 // 🔧 测试3：检查CS和MOSI
 790:main.c        ****                 sprintf(tempString, "CS:%d MOSI:%d MISO:%d", 
 791:main.c        ****                         AD5940_CS_Read(),
 1877              		.loc 1 791 0
 1878 006e FFF7FEFF 		bl	AD5940_CS_Read
 1879 0072 0300     		movs	r3, r0
 790:main.c        ****                         AD5940_CS_Read(),
 1880              		.loc 1 790 0
 1881 0074 1C00     		movs	r4, r3
 792:main.c        ****                         AD5940_MOSI_Read(),
 1882              		.loc 1 792 0
 1883 0076 FFF7FEFF 		bl	AD5940_MOSI_Read
 1884 007a 0300     		movs	r3, r0
 790:main.c        ****                         AD5940_CS_Read(),
 1885              		.loc 1 790 0
 1886 007c 1D00     		movs	r5, r3
 793:main.c        ****                         AD5940_MISO_Read());
 1887              		.loc 1 793 0
 1888 007e FFF7FEFF 		bl	AD5940_MISO_Read
 1889 0082 0300     		movs	r3, r0
 790:main.c        ****                         AD5940_CS_Read(),
ARM GAS  C:\Users\13740\AppData\Local\Temp\cc4654uj.s 			page 51


 1890              		.loc 1 790 0
 1891 0084 2F49     		ldr	r1, .L97+24
 1892 0086 2D48     		ldr	r0, .L97+16
 1893 0088 0093     		str	r3, [sp]
 1894 008a 2B00     		movs	r3, r5
 1895 008c 2200     		movs	r2, r4
 1896 008e FFF7FEFF 		bl	sprintf
 794:main.c        ****                 break;
 1897              		.loc 1 794 0
 1898 0092 24E0     		b	.L87
 1899              	.L92:
 1900              	.LBB8:
 795:main.c        ****                 
 796:main.c        ****             case 3:
 797:main.c        ****                 // 🔧 测试4：快速翻转SCLK 10次
 798:main.c        ****                 for(int i=0; i<10; i++) {
 1901              		.loc 1 798 0
 1902 0094 0023     		movs	r3, #0
 1903 0096 FB60     		str	r3, [r7, #12]
 1904 0098 0EE0     		b	.L94
 1905              	.L95:
 799:main.c        ****                     AD5940_SCLK_Write(1);
 1906              		.loc 1 799 0 discriminator 3
 1907 009a 0120     		movs	r0, #1
 1908 009c FFF7FEFF 		bl	AD5940_SCLK_Write
 800:main.c        ****                     CyDelayUs(10);
 1909              		.loc 1 800 0 discriminator 3
 1910 00a0 0A20     		movs	r0, #10
 1911 00a2 FFF7FEFF 		bl	CyDelayUs
 801:main.c        ****                     AD5940_SCLK_Write(0);
 1912              		.loc 1 801 0 discriminator 3
 1913 00a6 0020     		movs	r0, #0
 1914 00a8 FFF7FEFF 		bl	AD5940_SCLK_Write
 802:main.c        ****                     CyDelayUs(10);
 1915              		.loc 1 802 0 discriminator 3
 1916 00ac 0A20     		movs	r0, #10
 1917 00ae FFF7FEFF 		bl	CyDelayUs
 798:main.c        ****                     AD5940_SCLK_Write(1);
 1918              		.loc 1 798 0 discriminator 3
 1919 00b2 FB68     		ldr	r3, [r7, #12]
 1920 00b4 0133     		adds	r3, r3, #1
 1921 00b6 FB60     		str	r3, [r7, #12]
 1922              	.L94:
 798:main.c        ****                     AD5940_SCLK_Write(1);
 1923              		.loc 1 798 0 is_stmt 0 discriminator 1
 1924 00b8 FB68     		ldr	r3, [r7, #12]
 1925 00ba 092B     		cmp	r3, #9
 1926 00bc EDDD     		ble	.L95
 1927              	.LBE8:
 803:main.c        ****                 }
 804:main.c        ****                 sprintf(tempString, "SCLK toggled 10x");
 1928              		.loc 1 804 0 is_stmt 1
 1929 00be 1F4B     		ldr	r3, .L97+16
 1930 00c0 214A     		ldr	r2, .L97+28
 1931 00c2 13CA     		ldmia	r2!, {r0, r1, r4}
 1932 00c4 13C3     		stmia	r3!, {r0, r1, r4}
 1933 00c6 1168     		ldr	r1, [r2]
ARM GAS  C:\Users\13740\AppData\Local\Temp\cc4654uj.s 			page 52


 1934 00c8 1960     		str	r1, [r3]
 1935 00ca 1279     		ldrb	r2, [r2, #4]
 1936 00cc 1A71     		strb	r2, [r3, #4]
 805:main.c        ****                 break;
 1937              		.loc 1 805 0
 1938 00ce 06E0     		b	.L87
 1939              	.L93:
 806:main.c        ****                 
 807:main.c        ****             case 4:
 808:main.c        ****                 // 🔧 测试5：读取引脚配置寄存器（如果可能）
 809:main.c        ****                 // 这需要查PSoC寄存器，暂时显示基本状态
 810:main.c        ****                 sprintf(tempString, "Check TopDesign pin cfg");
 1940              		.loc 1 810 0
 1941 00d0 1A4B     		ldr	r3, .L97+16
 1942 00d2 1E4A     		ldr	r2, .L97+32
 1943 00d4 13CA     		ldmia	r2!, {r0, r1, r4}
 1944 00d6 13C3     		stmia	r3!, {r0, r1, r4}
 1945 00d8 13CA     		ldmia	r2!, {r0, r1, r4}
 1946 00da 13C3     		stmia	r3!, {r0, r1, r4}
 811:main.c        ****                 break;
 1947              		.loc 1 811 0
 1948 00dc C046     		nop
 1949              	.L87:
 812:main.c        ****         }
 813:main.c        ****         
 814:main.c        ****         testStep++;
 1950              		.loc 1 814 0
 1951 00de 144B     		ldr	r3, .L97+4
 1952 00e0 1B78     		ldrb	r3, [r3]
 1953 00e2 0133     		adds	r3, r3, #1
 1954 00e4 DAB2     		uxtb	r2, r3
 1955 00e6 124B     		ldr	r3, .L97+4
 1956 00e8 1A70     		strb	r2, [r3]
 815:main.c        ****         
 816:main.c        ****         notificationHandle.attrHandle = CYBLE_CUSTOM_SERVICE_LACTATE_CHAR_HANDLE;
 1957              		.loc 1 816 0
 1958 00ea 3B00     		movs	r3, r7
 1959 00ec 1222     		movs	r2, #18
 1960 00ee 1A81     		strh	r2, [r3, #8]
 817:main.c        ****         notificationHandle.value.val = (uint8*)tempString;
 1961              		.loc 1 817 0
 1962 00f0 3B00     		movs	r3, r7
 1963 00f2 124A     		ldr	r2, .L97+16
 1964 00f4 1A60     		str	r2, [r3]
 818:main.c        ****         notificationHandle.value.len = strlen(tempString);
 1965              		.loc 1 818 0
 1966 00f6 114B     		ldr	r3, .L97+16
 1967 00f8 1800     		movs	r0, r3
 1968 00fa FFF7FEFF 		bl	strlen
 1969 00fe 0300     		movs	r3, r0
 1970 0100 9AB2     		uxth	r2, r3
 1971 0102 3B00     		movs	r3, r7
 1972 0104 9A80     		strh	r2, [r3, #4]
 819:main.c        ****         CyBle_GattsNotification(cyBle_connHandle, &notificationHandle);
 1973              		.loc 1 819 0
 1974 0106 3900     		movs	r1, r7
 1975 0108 114B     		ldr	r3, .L97+36
ARM GAS  C:\Users\13740\AppData\Local\Temp\cc4654uj.s 			page 53


 1976 010a 1A78     		ldrb	r2, [r3]
 1977 010c 5B78     		ldrb	r3, [r3, #1]
 1978 010e 1B02     		lsls	r3, r3, #8
 1979 0110 1A43     		orrs	r2, r3
 1980 0112 0023     		movs	r3, #0
 1981 0114 1204     		lsls	r2, r2, #16
 1982 0116 120C     		lsrs	r2, r2, #16
 1983 0118 1B0C     		lsrs	r3, r3, #16
 1984 011a 1B04     		lsls	r3, r3, #16
 1985 011c 1343     		orrs	r3, r2
 1986 011e 1800     		movs	r0, r3
 1987 0120 FFF7FEFF 		bl	CyBle_GattsNotification
 1988              	.L96:
 820:main.c        ****     }
 821:main.c        **** }
 1989              		.loc 1 821 0
 1990 0124 C046     		nop
 1991 0126 BD46     		mov	sp, r7
 1992 0128 04B0     		add	sp, sp, #16
 1993              		@ sp needed
 1994 012a B0BD     		pop	{r4, r5, r7, pc}
 1995              	.L98:
 1996              		.align	2
 1997              	.L97:
 1998 012c 00000000 		.word	cyBle_state
 1999 0130 88040000 		.word	testStep.9614
 2000 0134 78050000 		.word	.L89
 2001 0138 14050000 		.word	.LC80
 2002 013c 8C040000 		.word	tempString.9613
 2003 0140 24050000 		.word	.LC83
 2004 0144 34050000 		.word	.LC85
 2005 0148 4C050000 		.word	.LC87
 2006 014c 60050000 		.word	.LC89
 2007 0150 00000000 		.word	cyBle_connHandle
 2008              		.cfi_endproc
 2009              	.LFE48:
 2010              		.size	SendTemperatureViaBLE, .-SendTemperatureViaBLE
 2011              		.section	.text.SendAllSensorDataViaBLE,"ax",%progbits
 2012              		.align	2
 2013              		.global	SendAllSensorDataViaBLE
 2014              		.code	16
 2015              		.thumb_func
 2016              		.type	SendAllSensorDataViaBLE, %function
 2017              	SendAllSensorDataViaBLE:
 2018              	.LFB49:
 822:main.c        **** 
 823:main.c        **** 
 824:main.c        **** 
 825:main.c        **** 
 826:main.c        **** 
 827:main.c        **** 
 828:main.c        **** 
 829:main.c        **** 
 830:main.c        **** /*******************************************************************************
 831:main.c        **** * Function Name: SendAllSensorDataViaBLE
 832:main.c        **** ********************************************************************************
 833:main.c        **** * Summary:
ARM GAS  C:\Users\13740\AppData\Local\Temp\cc4654uj.s 			page 54


 834:main.c        **** *   发送所有传感器数据（包含电流值）
 835:main.c        **** *******************************************************************************/
 836:main.c        **** void SendAllSensorDataViaBLE(void)
 837:main.c        **** {
 2019              		.loc 1 837 0
 2020              		.cfi_startproc
 2021              		@ args = 0, pretend = 0, frame = 0
 2022              		@ frame_needed = 1, uses_anonymous_args = 0
 2023 0000 80B5     		push	{r7, lr}
 2024              		.cfi_def_cfa_offset 8
 2025              		.cfi_offset 7, -8
 2026              		.cfi_offset 14, -4
 2027 0002 00AF     		add	r7, sp, #0
 2028              		.cfi_def_cfa_register 7
 838:main.c        ****     if(CyBle_GetState() == CYBLE_STATE_CONNECTED)
 2029              		.loc 1 838 0
 2030 0004 0A4B     		ldr	r3, .L102
 2031 0006 1B78     		ldrb	r3, [r3]
 2032 0008 022B     		cmp	r3, #2
 2033 000a 0ED1     		bne	.L101
 839:main.c        ****     {
 840:main.c        ****         
 841:main.c        ****         SendTemperatureViaBLE();
 2034              		.loc 1 841 0
 2035 000c FFF7FEFF 		bl	SendTemperatureViaBLE
 842:main.c        ****         CyDelay(50);
 2036              		.loc 1 842 0
 2037 0010 3220     		movs	r0, #50
 2038 0012 FFF7FEFF 		bl	CyDelay
 843:main.c        ****         
 844:main.c        ****         SendGlucoseDataViaBLE();  // 包含电流值
 2039              		.loc 1 844 0
 2040 0016 FFF7FEFF 		bl	SendGlucoseDataViaBLE
 845:main.c        ****         CyDelay(50);
 2041              		.loc 1 845 0
 2042 001a 3220     		movs	r0, #50
 2043 001c FFF7FEFF 		bl	CyDelay
 846:main.c        ****         
 847:main.c        ****         SendLactateDataViaBLE();  // 包含电流值
 2044              		.loc 1 847 0
 2045 0020 FFF7FEFF 		bl	SendLactateDataViaBLE
 848:main.c        ****         CyDelay(50);
 2046              		.loc 1 848 0
 2047 0024 3220     		movs	r0, #50
 2048 0026 FFF7FEFF 		bl	CyDelay
 2049              	.L101:
 849:main.c        ****         
 850:main.c        ****        
 851:main.c        ****     }
 852:main.c        **** }
 2050              		.loc 1 852 0
 2051 002a C046     		nop
 2052 002c BD46     		mov	sp, r7
 2053              		@ sp needed
 2054 002e 80BD     		pop	{r7, pc}
 2055              	.L103:
 2056              		.align	2
ARM GAS  C:\Users\13740\AppData\Local\Temp\cc4654uj.s 			page 55


 2057              	.L102:
 2058 0030 00000000 		.word	cyBle_state
 2059              		.cfi_endproc
 2060              	.LFE49:
 2061              		.size	SendAllSensorDataViaBLE, .-SendAllSensorDataViaBLE
 2062              		.section	.text.Timer_Interrupt,"ax",%progbits
 2063              		.align	2
 2064              		.global	Timer_Interrupt
 2065              		.code	16
 2066              		.thumb_func
 2067              		.type	Timer_Interrupt, %function
 2068              	Timer_Interrupt:
 2069              	.LFB50:
 853:main.c        **** 
 854:main.c        **** /*******************************************************************************
 855:main.c        **** * Function Name: Timer_Interrupt
 856:main.c        **** ********************************************************************************
 857:main.c        **** * Summary:
 858:main.c        **** *   定时器中断 - 每秒触发一次
 859:main.c        **** *******************************************************************************/
 860:main.c        **** CY_ISR(Timer_Interrupt)
 861:main.c        **** {
 2070              		.loc 1 861 0
 2071              		.cfi_startproc
 2072              		@ args = 0, pretend = 0, frame = 0
 2073              		@ frame_needed = 1, uses_anonymous_args = 0
 2074 0000 80B5     		push	{r7, lr}
 2075              		.cfi_def_cfa_offset 8
 2076              		.cfi_offset 7, -8
 2077              		.cfi_offset 14, -4
 2078 0002 00AF     		add	r7, sp, #0
 2079              		.cfi_def_cfa_register 7
 862:main.c        ****     static uint8 led = LED_OFF;
 863:main.c        ****     
 864:main.c        ****     if(CYBLE_STATE_ADVERTISING == CyBle_GetState())
 2080              		.loc 1 864 0
 2081 0004 0D4B     		ldr	r3, .L106
 2082 0006 1B78     		ldrb	r3, [r3]
 2083 0008 032B     		cmp	r3, #3
 2084 000a 0BD1     		bne	.L105
 865:main.c        ****     {
 866:main.c        ****         led ^= LED_OFF;
 2085              		.loc 1 866 0
 2086 000c 0C4B     		ldr	r3, .L106+4
 2087 000e 1B78     		ldrb	r3, [r3]
 2088 0010 0122     		movs	r2, #1
 2089 0012 5340     		eors	r3, r2
 2090 0014 DAB2     		uxtb	r2, r3
 2091 0016 0A4B     		ldr	r3, .L106+4
 2092 0018 1A70     		strb	r2, [r3]
 867:main.c        ****         Advertising_LED_Write(led);
 2093              		.loc 1 867 0
 2094 001a 094B     		ldr	r3, .L106+4
 2095 001c 1B78     		ldrb	r3, [r3]
 2096 001e 1800     		movs	r0, r3
 2097 0020 FFF7FEFF 		bl	Advertising_LED_Write
 2098              	.L105:
ARM GAS  C:\Users\13740\AppData\Local\Temp\cc4654uj.s 			page 56


 868:main.c        ****     }
 869:main.c        ****     
 870:main.c        ****     mainTimer++;
 2099              		.loc 1 870 0
 2100 0024 074B     		ldr	r3, .L106+8
 2101 0026 1B68     		ldr	r3, [r3]
 2102 0028 5A1C     		adds	r2, r3, #1
 2103 002a 064B     		ldr	r3, .L106+8
 2104 002c 1A60     		str	r2, [r3]
 871:main.c        ****     measurementFlag = 1;  // 每秒设置测量标志
 2105              		.loc 1 871 0
 2106 002e 064B     		ldr	r3, .L106+12
 2107 0030 0122     		movs	r2, #1
 2108 0032 1A70     		strb	r2, [r3]
 872:main.c        **** }
 2109              		.loc 1 872 0
 2110 0034 C046     		nop
 2111 0036 BD46     		mov	sp, r7
 2112              		@ sp needed
 2113 0038 80BD     		pop	{r7, pc}
 2114              	.L107:
 2115 003a C046     		.align	2
 2116              	.L106:
 2117 003c 00000000 		.word	cyBle_state
 2118 0040 00000000 		.word	led.9631
 2119 0044 00000000 		.word	mainTimer
 2120 0048 00000000 		.word	measurementFlag
 2121              		.cfi_endproc
 2122              	.LFE50:
 2123              		.size	Timer_Interrupt, .-Timer_Interrupt
 2124              		.section	.text.AppCallBack,"ax",%progbits
 2125              		.align	2
 2126              		.global	AppCallBack
 2127              		.code	16
 2128              		.thumb_func
 2129              		.type	AppCallBack, %function
 2130              	AppCallBack:
 2131              	.LFB51:
 873:main.c        **** 
 874:main.c        **** /*******************************************************************************
 875:main.c        **** * Function Name: AppCallBack
 876:main.c        **** ********************************************************************************
 877:main.c        **** * Summary:
 878:main.c        **** *   BLE事件回调函数
 879:main.c        **** *******************************************************************************/
 880:main.c        **** void AppCallBack(uint32 event, void* eventParam)
 881:main.c        **** {
 2132              		.loc 1 881 0
 2133              		.cfi_startproc
 2134              		@ args = 0, pretend = 0, frame = 8
 2135              		@ frame_needed = 1, uses_anonymous_args = 0
 2136 0000 80B5     		push	{r7, lr}
 2137              		.cfi_def_cfa_offset 8
 2138              		.cfi_offset 7, -8
 2139              		.cfi_offset 14, -4
 2140 0002 82B0     		sub	sp, sp, #8
 2141              		.cfi_def_cfa_offset 16
ARM GAS  C:\Users\13740\AppData\Local\Temp\cc4654uj.s 			page 57


 2142 0004 00AF     		add	r7, sp, #0
 2143              		.cfi_def_cfa_register 7
 2144 0006 7860     		str	r0, [r7, #4]
 2145 0008 3960     		str	r1, [r7]
 882:main.c        ****     uint16 i;
 883:main.c        ****     
 884:main.c        ****     switch(event)
 2146              		.loc 1 884 0
 2147 000a 7B68     		ldr	r3, [r7, #4]
 2148 000c 272B     		cmp	r3, #39
 2149 000e 0DD0     		beq	.L110
 2150 0010 04D8     		bhi	.L111
 2151 0012 012B     		cmp	r3, #1
 2152 0014 07D0     		beq	.L112
 2153 0016 262B     		cmp	r3, #38
 2154 0018 0FD0     		beq	.L113
 885:main.c        ****     {
 886:main.c        ****         case CYBLE_EVT_STACK_ON:
 887:main.c        ****             StartAdvertisement();
 888:main.c        ****             break;
 889:main.c        **** 
 890:main.c        ****         case CYBLE_EVT_GAP_DEVICE_CONNECTED:
 891:main.c        ****             Advertising_LED_Write(LED_OFF);
 892:main.c        ****             break;
 893:main.c        **** 
 894:main.c        ****         case CYBLE_EVT_GAP_DEVICE_DISCONNECTED:
 895:main.c        ****             StartAdvertisement();
 896:main.c        ****             break;
 897:main.c        ****             
 898:main.c        ****         case CYBLE_EVT_GAPP_ADVERTISEMENT_START_STOP:
 899:main.c        ****             if(CYBLE_STATE_DISCONNECTED == CyBle_GetState())
 900:main.c        ****             {
 901:main.c        ****                 Advertising_LED_Write(LED_OFF);
 902:main.c        ****                 Disconnect_LED_Write(LED_ON);
 903:main.c        ****                 
 904:main.c        ****                 // 清除中断并进入休眠
 905:main.c        ****                 AD5940_EXTI_ClearInterrupt();
 906:main.c        ****                 AD5940_Interrupt_ClearPending();
 907:main.c        ****                 AD5940_Interrupt_Start();
 908:main.c        ****                 CySysPmHibernate();
 909:main.c        ****             }
 910:main.c        ****             break;
 911:main.c        **** 
 912:main.c        ****         case CYBLE_EVT_PENDING_FLASH_WRITE:
 913:main.c        ****             break;
 914:main.c        **** 
 915:main.c        ****         default:
 916:main.c        ****             break;
 2155              		.loc 1 916 0
 2156 001a 24E0     		b	.L116
 2157              	.L111:
 884:main.c        ****     {
 2158              		.loc 1 884 0
 2159 001c 282B     		cmp	r3, #40
 2160 001e 09D0     		beq	.L114
 2161 0020 FA2B     		cmp	r3, #250
 2162 0022 1DD0     		beq	.L118
ARM GAS  C:\Users\13740\AppData\Local\Temp\cc4654uj.s 			page 58


 2163              		.loc 1 916 0
 2164 0024 1FE0     		b	.L116
 2165              	.L112:
 887:main.c        ****             break;
 2166              		.loc 1 887 0
 2167 0026 FFF7FEFF 		bl	StartAdvertisement
 888:main.c        **** 
 2168              		.loc 1 888 0
 2169 002a 1CE0     		b	.L116
 2170              	.L110:
 891:main.c        ****             break;
 2171              		.loc 1 891 0
 2172 002c 0120     		movs	r0, #1
 2173 002e FFF7FEFF 		bl	Advertising_LED_Write
 892:main.c        **** 
 2174              		.loc 1 892 0
 2175 0032 18E0     		b	.L116
 2176              	.L114:
 895:main.c        ****             break;
 2177              		.loc 1 895 0
 2178 0034 FFF7FEFF 		bl	StartAdvertisement
 896:main.c        ****             
 2179              		.loc 1 896 0
 2180 0038 15E0     		b	.L116
 2181              	.L113:
 899:main.c        ****             {
 2182              		.loc 1 899 0
 2183 003a 0D4B     		ldr	r3, .L120
 2184 003c 1B78     		ldrb	r3, [r3]
 2185 003e 042B     		cmp	r3, #4
 2186 0040 10D1     		bne	.L119
 901:main.c        ****                 Disconnect_LED_Write(LED_ON);
 2187              		.loc 1 901 0
 2188 0042 0120     		movs	r0, #1
 2189 0044 FFF7FEFF 		bl	Advertising_LED_Write
 902:main.c        ****                 
 2190              		.loc 1 902 0
 2191 0048 0020     		movs	r0, #0
 2192 004a FFF7FEFF 		bl	Disconnect_LED_Write
 905:main.c        ****                 AD5940_Interrupt_ClearPending();
 2193              		.loc 1 905 0
 2194 004e FFF7FEFF 		bl	AD5940_EXTI_ClearInterrupt
 906:main.c        ****                 AD5940_Interrupt_Start();
 2195              		.loc 1 906 0
 2196 0052 FFF7FEFF 		bl	AD5940_Interrupt_ClearPending
 907:main.c        ****                 CySysPmHibernate();
 2197              		.loc 1 907 0
 2198 0056 FFF7FEFF 		bl	AD5940_Interrupt_Start
 908:main.c        ****             }
 2199              		.loc 1 908 0
 2200 005a FFF7FEFF 		bl	CySysPmHibernate
 910:main.c        **** 
 2201              		.loc 1 910 0
 2202 005e 01E0     		b	.L119
 2203              	.L118:
 913:main.c        **** 
 2204              		.loc 1 913 0
ARM GAS  C:\Users\13740\AppData\Local\Temp\cc4654uj.s 			page 59


 2205 0060 C046     		nop
 2206 0062 00E0     		b	.L116
 2207              	.L119:
 910:main.c        **** 
 2208              		.loc 1 910 0
 2209 0064 C046     		nop
 2210              	.L116:
 917:main.c        ****     }
 918:main.c        **** }
 2211              		.loc 1 918 0
 2212 0066 C046     		nop
 2213 0068 BD46     		mov	sp, r7
 2214 006a 02B0     		add	sp, sp, #8
 2215              		@ sp needed
 2216 006c 80BD     		pop	{r7, pc}
 2217              	.L121:
 2218 006e C046     		.align	2
 2219              	.L120:
 2220 0070 00000000 		.word	cyBle_state
 2221              		.cfi_endproc
 2222              	.LFE51:
 2223              		.size	AppCallBack, .-AppCallBack
 2224              		.global	__aeabi_i2f
 2225              		.global	__aeabi_fdiv
 2226              		.section	.text.ADCCode_to_Current_nA,"ax",%progbits
 2227              		.align	2
 2228              		.global	ADCCode_to_Current_nA
 2229              		.code	16
 2230              		.thumb_func
 2231              		.type	ADCCode_to_Current_nA, %function
 2232              	ADCCode_to_Current_nA:
 2233              	.LFB52:
 919:main.c        **** 
 920:main.c        **** /*******************************************************************************
 921:main.c        **** * ADC码值转电流
 922:main.c        **** *******************************************************************************/
 923:main.c        **** float ADCCode_to_Current_nA(uint32_t adc_code, float rtia, float vref, float pga_gain)
 924:main.c        **** {
 2234              		.loc 1 924 0
 2235              		.cfi_startproc
 2236              		@ args = 0, pretend = 0, frame = 32
 2237              		@ frame_needed = 1, uses_anonymous_args = 0
 2238 0000 B0B5     		push	{r4, r5, r7, lr}
 2239              		.cfi_def_cfa_offset 16
 2240              		.cfi_offset 4, -16
 2241              		.cfi_offset 5, -12
 2242              		.cfi_offset 7, -8
 2243              		.cfi_offset 14, -4
 2244 0002 88B0     		sub	sp, sp, #32
 2245              		.cfi_def_cfa_offset 48
 2246 0004 00AF     		add	r7, sp, #0
 2247              		.cfi_def_cfa_register 7
 2248 0006 F860     		str	r0, [r7, #12]
 2249 0008 B960     		str	r1, [r7, #8]
 2250 000a 7A60     		str	r2, [r7, #4]
 2251 000c 3B60     		str	r3, [r7]
 925:main.c        ****     int32_t adc_signed;
ARM GAS  C:\Users\13740\AppData\Local\Temp\cc4654uj.s 			page 60


 926:main.c        ****     if(adc_code & 0x8000)
 2252              		.loc 1 926 0
 2253 000e FA68     		ldr	r2, [r7, #12]
 2254 0010 8023     		movs	r3, #128
 2255 0012 1B02     		lsls	r3, r3, #8
 2256 0014 1340     		ands	r3, r2
 2257 0016 05D0     		beq	.L123
 927:main.c        ****     {
 928:main.c        ****         adc_signed = (int32_t)adc_code - 65536;
 2258              		.loc 1 928 0
 2259 0018 FB68     		ldr	r3, [r7, #12]
 2260 001a 1E4A     		ldr	r2, .L126
 2261 001c 9446     		mov	ip, r2
 2262 001e 6344     		add	r3, r3, ip
 2263 0020 FB61     		str	r3, [r7, #28]
 2264 0022 01E0     		b	.L124
 2265              	.L123:
 929:main.c        ****     }
 930:main.c        ****     else
 931:main.c        ****     {
 932:main.c        ****         adc_signed = (int32_t)adc_code;
 2266              		.loc 1 932 0
 2267 0024 FB68     		ldr	r3, [r7, #12]
 2268 0026 FB61     		str	r3, [r7, #28]
 2269              	.L124:
 933:main.c        ****     }
 934:main.c        ****     
 935:main.c        ****     float v_adc = (float)adc_signed * vref / 32768.0 / pga_gain;
 2270              		.loc 1 935 0
 2271 0028 F869     		ldr	r0, [r7, #28]
 2272 002a FFF7FEFF 		bl	__aeabi_i2f
 2273 002e 031C     		adds	r3, r0, #0
 2274 0030 7968     		ldr	r1, [r7, #4]
 2275 0032 181C     		adds	r0, r3, #0
 2276 0034 FFF7FEFF 		bl	__aeabi_fmul
 2277 0038 031C     		adds	r3, r0, #0
 2278 003a 181C     		adds	r0, r3, #0
 2279 003c FFF7FEFF 		bl	__aeabi_f2d
 2280 0040 0022     		movs	r2, #0
 2281 0042 154B     		ldr	r3, .L126+4
 2282 0044 FFF7FEFF 		bl	__aeabi_ddiv
 2283 0048 0300     		movs	r3, r0
 2284 004a 0C00     		movs	r4, r1
 2285 004c 2500     		movs	r5, r4
 2286 004e 1C00     		movs	r4, r3
 2287 0050 3868     		ldr	r0, [r7]
 2288 0052 FFF7FEFF 		bl	__aeabi_f2d
 2289 0056 0200     		movs	r2, r0
 2290 0058 0B00     		movs	r3, r1
 2291 005a 2000     		movs	r0, r4
 2292 005c 2900     		movs	r1, r5
 2293 005e FFF7FEFF 		bl	__aeabi_ddiv
 2294 0062 0300     		movs	r3, r0
 2295 0064 0C00     		movs	r4, r1
 2296 0066 1800     		movs	r0, r3
 2297 0068 2100     		movs	r1, r4
 2298 006a FFF7FEFF 		bl	__aeabi_d2f
ARM GAS  C:\Users\13740\AppData\Local\Temp\cc4654uj.s 			page 61


 2299 006e 031C     		adds	r3, r0, #0
 2300 0070 BB61     		str	r3, [r7, #24]
 936:main.c        ****     float current_A = v_adc / rtia;
 2301              		.loc 1 936 0
 2302 0072 B968     		ldr	r1, [r7, #8]
 2303 0074 B869     		ldr	r0, [r7, #24]
 2304 0076 FFF7FEFF 		bl	__aeabi_fdiv
 2305 007a 031C     		adds	r3, r0, #0
 2306 007c 7B61     		str	r3, [r7, #20]
 937:main.c        ****     float current_nA = current_A * 1e9;
 2307              		.loc 1 937 0
 2308 007e 0749     		ldr	r1, .L126+8
 2309 0080 7869     		ldr	r0, [r7, #20]
 2310 0082 FFF7FEFF 		bl	__aeabi_fmul
 2311 0086 031C     		adds	r3, r0, #0
 2312 0088 3B61     		str	r3, [r7, #16]
 938:main.c        ****     
 939:main.c        ****     return current_nA;
 2313              		.loc 1 939 0
 2314 008a 3B69     		ldr	r3, [r7, #16]
 940:main.c        **** }
 2315              		.loc 1 940 0
 2316 008c 181C     		adds	r0, r3, #0
 2317 008e BD46     		mov	sp, r7
 2318 0090 08B0     		add	sp, sp, #32
 2319              		@ sp needed
 2320 0092 B0BD     		pop	{r4, r5, r7, pc}
 2321              	.L127:
 2322              		.align	2
 2323              	.L126:
 2324 0094 0000FFFF 		.word	-65536
 2325 0098 0000E040 		.word	1088421888
 2326 009c 286B6E4E 		.word	1315859240
 2327              		.cfi_endproc
 2328              	.LFE52:
 2329              		.size	ADCCode_to_Current_nA, .-ADCCode_to_Current_nA
 2330              		.bss
 2331              	g_meas_state:
 2332 0038 00       		.space	1
 2333              	g_current_sensor:
 2334 0039 00       		.space	1
 2335 003a 0000     		.align	2
 2336              	g_meas_start_time:
 2337 003c 00000000 		.space	4
 2338              		.section	.text.ProcessMeasurement,"ax",%progbits
 2339              		.align	2
 2340              		.global	ProcessMeasurement
 2341              		.code	16
 2342              		.thumb_func
 2343              		.type	ProcessMeasurement, %function
 2344              	ProcessMeasurement:
 2345              	.LFB53:
 941:main.c        **** 
 942:main.c        **** // ===== 在全局变量区域添加测量状态机相关变量 =====
 943:main.c        **** typedef enum {
 944:main.c        ****     MEAS_IDLE = 0,
 945:main.c        ****     MEAS_SWITCH_CHANNEL,
ARM GAS  C:\Users\13740\AppData\Local\Temp\cc4654uj.s 			page 62


 946:main.c        ****     MEAS_WAIT_STABLE,
 947:main.c        ****     MEAS_READ_FIFO,
 948:main.c        ****     MEAS_NEXT_SENSOR,
 949:main.c        ****     MEAS_COMPLETE
 950:main.c        **** } MeasState_t;
 951:main.c        **** 
 952:main.c        **** static MeasState_t g_meas_state = MEAS_IDLE;
 953:main.c        **** static AmperometricSensor_t g_current_sensor = SENSOR_GLUCOSE;
 954:main.c        **** static uint32_t g_meas_start_time = 0;
 955:main.c        **** 
 956:main.c        **** // ===== 添加测量处理函数（在main函数之前） =====
 957:main.c        **** void ProcessMeasurement(void) 
 958:main.c        **** {
 2346              		.loc 1 958 0
 2347              		.cfi_startproc
 2348              		@ args = 0, pretend = 0, frame = 40
 2349              		@ frame_needed = 1, uses_anonymous_args = 0
 2350 0000 90B5     		push	{r4, r7, lr}
 2351              		.cfi_def_cfa_offset 12
 2352              		.cfi_offset 4, -12
 2353              		.cfi_offset 7, -8
 2354              		.cfi_offset 14, -4
 2355 0002 8BB0     		sub	sp, sp, #44
 2356              		.cfi_def_cfa_offset 56
 2357 0004 00AF     		add	r7, sp, #0
 2358              		.cfi_def_cfa_register 7
 959:main.c        ****     uint32_t fifosta;
 960:main.c        ****     uint16_t data_count;
 961:main.c        ****     uint32_t fifo_data;
 962:main.c        ****     uint32_t adc_code;
 963:main.c        ****     float current_nA;
 964:main.c        ****     
 965:main.c        ****     switch(g_meas_state)
 2359              		.loc 1 965 0
 2360 0006 804B     		ldr	r3, .L151
 2361 0008 1B78     		ldrb	r3, [r3]
 2362 000a 052B     		cmp	r3, #5
 2363 000c 00D9     		bls	.LCB1877
 2364 000e F7E0     		b	.L148	@long jump
 2365              	.LCB1877:
 2366 0010 9A00     		lsls	r2, r3, #2
 2367 0012 7E4B     		ldr	r3, .L151+4
 2368 0014 D318     		adds	r3, r2, r3
 2369 0016 1B68     		ldr	r3, [r3]
 2370 0018 9F46     		mov	pc, r3
 2371              		.section	.rodata
 2372              		.align	2
 2373              	.L131:
 2374 058c FA010000 		.word	.L149
 2375 0590 1A000000 		.word	.L132
 2376 0594 76000000 		.word	.L133
 2377 0598 8C000000 		.word	.L134
 2378 059c 42010000 		.word	.L135
 2379 05a0 F2010000 		.word	.L136
 2380              		.section	.text.ProcessMeasurement
 2381              	.L132:
 966:main.c        ****     {
ARM GAS  C:\Users\13740\AppData\Local\Temp\cc4654uj.s 			page 63


 967:main.c        ****         case MEAS_IDLE:
 968:main.c        ****             // 等待触发
 969:main.c        ****             break;
 970:main.c        ****             
 971:main.c        ****         case MEAS_SWITCH_CHANNEL:
 972:main.c        ****             // ✅ 切换通道（不阻塞）
 973:main.c        ****             switch(g_current_sensor)
 2382              		.loc 1 973 0
 2383 001a 7D4B     		ldr	r3, .L151+8
 2384 001c 1B78     		ldrb	r3, [r3]
 2385 001e 012B     		cmp	r3, #1
 2386 0020 0DD0     		beq	.L138
 2387 0022 022B     		cmp	r3, #2
 2388 0024 15D0     		beq	.L139
 2389 0026 002B     		cmp	r3, #0
 2390 0028 1DD1     		bne	.L137
 974:main.c        ****             {
 975:main.c        ****                 case SENSOR_GLUCOSE:
 976:main.c        ****                     AMP1_EN_Write(1);
 2391              		.loc 1 976 0
 2392 002a 0120     		movs	r0, #1
 2393 002c FFF7FEFF 		bl	AMP1_EN_Write
 977:main.c        ****                     AMP2_EN_Write(0);
 2394              		.loc 1 977 0
 2395 0030 0020     		movs	r0, #0
 2396 0032 FFF7FEFF 		bl	AMP2_EN_Write
 978:main.c        ****                     AMP3_EN_Write(0);
 2397              		.loc 1 978 0
 2398 0036 0020     		movs	r0, #0
 2399 0038 FFF7FEFF 		bl	AMP3_EN_Write
 979:main.c        ****                     break;
 2400              		.loc 1 979 0
 2401 003c 13E0     		b	.L137
 2402              	.L138:
 980:main.c        ****                     
 981:main.c        ****                 case SENSOR_LACTATE:
 982:main.c        ****                     AMP1_EN_Write(0);
 2403              		.loc 1 982 0
 2404 003e 0020     		movs	r0, #0
 2405 0040 FFF7FEFF 		bl	AMP1_EN_Write
 983:main.c        ****                     AMP2_EN_Write(1);
 2406              		.loc 1 983 0
 2407 0044 0120     		movs	r0, #1
 2408 0046 FFF7FEFF 		bl	AMP2_EN_Write
 984:main.c        ****                     AMP3_EN_Write(0);
 2409              		.loc 1 984 0
 2410 004a 0020     		movs	r0, #0
 2411 004c FFF7FEFF 		bl	AMP3_EN_Write
 985:main.c        ****                     break;
 2412              		.loc 1 985 0
 2413 0050 09E0     		b	.L137
 2414              	.L139:
 986:main.c        ****                     
 987:main.c        ****                 case SENSOR_URIC_ACID:
 988:main.c        ****                     AMP1_EN_Write(0);
 2415              		.loc 1 988 0
 2416 0052 0020     		movs	r0, #0
ARM GAS  C:\Users\13740\AppData\Local\Temp\cc4654uj.s 			page 64


 2417 0054 FFF7FEFF 		bl	AMP1_EN_Write
 989:main.c        ****                     AMP2_EN_Write(0);
 2418              		.loc 1 989 0
 2419 0058 0020     		movs	r0, #0
 2420 005a FFF7FEFF 		bl	AMP2_EN_Write
 990:main.c        ****                     AMP3_EN_Write(1);
 2421              		.loc 1 990 0
 2422 005e 0120     		movs	r0, #1
 2423 0060 FFF7FEFF 		bl	AMP3_EN_Write
 991:main.c        ****                     break;
 2424              		.loc 1 991 0
 2425 0064 C046     		nop
 2426              	.L137:
 992:main.c        ****             }
 993:main.c        ****             
 994:main.c        ****             // ✅ 记录时间戳，不用CyDelay
 995:main.c        ****             g_meas_start_time = mainTimer;
 2427              		.loc 1 995 0
 2428 0066 6B4B     		ldr	r3, .L151+12
 2429 0068 1A68     		ldr	r2, [r3]
 2430 006a 6B4B     		ldr	r3, .L151+16
 2431 006c 1A60     		str	r2, [r3]
 996:main.c        ****             g_meas_state = MEAS_WAIT_STABLE;
 2432              		.loc 1 996 0
 2433 006e 664B     		ldr	r3, .L151
 2434 0070 0222     		movs	r2, #2
 2435 0072 1A70     		strb	r2, [r3]
 997:main.c        ****             break;
 2436              		.loc 1 997 0
 2437 0074 C4E0     		b	.L129
 2438              	.L133:
 998:main.c        ****             
 999:main.c        ****         case MEAS_WAIT_STABLE:
1000:main.c        ****             // ✅ 检查时间戳，不阻塞
1001:main.c        ****             if((mainTimer - g_meas_start_time) >= 1)  // 等待1秒（可调整）
 2439              		.loc 1 1001 0
 2440 0076 674B     		ldr	r3, .L151+12
 2441 0078 1A68     		ldr	r2, [r3]
 2442 007a 674B     		ldr	r3, .L151+16
 2443 007c 1B68     		ldr	r3, [r3]
 2444 007e 9A42     		cmp	r2, r3
 2445 0080 00D1     		bne	.LCB1942
 2446 0082 BCE0     		b	.L150	@long jump
 2447              	.LCB1942:
1002:main.c        ****             {
1003:main.c        ****                 g_meas_state = MEAS_READ_FIFO;
 2448              		.loc 1 1003 0
 2449 0084 604B     		ldr	r3, .L151
 2450 0086 0322     		movs	r2, #3
 2451 0088 1A70     		strb	r2, [r3]
1004:main.c        ****             }
1005:main.c        ****             // 否则继续等待，但不阻塞主循环
1006:main.c        ****             break;
 2452              		.loc 1 1006 0
 2453 008a B8E0     		b	.L150
 2454              	.L134:
1007:main.c        ****             
ARM GAS  C:\Users\13740\AppData\Local\Temp\cc4654uj.s 			page 65


1008:main.c        ****         case MEAS_READ_FIFO:
1009:main.c        ****             // ✅ 读取FIFO（快速，不阻塞）
1010:main.c        ****             fifosta = AD5940_ReadReg(0x2084);
 2455              		.loc 1 1010 0
 2456 008c 634B     		ldr	r3, .L151+20
 2457 008e 1800     		movs	r0, r3
 2458 0090 FFF7FEFF 		bl	AD5940_ReadReg
 2459 0094 0300     		movs	r3, r0
 2460 0096 7B62     		str	r3, [r7, #36]
1011:main.c        ****             data_count = fifosta & 0x7FF;
 2461              		.loc 1 1011 0
 2462 0098 7B6A     		ldr	r3, [r7, #36]
 2463 009a 9AB2     		uxth	r2, r3
 2464 009c 2223     		movs	r3, #34
 2465 009e FB18     		adds	r3, r7, r3
 2466 00a0 5205     		lsls	r2, r2, #21
 2467 00a2 520D     		lsrs	r2, r2, #21
 2468 00a4 1A80     		strh	r2, [r3]
1012:main.c        ****             
1013:main.c        ****             if(data_count > 0)
 2469              		.loc 1 1013 0
 2470 00a6 2223     		movs	r3, #34
 2471 00a8 FB18     		adds	r3, r7, r3
 2472 00aa 1B88     		ldrh	r3, [r3]
 2473 00ac 002B     		cmp	r3, #0
 2474 00ae 44D0     		beq	.L142
 2475              	.LBB9:
1014:main.c        ****             {
1015:main.c        ****                 fifo_data = AD5940_ReadReg(0x2088);
 2476              		.loc 1 1015 0
 2477 00b0 5B4B     		ldr	r3, .L151+24
 2478 00b2 1800     		movs	r0, r3
 2479 00b4 FFF7FEFF 		bl	AD5940_ReadReg
 2480 00b8 0300     		movs	r3, r0
 2481 00ba FB61     		str	r3, [r7, #28]
1016:main.c        ****                 adc_code = fifo_data & 0xFFFF;
 2482              		.loc 1 1016 0
 2483 00bc FB69     		ldr	r3, [r7, #28]
 2484 00be 1B04     		lsls	r3, r3, #16
 2485 00c0 1B0C     		lsrs	r3, r3, #16
 2486 00c2 BB61     		str	r3, [r7, #24]
1017:main.c        ****                 
1018:main.c        ****                 // 转换为电流
1019:main.c        ****                 float rtia = 10000.0;
 2487              		.loc 1 1019 0
 2488 00c4 574B     		ldr	r3, .L151+28
 2489 00c6 7B61     		str	r3, [r7, #20]
1020:main.c        ****                 float vref = 1.82;
 2490              		.loc 1 1020 0
 2491 00c8 574B     		ldr	r3, .L151+32
 2492 00ca 3B61     		str	r3, [r7, #16]
1021:main.c        ****                 float pga_gain = 1.5;
 2493              		.loc 1 1021 0
 2494 00cc FF23     		movs	r3, #255
 2495 00ce 9B05     		lsls	r3, r3, #22
 2496 00d0 FB60     		str	r3, [r7, #12]
1022:main.c        ****                 
ARM GAS  C:\Users\13740\AppData\Local\Temp\cc4654uj.s 			page 66


1023:main.c        ****                 current_nA = ADCCode_to_Current_nA(adc_code, rtia, vref, pga_gain);
 2497              		.loc 1 1023 0
 2498 00d2 FB68     		ldr	r3, [r7, #12]
 2499 00d4 3A69     		ldr	r2, [r7, #16]
 2500 00d6 7969     		ldr	r1, [r7, #20]
 2501 00d8 B869     		ldr	r0, [r7, #24]
 2502 00da FFF7FEFF 		bl	ADCCode_to_Current_nA
 2503 00de 031C     		adds	r3, r0, #0
 2504 00e0 BB60     		str	r3, [r7, #8]
1024:main.c        ****                 
1025:main.c        ****                 // 保存结果
1026:main.c        ****                 switch(g_current_sensor)
 2505              		.loc 1 1026 0
 2506 00e2 4B4B     		ldr	r3, .L151+8
 2507 00e4 1B78     		ldrb	r3, [r3]
 2508 00e6 012B     		cmp	r3, #1
 2509 00e8 0FD0     		beq	.L143
 2510 00ea 022B     		cmp	r3, #2
 2511 00ec 19D0     		beq	.L144
 2512 00ee 002B     		cmp	r3, #0
 2513 00f0 23D1     		bne	.L142
1027:main.c        ****                 {
1028:main.c        ****                     case SENSOR_GLUCOSE:
1029:main.c        ****                         sensorData.current_glucose_nA = current_nA;
 2514              		.loc 1 1029 0
 2515 00f2 4E4B     		ldr	r3, .L151+36
 2516 00f4 BA68     		ldr	r2, [r7, #8]
 2517 00f6 5A61     		str	r2, [r3, #20]
1030:main.c        ****                         sensorData.glucose = ConvertCurrentToConcentration(current_nA, SENSOR_GLUCO
 2518              		.loc 1 1030 0
 2519 00f8 BB68     		ldr	r3, [r7, #8]
 2520 00fa 0021     		movs	r1, #0
 2521 00fc 181C     		adds	r0, r3, #0
 2522 00fe FFF7FEFF 		bl	ConvertCurrentToConcentration
 2523 0102 021C     		adds	r2, r0, #0
 2524 0104 494B     		ldr	r3, .L151+36
 2525 0106 5A60     		str	r2, [r3, #4]
1031:main.c        ****                         break;
 2526              		.loc 1 1031 0
 2527 0108 17E0     		b	.L142
 2528              	.L143:
1032:main.c        ****                         
1033:main.c        ****                     case SENSOR_LACTATE:
1034:main.c        ****                         sensorData.current_lactate_nA = current_nA;
 2529              		.loc 1 1034 0
 2530 010a 484B     		ldr	r3, .L151+36
 2531 010c BA68     		ldr	r2, [r7, #8]
 2532 010e 9A61     		str	r2, [r3, #24]
1035:main.c        ****                         sensorData.lactate = ConvertCurrentToConcentration(current_nA, SENSOR_LACTA
 2533              		.loc 1 1035 0
 2534 0110 BB68     		ldr	r3, [r7, #8]
 2535 0112 0121     		movs	r1, #1
 2536 0114 181C     		adds	r0, r3, #0
 2537 0116 FFF7FEFF 		bl	ConvertCurrentToConcentration
 2538 011a 021C     		adds	r2, r0, #0
 2539 011c 434B     		ldr	r3, .L151+36
 2540 011e 9A60     		str	r2, [r3, #8]
ARM GAS  C:\Users\13740\AppData\Local\Temp\cc4654uj.s 			page 67


1036:main.c        ****                         break;
 2541              		.loc 1 1036 0
 2542 0120 0BE0     		b	.L142
 2543              	.L144:
1037:main.c        ****                         
1038:main.c        ****                     case SENSOR_URIC_ACID:
1039:main.c        ****                         sensorData.current_uric_nA = current_nA;
 2544              		.loc 1 1039 0
 2545 0122 424B     		ldr	r3, .L151+36
 2546 0124 BA68     		ldr	r2, [r7, #8]
 2547 0126 DA61     		str	r2, [r3, #28]
1040:main.c        ****                         sensorData.uric_acid = ConvertCurrentToConcentration(current_nA, SENSOR_URI
 2548              		.loc 1 1040 0
 2549 0128 BB68     		ldr	r3, [r7, #8]
 2550 012a 0221     		movs	r1, #2
 2551 012c 181C     		adds	r0, r3, #0
 2552 012e FFF7FEFF 		bl	ConvertCurrentToConcentration
 2553 0132 021C     		adds	r2, r0, #0
 2554 0134 3D4B     		ldr	r3, .L151+36
 2555 0136 DA60     		str	r2, [r3, #12]
1041:main.c        ****                         break;
 2556              		.loc 1 1041 0
 2557 0138 C046     		nop
 2558              	.L142:
 2559              	.LBE9:
1042:main.c        ****                 }
1043:main.c        ****             }
1044:main.c        ****             
1045:main.c        ****             g_meas_state = MEAS_NEXT_SENSOR;
 2560              		.loc 1 1045 0
 2561 013a 334B     		ldr	r3, .L151
 2562 013c 0422     		movs	r2, #4
 2563 013e 1A70     		strb	r2, [r3]
1046:main.c        ****             break;
 2564              		.loc 1 1046 0
 2565 0140 5EE0     		b	.L129
 2566              	.L135:
1047:main.c        ****             
1048:main.c        ****         case MEAS_NEXT_SENSOR:
1049:main.c        ****             // ✅ 切换到下一个传感器
1050:main.c        ****             g_current_sensor++;
 2567              		.loc 1 1050 0
 2568 0142 334B     		ldr	r3, .L151+8
 2569 0144 1B78     		ldrb	r3, [r3]
 2570 0146 0133     		adds	r3, r3, #1
 2571 0148 DAB2     		uxtb	r2, r3
 2572 014a 314B     		ldr	r3, .L151+8
 2573 014c 1A70     		strb	r2, [r3]
1051:main.c        ****             if(g_current_sensor >= SENSOR_COUNT)
 2574              		.loc 1 1051 0
 2575 014e 304B     		ldr	r3, .L151+8
 2576 0150 1B78     		ldrb	r3, [r3]
 2577 0152 022B     		cmp	r3, #2
 2578 0154 49D9     		bls	.L146
 2579              	.LBB10:
1052:main.c        ****             {
1053:main.c        ****                 g_current_sensor = SENSOR_GLUCOSE;
ARM GAS  C:\Users\13740\AppData\Local\Temp\cc4654uj.s 			page 68


 2580              		.loc 1 1053 0
 2581 0156 2E4B     		ldr	r3, .L151+8
 2582 0158 0022     		movs	r2, #0
 2583 015a 1A70     		strb	r2, [r3]
1054:main.c        ****                 
1055:main.c        ****                 // 温度补偿
1056:main.c        ****                 float temp_factor = 1.0 + 0.03 * (sensorData.temperature - 37.0);
 2584              		.loc 1 1056 0
 2585 015c 334B     		ldr	r3, .L151+36
 2586 015e 1B68     		ldr	r3, [r3]
 2587 0160 181C     		adds	r0, r3, #0
 2588 0162 FFF7FEFF 		bl	__aeabi_f2d
 2589 0166 0022     		movs	r2, #0
 2590 0168 314B     		ldr	r3, .L151+40
 2591 016a FFF7FEFF 		bl	__aeabi_dsub
 2592 016e 0300     		movs	r3, r0
 2593 0170 0C00     		movs	r4, r1
 2594 0172 1800     		movs	r0, r3
 2595 0174 2100     		movs	r1, r4
 2596 0176 2F4A     		ldr	r2, .L151+44
 2597 0178 2F4B     		ldr	r3, .L151+48
 2598 017a FFF7FEFF 		bl	__aeabi_dmul
 2599 017e 0300     		movs	r3, r0
 2600 0180 0C00     		movs	r4, r1
 2601 0182 1800     		movs	r0, r3
 2602 0184 2100     		movs	r1, r4
 2603 0186 0022     		movs	r2, #0
 2604 0188 2C4B     		ldr	r3, .L151+52
 2605 018a FFF7FEFF 		bl	__aeabi_dadd
 2606 018e 0300     		movs	r3, r0
 2607 0190 0C00     		movs	r4, r1
 2608 0192 1800     		movs	r0, r3
 2609 0194 2100     		movs	r1, r4
 2610 0196 FFF7FEFF 		bl	__aeabi_d2f
 2611 019a 031C     		adds	r3, r0, #0
 2612 019c 7B60     		str	r3, [r7, #4]
1057:main.c        ****                 sensorData.glucose *= temp_factor;
 2613              		.loc 1 1057 0
 2614 019e 234B     		ldr	r3, .L151+36
 2615 01a0 5B68     		ldr	r3, [r3, #4]
 2616 01a2 7968     		ldr	r1, [r7, #4]
 2617 01a4 181C     		adds	r0, r3, #0
 2618 01a6 FFF7FEFF 		bl	__aeabi_fmul
 2619 01aa 031C     		adds	r3, r0, #0
 2620 01ac 1A1C     		adds	r2, r3, #0
 2621 01ae 1F4B     		ldr	r3, .L151+36
 2622 01b0 5A60     		str	r2, [r3, #4]
1058:main.c        ****                 sensorData.lactate *= temp_factor;
 2623              		.loc 1 1058 0
 2624 01b2 1E4B     		ldr	r3, .L151+36
 2625 01b4 9B68     		ldr	r3, [r3, #8]
 2626 01b6 7968     		ldr	r1, [r7, #4]
 2627 01b8 181C     		adds	r0, r3, #0
 2628 01ba FFF7FEFF 		bl	__aeabi_fmul
 2629 01be 031C     		adds	r3, r0, #0
 2630 01c0 1A1C     		adds	r2, r3, #0
 2631 01c2 1A4B     		ldr	r3, .L151+36
ARM GAS  C:\Users\13740\AppData\Local\Temp\cc4654uj.s 			page 69


 2632 01c4 9A60     		str	r2, [r3, #8]
1059:main.c        ****                 sensorData.uric_acid *= temp_factor;
 2633              		.loc 1 1059 0
 2634 01c6 194B     		ldr	r3, .L151+36
 2635 01c8 DB68     		ldr	r3, [r3, #12]
 2636 01ca 7968     		ldr	r1, [r7, #4]
 2637 01cc 181C     		adds	r0, r3, #0
 2638 01ce FFF7FEFF 		bl	__aeabi_fmul
 2639 01d2 031C     		adds	r3, r0, #0
 2640 01d4 1A1C     		adds	r2, r3, #0
 2641 01d6 154B     		ldr	r3, .L151+36
 2642 01d8 DA60     		str	r2, [r3, #12]
1060:main.c        ****                 
1061:main.c        ****                 sensorData.timestamp = mainTimer;
 2643              		.loc 1 1061 0
 2644 01da 0E4B     		ldr	r3, .L151+12
 2645 01dc 1A68     		ldr	r2, [r3]
 2646 01de 134B     		ldr	r3, .L151+36
 2647 01e0 1A61     		str	r2, [r3, #16]
1062:main.c        ****                 
1063:main.c        ****                 g_meas_state = MEAS_COMPLETE;
 2648              		.loc 1 1063 0
 2649 01e2 094B     		ldr	r3, .L151
 2650 01e4 0522     		movs	r2, #5
 2651 01e6 1A70     		strb	r2, [r3]
 2652              	.LBE10:
1064:main.c        ****             }
1065:main.c        ****             else
1066:main.c        ****             {
1067:main.c        ****                 g_meas_state = MEAS_SWITCH_CHANNEL;
1068:main.c        ****             }
1069:main.c        ****             break;
 2653              		.loc 1 1069 0
 2654 01e8 0AE0     		b	.L129
 2655              	.L146:
1067:main.c        ****             }
 2656              		.loc 1 1067 0
 2657 01ea 074B     		ldr	r3, .L151
 2658 01ec 0122     		movs	r2, #1
 2659 01ee 1A70     		strb	r2, [r3]
 2660              		.loc 1 1069 0
 2661 01f0 06E0     		b	.L129
 2662              	.L136:
1070:main.c        ****             
1071:main.c        ****         case MEAS_COMPLETE:
1072:main.c        ****             // 测量完成，回到空闲
1073:main.c        ****             g_meas_state = MEAS_IDLE;
 2663              		.loc 1 1073 0
 2664 01f2 054B     		ldr	r3, .L151
 2665 01f4 0022     		movs	r2, #0
 2666 01f6 1A70     		strb	r2, [r3]
1074:main.c        ****             break;
 2667              		.loc 1 1074 0
 2668 01f8 02E0     		b	.L129
 2669              	.L149:
 969:main.c        ****             
 2670              		.loc 1 969 0
ARM GAS  C:\Users\13740\AppData\Local\Temp\cc4654uj.s 			page 70


 2671 01fa C046     		nop
 2672 01fc 00E0     		b	.L148
 2673              	.L150:
1006:main.c        ****             
 2674              		.loc 1 1006 0
 2675 01fe C046     		nop
 2676              	.L129:
 2677              	.L148:
1075:main.c        ****     }
1076:main.c        **** }
 2678              		.loc 1 1076 0
 2679 0200 C046     		nop
 2680 0202 BD46     		mov	sp, r7
 2681 0204 0BB0     		add	sp, sp, #44
 2682              		@ sp needed
 2683 0206 90BD     		pop	{r4, r7, pc}
 2684              	.L152:
 2685              		.align	2
 2686              	.L151:
 2687 0208 38000000 		.word	g_meas_state
 2688 020c 8C050000 		.word	.L131
 2689 0210 39000000 		.word	g_current_sensor
 2690 0214 00000000 		.word	mainTimer
 2691 0218 3C000000 		.word	g_meas_start_time
 2692 021c 84200000 		.word	8324
 2693 0220 88200000 		.word	8328
 2694 0224 00401C46 		.word	1176256512
 2695 0228 C3F5E83F 		.word	1072231875
 2696 022c 00000000 		.word	sensorData
 2697 0230 00804240 		.word	1078099968
 2698 0234 B81E85EB 		.word	-343597384
 2699 0238 51B89E3F 		.word	1067366481
 2700 023c 0000F03F 		.word	1072693248
 2701              		.cfi_endproc
 2702              	.LFE53:
 2703              		.size	ProcessMeasurement, .-ProcessMeasurement
 2704              		.section	.text.LowPowerImplementation,"ax",%progbits
 2705              		.align	2
 2706              		.code	16
 2707              		.thumb_func
 2708              		.type	LowPowerImplementation, %function
 2709              	LowPowerImplementation:
 2710              	.LFB54:
1077:main.c        **** 
1078:main.c        **** /*******************************************************************************
1079:main.c        **** * Function Name: LowPowerImplementation
1080:main.c        **** ********************************************************************************
1081:main.c        **** * Summary:
1082:main.c        **** *   低功耗实现
1083:main.c        **** *******************************************************************************/
1084:main.c        **** static void LowPowerImplementation(void)
1085:main.c        **** {
 2711              		.loc 1 1085 0
 2712              		.cfi_startproc
 2713              		@ args = 0, pretend = 0, frame = 8
 2714              		@ frame_needed = 1, uses_anonymous_args = 0
 2715 0000 90B5     		push	{r4, r7, lr}
ARM GAS  C:\Users\13740\AppData\Local\Temp\cc4654uj.s 			page 71


 2716              		.cfi_def_cfa_offset 12
 2717              		.cfi_offset 4, -12
 2718              		.cfi_offset 7, -8
 2719              		.cfi_offset 14, -4
 2720 0002 83B0     		sub	sp, sp, #12
 2721              		.cfi_def_cfa_offset 24
 2722 0004 00AF     		add	r7, sp, #0
 2723              		.cfi_def_cfa_register 7
1086:main.c        ****     CYBLE_LP_MODE_T bleMode;
1087:main.c        ****     uint8 interruptStatus;
1088:main.c        ****     
1089:main.c        ****     if((CyBle_GetState() == CYBLE_STATE_ADVERTISING) || 
 2724              		.loc 1 1089 0
 2725 0006 1A4B     		ldr	r3, .L161
 2726 0008 1B78     		ldrb	r3, [r3]
 2727 000a 032B     		cmp	r3, #3
 2728 000c 03D0     		beq	.L154
1090:main.c        ****        (CyBle_GetState() == CYBLE_STATE_CONNECTED))
 2729              		.loc 1 1090 0 discriminator 1
 2730 000e 184B     		ldr	r3, .L161
 2731 0010 1B78     		ldrb	r3, [r3]
1089:main.c        ****        (CyBle_GetState() == CYBLE_STATE_CONNECTED))
 2732              		.loc 1 1089 0 discriminator 1
 2733 0012 022B     		cmp	r3, #2
 2734 0014 27D1     		bne	.L160
 2735              	.L154:
1091:main.c        ****     {
1092:main.c        ****         bleMode = CyBle_EnterLPM(CYBLE_BLESS_DEEPSLEEP);
 2736              		.loc 1 1092 0
 2737 0016 FC1D     		adds	r4, r7, #7
 2738 0018 0320     		movs	r0, #3
 2739 001a FFF7FEFF 		bl	CyBle_EnterLPM
 2740 001e 0300     		movs	r3, r0
 2741 0020 2370     		strb	r3, [r4]
1093:main.c        ****         interruptStatus = CyEnterCriticalSection();
 2742              		.loc 1 1093 0
 2743 0022 BC1D     		adds	r4, r7, #6
 2744 0024 FFF7FEFF 		bl	CyEnterCriticalSection
 2745 0028 0300     		movs	r3, r0
 2746 002a 2370     		strb	r3, [r4]
1094:main.c        ****         
1095:main.c        ****         if(bleMode == CYBLE_BLESS_DEEPSLEEP)
 2747              		.loc 1 1095 0
 2748 002c FB1D     		adds	r3, r7, #7
 2749 002e 1B78     		ldrb	r3, [r3]
 2750 0030 032B     		cmp	r3, #3
 2751 0032 0CD1     		bne	.L156
1096:main.c        ****         {
1097:main.c        ****             if((CyBle_GetBleSsState() == CYBLE_BLESS_STATE_ECO_ON) || 
 2752              		.loc 1 1097 0
 2753 0034 FFF7FEFF 		bl	CyBle_GetBleSsState
 2754 0038 0300     		movs	r3, r0
 2755 003a 042B     		cmp	r3, #4
 2756 003c 04D0     		beq	.L157
1098:main.c        ****                (CyBle_GetBleSsState() == CYBLE_BLESS_STATE_DEEPSLEEP))
 2757              		.loc 1 1098 0 discriminator 1
 2758 003e FFF7FEFF 		bl	CyBle_GetBleSsState
ARM GAS  C:\Users\13740\AppData\Local\Temp\cc4654uj.s 			page 72


 2759 0042 0300     		movs	r3, r0
1097:main.c        ****                (CyBle_GetBleSsState() == CYBLE_BLESS_STATE_DEEPSLEEP))
 2760              		.loc 1 1097 0 discriminator 1
 2761 0044 062B     		cmp	r3, #6
 2762 0046 09D1     		bne	.L159
 2763              	.L157:
1099:main.c        ****             {
1100:main.c        ****                 CySysPmDeepSleep();
 2764              		.loc 1 1100 0
 2765 0048 FFF7FEFF 		bl	CySysPmDeepSleep
 2766 004c 06E0     		b	.L159
 2767              	.L156:
1101:main.c        ****             }
1102:main.c        ****         }
1103:main.c        ****         else
1104:main.c        ****         {
1105:main.c        ****             if(CyBle_GetBleSsState() != CYBLE_BLESS_STATE_EVENT_CLOSE)
 2768              		.loc 1 1105 0
 2769 004e FFF7FEFF 		bl	CyBle_GetBleSsState
 2770 0052 0300     		movs	r3, r0
 2771 0054 022B     		cmp	r3, #2
 2772 0056 01D0     		beq	.L159
1106:main.c        ****             {
1107:main.c        ****                 CySysPmSleep();
 2773              		.loc 1 1107 0
 2774 0058 FFF7FEFF 		bl	CySysPmSleep
 2775              	.L159:
1108:main.c        ****             }
1109:main.c        ****         }
1110:main.c        ****         
1111:main.c        ****         CyExitCriticalSection(interruptStatus);
 2776              		.loc 1 1111 0
 2777 005c BB1D     		adds	r3, r7, #6
 2778 005e 1B78     		ldrb	r3, [r3]
 2779 0060 1800     		movs	r0, r3
 2780 0062 FFF7FEFF 		bl	CyExitCriticalSection
 2781              	.L160:
1112:main.c        ****     }
1113:main.c        **** }
 2782              		.loc 1 1113 0
 2783 0066 C046     		nop
 2784 0068 BD46     		mov	sp, r7
 2785 006a 03B0     		add	sp, sp, #12
 2786              		@ sp needed
 2787 006c 90BD     		pop	{r4, r7, pc}
 2788              	.L162:
 2789 006e C046     		.align	2
 2790              	.L161:
 2791 0070 00000000 		.word	cyBle_state
 2792              		.cfi_endproc
 2793              	.LFE54:
 2794              		.size	LowPowerImplementation, .-LowPowerImplementation
 2795              		.section	.text.AD5941_HardReset,"ax",%progbits
 2796              		.align	2
 2797              		.global	AD5941_HardReset
 2798              		.code	16
 2799              		.thumb_func
ARM GAS  C:\Users\13740\AppData\Local\Temp\cc4654uj.s 			page 73


 2800              		.type	AD5941_HardReset, %function
 2801              	AD5941_HardReset:
 2802              	.LFB55:
1114:main.c        **** 
1115:main.c        **** void AD5941_HardReset(void)
1116:main.c        **** {
 2803              		.loc 1 1116 0
 2804              		.cfi_startproc
 2805              		@ args = 0, pretend = 0, frame = 0
 2806              		@ frame_needed = 1, uses_anonymous_args = 0
 2807 0000 80B5     		push	{r7, lr}
 2808              		.cfi_def_cfa_offset 8
 2809              		.cfi_offset 7, -8
 2810              		.cfi_offset 14, -4
 2811 0002 00AF     		add	r7, sp, #0
 2812              		.cfi_def_cfa_register 7
1117:main.c        ****     AD5940_RST_Write(0);
 2813              		.loc 1 1117 0
 2814 0004 0020     		movs	r0, #0
 2815 0006 FFF7FEFF 		bl	AD5940_RST_Write
1118:main.c        ****     CyDelay(20);          // ≥10ms
 2816              		.loc 1 1118 0
 2817 000a 1420     		movs	r0, #20
 2818 000c FFF7FEFF 		bl	CyDelay
1119:main.c        ****     AD5940_RST_Write(1);
 2819              		.loc 1 1119 0
 2820 0010 0120     		movs	r0, #1
 2821 0012 FFF7FEFF 		bl	AD5940_RST_Write
1120:main.c        ****     CyDelay(100);         // ≥50ms，给足
 2822              		.loc 1 1120 0
 2823 0016 6420     		movs	r0, #100
 2824 0018 FFF7FEFF 		bl	CyDelay
1121:main.c        **** }
 2825              		.loc 1 1121 0
 2826 001c C046     		nop
 2827 001e BD46     		mov	sp, r7
 2828              		@ sp needed
 2829 0020 80BD     		pop	{r7, pc}
 2830              		.cfi_endproc
 2831              	.LFE55:
 2832              		.size	AD5941_HardReset, .-AD5941_HardReset
 2833 0022 C046     		.bss
 2834              		.align	2
 2835              	g_test_adiid:
 2836 0040 00000000 		.space	4
 2837              		.align	2
 2838              	g_test_chipid:
 2839 0044 00000000 		.space	4
 2840              		.align	2
 2841              	g_test_reg_0908:
 2842 0048 00000000 		.space	4
 2843              		.align	2
 2844              	g_test_afecon:
 2845 004c 00000000 		.space	4
 2846              		.align	2
 2847              	g_test_fifocon:
 2848 0050 00000000 		.space	4
ARM GAS  C:\Users\13740\AppData\Local\Temp\cc4654uj.s 			page 74


 2849              		.align	1
 2850              	g_test_fifo_count:
 2851 0054 0000     		.space	2
 2852              	g_test_done:
 2853 0056 00       		.space	1
 2854              	g_init_state:
 2855 0057 00       		.space	1
 2856              	g_reg_index:
 2857 0058 00       		.space	1
 2858              		.global	g_RegTable
 2859              		.section	.rodata
 2860              		.align	2
 2861              		.type	g_RegTable, %object
 2862              		.size	g_RegTable, 112
 2863              	g_RegTable:
 2864 05a4 0809     		.short	2312
 2865 05a6 0000     		.space	2
 2866 05a8 C9020000 		.word	713
 2867 05ac 080C     		.short	3080
 2868 05ae 0000     		.space	2
 2869 05b0 6C200000 		.word	8300
 2870 05b4 F021     		.short	8688
 2871 05b6 0000     		.space	2
 2872 05b8 10000000 		.word	16
 2873 05bc 1004     		.short	1040
 2874 05be 0000     		.space	2
 2875 05c0 C9020000 		.word	713
 2876 05c4 280A     		.short	2600
 2877 05c6 0000     		.space	2
 2878 05c8 09000000 		.word	9
 2879 05cc 8C23     		.short	9100
 2880 05ce 0000     		.space	2
 2881 05d0 04010000 		.word	260
 2882 05d4 040A     		.short	2564
 2883 05d6 0000     		.space	2
 2884 05d8 59480000 		.word	18521
 2885 05dc 040A     		.short	2564
 2886 05de 0000     		.space	2
 2887 05e0 7BF20000 		.word	62075
 2888 05e4 000A     		.short	2560
 2889 05e6 0000     		.space	2
 2890 05e8 09800000 		.word	32777
 2891 05ec F022     		.short	8944
 2892 05ee 0000     		.space	2
 2893 05f0 00000000 		.word	0
 2894 05f4 3022     		.short	8752
 2895 05f6 0000     		.space	2
 2896 05f8 AFA587DE 		.word	-561535569
 2897 05fc 5022     		.short	8784
 2898 05fe 0000     		.space	2
 2899 0600 3F100000 		.word	4159
 2900 0604 B022     		.short	8880
 2901 0606 0000     		.space	2
 2902 0608 3C200000 		.word	8252
 2903 060c 3022     		.short	8752
 2904 060e 0000     		.space	2
 2905 0610 A0A587DE 		.word	-561535584
ARM GAS  C:\Users\13740\AppData\Local\Temp\cc4654uj.s 			page 75


 2906              		.align	2
 2907              	.LC105:
 2908 0614 0A2A2A2A 		.ascii	"\012*** SYSTEM STARTUP ***\000"
 2908      20535953 
 2908      54454D20 
 2908      53544152 
 2908      54555020 
 2909              		.align	2
 2910              	.LC110:
 2911 062c 5B494E46 		.ascii	"[INFO] Entering main loop...\000"
 2911      4F5D2045 
 2911      6E746572 
 2911      696E6720 
 2911      6D61696E 
 2912 0649 000000   		.align	2
 2913              	.LC120:
 2914 064c 49646C65 		.ascii	"Idle...\000"
 2914      2E2E2E00 
 2915              		.align	2
 2916              	.LC122:
 2917 0654 52657365 		.ascii	"Resetting...\000"
 2917      7474696E 
 2917      672E2E2E 
 2917      00
 2918 0661 000000   		.align	2
 2919              	.LC124:
 2920 0664 43686563 		.ascii	"Checking ID...\000"
 2920      6B696E67 
 2920      2049442E 
 2920      2E2E00
 2921 0673 00       		.align	2
 2922              	.LC127:
 2923 0674 57726974 		.ascii	"Writing %d/%d\000"
 2923      696E6720 
 2923      25642F25 
 2923      6400
 2924 0682 0000     		.align	2
 2925              	.LC129:
 2926 0684 56657269 		.ascii	"Verifying...\000"
 2926      6679696E 
 2926      672E2E2E 
 2926      00
 2927 0691 000000   		.align	2
 2928              	.LC131:
 2929 0694 43686563 		.ascii	"Checking AFE...\000"
 2929      6B696E67 
 2929      20414645 
 2929      2E2E2E00 
 2930              		.align	2
 2931              	.LC133:
 2932 06a4 43686563 		.ascii	"Checking FIFO...\000"
 2932      6B696E67 
 2932      20464946 
 2932      4F2E2E2E 
 2932      00
 2933 06b5 000000   		.align	2
 2934              	.LC135:
ARM GAS  C:\Users\13740\AppData\Local\Temp\cc4654uj.s 			page 76


 2935 06b8 46696E61 		.ascii	"Final check...\000"
 2935      6C206368 
 2935      65636B2E 
 2935      2E2E00
 2936 06c7 00       		.align	2
 2937              	.LC140:
 2938 06c8 434E543A 		.ascii	"CNT:%d\000"
 2938      256400
 2939 06cf 00       		.align	2
 2940              	.LC143:
 2941 06d0 41444949 		.ascii	"ADIID:%04lX\000"
 2941      443A2530 
 2941      346C5800 
 2942              		.align	2
 2943              	.LC146:
 2944 06dc 43484950 		.ascii	"CHIP:%04lX\000"
 2944      3A253034 
 2944      6C5800
 2945 06e7 00       		.align	2
 2946              	.LC149:
 2947 06e8 52303930 		.ascii	"R0908:%04lX\000"
 2947      383A2530 
 2947      346C5800 
 2948              		.align	2
 2949              	.LC152:
 2950 06f4 4146453A 		.ascii	"AFE:%08lX\000"
 2950      2530386C 
 2950      5800
 2951 06fe 0000     		.align	2
 2952              	.LC155:
 2953 0700 32303830 		.ascii	"2080:%08lX\000"
 2953      3A253038 
 2953      6C5800
 2954 070b 00       		.align	2
 2955              	.LC158:
 2956 070c 476C753A 		.ascii	"Glu:%.1f Lac:%.1f\000"
 2956      252E3166 
 2956      204C6163 
 2956      3A252E31 
 2956      6600
 2957 071e 0000     		.align	2
 2958              	.LC160:
 2959 0720 496E6974 		.ascii	"Init FAIL\000"
 2959      20464149 
 2959      4C00
 2960 072a 0000     		.align	2
 2961              	.LC162:
 2962 072c 57616974 		.ascii	"Waiting...\000"
 2962      696E672E 
 2962      2E2E00
 2963 0737 00       		.align	2
 2964              	.LC167:
 2965 0738 473A252E 		.ascii	"G:%.2f(%.1fnA) L:%.2f(%.1fnA)\000"
 2965      32662825 
 2965      2E31666E 
 2965      4129204C 
 2965      3A252E32 
ARM GAS  C:\Users\13740\AppData\Local\Temp\cc4654uj.s 			page 77


 2966              		.section	.text.main,"ax",%progbits
 2967              		.align	2
 2968              		.global	main
 2969              		.code	16
 2970              		.thumb_func
 2971              		.type	main, %function
 2972              	main:
 2973              	.LFB56:
1122:main.c        **** 
1123:main.c        **** /*******************************************************************************
1124:main.c        **** * Function Name: main
1125:main.c        **** ********************************************************************************
1126:main.c        **** * Summary:
1127:main.c        **** *   主函数
1128:main.c        **** *******************************************************************************/
1129:main.c        **** // ========== 在main.c文件开头添加这些全局变量 ==========
1130:main.c        **** 
1131:main.c        **** static uint32_t g_test_adiid = 0;
1132:main.c        **** static uint32_t g_test_chipid = 0;
1133:main.c        **** static uint32_t g_test_reg_0908 = 0;
1134:main.c        **** static uint32_t g_test_afecon = 0;
1135:main.c        **** static uint32_t g_test_fifocon = 0;
1136:main.c        **** static uint16_t g_test_fifo_count = 0;
1137:main.c        **** static uint8_t g_test_done = 0;
1138:main.c        **** 
1139:main.c        **** // 状态机定义
1140:main.c        **** typedef enum {
1141:main.c        ****     INIT_IDLE = 0,
1142:main.c        ****     INIT_RESET,
1143:main.c        ****     INIT_CHECK_ID,
1144:main.c        ****     INIT_WRITE_REGS,
1145:main.c        ****     INIT_VERIFY_REG,      // ← 新增：验证寄存器写入
1146:main.c        ****     INIT_CHECK_AFE,       // ← 新增：检查AFE状态
1147:main.c        ****     INIT_CHECK_FIFO,      // ← 新增：检查FIFO状态
1148:main.c        ****     INIT_CONFIG_APP,
1149:main.c        ****     INIT_COMPLETE,
1150:main.c        ****     INIT_CONFIG_LPTIA,
1151:main.c        ****     INIT_CONFIG_ADC,
1152:main.c        ****     INIT_CONFIG_FIFO_EN,
1153:main.c        ****     INIT_START_MEASUREMENT
1154:main.c        **** } InitState_t;
1155:main.c        **** 
1156:main.c        **** static InitState_t g_init_state = INIT_IDLE;
1157:main.c        **** static uint8_t g_reg_index = 0;
1158:main.c        **** 
1159:main.c        **** // 寄存器表
1160:main.c        **** const struct {
1161:main.c        ****     uint16_t reg_addr;
1162:main.c        ****     uint32_t reg_data;
1163:main.c        **** } g_RegTable[] = {
1164:main.c        ****     {0x0908, 0x02c9},
1165:main.c        ****     {0x0c08, 0x206C},
1166:main.c        ****     {0x21F0, 0x0010},
1167:main.c        ****     {0x0410, 0x02c9},
1168:main.c        ****     {0x0A28, 0x0009},
1169:main.c        ****     {0x238c, 0x0104},
1170:main.c        ****     {0x0a04, 0x4859},
ARM GAS  C:\Users\13740\AppData\Local\Temp\cc4654uj.s 			page 78


1171:main.c        ****     {0x0a04, 0xF27B},
1172:main.c        ****     {0x0a00, 0x8009},
1173:main.c        ****     {0x22F0, 0x0000},
1174:main.c        ****     {0x2230, 0xDE87A5AF},
1175:main.c        ****     {0x2250, 0x103F},
1176:main.c        ****     {0x22B0, 0x203C},
1177:main.c        ****     {0x2230, 0xDE87A5A0},
1178:main.c        **** };
1179:main.c        **** 
1180:main.c        **** #define REG_TABLE_SIZE (sizeof(g_RegTable)/sizeof(g_RegTable[0]))
1181:main.c        **** #define REG_AFE_FIFO_STA      0x2084
1182:main.c        **** 
1183:main.c        **** // ========== main函数 ==========
1184:main.c        **** 
1185:main.c        **** int main()
1186:main.c        **** {
 2974              		.loc 1 1186 0
 2975              		.cfi_startproc
 2976              		@ args = 0, pretend = 0, frame = 40
 2977              		@ frame_needed = 1, uses_anonymous_args = 0
 2978 0000 F0B5     		push	{r4, r5, r6, r7, lr}
 2979              		.cfi_def_cfa_offset 20
 2980              		.cfi_offset 4, -20
 2981              		.cfi_offset 5, -16
 2982              		.cfi_offset 6, -12
 2983              		.cfi_offset 7, -8
 2984              		.cfi_offset 14, -4
 2985 0002 91B0     		sub	sp, sp, #68
 2986              		.cfi_def_cfa_offset 88
 2987 0004 06AF     		add	r7, sp, #24
 2988              		.cfi_def_cfa 7, 64
1187:main.c        ****     CyGlobalIntEnable;
 2989              		.loc 1 1187 0
 2990              		.syntax divided
 2991              	@ 1187 "main.c" 1
 2992 0006 62B6     		CPSIE   i
 2993              	@ 0 "" 2
1188:main.c        ****     static uint32_t last_send_time = 0;  // 添加到main函数开头
1189:main.c        ****     
1190:main.c        ****     Disconnect_LED_Write(LED_OFF);
 2994              		.loc 1 1190 0
 2995              		.thumb
 2996              		.syntax unified
 2997 0008 0120     		movs	r0, #1
 2998 000a FFF7FEFF 		bl	Disconnect_LED_Write
1191:main.c        ****     Advertising_LED_Write(LED_OFF);
 2999              		.loc 1 1191 0
 3000 000e 0120     		movs	r0, #1
 3001 0010 FFF7FEFF 		bl	Advertising_LED_Write
1192:main.c        ****     
1193:main.c        ****     printf("\n*** SYSTEM STARTUP ***\n");
 3002              		.loc 1 1193 0
 3003 0014 D24B     		ldr	r3, .L195
 3004 0016 1800     		movs	r0, r3
 3005 0018 FFF7FEFF 		bl	puts
1194:main.c        ****     
1195:main.c        ****     apiResult = CyBle_Start(AppCallBack);
ARM GAS  C:\Users\13740\AppData\Local\Temp\cc4654uj.s 			page 79


 3006              		.loc 1 1195 0
 3007 001c D14B     		ldr	r3, .L195+4
 3008 001e 1800     		movs	r0, r3
 3009 0020 FFF7FEFF 		bl	CyBle_Start
 3010 0024 0300     		movs	r3, r0
 3011 0026 1A00     		movs	r2, r3
 3012 0028 CF4B     		ldr	r3, .L195+8
 3013 002a 1A80     		strh	r2, [r3]
1196:main.c        ****     
1197:main.c        ****     DRUG_EN_1_Write(0);
 3014              		.loc 1 1197 0
 3015 002c 0020     		movs	r0, #0
 3016 002e FFF7FEFF 		bl	DRUG_EN_1_Write
1198:main.c        ****     STIM_EN_A_Write(0);
 3017              		.loc 1 1198 0
 3018 0032 0020     		movs	r0, #0
 3019 0034 FFF7FEFF 		bl	STIM_EN_A_Write
1199:main.c        ****     AMP1_EN_Write(0);
 3020              		.loc 1 1199 0
 3021 0038 0020     		movs	r0, #0
 3022 003a FFF7FEFF 		bl	AMP1_EN_Write
1200:main.c        ****     AMP2_EN_Write(0);
 3023              		.loc 1 1200 0
 3024 003e 0020     		movs	r0, #0
 3025 0040 FFF7FEFF 		bl	AMP2_EN_Write
1201:main.c        ****     AMP3_EN_Write(0);
 3026              		.loc 1 1201 0
 3027 0044 0020     		movs	r0, #0
 3028 0046 FFF7FEFF 		bl	AMP3_EN_Write
1202:main.c        ****     
1203:main.c        ****     CySysWdtSetInterruptCallback(CY_SYS_WDT_COUNTER2, Timer_Interrupt);
 3029              		.loc 1 1203 0
 3030 004a C84B     		ldr	r3, .L195+12
 3031 004c 1900     		movs	r1, r3
 3032 004e 0220     		movs	r0, #2
 3033 0050 FFF7FEFF 		bl	CySysWdtSetInterruptCallback
1204:main.c        ****     CySysWdtEnableCounterIsr(CY_SYS_WDT_COUNTER2);
 3034              		.loc 1 1204 0
 3035 0054 0220     		movs	r0, #2
 3036 0056 FFF7FEFF 		bl	CySysWdtEnableCounterIsr
1205:main.c        ****     
1206:main.c        ****     printf("[INFO] Entering main loop...\n");
 3037              		.loc 1 1206 0
 3038 005a C54B     		ldr	r3, .L195+16
 3039 005c 1800     		movs	r0, r3
 3040 005e FFF7FEFF 		bl	puts
 3041              	.L193:
1207:main.c        ****     
1208:main.c        ****     while(1)
1209:main.c        ****     {
1210:main.c        ****         // BLE事件处理
1211:main.c        ****         CyBle_ProcessEvents();
 3042              		.loc 1 1211 0
 3043 0062 FFF7FEFF 		bl	CyBle_ProcessEvents
1212:main.c        ****         
1213:main.c        ****         // ✅ 测量状态机（非阻塞）
1214:main.c        ****         if(g_init_state == INIT_COMPLETE && g_test_done == 1)
ARM GAS  C:\Users\13740\AppData\Local\Temp\cc4654uj.s 			page 80


 3044              		.loc 1 1214 0
 3045 0066 C34B     		ldr	r3, .L195+20
 3046 0068 1B78     		ldrb	r3, [r3]
 3047 006a 082B     		cmp	r3, #8
 3048 006c 17D1     		bne	.L165
 3049              		.loc 1 1214 0 is_stmt 0 discriminator 1
 3050 006e C24B     		ldr	r3, .L195+24
 3051 0070 1B78     		ldrb	r3, [r3]
 3052 0072 012B     		cmp	r3, #1
 3053 0074 13D1     		bne	.L165
1215:main.c        ****         {
1216:main.c        ****             // 触发测量
1217:main.c        ****             if(measurementFlag && g_meas_state == MEAS_IDLE)
 3054              		.loc 1 1217 0 is_stmt 1
 3055 0076 C14B     		ldr	r3, .L195+28
 3056 0078 1B78     		ldrb	r3, [r3]
 3057 007a DBB2     		uxtb	r3, r3
 3058 007c 002B     		cmp	r3, #0
 3059 007e 0CD0     		beq	.L166
 3060              		.loc 1 1217 0 is_stmt 0 discriminator 1
 3061 0080 BF4B     		ldr	r3, .L195+32
 3062 0082 1B78     		ldrb	r3, [r3]
 3063 0084 002B     		cmp	r3, #0
 3064 0086 08D1     		bne	.L166
1218:main.c        ****             {
1219:main.c        ****                 measurementFlag = 0;
 3065              		.loc 1 1219 0 is_stmt 1
 3066 0088 BC4B     		ldr	r3, .L195+28
 3067 008a 0022     		movs	r2, #0
 3068 008c 1A70     		strb	r2, [r3]
1220:main.c        ****                 g_meas_state = MEAS_SWITCH_CHANNEL;
 3069              		.loc 1 1220 0
 3070 008e BC4B     		ldr	r3, .L195+32
 3071 0090 0122     		movs	r2, #1
 3072 0092 1A70     		strb	r2, [r3]
1221:main.c        ****                 g_current_sensor = SENSOR_GLUCOSE;
 3073              		.loc 1 1221 0
 3074 0094 BB4B     		ldr	r3, .L195+36
 3075 0096 0022     		movs	r2, #0
 3076 0098 1A70     		strb	r2, [r3]
 3077              	.L166:
1222:main.c        ****             }
1223:main.c        ****             
1224:main.c        ****             // 执行测量（非阻塞）
1225:main.c        ****             ProcessMeasurement();
 3078              		.loc 1 1225 0
 3079 009a FFF7FEFF 		bl	ProcessMeasurement
 3080              	.L165:
1226:main.c        ****         }
1227:main.c        ****         
1228:main.c        ****         // ✅ 发送状态到手机（详细版本）
1229:main.c        ****         if(measurementFlag)
 3081              		.loc 1 1229 0
 3082 009e B74B     		ldr	r3, .L195+28
 3083 00a0 1B78     		ldrb	r3, [r3]
 3084 00a2 DBB2     		uxtb	r3, r3
 3085 00a4 002B     		cmp	r3, #0
ARM GAS  C:\Users\13740\AppData\Local\Temp\cc4654uj.s 			page 81


 3086 00a6 00D1     		bne	.LCB2375
 3087 00a8 F3E0     		b	.L167	@long jump
 3088              	.LCB2375:
1230:main.c        ****         {
1231:main.c        ****             measurementFlag = 0;
 3089              		.loc 1 1231 0
 3090 00aa B44B     		ldr	r3, .L195+28
 3091 00ac 0022     		movs	r2, #0
 3092 00ae 1A70     		strb	r2, [r3]
1232:main.c        ****             
1233:main.c        ****             if(CyBle_GetState() == CYBLE_STATE_CONNECTED)
 3093              		.loc 1 1233 0
 3094 00b0 B54B     		ldr	r3, .L195+40
 3095 00b2 1B78     		ldrb	r3, [r3]
 3096 00b4 022B     		cmp	r3, #2
 3097 00b6 00D0     		beq	.LCB2382
 3098 00b8 EBE0     		b	.L167	@long jump
 3099              	.LCB2382:
 3100              	.LBB11:
1234:main.c        ****             {
1235:main.c        ****                 CYBLE_GATTS_HANDLE_VALUE_NTF_T notificationHandle;
1236:main.c        ****                 static char testString[40];
1237:main.c        ****                 static uint8_t display_step = 0;  // 用于轮流显示不同信息
1238:main.c        ****                 
1239:main.c        ****                 switch(g_init_state)
 3101              		.loc 1 1239 0
 3102 00ba AE4B     		ldr	r3, .L195+20
 3103 00bc 1B78     		ldrb	r3, [r3]
 3104 00be 082B     		cmp	r3, #8
 3105 00c0 00D9     		bls	.LCB2387
 3106 00c2 BAE0     		b	.L168	@long jump
 3107              	.LCB2387:
 3108 00c4 9A00     		lsls	r2, r3, #2
 3109 00c6 B14B     		ldr	r3, .L195+44
 3110 00c8 D318     		adds	r3, r2, r3
 3111 00ca 1B68     		ldr	r3, [r3]
 3112 00cc 9F46     		mov	pc, r3
 3113              		.section	.rodata
 3114 0756 0000     		.align	2
 3115              	.L170:
 3116 0758 CE000000 		.word	.L169
 3117 075c D8000000 		.word	.L171
 3118 0760 E6000000 		.word	.L172
 3119 0764 F8000000 		.word	.L173
 3120 0768 0A010000 		.word	.L174
 3121 076c 18010000 		.word	.L175
 3122 0770 26010000 		.word	.L176
 3123 0774 38010000 		.word	.L177
 3124 0778 4A010000 		.word	.L178
 3125              		.section	.text.main
 3126              	.L169:
1240:main.c        ****                 {
1241:main.c        ****                     case INIT_IDLE:
1242:main.c        ****                         sprintf(testString, "Idle...");
 3127              		.loc 1 1242 0
 3128 00ce B04B     		ldr	r3, .L195+48
 3129 00d0 B04A     		ldr	r2, .L195+52
ARM GAS  C:\Users\13740\AppData\Local\Temp\cc4654uj.s 			page 82


 3130 00d2 03CA     		ldmia	r2!, {r0, r1}
 3131 00d4 03C3     		stmia	r3!, {r0, r1}
1243:main.c        ****                         break;
 3132              		.loc 1 1243 0
 3133 00d6 B0E0     		b	.L168
 3134              	.L171:
1244:main.c        ****                         
1245:main.c        ****                     case INIT_RESET:
1246:main.c        ****                         sprintf(testString, "Resetting...");
 3135              		.loc 1 1246 0
 3136 00d8 AD4B     		ldr	r3, .L195+48
 3137 00da AF4A     		ldr	r2, .L195+56
 3138 00dc 13CA     		ldmia	r2!, {r0, r1, r4}
 3139 00de 13C3     		stmia	r3!, {r0, r1, r4}
 3140 00e0 1278     		ldrb	r2, [r2]
 3141 00e2 1A70     		strb	r2, [r3]
1247:main.c        ****                         break;
 3142              		.loc 1 1247 0
 3143 00e4 A9E0     		b	.L168
 3144              	.L172:
1248:main.c        ****                         
1249:main.c        ****                     case INIT_CHECK_ID:
1250:main.c        ****                         sprintf(testString, "Checking ID...");
 3145              		.loc 1 1250 0
 3146 00e6 AA4B     		ldr	r3, .L195+48
 3147 00e8 AC4A     		ldr	r2, .L195+60
 3148 00ea 13CA     		ldmia	r2!, {r0, r1, r4}
 3149 00ec 13C3     		stmia	r3!, {r0, r1, r4}
 3150 00ee 1188     		ldrh	r1, [r2]
 3151 00f0 1980     		strh	r1, [r3]
 3152 00f2 9278     		ldrb	r2, [r2, #2]
 3153 00f4 9A70     		strb	r2, [r3, #2]
1251:main.c        ****                         break;
 3154              		.loc 1 1251 0
 3155 00f6 A0E0     		b	.L168
 3156              	.L173:
1252:main.c        ****                         
1253:main.c        ****                     case INIT_WRITE_REGS:
1254:main.c        ****                         sprintf(testString, "Writing %d/%d", g_reg_index, REG_TABLE_SIZE);
 3157              		.loc 1 1254 0
 3158 00f8 A94B     		ldr	r3, .L195+64
 3159 00fa 1B78     		ldrb	r3, [r3]
 3160 00fc 1A00     		movs	r2, r3
 3161 00fe A949     		ldr	r1, .L195+68
 3162 0100 A348     		ldr	r0, .L195+48
 3163 0102 0E23     		movs	r3, #14
 3164 0104 FFF7FEFF 		bl	sprintf
1255:main.c        ****                         break;
 3165              		.loc 1 1255 0
 3166 0108 97E0     		b	.L168
 3167              	.L174:
1256:main.c        ****                         
1257:main.c        ****                     case INIT_VERIFY_REG:
1258:main.c        ****                         sprintf(testString, "Verifying...");
 3168              		.loc 1 1258 0
 3169 010a A14B     		ldr	r3, .L195+48
 3170 010c A64A     		ldr	r2, .L195+72
ARM GAS  C:\Users\13740\AppData\Local\Temp\cc4654uj.s 			page 83


 3171 010e 13CA     		ldmia	r2!, {r0, r1, r4}
 3172 0110 13C3     		stmia	r3!, {r0, r1, r4}
 3173 0112 1278     		ldrb	r2, [r2]
 3174 0114 1A70     		strb	r2, [r3]
1259:main.c        ****                         break;
 3175              		.loc 1 1259 0
 3176 0116 90E0     		b	.L168
 3177              	.L175:
1260:main.c        ****                         
1261:main.c        ****                     case INIT_CHECK_AFE:
1262:main.c        ****                         sprintf(testString, "Checking AFE...");
 3178              		.loc 1 1262 0
 3179 0118 9D4B     		ldr	r3, .L195+48
 3180 011a A44A     		ldr	r2, .L195+76
 3181 011c 13CA     		ldmia	r2!, {r0, r1, r4}
 3182 011e 13C3     		stmia	r3!, {r0, r1, r4}
 3183 0120 1268     		ldr	r2, [r2]
 3184 0122 1A60     		str	r2, [r3]
1263:main.c        ****                         break;
 3185              		.loc 1 1263 0
 3186 0124 89E0     		b	.L168
 3187              	.L176:
1264:main.c        ****                         
1265:main.c        ****                     case INIT_CHECK_FIFO:
1266:main.c        ****                         sprintf(testString, "Checking FIFO...");
 3188              		.loc 1 1266 0
 3189 0126 9A4B     		ldr	r3, .L195+48
 3190 0128 A14A     		ldr	r2, .L195+80
 3191 012a 13CA     		ldmia	r2!, {r0, r1, r4}
 3192 012c 13C3     		stmia	r3!, {r0, r1, r4}
 3193 012e 1168     		ldr	r1, [r2]
 3194 0130 1960     		str	r1, [r3]
 3195 0132 1279     		ldrb	r2, [r2, #4]
 3196 0134 1A71     		strb	r2, [r3, #4]
1267:main.c        ****                         break;
 3197              		.loc 1 1267 0
 3198 0136 80E0     		b	.L168
 3199              	.L177:
1268:main.c        ****                         
1269:main.c        ****                     case INIT_CONFIG_APP:
1270:main.c        ****                         sprintf(testString, "Final check...");
 3200              		.loc 1 1270 0
 3201 0138 954B     		ldr	r3, .L195+48
 3202 013a 9E4A     		ldr	r2, .L195+84
 3203 013c 13CA     		ldmia	r2!, {r0, r1, r4}
 3204 013e 13C3     		stmia	r3!, {r0, r1, r4}
 3205 0140 1188     		ldrh	r1, [r2]
 3206 0142 1980     		strh	r1, [r3]
 3207 0144 9278     		ldrb	r2, [r2, #2]
 3208 0146 9A70     		strb	r2, [r3, #2]
1271:main.c        ****                         break;
 3209              		.loc 1 1271 0
 3210 0148 77E0     		b	.L168
 3211              	.L178:
1272:main.c        ****                         
1273:main.c        ****                     case INIT_COMPLETE:
1274:main.c        ****                         // ✅ 轮流显示不同的验证结果
ARM GAS  C:\Users\13740\AppData\Local\Temp\cc4654uj.s 			page 84


1275:main.c        ****                         if(g_test_done == 1)
 3212              		.loc 1 1275 0
 3213 014a 8B4B     		ldr	r3, .L195+24
 3214 014c 1B78     		ldrb	r3, [r3]
 3215 014e 012B     		cmp	r3, #1
 3216 0150 5FD1     		bne	.L179
1276:main.c        ****                         {
1277:main.c        ****                             // 每次显示不同的信息
1278:main.c        ****                             switch(display_step % 7)
 3217              		.loc 1 1278 0
 3218 0152 994B     		ldr	r3, .L195+88
 3219 0154 1B78     		ldrb	r3, [r3]
 3220 0156 0721     		movs	r1, #7
 3221 0158 1800     		movs	r0, r3
 3222 015a FFF7FEFF 		bl	__aeabi_uidivmod
 3223 015e 0B00     		movs	r3, r1
 3224 0160 DBB2     		uxtb	r3, r3
 3225 0162 062B     		cmp	r3, #6
 3226 0164 4ED8     		bhi	.L180
 3227 0166 9A00     		lsls	r2, r3, #2
 3228 0168 944B     		ldr	r3, .L195+92
 3229 016a D318     		adds	r3, r2, r3
 3230 016c 1B68     		ldr	r3, [r3]
 3231 016e 9F46     		mov	pc, r3
 3232              		.section	.rodata
 3233              		.align	2
 3234              	.L182:
 3235 077c 70010000 		.word	.L181
 3236 0780 82010000 		.word	.L183
 3237 0784 92010000 		.word	.L184
 3238 0788 A2010000 		.word	.L185
 3239 078c B6010000 		.word	.L186
 3240 0790 C6010000 		.word	.L187
 3241 0794 D6010000 		.word	.L188
 3242              		.section	.text.main
 3243              	.L181:
1279:main.c        ****                             {
1280:main.c        ****                                 case 0:
1281:main.c        ****                                     sprintf(testString, "CNT:%d", g_test_fifo_count);
 3244              		.loc 1 1281 0
 3245 0170 934B     		ldr	r3, .L195+96
 3246 0172 1B88     		ldrh	r3, [r3]
 3247 0174 1A00     		movs	r2, r3
 3248 0176 9349     		ldr	r1, .L195+100
 3249 0178 854B     		ldr	r3, .L195+48
 3250 017a 1800     		movs	r0, r3
 3251 017c FFF7FEFF 		bl	sprintf
1282:main.c        ****                                     break;
 3252              		.loc 1 1282 0
 3253 0180 40E0     		b	.L180
 3254              	.L183:
1283:main.c        ****                                 case 1:
1284:main.c        ****                                     sprintf(testString, "ADIID:%04lX", g_test_adiid);
 3255              		.loc 1 1284 0
 3256 0182 914B     		ldr	r3, .L195+104
 3257 0184 1A68     		ldr	r2, [r3]
 3258 0186 9149     		ldr	r1, .L195+108
ARM GAS  C:\Users\13740\AppData\Local\Temp\cc4654uj.s 			page 85


 3259 0188 814B     		ldr	r3, .L195+48
 3260 018a 1800     		movs	r0, r3
 3261 018c FFF7FEFF 		bl	sprintf
1285:main.c        ****                                     break;
 3262              		.loc 1 1285 0
 3263 0190 38E0     		b	.L180
 3264              	.L184:
1286:main.c        ****                                 case 2:
1287:main.c        ****                                     sprintf(testString, "CHIP:%04lX", g_test_chipid);
 3265              		.loc 1 1287 0
 3266 0192 8F4B     		ldr	r3, .L195+112
 3267 0194 1A68     		ldr	r2, [r3]
 3268 0196 8F49     		ldr	r1, .L195+116
 3269 0198 7D4B     		ldr	r3, .L195+48
 3270 019a 1800     		movs	r0, r3
 3271 019c FFF7FEFF 		bl	sprintf
1288:main.c        ****                                     break;
 3272              		.loc 1 1288 0
 3273 01a0 30E0     		b	.L180
 3274              	.L185:
1289:main.c        ****                                 case 3:
1290:main.c        ****                                     sprintf(testString, "R0908:%04lX", g_test_reg_0908 & 0xFFFF);
 3275              		.loc 1 1290 0
 3276 01a2 8D4B     		ldr	r3, .L195+120
 3277 01a4 1B68     		ldr	r3, [r3]
 3278 01a6 1B04     		lsls	r3, r3, #16
 3279 01a8 1A0C     		lsrs	r2, r3, #16
 3280 01aa 8C49     		ldr	r1, .L195+124
 3281 01ac 784B     		ldr	r3, .L195+48
 3282 01ae 1800     		movs	r0, r3
 3283 01b0 FFF7FEFF 		bl	sprintf
1291:main.c        ****                                     break;
 3284              		.loc 1 1291 0
 3285 01b4 26E0     		b	.L180
 3286              	.L186:
1292:main.c        ****                                 case 4:
1293:main.c        ****                                     sprintf(testString, "AFE:%08lX", g_test_afecon);
 3287              		.loc 1 1293 0
 3288 01b6 8A4B     		ldr	r3, .L195+128
 3289 01b8 1A68     		ldr	r2, [r3]
 3290 01ba 8A49     		ldr	r1, .L195+132
 3291 01bc 744B     		ldr	r3, .L195+48
 3292 01be 1800     		movs	r0, r3
 3293 01c0 FFF7FEFF 		bl	sprintf
1294:main.c        ****                                     break;
 3294              		.loc 1 1294 0
 3295 01c4 1EE0     		b	.L180
 3296              	.L187:
1295:main.c        ****                                 case 5:
1296:main.c        ****                                     sprintf(testString, "2080:%08lX", g_test_fifocon);
 3297              		.loc 1 1296 0
 3298 01c6 884B     		ldr	r3, .L195+136
 3299 01c8 1A68     		ldr	r2, [r3]
 3300 01ca 8849     		ldr	r1, .L195+140
 3301 01cc 704B     		ldr	r3, .L195+48
 3302 01ce 1800     		movs	r0, r3
 3303 01d0 FFF7FEFF 		bl	sprintf
ARM GAS  C:\Users\13740\AppData\Local\Temp\cc4654uj.s 			page 86


1297:main.c        ****                                     break;
 3304              		.loc 1 1297 0
 3305 01d4 16E0     		b	.L180
 3306              	.L188:
1298:main.c        ****                                 case 6:
1299:main.c        ****                                     // ✅ 显示实时测量数据
1300:main.c        ****                                     sprintf(testString, "Glu:%.1f Lac:%.1f", 
1301:main.c        ****                                             sensorData.glucose, 
 3307              		.loc 1 1301 0
 3308 01d6 864B     		ldr	r3, .L195+144
 3309 01d8 5B68     		ldr	r3, [r3, #4]
1300:main.c        ****                                             sensorData.glucose, 
 3310              		.loc 1 1300 0
 3311 01da 181C     		adds	r0, r3, #0
 3312 01dc FFF7FEFF 		bl	__aeabi_f2d
 3313 01e0 0500     		movs	r5, r0
 3314 01e2 0E00     		movs	r6, r1
1302:main.c        ****                                             sensorData.lactate);
 3315              		.loc 1 1302 0
 3316 01e4 824B     		ldr	r3, .L195+144
 3317 01e6 9B68     		ldr	r3, [r3, #8]
1300:main.c        ****                                             sensorData.glucose, 
 3318              		.loc 1 1300 0
 3319 01e8 181C     		adds	r0, r3, #0
 3320 01ea FFF7FEFF 		bl	__aeabi_f2d
 3321 01ee 0300     		movs	r3, r0
 3322 01f0 0C00     		movs	r4, r1
 3323 01f2 8049     		ldr	r1, .L195+148
 3324 01f4 6648     		ldr	r0, .L195+48
 3325 01f6 0093     		str	r3, [sp]
 3326 01f8 0194     		str	r4, [sp, #4]
 3327 01fa 2A00     		movs	r2, r5
 3328 01fc 3300     		movs	r3, r6
 3329 01fe FFF7FEFF 		bl	sprintf
1303:main.c        ****                                     break;
 3330              		.loc 1 1303 0
 3331 0202 C046     		nop
 3332              	.L180:
1304:main.c        ****                             }
1305:main.c        ****                             display_step++;
 3333              		.loc 1 1305 0
 3334 0204 6C4B     		ldr	r3, .L195+88
 3335 0206 1B78     		ldrb	r3, [r3]
 3336 0208 0133     		adds	r3, r3, #1
 3337 020a DAB2     		uxtb	r2, r3
 3338 020c 6A4B     		ldr	r3, .L195+88
 3339 020e 1A70     		strb	r2, [r3]
1306:main.c        ****                         }
1307:main.c        ****                         else if(g_test_done == 2)
1308:main.c        ****                         {
1309:main.c        ****                             sprintf(testString, "Init FAIL");
1310:main.c        ****                         }
1311:main.c        ****                         else
1312:main.c        ****                         {
1313:main.c        ****                             sprintf(testString, "Waiting...");
1314:main.c        ****                         }
1315:main.c        ****                         break;
ARM GAS  C:\Users\13740\AppData\Local\Temp\cc4654uj.s 			page 87


 3340              		.loc 1 1315 0
 3341 0210 12E0     		b	.L194
 3342              	.L179:
1307:main.c        ****                         {
 3343              		.loc 1 1307 0
 3344 0212 594B     		ldr	r3, .L195+24
 3345 0214 1B78     		ldrb	r3, [r3]
 3346 0216 022B     		cmp	r3, #2
 3347 0218 06D1     		bne	.L190
1309:main.c        ****                         }
 3348              		.loc 1 1309 0
 3349 021a 5D4B     		ldr	r3, .L195+48
 3350 021c 764A     		ldr	r2, .L195+152
 3351 021e 03CA     		ldmia	r2!, {r0, r1}
 3352 0220 03C3     		stmia	r3!, {r0, r1}
 3353 0222 1288     		ldrh	r2, [r2]
 3354 0224 1A80     		strh	r2, [r3]
 3355              		.loc 1 1315 0
 3356 0226 07E0     		b	.L194
 3357              	.L190:
1313:main.c        ****                         }
 3358              		.loc 1 1313 0
 3359 0228 594B     		ldr	r3, .L195+48
 3360 022a 744A     		ldr	r2, .L195+156
 3361 022c 03CA     		ldmia	r2!, {r0, r1}
 3362 022e 03C3     		stmia	r3!, {r0, r1}
 3363 0230 1188     		ldrh	r1, [r2]
 3364 0232 1980     		strh	r1, [r3]
 3365 0234 9278     		ldrb	r2, [r2, #2]
 3366 0236 9A70     		strb	r2, [r3, #2]
 3367              	.L194:
 3368              		.loc 1 1315 0
 3369 0238 C046     		nop
 3370              	.L168:
1316:main.c        ****                 }
1317:main.c        ****                 
1318:main.c        ****                 notificationHandle.attrHandle = CYBLE_CUSTOM_SERVICE_LACTATE_CHAR_HANDLE;
 3371              		.loc 1 1318 0 discriminator 1
 3372 023a 0C23     		movs	r3, #12
 3373 023c 1022     		movs	r2, #16
 3374 023e 9446     		mov	ip, r2
 3375 0240 BC44     		add	ip, ip, r7
 3376 0242 6344     		add	r3, r3, ip
 3377 0244 1222     		movs	r2, #18
 3378 0246 1A81     		strh	r2, [r3, #8]
1319:main.c        ****                 notificationHandle.value.val = (uint8*)testString;
 3379              		.loc 1 1319 0 discriminator 1
 3380 0248 0C23     		movs	r3, #12
 3381 024a 1022     		movs	r2, #16
 3382 024c 9446     		mov	ip, r2
 3383 024e BC44     		add	ip, ip, r7
 3384 0250 6344     		add	r3, r3, ip
 3385 0252 4F4A     		ldr	r2, .L195+48
 3386 0254 1A60     		str	r2, [r3]
1320:main.c        ****                 notificationHandle.value.len = strlen(testString);
 3387              		.loc 1 1320 0 discriminator 1
 3388 0256 4E4B     		ldr	r3, .L195+48
ARM GAS  C:\Users\13740\AppData\Local\Temp\cc4654uj.s 			page 88


 3389 0258 1800     		movs	r0, r3
 3390 025a FFF7FEFF 		bl	strlen
 3391 025e 0300     		movs	r3, r0
 3392 0260 9AB2     		uxth	r2, r3
 3393 0262 0C23     		movs	r3, #12
 3394 0264 1021     		movs	r1, #16
 3395 0266 8C46     		mov	ip, r1
 3396 0268 BC44     		add	ip, ip, r7
 3397 026a 6344     		add	r3, r3, ip
 3398 026c 9A80     		strh	r2, [r3, #4]
1321:main.c        ****                 CyBle_GattsNotification(cyBle_connHandle, &notificationHandle);
 3399              		.loc 1 1321 0 discriminator 1
 3400 026e 0C23     		movs	r3, #12
 3401 0270 1022     		movs	r2, #16
 3402 0272 BA18     		adds	r2, r7, r2
 3403 0274 D118     		adds	r1, r2, r3
 3404 0276 624B     		ldr	r3, .L195+160
 3405 0278 1A78     		ldrb	r2, [r3]
 3406 027a 5B78     		ldrb	r3, [r3, #1]
 3407 027c 1B02     		lsls	r3, r3, #8
 3408 027e 1A43     		orrs	r2, r3
 3409 0280 0023     		movs	r3, #0
 3410 0282 1204     		lsls	r2, r2, #16
 3411 0284 120C     		lsrs	r2, r2, #16
 3412 0286 1B0C     		lsrs	r3, r3, #16
 3413 0288 1B04     		lsls	r3, r3, #16
 3414 028a 1343     		orrs	r3, r2
 3415 028c 1800     		movs	r0, r3
 3416 028e FFF7FEFF 		bl	CyBle_GattsNotification
 3417              	.L167:
 3418              	.LBE11:
1322:main.c        ****             }
1323:main.c        ****         }
1324:main.c        ****         
1325:main.c        ****         // ✅ 定期发送详细数据（每秒一次，使用不同的特征值）
1326:main.c        ****         if(CyBle_GetState() == CYBLE_STATE_CONNECTED)
 3419              		.loc 1 1326 0
 3420 0292 3D4B     		ldr	r3, .L195+40
 3421 0294 1B78     		ldrb	r3, [r3]
 3422 0296 022B     		cmp	r3, #2
 3423 0298 54D1     		bne	.L191
1327:main.c        ****         {
1328:main.c        ****             if((mainTimer - last_send_time) >= 1)
 3424              		.loc 1 1328 0
 3425 029a 5A4B     		ldr	r3, .L195+164
 3426 029c 1A68     		ldr	r2, [r3]
 3427 029e 5A4B     		ldr	r3, .L195+168
 3428 02a0 1B68     		ldr	r3, [r3]
 3429 02a2 9A42     		cmp	r2, r3
 3430 02a4 4ED0     		beq	.L191
 3431              	.LBB12:
1329:main.c        ****             {
1330:main.c        ****                 last_send_time = mainTimer;
 3432              		.loc 1 1330 0
 3433 02a6 574B     		ldr	r3, .L195+164
 3434 02a8 1A68     		ldr	r2, [r3]
 3435 02aa 574B     		ldr	r3, .L195+168
ARM GAS  C:\Users\13740\AppData\Local\Temp\cc4654uj.s 			page 89


 3436 02ac 1A60     		str	r2, [r3]
1331:main.c        ****                 
1332:main.c        ****                 // 可以发送更详细的测量数据
1333:main.c        ****                 CYBLE_GATTS_HANDLE_VALUE_NTF_T notificationHandle;
1334:main.c        ****                 static char dataString[50];
1335:main.c        ****                 
1336:main.c        ****                 sprintf(dataString, "G:%.2f(%.1fnA) L:%.2f(%.1fnA)", 
1337:main.c        ****                         sensorData.glucose, sensorData.current_glucose_nA,
 3437              		.loc 1 1337 0
 3438 02ae 504B     		ldr	r3, .L195+144
 3439 02b0 5B68     		ldr	r3, [r3, #4]
1336:main.c        ****                         sensorData.glucose, sensorData.current_glucose_nA,
 3440              		.loc 1 1336 0
 3441 02b2 181C     		adds	r0, r3, #0
 3442 02b4 FFF7FEFF 		bl	__aeabi_f2d
 3443 02b8 B860     		str	r0, [r7, #8]
 3444 02ba F960     		str	r1, [r7, #12]
 3445              		.loc 1 1337 0
 3446 02bc 4C4B     		ldr	r3, .L195+144
 3447 02be 5B69     		ldr	r3, [r3, #20]
1336:main.c        ****                         sensorData.glucose, sensorData.current_glucose_nA,
 3448              		.loc 1 1336 0
 3449 02c0 181C     		adds	r0, r3, #0
 3450 02c2 FFF7FEFF 		bl	__aeabi_f2d
 3451 02c6 0400     		movs	r4, r0
 3452 02c8 0D00     		movs	r5, r1
1338:main.c        ****                         sensorData.lactate, sensorData.current_lactate_nA);
 3453              		.loc 1 1338 0
 3454 02ca 494B     		ldr	r3, .L195+144
 3455 02cc 9B68     		ldr	r3, [r3, #8]
1336:main.c        ****                         sensorData.glucose, sensorData.current_glucose_nA,
 3456              		.loc 1 1336 0
 3457 02ce 181C     		adds	r0, r3, #0
 3458 02d0 FFF7FEFF 		bl	__aeabi_f2d
 3459 02d4 3860     		str	r0, [r7]
 3460 02d6 7960     		str	r1, [r7, #4]
 3461              		.loc 1 1338 0
 3462 02d8 454B     		ldr	r3, .L195+144
 3463 02da 9B69     		ldr	r3, [r3, #24]
1336:main.c        ****                         sensorData.glucose, sensorData.current_glucose_nA,
 3464              		.loc 1 1336 0
 3465 02dc 181C     		adds	r0, r3, #0
 3466 02de FFF7FEFF 		bl	__aeabi_f2d
 3467 02e2 0200     		movs	r2, r0
 3468 02e4 0B00     		movs	r3, r1
 3469 02e6 4949     		ldr	r1, .L195+172
 3470 02e8 4948     		ldr	r0, .L195+176
 3471 02ea 0492     		str	r2, [sp, #16]
 3472 02ec 0593     		str	r3, [sp, #20]
 3473 02ee 3A68     		ldr	r2, [r7]
 3474 02f0 7B68     		ldr	r3, [r7, #4]
 3475 02f2 0292     		str	r2, [sp, #8]
 3476 02f4 0393     		str	r3, [sp, #12]
 3477 02f6 0094     		str	r4, [sp]
 3478 02f8 0195     		str	r5, [sp, #4]
 3479 02fa BA68     		ldr	r2, [r7, #8]
 3480 02fc FB68     		ldr	r3, [r7, #12]
ARM GAS  C:\Users\13740\AppData\Local\Temp\cc4654uj.s 			page 90


 3481 02fe FFF7FEFF 		bl	sprintf
1339:main.c        ****                 
1340:main.c        ****                 notificationHandle.attrHandle = CYBLE_CUSTOM_SERVICE_GLUCOSE_MEASUREMENT_CHAR_HANDL
 3482              		.loc 1 1340 0
 3483 0302 1023     		movs	r3, #16
 3484 0304 FB18     		adds	r3, r7, r3
 3485 0306 1722     		movs	r2, #23
 3486 0308 1A81     		strh	r2, [r3, #8]
1341:main.c        ****                 notificationHandle.value.val = (uint8*)dataString;
 3487              		.loc 1 1341 0
 3488 030a 1023     		movs	r3, #16
 3489 030c FB18     		adds	r3, r7, r3
 3490 030e 404A     		ldr	r2, .L195+176
 3491 0310 1A60     		str	r2, [r3]
1342:main.c        ****                 notificationHandle.value.len = strlen(dataString);
 3492              		.loc 1 1342 0
 3493 0312 3F4B     		ldr	r3, .L195+176
 3494 0314 1800     		movs	r0, r3
 3495 0316 FFF7FEFF 		bl	strlen
 3496 031a 0300     		movs	r3, r0
 3497 031c 9AB2     		uxth	r2, r3
 3498 031e 1023     		movs	r3, #16
 3499 0320 FB18     		adds	r3, r7, r3
 3500 0322 9A80     		strh	r2, [r3, #4]
1343:main.c        ****                 CyBle_GattsNotification(cyBle_connHandle, &notificationHandle);
 3501              		.loc 1 1343 0
 3502 0324 1023     		movs	r3, #16
 3503 0326 F918     		adds	r1, r7, r3
 3504 0328 354B     		ldr	r3, .L195+160
 3505 032a 1A78     		ldrb	r2, [r3]
 3506 032c 5B78     		ldrb	r3, [r3, #1]
 3507 032e 1B02     		lsls	r3, r3, #8
 3508 0330 1A43     		orrs	r2, r3
 3509 0332 0023     		movs	r3, #0
 3510 0334 1204     		lsls	r2, r2, #16
 3511 0336 120C     		lsrs	r2, r2, #16
 3512 0338 1B0C     		lsrs	r3, r3, #16
 3513 033a 1B04     		lsls	r3, r3, #16
 3514 033c 1343     		orrs	r3, r2
 3515 033e 1800     		movs	r0, r3
 3516 0340 FFF7FEFF 		bl	CyBle_GattsNotification
 3517              	.L191:
 3518              	.LBE12:
1344:main.c        ****             }
1345:main.c        ****         }
1346:main.c        ****         
1347:main.c        ****         // BLE数据存储
1348:main.c        ****         if(cyBle_pendingFlashWrite != 0u)
 3519              		.loc 1 1348 0
 3520 0344 334B     		ldr	r3, .L195+180
 3521 0346 1B78     		ldrb	r3, [r3]
 3522 0348 002B     		cmp	r3, #0
 3523 034a 00D1     		bne	.LCB2749
 3524 034c 89E6     		b	.L193	@long jump
 3525              	.LCB2749:
1349:main.c        ****         {
1350:main.c        ****             apiResult = CyBle_StoreBondingData(0u);
ARM GAS  C:\Users\13740\AppData\Local\Temp\cc4654uj.s 			page 91


 3526              		.loc 1 1350 0
 3527 034e 0020     		movs	r0, #0
 3528 0350 FFF7FEFF 		bl	CyBle_StoreBondingData
 3529 0354 0300     		movs	r3, r0
 3530 0356 1A00     		movs	r2, r3
 3531 0358 034B     		ldr	r3, .L195+8
 3532 035a 1A80     		strh	r2, [r3]
1351:main.c        ****         }
1352:main.c        ****     }
 3533              		.loc 1 1352 0
 3534 035c 81E6     		b	.L193
 3535              	.L196:
 3536 035e C046     		.align	2
 3537              	.L195:
 3538 0360 14060000 		.word	.LC105
 3539 0364 00000000 		.word	AppCallBack
 3540 0368 00000000 		.word	apiResult
 3541 036c 00000000 		.word	Timer_Interrupt
 3542 0370 2C060000 		.word	.LC110
 3543 0374 57000000 		.word	g_init_state
 3544 0378 56000000 		.word	g_test_done
 3545 037c 00000000 		.word	measurementFlag
 3546 0380 38000000 		.word	g_meas_state
 3547 0384 39000000 		.word	g_current_sensor
 3548 0388 00000000 		.word	cyBle_state
 3549 038c 58070000 		.word	.L170
 3550 0390 C8040000 		.word	testString.9732
 3551 0394 4C060000 		.word	.LC120
 3552 0398 54060000 		.word	.LC122
 3553 039c 64060000 		.word	.LC124
 3554 03a0 58000000 		.word	g_reg_index
 3555 03a4 74060000 		.word	.LC127
 3556 03a8 84060000 		.word	.LC129
 3557 03ac 94060000 		.word	.LC131
 3558 03b0 A4060000 		.word	.LC133
 3559 03b4 B8060000 		.word	.LC135
 3560 03b8 F0040000 		.word	display_step.9733
 3561 03bc 7C070000 		.word	.L182
 3562 03c0 54000000 		.word	g_test_fifo_count
 3563 03c4 C8060000 		.word	.LC140
 3564 03c8 40000000 		.word	g_test_adiid
 3565 03cc D0060000 		.word	.LC143
 3566 03d0 44000000 		.word	g_test_chipid
 3567 03d4 DC060000 		.word	.LC146
 3568 03d8 48000000 		.word	g_test_reg_0908
 3569 03dc E8060000 		.word	.LC149
 3570 03e0 4C000000 		.word	g_test_afecon
 3571 03e4 F4060000 		.word	.LC152
 3572 03e8 50000000 		.word	g_test_fifocon
 3573 03ec 00070000 		.word	.LC155
 3574 03f0 00000000 		.word	sensorData
 3575 03f4 0C070000 		.word	.LC158
 3576 03f8 20070000 		.word	.LC160
 3577 03fc 2C070000 		.word	.LC162
 3578 0400 00000000 		.word	cyBle_connHandle
 3579 0404 00000000 		.word	mainTimer
 3580 0408 F4040000 		.word	last_send_time.9730
ARM GAS  C:\Users\13740\AppData\Local\Temp\cc4654uj.s 			page 92


 3581 040c 38070000 		.word	.LC167
 3582 0410 F8040000 		.word	dataString.9753
 3583 0414 00000000 		.word	cyBle_pendingFlashWrite
 3584              		.cfi_endproc
 3585              	.LFE56:
 3586              		.size	main, .-main
 3587              		.section	.rodata
 3588              		.align	2
 3589              	.LC172:
 3590 0798 E5B9BFE6 		.ascii	"\345\271\277\346\222\255\345\220\257\345\212\250\345"
 3590      92ADE590 
 3590      AFE58AA8 
 3590      E5
 3591 07a5 A4B1E8B4 		.ascii	"\244\261\350\264\245: %d\015\012\000"
 3591      A53A2025 
 3591      640D0A00 
 3592 07b1 000000   		.align	2
 3593              	.LC174:
 3594 07b4 E5BC80E5 		.ascii	"\345\274\200\345\247\213\345\271\277\346\222\255, \345"
 3594      A78BE5B9 
 3594      BFE692AD 
 3594      2C20E5
 3595 07c3 9CB0E59D 		.ascii	"\234\260\345\235\200: \000"
 3595      803A2000 
 3596 07cb 00       		.align	2
 3597              	.LC176:
 3598 07cc 25322E32 		.ascii	"%2.2x\000"
 3598      7800
 3599 07d2 0000     		.align	2
 3600              	.LC178:
 3601 07d4 0D00     		.ascii	"\015\000"
 3602              		.section	.text.StartAdvertisement,"ax",%progbits
 3603              		.align	2
 3604              		.global	StartAdvertisement
 3605              		.code	16
 3606              		.thumb_func
 3607              		.type	StartAdvertisement, %function
 3608              	StartAdvertisement:
 3609              	.LFB57:
1353:main.c        **** }
1354:main.c        **** /*******************************************************************************
1355:main.c        **** * Function Name: StartAdvertisement
1356:main.c        **** ********************************************************************************
1357:main.c        **** * Summary:
1358:main.c        **** *   启动BLE广播
1359:main.c        **** *******************************************************************************/
1360:main.c        **** void StartAdvertisement(void)
1361:main.c        **** {
 3610              		.loc 1 1361 0
 3611              		.cfi_startproc
 3612              		@ args = 0, pretend = 0, frame = 16
 3613              		@ frame_needed = 1, uses_anonymous_args = 0
 3614 0000 80B5     		push	{r7, lr}
 3615              		.cfi_def_cfa_offset 8
 3616              		.cfi_offset 7, -8
 3617              		.cfi_offset 14, -4
 3618 0002 84B0     		sub	sp, sp, #16
ARM GAS  C:\Users\13740\AppData\Local\Temp\cc4654uj.s 			page 93


 3619              		.cfi_def_cfa_offset 24
 3620 0004 00AF     		add	r7, sp, #0
 3621              		.cfi_def_cfa_register 7
1362:main.c        ****     uint16 i;
1363:main.c        ****     CYBLE_GAP_BD_ADDR_T localAddr;
1364:main.c        ****     
1365:main.c        ****     apiResult = CyBle_GappStartAdvertisement(CYBLE_ADVERTISING_FAST);
 3622              		.loc 1 1365 0
 3623 0006 0020     		movs	r0, #0
 3624 0008 FFF7FEFF 		bl	CyBle_GappStartAdvertisement
 3625 000c 0300     		movs	r3, r0
 3626 000e 1A00     		movs	r2, r3
 3627 0010 1F4B     		ldr	r3, .L203
 3628 0012 1A80     		strh	r2, [r3]
1366:main.c        ****     if(apiResult != CYBLE_ERROR_OK)
 3629              		.loc 1 1366 0
 3630 0014 1E4B     		ldr	r3, .L203
 3631 0016 1B88     		ldrh	r3, [r3]
 3632 0018 002B     		cmp	r3, #0
 3633 001a 08D0     		beq	.L198
1367:main.c        ****     {
1368:main.c        ****         DBG_PRINTF("广播启动失败: %d\r\n", apiResult);
 3634              		.loc 1 1368 0
 3635 001c 1C4B     		ldr	r3, .L203
 3636 001e 1B88     		ldrh	r3, [r3]
 3637 0020 1A00     		movs	r2, r3
 3638 0022 1C4B     		ldr	r3, .L203+4
 3639 0024 1100     		movs	r1, r2
 3640 0026 1800     		movs	r0, r3
 3641 0028 FFF7FEFF 		bl	printf
1369:main.c        ****     }
1370:main.c        ****     else
1371:main.c        ****     {
1372:main.c        ****         DBG_PRINTF("开始广播, 地址: ");
1373:main.c        ****         localAddr.type = 0u;
1374:main.c        ****         CyBle_GetDeviceAddress(&localAddr);
1375:main.c        ****         for(i = CYBLE_GAP_BD_ADDR_SIZE; i > 0u; i--)
1376:main.c        ****         {
1377:main.c        ****             DBG_PRINTF("%2.2x", localAddr.bdAddr[i-1]);
1378:main.c        ****         }
1379:main.c        ****         DBG_PRINTF("\r\n");
1380:main.c        ****     }
1381:main.c        **** }
 3642              		.loc 1 1381 0
 3643 002c 2BE0     		b	.L202
 3644              	.L198:
1372:main.c        ****         localAddr.type = 0u;
 3645              		.loc 1 1372 0
 3646 002e 1A4B     		ldr	r3, .L203+8
 3647 0030 1800     		movs	r0, r3
 3648 0032 FFF7FEFF 		bl	printf
1373:main.c        ****         CyBle_GetDeviceAddress(&localAddr);
 3649              		.loc 1 1373 0
 3650 0036 3B1D     		adds	r3, r7, #4
 3651 0038 0022     		movs	r2, #0
 3652 003a 9A71     		strb	r2, [r3, #6]
1374:main.c        ****         for(i = CYBLE_GAP_BD_ADDR_SIZE; i > 0u; i--)
ARM GAS  C:\Users\13740\AppData\Local\Temp\cc4654uj.s 			page 94


 3653              		.loc 1 1374 0
 3654 003c 3B1D     		adds	r3, r7, #4
 3655 003e 1800     		movs	r0, r3
 3656 0040 FFF7FEFF 		bl	CyBle_GetDeviceAddress
1375:main.c        ****         {
 3657              		.loc 1 1375 0
 3658 0044 0E23     		movs	r3, #14
 3659 0046 FB18     		adds	r3, r7, r3
 3660 0048 0622     		movs	r2, #6
 3661 004a 1A80     		strh	r2, [r3]
 3662 004c 12E0     		b	.L200
 3663              	.L201:
1377:main.c        ****         }
 3664              		.loc 1 1377 0 discriminator 3
 3665 004e 0E23     		movs	r3, #14
 3666 0050 FB18     		adds	r3, r7, r3
 3667 0052 1B88     		ldrh	r3, [r3]
 3668 0054 013B     		subs	r3, r3, #1
 3669 0056 3A1D     		adds	r2, r7, #4
 3670 0058 D35C     		ldrb	r3, [r2, r3]
 3671 005a 1A00     		movs	r2, r3
 3672 005c 0F4B     		ldr	r3, .L203+12
 3673 005e 1100     		movs	r1, r2
 3674 0060 1800     		movs	r0, r3
 3675 0062 FFF7FEFF 		bl	printf
1375:main.c        ****         {
 3676              		.loc 1 1375 0 discriminator 3
 3677 0066 0E23     		movs	r3, #14
 3678 0068 FB18     		adds	r3, r7, r3
 3679 006a 1A88     		ldrh	r2, [r3]
 3680 006c 0E23     		movs	r3, #14
 3681 006e FB18     		adds	r3, r7, r3
 3682 0070 013A     		subs	r2, r2, #1
 3683 0072 1A80     		strh	r2, [r3]
 3684              	.L200:
1375:main.c        ****         {
 3685              		.loc 1 1375 0 is_stmt 0 discriminator 1
 3686 0074 0E23     		movs	r3, #14
 3687 0076 FB18     		adds	r3, r7, r3
 3688 0078 1B88     		ldrh	r3, [r3]
 3689 007a 002B     		cmp	r3, #0
 3690 007c E7D1     		bne	.L201
1379:main.c        ****     }
 3691              		.loc 1 1379 0 is_stmt 1
 3692 007e 084B     		ldr	r3, .L203+16
 3693 0080 1800     		movs	r0, r3
 3694 0082 FFF7FEFF 		bl	puts
 3695              	.L202:
 3696              		.loc 1 1381 0
 3697 0086 C046     		nop
 3698 0088 BD46     		mov	sp, r7
 3699 008a 04B0     		add	sp, sp, #16
 3700              		@ sp needed
 3701 008c 80BD     		pop	{r7, pc}
 3702              	.L204:
 3703 008e C046     		.align	2
 3704              	.L203:
ARM GAS  C:\Users\13740\AppData\Local\Temp\cc4654uj.s 			page 95


 3705 0090 00000000 		.word	apiResult
 3706 0094 98070000 		.word	.LC172
 3707 0098 B4070000 		.word	.LC174
 3708 009c CC070000 		.word	.LC176
 3709 00a0 D4070000 		.word	.LC178
 3710              		.cfi_endproc
 3711              	.LFE57:
 3712              		.size	StartAdvertisement, .-StartAdvertisement
 3713              		.bss
 3714 0059 000000   		.align	2
 3715              	ampFifoBuffer.9565:
 3716 005c 00000000 		.space	1024
 3716      00000000 
 3716      00000000 
 3716      00000000 
 3716      00000000 
 3717              	diagStep.9600:
 3718 045c 00       		.space	1
 3719 045d 000000   		.align	2
 3720              	dataString.9599:
 3721 0460 00000000 		.space	40
 3721      00000000 
 3721      00000000 
 3721      00000000 
 3721      00000000 
 3722              	testStep.9614:
 3723 0488 00       		.space	1
 3724 0489 000000   		.align	2
 3725              	tempString.9613:
 3726 048c 00000000 		.space	60
 3726      00000000 
 3726      00000000 
 3726      00000000 
 3726      00000000 
 3727              		.data
 3728              		.type	led.9631, %object
 3729              		.size	led.9631, 1
 3730              	led.9631:
 3731 0000 01       		.byte	1
 3732              		.bss
 3733              		.align	2
 3734              	testString.9732:
 3735 04c8 00000000 		.space	40
 3735      00000000 
 3735      00000000 
 3735      00000000 
 3735      00000000 
 3736              	display_step.9733:
 3737 04f0 00       		.space	1
 3738 04f1 000000   		.align	2
 3739              	last_send_time.9730:
 3740 04f4 00000000 		.space	4
 3741              		.align	2
 3742              	dataString.9753:
 3743 04f8 00000000 		.space	50
 3743      00000000 
 3743      00000000 
ARM GAS  C:\Users\13740\AppData\Local\Temp\cc4654uj.s 			page 96


 3743      00000000 
 3743      00000000 
 3744              		.text
 3745              	.Letext0:
 3746              		.file 2 "f:\\infineon\\psoc creator\\4.4\\psoc creator\\import\\gnu\\arm\\5.4.1\\arm-none-eabi\\in
 3747              		.file 3 "f:\\infineon\\psoc creator\\4.4\\psoc creator\\import\\gnu\\arm\\5.4.1\\arm-none-eabi\\in
 3748              		.file 4 "Generated_Source\\PSoC4/cytypes.h"
 3749              		.file 5 "Generated_Source\\PSoC4/CYBLE_Stack.h"
 3750              		.file 6 "Generated_Source\\PSoC4/CYBLE_StackGatt.h"
 3751              		.file 7 "Generated_Source\\PSoC4/CYBLE_StackGattServer.h"
 3752              		.file 8 "Generated_Source\\PSoC4/CYBLE_eventHandler.h"
 3753              		.file 9 "ad5940.h"
 3754              		.file 10 "Amperometric.h"
 3755              		.file 11 "Generated_Source\\PSoC4/CYBLE.h"
 3756              		.section	.debug_info,"",%progbits
 3757              	.Ldebug_info0:
 3758 0000 2D120000 		.4byte	0x122d
 3759 0004 0400     		.2byte	0x4
 3760 0006 00000000 		.4byte	.Ldebug_abbrev0
 3761 000a 04       		.byte	0x4
 3762 000b 01       		.uleb128 0x1
 3763 000c C4020000 		.4byte	.LASF337
 3764 0010 0C       		.byte	0xc
 3765 0011 490D0000 		.4byte	.LASF338
 3766 0015 FF180000 		.4byte	.LASF339
 3767 0019 00000000 		.4byte	.Ldebug_ranges0+0
 3768 001d 00000000 		.4byte	0
 3769 0021 00000000 		.4byte	.Ldebug_line0
 3770 0025 02       		.uleb128 0x2
 3771 0026 01       		.byte	0x1
 3772 0027 06       		.byte	0x6
 3773 0028 3C180000 		.4byte	.LASF0
 3774 002c 03       		.uleb128 0x3
 3775 002d 1A140000 		.4byte	.LASF3
 3776 0031 02       		.byte	0x2
 3777 0032 1D       		.byte	0x1d
 3778 0033 37000000 		.4byte	0x37
 3779 0037 02       		.uleb128 0x2
 3780 0038 01       		.byte	0x1
 3781 0039 08       		.byte	0x8
 3782 003a 92160000 		.4byte	.LASF1
 3783 003e 02       		.uleb128 0x2
 3784 003f 02       		.byte	0x2
 3785 0040 05       		.byte	0x5
 3786 0041 C6110000 		.4byte	.LASF2
 3787 0045 03       		.uleb128 0x3
 3788 0046 280A0000 		.4byte	.LASF4
 3789 004a 02       		.byte	0x2
 3790 004b 2B       		.byte	0x2b
 3791 004c 50000000 		.4byte	0x50
 3792 0050 02       		.uleb128 0x2
 3793 0051 02       		.byte	0x2
 3794 0052 07       		.byte	0x7
 3795 0053 50180000 		.4byte	.LASF5
 3796 0057 03       		.uleb128 0x3
 3797 0058 70020000 		.4byte	.LASF6
 3798 005c 02       		.byte	0x2
ARM GAS  C:\Users\13740\AppData\Local\Temp\cc4654uj.s 			page 97


 3799 005d 3F       		.byte	0x3f
 3800 005e 62000000 		.4byte	0x62
 3801 0062 02       		.uleb128 0x2
 3802 0063 04       		.byte	0x4
 3803 0064 05       		.byte	0x5
 3804 0065 FA110000 		.4byte	.LASF7
 3805 0069 03       		.uleb128 0x3
 3806 006a A0160000 		.4byte	.LASF8
 3807 006e 02       		.byte	0x2
 3808 006f 41       		.byte	0x41
 3809 0070 74000000 		.4byte	0x74
 3810 0074 02       		.uleb128 0x2
 3811 0075 04       		.byte	0x4
 3812 0076 07       		.byte	0x7
 3813 0077 E6140000 		.4byte	.LASF9
 3814 007b 02       		.uleb128 0x2
 3815 007c 08       		.byte	0x8
 3816 007d 05       		.byte	0x5
 3817 007e 1F0D0000 		.4byte	.LASF10
 3818 0082 02       		.uleb128 0x2
 3819 0083 08       		.byte	0x8
 3820 0084 07       		.byte	0x7
 3821 0085 03050000 		.4byte	.LASF11
 3822 0089 04       		.uleb128 0x4
 3823 008a 04       		.byte	0x4
 3824 008b 05       		.byte	0x5
 3825 008c 696E7400 		.ascii	"int\000"
 3826 0090 02       		.uleb128 0x2
 3827 0091 04       		.byte	0x4
 3828 0092 07       		.byte	0x7
 3829 0093 FB010000 		.4byte	.LASF12
 3830 0097 03       		.uleb128 0x3
 3831 0098 1D0C0000 		.4byte	.LASF13
 3832 009c 03       		.byte	0x3
 3833 009d 18       		.byte	0x18
 3834 009e 2C000000 		.4byte	0x2c
 3835 00a2 03       		.uleb128 0x3
 3836 00a3 85100000 		.4byte	.LASF14
 3837 00a7 03       		.byte	0x3
 3838 00a8 24       		.byte	0x24
 3839 00a9 45000000 		.4byte	0x45
 3840 00ad 03       		.uleb128 0x3
 3841 00ae A8150000 		.4byte	.LASF15
 3842 00b2 03       		.byte	0x3
 3843 00b3 2C       		.byte	0x2c
 3844 00b4 57000000 		.4byte	0x57
 3845 00b8 03       		.uleb128 0x3
 3846 00b9 C2040000 		.4byte	.LASF16
 3847 00bd 03       		.byte	0x3
 3848 00be 30       		.byte	0x30
 3849 00bf 69000000 		.4byte	0x69
 3850 00c3 05       		.uleb128 0x5
 3851 00c4 AB040000 		.4byte	.LASF17
 3852 00c8 04       		.byte	0x4
 3853 00c9 D201     		.2byte	0x1d2
 3854 00cb 37000000 		.4byte	0x37
 3855 00cf 05       		.uleb128 0x5
ARM GAS  C:\Users\13740\AppData\Local\Temp\cc4654uj.s 			page 98


 3856 00d0 C50B0000 		.4byte	.LASF18
 3857 00d4 04       		.byte	0x4
 3858 00d5 D301     		.2byte	0x1d3
 3859 00d7 50000000 		.4byte	0x50
 3860 00db 05       		.uleb128 0x5
 3861 00dc FB0E0000 		.4byte	.LASF19
 3862 00e0 04       		.byte	0x4
 3863 00e1 D401     		.2byte	0x1d4
 3864 00e3 74000000 		.4byte	0x74
 3865 00e7 02       		.uleb128 0x2
 3866 00e8 04       		.byte	0x4
 3867 00e9 04       		.byte	0x4
 3868 00ea 1A050000 		.4byte	.LASF20
 3869 00ee 02       		.uleb128 0x2
 3870 00ef 08       		.byte	0x8
 3871 00f0 04       		.byte	0x4
 3872 00f1 67080000 		.4byte	.LASF21
 3873 00f5 02       		.uleb128 0x2
 3874 00f6 01       		.byte	0x1
 3875 00f7 08       		.byte	0x8
 3876 00f8 F80A0000 		.4byte	.LASF22
 3877 00fc 06       		.uleb128 0x6
 3878 00fd C3000000 		.4byte	0xc3
 3879 0101 06       		.uleb128 0x6
 3880 0102 DB000000 		.4byte	0xdb
 3881 0106 02       		.uleb128 0x2
 3882 0107 08       		.byte	0x8
 3883 0108 04       		.byte	0x4
 3884 0109 79100000 		.4byte	.LASF23
 3885 010d 02       		.uleb128 0x2
 3886 010e 04       		.byte	0x4
 3887 010f 07       		.byte	0x7
 3888 0110 79110000 		.4byte	.LASF24
 3889 0114 07       		.uleb128 0x7
 3890 0115 04       		.byte	0x4
 3891 0116 08       		.uleb128 0x8
 3892 0117 01       		.byte	0x1
 3893 0118 37000000 		.4byte	0x37
 3894 011c 05       		.byte	0x5
 3895 011d 4D01     		.2byte	0x14d
 3896 011f D4020000 		.4byte	0x2d4
 3897 0123 09       		.uleb128 0x9
 3898 0124 F2160000 		.4byte	.LASF25
 3899 0128 00       		.byte	0
 3900 0129 09       		.uleb128 0x9
 3901 012a B20B0000 		.4byte	.LASF26
 3902 012e 01       		.byte	0x1
 3903 012f 09       		.uleb128 0x9
 3904 0130 35110000 		.4byte	.LASF27
 3905 0134 02       		.byte	0x2
 3906 0135 09       		.uleb128 0x9
 3907 0136 E2010000 		.4byte	.LASF28
 3908 013a 03       		.byte	0x3
 3909 013b 09       		.uleb128 0x9
 3910 013c CF0A0000 		.4byte	.LASF29
 3911 0140 04       		.byte	0x4
 3912 0141 09       		.uleb128 0x9
ARM GAS  C:\Users\13740\AppData\Local\Temp\cc4654uj.s 			page 99


 3913 0142 48050000 		.4byte	.LASF30
 3914 0146 05       		.byte	0x5
 3915 0147 09       		.uleb128 0x9
 3916 0148 43160000 		.4byte	.LASF31
 3917 014c 06       		.byte	0x6
 3918 014d 09       		.uleb128 0x9
 3919 014e F3120000 		.4byte	.LASF32
 3920 0152 20       		.byte	0x20
 3921 0153 09       		.uleb128 0x9
 3922 0154 90000000 		.4byte	.LASF33
 3923 0158 21       		.byte	0x21
 3924 0159 09       		.uleb128 0x9
 3925 015a A2030000 		.4byte	.LASF34
 3926 015e 22       		.byte	0x22
 3927 015f 09       		.uleb128 0x9
 3928 0160 45150000 		.4byte	.LASF35
 3929 0164 23       		.byte	0x23
 3930 0165 09       		.uleb128 0x9
 3931 0166 F6070000 		.4byte	.LASF36
 3932 016a 24       		.byte	0x24
 3933 016b 09       		.uleb128 0x9
 3934 016c 29160000 		.4byte	.LASF37
 3935 0170 25       		.byte	0x25
 3936 0171 09       		.uleb128 0x9
 3937 0172 C30E0000 		.4byte	.LASF38
 3938 0176 26       		.byte	0x26
 3939 0177 09       		.uleb128 0x9
 3940 0178 82170000 		.4byte	.LASF39
 3941 017c 27       		.byte	0x27
 3942 017d 09       		.uleb128 0x9
 3943 017e 24140000 		.4byte	.LASF40
 3944 0182 28       		.byte	0x28
 3945 0183 09       		.uleb128 0x9
 3946 0184 47110000 		.4byte	.LASF41
 3947 0188 29       		.byte	0x29
 3948 0189 09       		.uleb128 0x9
 3949 018a 31040000 		.4byte	.LASF42
 3950 018e 2A       		.byte	0x2a
 3951 018f 09       		.uleb128 0x9
 3952 0190 E6190000 		.4byte	.LASF43
 3953 0194 2B       		.byte	0x2b
 3954 0195 09       		.uleb128 0x9
 3955 0196 21150000 		.4byte	.LASF44
 3956 019a 2C       		.byte	0x2c
 3957 019b 09       		.uleb128 0x9
 3958 019c 77040000 		.4byte	.LASF45
 3959 01a0 2D       		.byte	0x2d
 3960 01a1 09       		.uleb128 0x9
 3961 01a2 6E160000 		.4byte	.LASF46
 3962 01a6 2E       		.byte	0x2e
 3963 01a7 09       		.uleb128 0x9
 3964 01a8 510F0000 		.4byte	.LASF47
 3965 01ac 2F       		.byte	0x2f
 3966 01ad 09       		.uleb128 0x9
 3967 01ae 750C0000 		.4byte	.LASF48
 3968 01b2 30       		.byte	0x30
 3969 01b3 09       		.uleb128 0x9
ARM GAS  C:\Users\13740\AppData\Local\Temp\cc4654uj.s 			page 100


 3970 01b4 3C120000 		.4byte	.LASF49
 3971 01b8 31       		.byte	0x31
 3972 01b9 09       		.uleb128 0x9
 3973 01ba 39130000 		.4byte	.LASF50
 3974 01be 32       		.byte	0x32
 3975 01bf 09       		.uleb128 0x9
 3976 01c0 1F100000 		.4byte	.LASF51
 3977 01c4 33       		.byte	0x33
 3978 01c5 09       		.uleb128 0x9
 3979 01c6 DA170000 		.4byte	.LASF52
 3980 01ca 34       		.byte	0x34
 3981 01cb 09       		.uleb128 0x9
 3982 01cc 58010000 		.4byte	.LASF53
 3983 01d0 35       		.byte	0x35
 3984 01d1 09       		.uleb128 0x9
 3985 01d2 F2170000 		.4byte	.LASF54
 3986 01d6 36       		.byte	0x36
 3987 01d7 09       		.uleb128 0x9
 3988 01d8 2C170000 		.4byte	.LASF55
 3989 01dc 37       		.byte	0x37
 3990 01dd 09       		.uleb128 0x9
 3991 01de 6B0D0000 		.4byte	.LASF56
 3992 01e2 40       		.byte	0x40
 3993 01e3 09       		.uleb128 0x9
 3994 01e4 13120000 		.4byte	.LASF57
 3995 01e8 41       		.byte	0x41
 3996 01e9 09       		.uleb128 0x9
 3997 01ea 04010000 		.4byte	.LASF58
 3998 01ee 42       		.byte	0x42
 3999 01ef 09       		.uleb128 0x9
 4000 01f0 82010000 		.4byte	.LASF59
 4001 01f4 43       		.byte	0x43
 4002 01f5 09       		.uleb128 0x9
 4003 01f6 9F080000 		.4byte	.LASF60
 4004 01fa 44       		.byte	0x44
 4005 01fb 09       		.uleb128 0x9
 4006 01fc 5A130000 		.4byte	.LASF61
 4007 0200 45       		.byte	0x45
 4008 0201 09       		.uleb128 0x9
 4009 0202 63180000 		.4byte	.LASF62
 4010 0206 46       		.byte	0x46
 4011 0207 09       		.uleb128 0x9
 4012 0208 8D060000 		.4byte	.LASF63
 4013 020c 47       		.byte	0x47
 4014 020d 09       		.uleb128 0x9
 4015 020e FA060000 		.4byte	.LASF64
 4016 0212 48       		.byte	0x48
 4017 0213 09       		.uleb128 0x9
 4018 0214 74080000 		.4byte	.LASF65
 4019 0218 49       		.byte	0x49
 4020 0219 09       		.uleb128 0x9
 4021 021a 38090000 		.4byte	.LASF66
 4022 021e 4A       		.byte	0x4a
 4023 021f 09       		.uleb128 0x9
 4024 0220 60120000 		.4byte	.LASF67
 4025 0224 4B       		.byte	0x4b
 4026 0225 09       		.uleb128 0x9
ARM GAS  C:\Users\13740\AppData\Local\Temp\cc4654uj.s 			page 101


 4027 0226 1C060000 		.4byte	.LASF68
 4028 022a 4C       		.byte	0x4c
 4029 022b 09       		.uleb128 0x9
 4030 022c E9040000 		.4byte	.LASF69
 4031 0230 4D       		.byte	0x4d
 4032 0231 09       		.uleb128 0x9
 4033 0232 52020000 		.4byte	.LASF70
 4034 0236 4E       		.byte	0x4e
 4035 0237 09       		.uleb128 0x9
 4036 0238 8C130000 		.4byte	.LASF71
 4037 023c 4F       		.byte	0x4f
 4038 023d 09       		.uleb128 0x9
 4039 023e 36070000 		.4byte	.LASF72
 4040 0242 50       		.byte	0x50
 4041 0243 09       		.uleb128 0x9
 4042 0244 55070000 		.4byte	.LASF73
 4043 0248 51       		.byte	0x51
 4044 0249 09       		.uleb128 0x9
 4045 024a 31000000 		.4byte	.LASF74
 4046 024e 52       		.byte	0x52
 4047 024f 09       		.uleb128 0x9
 4048 0250 A1100000 		.4byte	.LASF75
 4049 0254 53       		.byte	0x53
 4050 0255 09       		.uleb128 0x9
 4051 0256 55190000 		.4byte	.LASF76
 4052 025a 54       		.byte	0x54
 4053 025b 09       		.uleb128 0x9
 4054 025c A0010000 		.4byte	.LASF77
 4055 0260 55       		.byte	0x55
 4056 0261 09       		.uleb128 0x9
 4057 0262 0F000000 		.4byte	.LASF78
 4058 0266 56       		.byte	0x56
 4059 0267 09       		.uleb128 0x9
 4060 0268 CD070000 		.4byte	.LASF79
 4061 026c 57       		.byte	0x57
 4062 026d 09       		.uleb128 0x9
 4063 026e 6B150000 		.4byte	.LASF80
 4064 0272 58       		.byte	0x58
 4065 0273 09       		.uleb128 0x9
 4066 0274 F70B0000 		.4byte	.LASF81
 4067 0278 70       		.byte	0x70
 4068 0279 09       		.uleb128 0x9
 4069 027a 74090000 		.4byte	.LASF82
 4070 027e 71       		.byte	0x71
 4071 027f 09       		.uleb128 0x9
 4072 0280 69050000 		.4byte	.LASF83
 4073 0284 72       		.byte	0x72
 4074 0285 09       		.uleb128 0x9
 4075 0286 71140000 		.4byte	.LASF84
 4076 028a 73       		.byte	0x73
 4077 028b 09       		.uleb128 0x9
 4078 028c FC090000 		.4byte	.LASF85
 4079 0290 74       		.byte	0x74
 4080 0291 09       		.uleb128 0x9
 4081 0292 7F120000 		.4byte	.LASF86
 4082 0296 75       		.byte	0x75
 4083 0297 09       		.uleb128 0x9
ARM GAS  C:\Users\13740\AppData\Local\Temp\cc4654uj.s 			page 102


 4084 0298 61170000 		.4byte	.LASF87
 4085 029c 76       		.byte	0x76
 4086 029d 09       		.uleb128 0x9
 4087 029e 190F0000 		.4byte	.LASF88
 4088 02a2 77       		.byte	0x77
 4089 02a3 09       		.uleb128 0x9
 4090 02a4 9A090000 		.4byte	.LASF89
 4091 02a8 78       		.byte	0x78
 4092 02a9 09       		.uleb128 0x9
 4093 02aa 27020000 		.4byte	.LASF90
 4094 02ae 79       		.byte	0x79
 4095 02af 09       		.uleb128 0x9
 4096 02b0 CF150000 		.4byte	.LASF91
 4097 02b4 7A       		.byte	0x7a
 4098 02b5 09       		.uleb128 0x9
 4099 02b6 CB040000 		.4byte	.LASF92
 4100 02ba FA       		.byte	0xfa
 4101 02bb 09       		.uleb128 0x9
 4102 02bc 08020000 		.4byte	.LASF93
 4103 02c0 FB       		.byte	0xfb
 4104 02c1 09       		.uleb128 0x9
 4105 02c2 A10F0000 		.4byte	.LASF94
 4106 02c6 FC       		.byte	0xfc
 4107 02c7 09       		.uleb128 0x9
 4108 02c8 CC080000 		.4byte	.LASF95
 4109 02cc FD       		.byte	0xfd
 4110 02cd 09       		.uleb128 0x9
 4111 02ce 2E120000 		.4byte	.LASF96
 4112 02d2 FF       		.byte	0xff
 4113 02d3 00       		.byte	0
 4114 02d4 08       		.uleb128 0x8
 4115 02d5 02       		.byte	0x2
 4116 02d6 50000000 		.4byte	0x50
 4117 02da 05       		.byte	0x5
 4118 02db 0204     		.2byte	0x402
 4119 02dd AD030000 		.4byte	0x3ad
 4120 02e1 09       		.uleb128 0x9
 4121 02e2 F0180000 		.4byte	.LASF97
 4122 02e6 00       		.byte	0
 4123 02e7 09       		.uleb128 0x9
 4124 02e8 D5120000 		.4byte	.LASF98
 4125 02ec 01       		.byte	0x1
 4126 02ed 09       		.uleb128 0x9
 4127 02ee C4010000 		.4byte	.LASF99
 4128 02f2 02       		.byte	0x2
 4129 02f3 09       		.uleb128 0x9
 4130 02f4 6C0A0000 		.4byte	.LASF100
 4131 02f8 03       		.byte	0x3
 4132 02f9 09       		.uleb128 0x9
 4133 02fa 5A0B0000 		.4byte	.LASF101
 4134 02fe 04       		.byte	0x4
 4135 02ff 09       		.uleb128 0x9
 4136 0300 56090000 		.4byte	.LASF102
 4137 0304 05       		.byte	0x5
 4138 0305 09       		.uleb128 0x9
 4139 0306 8E150000 		.4byte	.LASF103
 4140 030a 06       		.byte	0x6
ARM GAS  C:\Users\13740\AppData\Local\Temp\cc4654uj.s 			page 103


 4141 030b 09       		.uleb128 0x9
 4142 030c 7A020000 		.4byte	.LASF104
 4143 0310 07       		.byte	0x7
 4144 0311 09       		.uleb128 0x9
 4145 0312 84030000 		.4byte	.LASF105
 4146 0316 08       		.byte	0x8
 4147 0317 09       		.uleb128 0x9
 4148 0318 D2000000 		.4byte	.LASF106
 4149 031c 09       		.byte	0x9
 4150 031d 09       		.uleb128 0x9
 4151 031e C2100000 		.4byte	.LASF107
 4152 0322 0A       		.byte	0xa
 4153 0323 09       		.uleb128 0x9
 4154 0324 12080000 		.4byte	.LASF108
 4155 0328 0B       		.byte	0xb
 4156 0329 09       		.uleb128 0x9
 4157 032a 46140000 		.4byte	.LASF109
 4158 032e 0C       		.byte	0xc
 4159 032f 09       		.uleb128 0x9
 4160 0330 740E0000 		.4byte	.LASF110
 4161 0334 0D       		.byte	0xd
 4162 0335 09       		.uleb128 0x9
 4163 0336 F8140000 		.4byte	.LASF111
 4164 033a 0E       		.byte	0xe
 4165 033b 09       		.uleb128 0x9
 4166 033c C60F0000 		.4byte	.LASF112
 4167 0340 0F       		.byte	0xf
 4168 0341 09       		.uleb128 0x9
 4169 0342 220E0000 		.4byte	.LASF113
 4170 0346 10       		.byte	0x10
 4171 0347 09       		.uleb128 0x9
 4172 0348 F6130000 		.4byte	.LASF114
 4173 034c 11       		.byte	0x11
 4174 034d 09       		.uleb128 0x9
 4175 034e BD180000 		.4byte	.LASF115
 4176 0352 12       		.byte	0x12
 4177 0353 09       		.uleb128 0x9
 4178 0354 910D0000 		.4byte	.LASF116
 4179 0358 13       		.byte	0x13
 4180 0359 09       		.uleb128 0x9
 4181 035a 250C0000 		.4byte	.LASF117
 4182 035e 27       		.byte	0x27
 4183 035f 09       		.uleb128 0x9
 4184 0360 1F0B0000 		.4byte	.LASF118
 4185 0364 28       		.byte	0x28
 4186 0365 09       		.uleb128 0x9
 4187 0366 830B0000 		.4byte	.LASF119
 4188 036a 29       		.byte	0x29
 4189 036b 09       		.uleb128 0x9
 4190 036c E7000000 		.4byte	.LASF120
 4191 0370 2A       		.byte	0x2a
 4192 0371 09       		.uleb128 0x9
 4193 0372 910A0000 		.4byte	.LASF121
 4194 0376 2B       		.byte	0x2b
 4195 0377 09       		.uleb128 0x9
 4196 0378 1D110000 		.4byte	.LASF122
 4197 037c 2C       		.byte	0x2c
ARM GAS  C:\Users\13740\AppData\Local\Temp\cc4654uj.s 			page 104


 4198 037d 09       		.uleb128 0x9
 4199 037e A1180000 		.4byte	.LASF123
 4200 0382 FE       		.byte	0xfe
 4201 0383 09       		.uleb128 0x9
 4202 0384 F50D0000 		.4byte	.LASF124
 4203 0388 FF       		.byte	0xff
 4204 0389 0A       		.uleb128 0xa
 4205 038a BC0C0000 		.4byte	.LASF125
 4206 038e 0001     		.2byte	0x100
 4207 0390 0A       		.uleb128 0xa
 4208 0391 32080000 		.4byte	.LASF126
 4209 0395 0101     		.2byte	0x101
 4210 0397 0A       		.uleb128 0xa
 4211 0398 82110000 		.4byte	.LASF127
 4212 039c 0201     		.2byte	0x102
 4213 039e 0A       		.uleb128 0xa
 4214 039f E1030000 		.4byte	.LASF128
 4215 03a3 0301     		.2byte	0x103
 4216 03a5 0A       		.uleb128 0xa
 4217 03a6 D50C0000 		.4byte	.LASF129
 4218 03aa 0401     		.2byte	0x104
 4219 03ac 00       		.byte	0
 4220 03ad 05       		.uleb128 0x5
 4221 03ae B30F0000 		.4byte	.LASF130
 4222 03b2 05       		.byte	0x5
 4223 03b3 7104     		.2byte	0x471
 4224 03b5 D4020000 		.4byte	0x2d4
 4225 03b9 08       		.uleb128 0x8
 4226 03ba 01       		.byte	0x1
 4227 03bb 37000000 		.4byte	0x37
 4228 03bf 05       		.byte	0x5
 4229 03c0 7504     		.2byte	0x475
 4230 03c2 E5030000 		.4byte	0x3e5
 4231 03c6 09       		.uleb128 0x9
 4232 03c7 E1050000 		.4byte	.LASF131
 4233 03cb 01       		.byte	0x1
 4234 03cc 09       		.uleb128 0x9
 4235 03cd 76190000 		.4byte	.LASF132
 4236 03d1 02       		.byte	0x2
 4237 03d2 09       		.uleb128 0x9
 4238 03d3 17130000 		.4byte	.LASF133
 4239 03d7 03       		.byte	0x3
 4240 03d8 09       		.uleb128 0x9
 4241 03d9 16170000 		.4byte	.LASF134
 4242 03dd 04       		.byte	0x4
 4243 03de 09       		.uleb128 0x9
 4244 03df 8D0F0000 		.4byte	.LASF135
 4245 03e3 FF       		.byte	0xff
 4246 03e4 00       		.byte	0
 4247 03e5 05       		.uleb128 0x5
 4248 03e6 A1020000 		.4byte	.LASF136
 4249 03ea 05       		.byte	0x5
 4250 03eb 9104     		.2byte	0x491
 4251 03ed B9030000 		.4byte	0x3b9
 4252 03f1 08       		.uleb128 0x8
 4253 03f2 01       		.byte	0x1
 4254 03f3 37000000 		.4byte	0x37
ARM GAS  C:\Users\13740\AppData\Local\Temp\cc4654uj.s 			page 105


 4255 03f7 05       		.byte	0x5
 4256 03f8 9504     		.2byte	0x495
 4257 03fa 2F040000 		.4byte	0x42f
 4258 03fe 09       		.uleb128 0x9
 4259 03ff AF190000 		.4byte	.LASF137
 4260 0403 01       		.byte	0x1
 4261 0404 09       		.uleb128 0x9
 4262 0405 C8190000 		.4byte	.LASF138
 4263 0409 02       		.byte	0x2
 4264 040a 09       		.uleb128 0x9
 4265 040b AB060000 		.4byte	.LASF139
 4266 040f 03       		.byte	0x3
 4267 0410 09       		.uleb128 0x9
 4268 0411 A0120000 		.4byte	.LASF140
 4269 0415 04       		.byte	0x4
 4270 0416 09       		.uleb128 0x9
 4271 0417 C2160000 		.4byte	.LASF141
 4272 041b 05       		.byte	0x5
 4273 041c 09       		.uleb128 0x9
 4274 041d 2D0D0000 		.4byte	.LASF142
 4275 0421 06       		.byte	0x6
 4276 0422 09       		.uleb128 0x9
 4277 0423 B5130000 		.4byte	.LASF143
 4278 0427 07       		.byte	0x7
 4279 0428 09       		.uleb128 0x9
 4280 0429 F3100000 		.4byte	.LASF144
 4281 042d FF       		.byte	0xff
 4282 042e 00       		.byte	0
 4283 042f 0B       		.uleb128 0xb
 4284 0430 07       		.byte	0x7
 4285 0431 05       		.byte	0x5
 4286 0432 3F05     		.2byte	0x53f
 4287 0434 53040000 		.4byte	0x453
 4288 0438 0C       		.uleb128 0xc
 4289 0439 DF140000 		.4byte	.LASF145
 4290 043d 05       		.byte	0x5
 4291 043e 4205     		.2byte	0x542
 4292 0440 53040000 		.4byte	0x453
 4293 0444 00       		.byte	0
 4294 0445 0C       		.uleb128 0xc
 4295 0446 69160000 		.4byte	.LASF146
 4296 044a 05       		.byte	0x5
 4297 044b 4405     		.2byte	0x544
 4298 044d C3000000 		.4byte	0xc3
 4299 0451 06       		.byte	0x6
 4300 0452 00       		.byte	0
 4301 0453 0D       		.uleb128 0xd
 4302 0454 C3000000 		.4byte	0xc3
 4303 0458 63040000 		.4byte	0x463
 4304 045c 0E       		.uleb128 0xe
 4305 045d 0D010000 		.4byte	0x10d
 4306 0461 05       		.byte	0x5
 4307 0462 00       		.byte	0
 4308 0463 05       		.uleb128 0x5
 4309 0464 E2130000 		.4byte	.LASF147
 4310 0468 05       		.byte	0x5
 4311 0469 4505     		.2byte	0x545
ARM GAS  C:\Users\13740\AppData\Local\Temp\cc4654uj.s 			page 106


 4312 046b 2F040000 		.4byte	0x42f
 4313 046f 0F       		.uleb128 0xf
 4314 0470 04       		.byte	0x4
 4315 0471 C3000000 		.4byte	0xc3
 4316 0475 05       		.uleb128 0x5
 4317 0476 CC0B0000 		.4byte	.LASF148
 4318 047a 06       		.byte	0x6
 4319 047b 8901     		.2byte	0x189
 4320 047d CF000000 		.4byte	0xcf
 4321 0481 0B       		.uleb128 0xb
 4322 0482 02       		.byte	0x2
 4323 0483 06       		.byte	0x6
 4324 0484 9301     		.2byte	0x193
 4325 0486 A5040000 		.4byte	0x4a5
 4326 048a 0C       		.uleb128 0xc
 4327 048b F20E0000 		.4byte	.LASF149
 4328 048f 06       		.byte	0x6
 4329 0490 9A01     		.2byte	0x19a
 4330 0492 C3000000 		.4byte	0xc3
 4331 0496 00       		.byte	0
 4332 0497 0C       		.uleb128 0xc
 4333 0498 93190000 		.4byte	.LASF150
 4334 049c 06       		.byte	0x6
 4335 049d A001     		.2byte	0x1a0
 4336 049f C3000000 		.4byte	0xc3
 4337 04a3 01       		.byte	0x1
 4338 04a4 00       		.byte	0
 4339 04a5 05       		.uleb128 0x5
 4340 04a6 80070000 		.4byte	.LASF151
 4341 04aa 06       		.byte	0x6
 4342 04ab A201     		.2byte	0x1a2
 4343 04ad 81040000 		.4byte	0x481
 4344 04b1 0B       		.uleb128 0xb
 4345 04b2 08       		.byte	0x8
 4346 04b3 06       		.byte	0x6
 4347 04b4 BE01     		.2byte	0x1be
 4348 04b6 E2040000 		.4byte	0x4e2
 4349 04ba 10       		.uleb128 0x10
 4350 04bb 76616C00 		.ascii	"val\000"
 4351 04bf 06       		.byte	0x6
 4352 04c0 C101     		.2byte	0x1c1
 4353 04c2 6F040000 		.4byte	0x46f
 4354 04c6 00       		.byte	0
 4355 04c7 10       		.uleb128 0x10
 4356 04c8 6C656E00 		.ascii	"len\000"
 4357 04cc 06       		.byte	0x6
 4358 04cd C401     		.2byte	0x1c4
 4359 04cf CF000000 		.4byte	0xcf
 4360 04d3 04       		.byte	0x4
 4361 04d4 0C       		.uleb128 0xc
 4362 04d5 AB130000 		.4byte	.LASF152
 4363 04d9 06       		.byte	0x6
 4364 04da CB01     		.2byte	0x1cb
 4365 04dc CF000000 		.4byte	0xcf
 4366 04e0 06       		.byte	0x6
 4367 04e1 00       		.byte	0
 4368 04e2 05       		.uleb128 0x5
ARM GAS  C:\Users\13740\AppData\Local\Temp\cc4654uj.s 			page 107


 4369 04e3 9F0B0000 		.4byte	.LASF153
 4370 04e7 06       		.byte	0x6
 4371 04e8 CD01     		.2byte	0x1cd
 4372 04ea B1040000 		.4byte	0x4b1
 4373 04ee 0B       		.uleb128 0xb
 4374 04ef 0C       		.byte	0xc
 4375 04f0 06       		.byte	0x6
 4376 04f1 D001     		.2byte	0x1d0
 4377 04f3 12050000 		.4byte	0x512
 4378 04f7 0C       		.uleb128 0xc
 4379 04f8 21070000 		.4byte	.LASF154
 4380 04fc 06       		.byte	0x6
 4381 04fd D301     		.2byte	0x1d3
 4382 04ff E2040000 		.4byte	0x4e2
 4383 0503 00       		.byte	0
 4384 0504 0C       		.uleb128 0xc
 4385 0505 09090000 		.4byte	.LASF155
 4386 0509 06       		.byte	0x6
 4387 050a D601     		.2byte	0x1d6
 4388 050c 75040000 		.4byte	0x475
 4389 0510 08       		.byte	0x8
 4390 0511 00       		.byte	0
 4391 0512 05       		.uleb128 0x5
 4392 0513 B0150000 		.4byte	.LASF156
 4393 0517 06       		.byte	0x6
 4394 0518 D801     		.2byte	0x1d8
 4395 051a EE040000 		.4byte	0x4ee
 4396 051e 03       		.uleb128 0x3
 4397 051f 94070000 		.4byte	.LASF157
 4398 0523 07       		.byte	0x7
 4399 0524 34       		.byte	0x34
 4400 0525 12050000 		.4byte	0x512
 4401 0529 08       		.uleb128 0x8
 4402 052a 01       		.byte	0x1
 4403 052b 37000000 		.4byte	0x37
 4404 052f 08       		.byte	0x8
 4405 0530 5008     		.2byte	0x850
 4406 0532 55050000 		.4byte	0x555
 4407 0536 09       		.uleb128 0x9
 4408 0537 53060000 		.4byte	.LASF158
 4409 053b 00       		.byte	0
 4410 053c 09       		.uleb128 0x9
 4411 053d D00D0000 		.4byte	.LASF159
 4412 0541 01       		.byte	0x1
 4413 0542 09       		.uleb128 0x9
 4414 0543 C3060000 		.4byte	.LASF160
 4415 0547 02       		.byte	0x2
 4416 0548 09       		.uleb128 0x9
 4417 0549 1A1A0000 		.4byte	.LASF161
 4418 054d 03       		.byte	0x3
 4419 054e 09       		.uleb128 0x9
 4420 054f 380F0000 		.4byte	.LASF162
 4421 0553 04       		.byte	0x4
 4422 0554 00       		.byte	0
 4423 0555 05       		.uleb128 0x5
 4424 0556 1A0A0000 		.4byte	.LASF163
 4425 055a 08       		.byte	0x8
ARM GAS  C:\Users\13740\AppData\Local\Temp\cc4654uj.s 			page 108


 4426 055b 5E08     		.2byte	0x85e
 4427 055d 29050000 		.4byte	0x529
 4428 0561 05       		.uleb128 0x5
 4429 0562 97180000 		.4byte	.LASF164
 4430 0566 09       		.byte	0x9
 4431 0567 7210     		.2byte	0x1072
 4432 0569 AD000000 		.4byte	0xad
 4433 056d 08       		.uleb128 0x8
 4434 056e 01       		.byte	0x1
 4435 056f 37000000 		.4byte	0x37
 4436 0573 09       		.byte	0x9
 4437 0574 7810     		.2byte	0x1078
 4438 0576 87050000 		.4byte	0x587
 4439 057a 09       		.uleb128 0x9
 4440 057b EB0E0000 		.4byte	.LASF165
 4441 057f 00       		.byte	0
 4442 0580 09       		.uleb128 0x9
 4443 0581 7D0B0000 		.4byte	.LASF166
 4444 0585 01       		.byte	0x1
 4445 0586 00       		.byte	0
 4446 0587 05       		.uleb128 0x5
 4447 0588 EB0F0000 		.4byte	.LASF167
 4448 058c 09       		.byte	0x9
 4449 058d 7A10     		.2byte	0x107a
 4450 058f 6D050000 		.4byte	0x56d
 4451 0593 0B       		.uleb128 0xb
 4452 0594 14       		.byte	0x14
 4453 0595 09       		.byte	0x9
 4454 0596 9C11     		.2byte	0x119c
 4455 0598 DE050000 		.4byte	0x5de
 4456 059c 0C       		.uleb128 0xc
 4457 059d 6E080000 		.4byte	.LASF168
 4458 05a1 09       		.byte	0x9
 4459 05a2 9E11     		.2byte	0x119e
 4460 05a4 B8000000 		.4byte	0xb8
 4461 05a8 00       		.byte	0
 4462 05a9 0C       		.uleb128 0xc
 4463 05aa 48060000 		.4byte	.LASF169
 4464 05ae 09       		.byte	0x9
 4465 05af 9F11     		.2byte	0x119f
 4466 05b1 B8000000 		.4byte	0xb8
 4467 05b5 04       		.byte	0x4
 4468 05b6 0C       		.uleb128 0xc
 4469 05b7 55100000 		.4byte	.LASF170
 4470 05bb 09       		.byte	0x9
 4471 05bc A011     		.2byte	0x11a0
 4472 05be B8000000 		.4byte	0xb8
 4473 05c2 08       		.byte	0x8
 4474 05c3 0C       		.uleb128 0xc
 4475 05c4 CB120000 		.4byte	.LASF171
 4476 05c8 09       		.byte	0x9
 4477 05c9 A111     		.2byte	0x11a1
 4478 05cb 87050000 		.4byte	0x587
 4479 05cf 0C       		.byte	0xc
 4480 05d0 0C       		.uleb128 0xc
 4481 05d1 321A0000 		.4byte	.LASF172
 4482 05d5 09       		.byte	0x9
ARM GAS  C:\Users\13740\AppData\Local\Temp\cc4654uj.s 			page 109


 4483 05d6 A211     		.2byte	0x11a2
 4484 05d8 DE050000 		.4byte	0x5de
 4485 05dc 10       		.byte	0x10
 4486 05dd 00       		.byte	0
 4487 05de 0F       		.uleb128 0xf
 4488 05df 04       		.byte	0x4
 4489 05e0 E4050000 		.4byte	0x5e4
 4490 05e4 11       		.uleb128 0x11
 4491 05e5 B8000000 		.4byte	0xb8
 4492 05e9 05       		.uleb128 0x5
 4493 05ea 14090000 		.4byte	.LASF173
 4494 05ee 09       		.byte	0x9
 4495 05ef A311     		.2byte	0x11a3
 4496 05f1 93050000 		.4byte	0x593
 4497 05f5 0B       		.uleb128 0xb
 4498 05f6 08       		.byte	0x8
 4499 05f7 09       		.byte	0x9
 4500 05f8 7412     		.2byte	0x1274
 4501 05fa 19060000 		.4byte	0x619
 4502 05fe 0C       		.uleb128 0xc
 4503 05ff F3150000 		.4byte	.LASF174
 4504 0603 09       		.byte	0x9
 4505 0604 7612     		.2byte	0x1276
 4506 0606 E7000000 		.4byte	0xe7
 4507 060a 00       		.byte	0
 4508 060b 0C       		.uleb128 0xc
 4509 060c BC040000 		.4byte	.LASF175
 4510 0610 09       		.byte	0x9
 4511 0611 7712     		.2byte	0x1277
 4512 0613 E7000000 		.4byte	0xe7
 4513 0617 04       		.byte	0x4
 4514 0618 00       		.byte	0
 4515 0619 05       		.uleb128 0x5
 4516 061a 550C0000 		.4byte	.LASF176
 4517 061e 09       		.byte	0x9
 4518 061f 7812     		.2byte	0x1278
 4519 0621 F5050000 		.4byte	0x5f5
 4520 0625 12       		.uleb128 0x12
 4521 0626 A0       		.byte	0xa0
 4522 0627 0A       		.byte	0xa
 4523 0628 1F       		.byte	0x1f
 4524 0629 AE070000 		.4byte	0x7ae
 4525 062d 13       		.uleb128 0x13
 4526 062e A9050000 		.4byte	.LASF177
 4527 0632 0A       		.byte	0xa
 4528 0633 22       		.byte	0x22
 4529 0634 87050000 		.4byte	0x587
 4530 0638 00       		.byte	0
 4531 0639 13       		.uleb128 0x13
 4532 063a 051A0000 		.4byte	.LASF178
 4533 063e 0A       		.byte	0xa
 4534 063f 23       		.byte	0x23
 4535 0640 B8000000 		.4byte	0xb8
 4536 0644 04       		.byte	0x4
 4537 0645 13       		.uleb128 0x13
 4538 0646 95080000 		.4byte	.LASF179
 4539 064a 0A       		.byte	0xa
ARM GAS  C:\Users\13740\AppData\Local\Temp\cc4654uj.s 			page 110


 4540 064b 24       		.byte	0x24
 4541 064c B8000000 		.4byte	0xb8
 4542 0650 08       		.byte	0x8
 4543 0651 13       		.uleb128 0x13
 4544 0652 03120000 		.4byte	.LASF180
 4545 0656 0A       		.byte	0xa
 4546 0657 25       		.byte	0x25
 4547 0658 B8000000 		.4byte	0xb8
 4548 065c 0C       		.byte	0xc
 4549 065d 13       		.uleb128 0x13
 4550 065e ED110000 		.4byte	.LASF181
 4551 0662 0A       		.byte	0xa
 4552 0663 26       		.byte	0x26
 4553 0664 B8000000 		.4byte	0xb8
 4554 0668 10       		.byte	0x10
 4555 0669 13       		.uleb128 0x13
 4556 066a 2D130000 		.4byte	.LASF182
 4557 066e 0A       		.byte	0xa
 4558 066f 29       		.byte	0x29
 4559 0670 87050000 		.4byte	0x587
 4560 0674 14       		.byte	0x14
 4561 0675 13       		.uleb128 0x13
 4562 0676 B1040000 		.4byte	.LASF183
 4563 067a 0A       		.byte	0xa
 4564 067b 2A       		.byte	0x2a
 4565 067c E7000000 		.4byte	0xe7
 4566 0680 18       		.byte	0x18
 4567 0681 13       		.uleb128 0x13
 4568 0682 160E0000 		.4byte	.LASF184
 4569 0686 0A       		.byte	0xa
 4570 0687 2B       		.byte	0x2b
 4571 0688 E7000000 		.4byte	0xe7
 4572 068c 1C       		.byte	0x1c
 4573 068d 13       		.uleb128 0x13
 4574 068e A0040000 		.4byte	.LASF185
 4575 0692 0A       		.byte	0xa
 4576 0693 2C       		.byte	0x2c
 4577 0694 E7000000 		.4byte	0xe7
 4578 0698 20       		.byte	0x20
 4579 0699 13       		.uleb128 0x13
 4580 069a C40A0000 		.4byte	.LASF186
 4581 069e 0A       		.byte	0xa
 4582 069f 2D       		.byte	0x2d
 4583 06a0 B8000000 		.4byte	0xb8
 4584 06a4 24       		.byte	0x24
 4585 06a5 13       		.uleb128 0x13
 4586 06a6 A8190000 		.4byte	.LASF187
 4587 06aa 0A       		.byte	0xa
 4588 06ab 2E       		.byte	0x2e
 4589 06ac E7000000 		.4byte	0xe7
 4590 06b0 28       		.byte	0x28
 4591 06b1 13       		.uleb128 0x13
 4592 06b2 21090000 		.4byte	.LASF188
 4593 06b6 0A       		.byte	0xa
 4594 06b7 2F       		.byte	0x2f
 4595 06b8 AD000000 		.4byte	0xad
 4596 06bc 2C       		.byte	0x2c
ARM GAS  C:\Users\13740\AppData\Local\Temp\cc4654uj.s 			page 111


 4597 06bd 13       		.uleb128 0x13
 4598 06be F4050000 		.4byte	.LASF189
 4599 06c2 0A       		.byte	0xa
 4600 06c3 30       		.byte	0x30
 4601 06c4 E7000000 		.4byte	0xe7
 4602 06c8 30       		.byte	0x30
 4603 06c9 13       		.uleb128 0x13
 4604 06ca 66140000 		.4byte	.LASF190
 4605 06ce 0A       		.byte	0xa
 4606 06cf 31       		.byte	0x31
 4607 06d0 E7000000 		.4byte	0xe7
 4608 06d4 34       		.byte	0x34
 4609 06d5 13       		.uleb128 0x13
 4610 06d6 07040000 		.4byte	.LASF191
 4611 06da 0A       		.byte	0xa
 4612 06db 32       		.byte	0x32
 4613 06dc B8000000 		.4byte	0xb8
 4614 06e0 38       		.byte	0x38
 4615 06e1 13       		.uleb128 0x13
 4616 06e2 D6030000 		.4byte	.LASF192
 4617 06e6 0A       		.byte	0xa
 4618 06e7 33       		.byte	0x33
 4619 06e8 B8000000 		.4byte	0xb8
 4620 06ec 3C       		.byte	0x3c
 4621 06ed 13       		.uleb128 0x13
 4622 06ee 36050000 		.4byte	.LASF193
 4623 06f2 0A       		.byte	0xa
 4624 06f3 34       		.byte	0x34
 4625 06f4 97000000 		.4byte	0x97
 4626 06f8 40       		.byte	0x40
 4627 06f9 13       		.uleb128 0x13
 4628 06fa E7100000 		.4byte	.LASF194
 4629 06fe 0A       		.byte	0xa
 4630 06ff 35       		.byte	0x35
 4631 0700 97000000 		.4byte	0x97
 4632 0704 41       		.byte	0x41
 4633 0705 13       		.uleb128 0x13
 4634 0706 0E040000 		.4byte	.LASF195
 4635 070a 0A       		.byte	0xa
 4636 070b 36       		.byte	0x36
 4637 070c B8000000 		.4byte	0xb8
 4638 0710 44       		.byte	0x44
 4639 0711 13       		.uleb128 0x13
 4640 0712 2B090000 		.4byte	.LASF196
 4641 0716 0A       		.byte	0xa
 4642 0717 37       		.byte	0x37
 4643 0718 B8000000 		.4byte	0xb8
 4644 071c 48       		.byte	0x48
 4645 071d 13       		.uleb128 0x13
 4646 071e BD070000 		.4byte	.LASF197
 4647 0722 0A       		.byte	0xa
 4648 0723 38       		.byte	0x38
 4649 0724 B8000000 		.4byte	0xb8
 4650 0728 4C       		.byte	0x4c
 4651 0729 13       		.uleb128 0x13
 4652 072a 48180000 		.4byte	.LASF198
 4653 072e 0A       		.byte	0xa
ARM GAS  C:\Users\13740\AppData\Local\Temp\cc4654uj.s 			page 112


 4654 072f 39       		.byte	0x39
 4655 0730 B8000000 		.4byte	0xb8
 4656 0734 50       		.byte	0x50
 4657 0735 13       		.uleb128 0x13
 4658 0736 2A010000 		.4byte	.LASF199
 4659 073a 0A       		.byte	0xa
 4660 073b 3A       		.byte	0x3a
 4661 073c 19060000 		.4byte	0x619
 4662 0740 54       		.byte	0x54
 4663 0741 13       		.uleb128 0x13
 4664 0742 52000000 		.4byte	.LASF200
 4665 0746 0A       		.byte	0xa
 4666 0747 3B       		.byte	0x3b
 4667 0748 E7000000 		.4byte	0xe7
 4668 074c 5C       		.byte	0x5c
 4669 074d 13       		.uleb128 0x13
 4670 074e D0110000 		.4byte	.LASF201
 4671 0752 0A       		.byte	0xa
 4672 0753 3C       		.byte	0x3c
 4673 0754 E7000000 		.4byte	0xe7
 4674 0758 60       		.byte	0x60
 4675 0759 13       		.uleb128 0x13
 4676 075a 960C0000 		.4byte	.LASF202
 4677 075e 0A       		.byte	0xa
 4678 075f 3D       		.byte	0x3d
 4679 0760 87050000 		.4byte	0x587
 4680 0764 64       		.byte	0x64
 4681 0765 13       		.uleb128 0x13
 4682 0766 C7000000 		.4byte	.LASF203
 4683 076a 0A       		.byte	0xa
 4684 076b 3E       		.byte	0x3e
 4685 076c E7000000 		.4byte	0xe7
 4686 0770 68       		.byte	0x68
 4687 0771 13       		.uleb128 0x13
 4688 0772 400A0000 		.4byte	.LASF204
 4689 0776 0A       		.byte	0xa
 4690 0777 3F       		.byte	0x3f
 4691 0778 87050000 		.4byte	0x587
 4692 077c 6C       		.byte	0x6c
 4693 077d 13       		.uleb128 0x13
 4694 077e 61030000 		.4byte	.LASF205
 4695 0782 0A       		.byte	0xa
 4696 0783 40       		.byte	0x40
 4697 0784 E9050000 		.4byte	0x5e9
 4698 0788 70       		.byte	0x70
 4699 0789 13       		.uleb128 0x13
 4700 078a 64110000 		.4byte	.LASF206
 4701 078e 0A       		.byte	0xa
 4702 078f 41       		.byte	0x41
 4703 0790 E9050000 		.4byte	0x5e9
 4704 0794 84       		.byte	0x84
 4705 0795 13       		.uleb128 0x13
 4706 0796 1A040000 		.4byte	.LASF207
 4707 079a 0A       		.byte	0xa
 4708 079b 42       		.byte	0x42
 4709 079c 87050000 		.4byte	0x587
 4710 07a0 98       		.byte	0x98
ARM GAS  C:\Users\13740\AppData\Local\Temp\cc4654uj.s 			page 113


 4711 07a1 13       		.uleb128 0x13
 4712 07a2 B90D0000 		.4byte	.LASF208
 4713 07a6 0A       		.byte	0xa
 4714 07a7 43       		.byte	0x43
 4715 07a8 B8000000 		.4byte	0xb8
 4716 07ac 9C       		.byte	0x9c
 4717 07ad 00       		.byte	0
 4718 07ae 03       		.uleb128 0x3
 4719 07af 52030000 		.4byte	.LASF209
 4720 07b3 0A       		.byte	0xa
 4721 07b4 45       		.byte	0x45
 4722 07b5 25060000 		.4byte	0x625
 4723 07b9 12       		.uleb128 0x12
 4724 07ba 08       		.byte	0x8
 4725 07bb 0A       		.byte	0xa
 4726 07bc 4A       		.byte	0x4a
 4727 07bd DA070000 		.4byte	0x7da
 4728 07c1 13       		.uleb128 0x13
 4729 07c2 4A020000 		.4byte	.LASF210
 4730 07c6 0A       		.byte	0xa
 4731 07c7 4C       		.byte	0x4c
 4732 07c8 E7000000 		.4byte	0xe7
 4733 07cc 00       		.byte	0
 4734 07cd 13       		.uleb128 0x13
 4735 07ce 67060000 		.4byte	.LASF211
 4736 07d2 0A       		.byte	0xa
 4737 07d3 4D       		.byte	0x4d
 4738 07d4 E7000000 		.4byte	0xe7
 4739 07d8 04       		.byte	0x4
 4740 07d9 00       		.byte	0
 4741 07da 03       		.uleb128 0x3
 4742 07db 6F060000 		.4byte	.LASF212
 4743 07df 0A       		.byte	0xa
 4744 07e0 4E       		.byte	0x4e
 4745 07e1 B9070000 		.4byte	0x7b9
 4746 07e5 12       		.uleb128 0x12
 4747 07e6 20       		.byte	0x20
 4748 07e7 01       		.byte	0x1
 4749 07e8 23       		.byte	0x23
 4750 07e9 4E080000 		.4byte	0x84e
 4751 07ed 13       		.uleb128 0x13
 4752 07ee 4A0A0000 		.4byte	.LASF213
 4753 07f2 01       		.byte	0x1
 4754 07f3 24       		.byte	0x24
 4755 07f4 E7000000 		.4byte	0xe7
 4756 07f8 00       		.byte	0
 4757 07f9 13       		.uleb128 0x13
 4758 07fa 8D080000 		.4byte	.LASF214
 4759 07fe 01       		.byte	0x1
 4760 07ff 25       		.byte	0x25
 4761 0800 E7000000 		.4byte	0xe7
 4762 0804 04       		.byte	0x4
 4763 0805 13       		.uleb128 0x13
 4764 0806 22010000 		.4byte	.LASF215
 4765 080a 01       		.byte	0x1
 4766 080b 26       		.byte	0x26
 4767 080c E7000000 		.4byte	0xe7
ARM GAS  C:\Users\13740\AppData\Local\Temp\cc4654uj.s 			page 114


 4768 0810 08       		.byte	0x8
 4769 0811 13       		.uleb128 0x13
 4770 0812 500E0000 		.4byte	.LASF216
 4771 0816 01       		.byte	0x1
 4772 0817 27       		.byte	0x27
 4773 0818 E7000000 		.4byte	0xe7
 4774 081c 0C       		.byte	0xc
 4775 081d 13       		.uleb128 0x13
 4776 081e 13180000 		.4byte	.LASF217
 4777 0822 01       		.byte	0x1
 4778 0823 28       		.byte	0x28
 4779 0824 DB000000 		.4byte	0xdb
 4780 0828 10       		.byte	0x10
 4781 0829 13       		.uleb128 0x13
 4782 082a 620C0000 		.4byte	.LASF218
 4783 082e 01       		.byte	0x1
 4784 082f 2B       		.byte	0x2b
 4785 0830 E7000000 		.4byte	0xe7
 4786 0834 14       		.byte	0x14
 4787 0835 13       		.uleb128 0x13
 4788 0836 8E100000 		.4byte	.LASF219
 4789 083a 01       		.byte	0x1
 4790 083b 2C       		.byte	0x2c
 4791 083c E7000000 		.4byte	0xe7
 4792 0840 18       		.byte	0x18
 4793 0841 13       		.uleb128 0x13
 4794 0842 5B0D0000 		.4byte	.LASF220
 4795 0846 01       		.byte	0x1
 4796 0847 2D       		.byte	0x2d
 4797 0848 E7000000 		.4byte	0xe7
 4798 084c 1C       		.byte	0x1c
 4799 084d 00       		.byte	0
 4800 084e 03       		.uleb128 0x3
 4801 084f B5160000 		.4byte	.LASF221
 4802 0853 01       		.byte	0x1
 4803 0854 2E       		.byte	0x2e
 4804 0855 E5070000 		.4byte	0x7e5
 4805 0859 14       		.uleb128 0x14
 4806 085a 01       		.byte	0x1
 4807 085b 37000000 		.4byte	0x37
 4808 085f 01       		.byte	0x1
 4809 0860 33       		.byte	0x33
 4810 0861 7E080000 		.4byte	0x87e
 4811 0865 09       		.uleb128 0x9
 4812 0866 27070000 		.4byte	.LASF222
 4813 086a 00       		.byte	0
 4814 086b 09       		.uleb128 0x9
 4815 086c 00000000 		.4byte	.LASF223
 4816 0870 01       		.byte	0x1
 4817 0871 09       		.uleb128 0x9
 4818 0872 050E0000 		.4byte	.LASF224
 4819 0876 02       		.byte	0x2
 4820 0877 09       		.uleb128 0x9
 4821 0878 5C160000 		.4byte	.LASF225
 4822 087c 03       		.byte	0x3
 4823 087d 00       		.byte	0
 4824 087e 03       		.uleb128 0x3
ARM GAS  C:\Users\13740\AppData\Local\Temp\cc4654uj.s 			page 115


 4825 087f E4080000 		.4byte	.LASF226
 4826 0883 01       		.byte	0x1
 4827 0884 38       		.byte	0x38
 4828 0885 59080000 		.4byte	0x859
 4829 0889 08       		.uleb128 0x8
 4830 088a 01       		.byte	0x1
 4831 088b 37000000 		.4byte	0x37
 4832 088f 01       		.byte	0x1
 4833 0890 AF03     		.2byte	0x3af
 4834 0892 BB080000 		.4byte	0x8bb
 4835 0896 09       		.uleb128 0x9
 4836 0897 6D030000 		.4byte	.LASF227
 4837 089b 00       		.byte	0
 4838 089c 09       		.uleb128 0x9
 4839 089d E40A0000 		.4byte	.LASF228
 4840 08a1 01       		.byte	0x1
 4841 08a2 09       		.uleb128 0x9
 4842 08a3 D1130000 		.4byte	.LASF229
 4843 08a7 02       		.byte	0x2
 4844 08a8 09       		.uleb128 0x9
 4845 08a9 99190000 		.4byte	.LASF230
 4846 08ad 03       		.byte	0x3
 4847 08ae 09       		.uleb128 0x9
 4848 08af 4B080000 		.4byte	.LASF231
 4849 08b3 04       		.byte	0x4
 4850 08b4 09       		.uleb128 0x9
 4851 08b5 C8090000 		.4byte	.LASF232
 4852 08b9 05       		.byte	0x5
 4853 08ba 00       		.byte	0
 4854 08bb 05       		.uleb128 0x5
 4855 08bc B0000000 		.4byte	.LASF233
 4856 08c0 01       		.byte	0x1
 4857 08c1 B603     		.2byte	0x3b6
 4858 08c3 89080000 		.4byte	0x889
 4859 08c7 08       		.uleb128 0x8
 4860 08c8 01       		.byte	0x1
 4861 08c9 37000000 		.4byte	0x37
 4862 08cd 01       		.byte	0x1
 4863 08ce 7404     		.2byte	0x474
 4864 08d0 23090000 		.4byte	0x923
 4865 08d4 09       		.uleb128 0x9
 4866 08d5 B2170000 		.4byte	.LASF234
 4867 08d9 00       		.byte	0
 4868 08da 09       		.uleb128 0x9
 4869 08db 020F0000 		.4byte	.LASF235
 4870 08df 01       		.byte	0x1
 4871 08e0 09       		.uleb128 0x9
 4872 08e1 85050000 		.4byte	.LASF236
 4873 08e5 02       		.byte	0x2
 4874 08e6 09       		.uleb128 0x9
 4875 08e7 E0180000 		.4byte	.LASF237
 4876 08eb 03       		.byte	0x3
 4877 08ec 09       		.uleb128 0x9
 4878 08ed EA060000 		.4byte	.LASF238
 4879 08f1 04       		.byte	0x4
 4880 08f2 09       		.uleb128 0x9
 4881 08f3 46100000 		.4byte	.LASF239
ARM GAS  C:\Users\13740\AppData\Local\Temp\cc4654uj.s 			page 116


 4882 08f7 05       		.byte	0x5
 4883 08f8 09       		.uleb128 0x9
 4884 08f9 0D110000 		.4byte	.LASF240
 4885 08fd 06       		.byte	0x6
 4886 08fe 09       		.uleb128 0x9
 4887 08ff 5C100000 		.4byte	.LASF241
 4888 0903 07       		.byte	0x7
 4889 0904 09       		.uleb128 0x9
 4890 0905 4C0B0000 		.4byte	.LASF242
 4891 0909 08       		.byte	0x8
 4892 090a 09       		.uleb128 0x9
 4893 090b EC0C0000 		.4byte	.LASF243
 4894 090f 09       		.byte	0x9
 4895 0910 09       		.uleb128 0x9
 4896 0911 19160000 		.4byte	.LASF244
 4897 0915 0A       		.byte	0xa
 4898 0916 09       		.uleb128 0x9
 4899 0917 1D180000 		.4byte	.LASF245
 4900 091b 0B       		.byte	0xb
 4901 091c 09       		.uleb128 0x9
 4902 091d 33190000 		.4byte	.LASF246
 4903 0921 0C       		.byte	0xc
 4904 0922 00       		.byte	0
 4905 0923 05       		.uleb128 0x5
 4906 0924 E90D0000 		.4byte	.LASF247
 4907 0928 01       		.byte	0x1
 4908 0929 8204     		.2byte	0x482
 4909 092b C7080000 		.4byte	0x8c7
 4910 092f 0B       		.uleb128 0xb
 4911 0930 08       		.byte	0x8
 4912 0931 01       		.byte	0x1
 4913 0932 8804     		.2byte	0x488
 4914 0934 53090000 		.4byte	0x953
 4915 0938 0C       		.uleb128 0xc
 4916 0939 DB110000 		.4byte	.LASF248
 4917 093d 01       		.byte	0x1
 4918 093e 8904     		.2byte	0x489
 4919 0940 A2000000 		.4byte	0xa2
 4920 0944 00       		.byte	0
 4921 0945 0C       		.uleb128 0xc
 4922 0946 3F060000 		.4byte	.LASF249
 4923 094a 01       		.byte	0x1
 4924 094b 8A04     		.2byte	0x48a
 4925 094d B8000000 		.4byte	0xb8
 4926 0951 04       		.byte	0x4
 4927 0952 00       		.byte	0
 4928 0953 15       		.uleb128 0x15
 4929 0954 B9120000 		.4byte	.LASF270
 4930 0958 01       		.byte	0x1
 4931 0959 49       		.byte	0x49
 4932 095a 00000000 		.4byte	.LFB36
 4933 095e 24030000 		.4byte	.LFE36-.LFB36
 4934 0962 01       		.uleb128 0x1
 4935 0963 9C       		.byte	0x9c
 4936 0964 B9090000 		.4byte	0x9b9
 4937 0968 16       		.uleb128 0x16
 4938 0969 D0030000 		.4byte	.LASF250
ARM GAS  C:\Users\13740\AppData\Local\Temp\cc4654uj.s 			page 117


 4939 096d 01       		.byte	0x1
 4940 096e 4B       		.byte	0x4b
 4941 096f 61050000 		.4byte	0x561
 4942 0973 02       		.uleb128 0x2
 4943 0974 91       		.byte	0x91
 4944 0975 64       		.sleb128 -28
 4945 0976 16       		.uleb128 0x16
 4946 0977 9E0C0000 		.4byte	.LASF251
 4947 097b 01       		.byte	0x1
 4948 097c 74       		.byte	0x74
 4949 097d B8000000 		.4byte	0xb8
 4950 0981 02       		.uleb128 0x2
 4951 0982 91       		.byte	0x91
 4952 0983 6C       		.sleb128 -20
 4953 0984 16       		.uleb128 0x16
 4954 0985 70040000 		.4byte	.LASF252
 4955 0989 01       		.byte	0x1
 4956 098a 75       		.byte	0x75
 4957 098b B8000000 		.4byte	0xb8
 4958 098f 02       		.uleb128 0x2
 4959 0990 91       		.byte	0x91
 4960 0991 68       		.sleb128 -24
 4961 0992 16       		.uleb128 0x16
 4962 0993 C70D0000 		.4byte	.LASF253
 4963 0997 01       		.byte	0x1
 4964 0998 76       		.byte	0x76
 4965 0999 97000000 		.4byte	0x97
 4966 099d 02       		.uleb128 0x2
 4967 099e 91       		.byte	0x91
 4968 099f 77       		.sleb128 -9
 4969 09a0 17       		.uleb128 0x17
 4970 09a1 84000000 		.4byte	.LBB2
 4971 09a5 98000000 		.4byte	.LBE2-.LBB2
 4972 09a9 16       		.uleb128 0x16
 4973 09aa 170D0000 		.4byte	.LASF254
 4974 09ae 01       		.byte	0x1
 4975 09af 79       		.byte	0x79
 4976 09b0 89000000 		.4byte	0x89
 4977 09b4 02       		.uleb128 0x2
 4978 09b5 91       		.byte	0x91
 4979 09b6 70       		.sleb128 -16
 4980 09b7 00       		.byte	0
 4981 09b8 00       		.byte	0
 4982 09b9 18       		.uleb128 0x18
 4983 09ba 42010000 		.4byte	.LASF276
 4984 09be 01       		.byte	0x1
 4985 09bf F8       		.byte	0xf8
 4986 09c0 00000000 		.4byte	.LFB37
 4987 09c4 E4000000 		.4byte	.LFE37-.LFB37
 4988 09c8 01       		.uleb128 0x1
 4989 09c9 9C       		.byte	0x9c
 4990 09ca 19       		.uleb128 0x19
 4991 09cb 5A0E0000 		.4byte	.LASF257
 4992 09cf 01       		.byte	0x1
 4993 09d0 1401     		.2byte	0x114
 4994 09d2 E7000000 		.4byte	0xe7
 4995 09d6 00000000 		.4byte	.LFB38
ARM GAS  C:\Users\13740\AppData\Local\Temp\cc4654uj.s 			page 118


 4996 09da 7C000000 		.4byte	.LFE38-.LFB38
 4997 09de 01       		.uleb128 0x1
 4998 09df 9C       		.byte	0x9c
 4999 09e0 210A0000 		.4byte	0xa21
 5000 09e4 1A       		.uleb128 0x1a
 5001 09e5 88190000 		.4byte	.LASF259
 5002 09e9 01       		.byte	0x1
 5003 09ea 1401     		.2byte	0x114
 5004 09ec 7E080000 		.4byte	0x87e
 5005 09f0 02       		.uleb128 0x2
 5006 09f1 91       		.byte	0x91
 5007 09f2 67       		.sleb128 -25
 5008 09f3 1B       		.uleb128 0x1b
 5009 09f4 FD0A0000 		.4byte	.LASF255
 5010 09f8 01       		.byte	0x1
 5011 09f9 1601     		.2byte	0x116
 5012 09fb E7000000 		.4byte	0xe7
 5013 09ff 02       		.uleb128 0x2
 5014 0a00 91       		.byte	0x91
 5015 0a01 74       		.sleb128 -12
 5016 0a02 1B       		.uleb128 0x1b
 5017 0a03 AB160000 		.4byte	.LASF256
 5018 0a07 01       		.byte	0x1
 5019 0a08 1701     		.2byte	0x117
 5020 0a0a B8000000 		.4byte	0xb8
 5021 0a0e 02       		.uleb128 0x2
 5022 0a0f 91       		.byte	0x91
 5023 0a10 6C       		.sleb128 -20
 5024 0a11 1B       		.uleb128 0x1b
 5025 0a12 D0030000 		.4byte	.LASF250
 5026 0a16 01       		.byte	0x1
 5027 0a17 1801     		.2byte	0x118
 5028 0a19 61050000 		.4byte	0x561
 5029 0a1d 02       		.uleb128 0x2
 5030 0a1e 91       		.byte	0x91
 5031 0a1f 70       		.sleb128 -16
 5032 0a20 00       		.byte	0
 5033 0a21 19       		.uleb128 0x19
 5034 0a22 BC170000 		.4byte	.LASF258
 5035 0a26 01       		.byte	0x1
 5036 0a27 4001     		.2byte	0x140
 5037 0a29 E7000000 		.4byte	0xe7
 5038 0a2d 00000000 		.4byte	.LFB39
 5039 0a31 AC000000 		.4byte	.LFE39-.LFB39
 5040 0a35 01       		.uleb128 0x1
 5041 0a36 9C       		.byte	0x9c
 5042 0a37 690A0000 		.4byte	0xa69
 5043 0a3b 1A       		.uleb128 0x1a
 5044 0a3c 4A190000 		.4byte	.LASF260
 5045 0a40 01       		.byte	0x1
 5046 0a41 4001     		.2byte	0x140
 5047 0a43 E7000000 		.4byte	0xe7
 5048 0a47 02       		.uleb128 0x2
 5049 0a48 91       		.byte	0x91
 5050 0a49 64       		.sleb128 -28
 5051 0a4a 1A       		.uleb128 0x1a
 5052 0a4b 88190000 		.4byte	.LASF259
ARM GAS  C:\Users\13740\AppData\Local\Temp\cc4654uj.s 			page 119


 5053 0a4f 01       		.byte	0x1
 5054 0a50 4001     		.2byte	0x140
 5055 0a52 C3000000 		.4byte	0xc3
 5056 0a56 02       		.uleb128 0x2
 5057 0a57 91       		.byte	0x91
 5058 0a58 63       		.sleb128 -29
 5059 0a59 1B       		.uleb128 0x1b
 5060 0a5a 470C0000 		.4byte	.LASF261
 5061 0a5e 01       		.byte	0x1
 5062 0a5f 4201     		.2byte	0x142
 5063 0a61 E7000000 		.4byte	0xe7
 5064 0a65 02       		.uleb128 0x2
 5065 0a66 91       		.byte	0x91
 5066 0a67 6C       		.sleb128 -20
 5067 0a68 00       		.byte	0
 5068 0a69 1C       		.uleb128 0x1c
 5069 0a6a 84180000 		.4byte	.LASF262
 5070 0a6e 01       		.byte	0x1
 5071 0a6f 6101     		.2byte	0x161
 5072 0a71 E7000000 		.4byte	0xe7
 5073 0a75 00000000 		.4byte	.LFB40
 5074 0a79 20000000 		.4byte	.LFE40-.LFB40
 5075 0a7d 01       		.uleb128 0x1
 5076 0a7e 9C       		.byte	0x9c
 5077 0a7f B70A0000 		.4byte	0xab7
 5078 0a83 1B       		.uleb128 0x1b
 5079 0a84 4A0A0000 		.4byte	.LASF213
 5080 0a88 01       		.byte	0x1
 5081 0a89 6301     		.2byte	0x163
 5082 0a8b E7000000 		.4byte	0xe7
 5083 0a8f 02       		.uleb128 0x2
 5084 0a90 91       		.byte	0x91
 5085 0a91 74       		.sleb128 -12
 5086 0a92 1D       		.uleb128 0x1d
 5087 0a93 121A0000 		.4byte	.LASF263
 5088 0a97 01       		.byte	0x1
 5089 0a98 6401     		.2byte	0x164
 5090 0a9a B8000000 		.4byte	0xb8
 5091 0a9e 1D       		.uleb128 0x1d
 5092 0a9f B1020000 		.4byte	.LASF264
 5093 0aa3 01       		.byte	0x1
 5094 0aa4 6501     		.2byte	0x165
 5095 0aa6 E7000000 		.4byte	0xe7
 5096 0aaa 1D       		.uleb128 0x1d
 5097 0aab 31180000 		.4byte	.LASF265
 5098 0aaf 01       		.byte	0x1
 5099 0ab0 6501     		.2byte	0x165
 5100 0ab2 E7000000 		.4byte	0xe7
 5101 0ab6 00       		.byte	0
 5102 0ab7 19       		.uleb128 0x19
 5103 0ab8 560A0000 		.4byte	.LASF266
 5104 0abc 01       		.byte	0x1
 5105 0abd 9501     		.2byte	0x195
 5106 0abf E7000000 		.4byte	0xe7
 5107 0ac3 00000000 		.4byte	.LFB41
 5108 0ac7 4C010000 		.4byte	.LFE41-.LFB41
 5109 0acb 01       		.uleb128 0x1
ARM GAS  C:\Users\13740\AppData\Local\Temp\cc4654uj.s 			page 120


 5110 0acc 9C       		.byte	0x9c
 5111 0acd 390B0000 		.4byte	0xb39
 5112 0ad1 1A       		.uleb128 0x1a
 5113 0ad2 88190000 		.4byte	.LASF259
 5114 0ad6 01       		.byte	0x1
 5115 0ad7 9501     		.2byte	0x195
 5116 0ad9 7E080000 		.4byte	0x87e
 5117 0add 02       		.uleb128 0x2
 5118 0ade 91       		.byte	0x91
 5119 0adf 67       		.sleb128 -25
 5120 0ae0 1B       		.uleb128 0x1b
 5121 0ae1 4A190000 		.4byte	.LASF260
 5122 0ae5 01       		.byte	0x1
 5123 0ae6 9701     		.2byte	0x197
 5124 0ae8 E7000000 		.4byte	0xe7
 5125 0aec 02       		.uleb128 0x2
 5126 0aed 91       		.byte	0x91
 5127 0aee 74       		.sleb128 -12
 5128 0aef 1B       		.uleb128 0x1b
 5129 0af0 AB160000 		.4byte	.LASF256
 5130 0af4 01       		.byte	0x1
 5131 0af5 9801     		.2byte	0x198
 5132 0af7 B8000000 		.4byte	0xb8
 5133 0afb 02       		.uleb128 0x2
 5134 0afc 91       		.byte	0x91
 5135 0afd 68       		.sleb128 -24
 5136 0afe 1B       		.uleb128 0x1b
 5137 0aff D0030000 		.4byte	.LASF250
 5138 0b03 01       		.byte	0x1
 5139 0b04 9901     		.2byte	0x199
 5140 0b06 61050000 		.4byte	0x561
 5141 0b0a 02       		.uleb128 0x2
 5142 0b0b 91       		.byte	0x91
 5143 0b0c 70       		.sleb128 -16
 5144 0b0d 1B       		.uleb128 0x1b
 5145 0b0e 5D000000 		.4byte	.LASF267
 5146 0b12 01       		.byte	0x1
 5147 0b13 9A01     		.2byte	0x19a
 5148 0b15 390B0000 		.4byte	0xb39
 5149 0b19 05       		.uleb128 0x5
 5150 0b1a 03       		.byte	0x3
 5151 0b1b 5C000000 		.4byte	ampFifoBuffer.9565
 5152 0b1f 17       		.uleb128 0x17
 5153 0b20 AC000000 		.4byte	.LBB3
 5154 0b24 14000000 		.4byte	.LBE3-.LBB3
 5155 0b28 1B       		.uleb128 0x1b
 5156 0b29 77030000 		.4byte	.LASF268
 5157 0b2d 01       		.byte	0x1
 5158 0b2e CB01     		.2byte	0x1cb
 5159 0b30 490B0000 		.4byte	0xb49
 5160 0b34 02       		.uleb128 0x2
 5161 0b35 91       		.byte	0x91
 5162 0b36 6C       		.sleb128 -20
 5163 0b37 00       		.byte	0
 5164 0b38 00       		.byte	0
 5165 0b39 0D       		.uleb128 0xd
 5166 0b3a B8000000 		.4byte	0xb8
ARM GAS  C:\Users\13740\AppData\Local\Temp\cc4654uj.s 			page 121


 5167 0b3e 490B0000 		.4byte	0xb49
 5168 0b42 0E       		.uleb128 0xe
 5169 0b43 0D010000 		.4byte	0x10d
 5170 0b47 FF       		.byte	0xff
 5171 0b48 00       		.byte	0
 5172 0b49 0F       		.uleb128 0xf
 5173 0b4a 04       		.byte	0x4
 5174 0b4b E7000000 		.4byte	0xe7
 5175 0b4f 19       		.uleb128 0x19
 5176 0b50 8F140000 		.4byte	.LASF269
 5177 0b54 01       		.byte	0x1
 5178 0b55 0802     		.2byte	0x208
 5179 0b57 E7000000 		.4byte	0xe7
 5180 0b5b 00000000 		.4byte	.LFB42
 5181 0b5f D4000000 		.4byte	.LFE42-.LFB42
 5182 0b63 01       		.uleb128 0x1
 5183 0b64 9C       		.byte	0x9c
 5184 0b65 A00B0000 		.4byte	0xba0
 5185 0b69 1A       		.uleb128 0x1a
 5186 0b6a 88190000 		.4byte	.LASF259
 5187 0b6e 01       		.byte	0x1
 5188 0b6f 0802     		.2byte	0x208
 5189 0b71 7E080000 		.4byte	0x87e
 5190 0b75 02       		.uleb128 0x2
 5191 0b76 91       		.byte	0x91
 5192 0b77 67       		.sleb128 -25
 5193 0b78 1B       		.uleb128 0x1b
 5194 0b79 4A190000 		.4byte	.LASF260
 5195 0b7d 01       		.byte	0x1
 5196 0b7e 0A02     		.2byte	0x20a
 5197 0b80 E7000000 		.4byte	0xe7
 5198 0b84 02       		.uleb128 0x2
 5199 0b85 91       		.byte	0x91
 5200 0b86 6C       		.sleb128 -20
 5201 0b87 17       		.uleb128 0x17
 5202 0b88 20000000 		.4byte	.LBB4
 5203 0b8c 9C000000 		.4byte	.LBE4-.LBB4
 5204 0b90 1E       		.uleb128 0x1e
 5205 0b91 58000000 		.4byte	.LASF340
 5206 0b95 01       		.byte	0x1
 5207 0b96 1102     		.2byte	0x211
 5208 0b98 89000000 		.4byte	0x89
 5209 0b9c 1F       		.uleb128 0x1f
 5210 0b9d 00       		.byte	0
 5211 0b9e 00       		.byte	0
 5212 0b9f 00       		.byte	0
 5213 0ba0 20       		.uleb128 0x20
 5214 0ba1 F40F0000 		.4byte	.LASF271
 5215 0ba5 01       		.byte	0x1
 5216 0ba6 2F02     		.2byte	0x22f
 5217 0ba8 00000000 		.4byte	.LFB43
 5218 0bac 10010000 		.4byte	.LFE43-.LFB43
 5219 0bb0 01       		.uleb128 0x1
 5220 0bb1 9C       		.byte	0x9c
 5221 0bb2 C60B0000 		.4byte	0xbc6
 5222 0bb6 1B       		.uleb128 0x1b
 5223 0bb7 850D0000 		.4byte	.LASF272
ARM GAS  C:\Users\13740\AppData\Local\Temp\cc4654uj.s 			page 122


 5224 0bbb 01       		.byte	0x1
 5225 0bbc 5602     		.2byte	0x256
 5226 0bbe E7000000 		.4byte	0xe7
 5227 0bc2 02       		.uleb128 0x2
 5228 0bc3 91       		.byte	0x91
 5229 0bc4 6C       		.sleb128 -20
 5230 0bc5 00       		.byte	0
 5231 0bc6 20       		.uleb128 0x20
 5232 0bc7 7A0F0000 		.4byte	.LASF273
 5233 0bcb 01       		.byte	0x1
 5234 0bcc 6602     		.2byte	0x266
 5235 0bce 00000000 		.4byte	.LFB44
 5236 0bd2 2A000000 		.4byte	.LFE44-.LFB44
 5237 0bd6 01       		.uleb128 0x1
 5238 0bd7 9C       		.byte	0x9c
 5239 0bd8 EC0B0000 		.4byte	0xbec
 5240 0bdc 1A       		.uleb128 0x1a
 5241 0bdd D9060000 		.4byte	.LASF274
 5242 0be1 01       		.byte	0x1
 5243 0be2 6602     		.2byte	0x266
 5244 0be4 C3000000 		.4byte	0xc3
 5245 0be8 02       		.uleb128 0x2
 5246 0be9 91       		.byte	0x91
 5247 0bea 77       		.sleb128 -9
 5248 0beb 00       		.byte	0
 5249 0bec 20       		.uleb128 0x20
 5250 0bed 990E0000 		.4byte	.LASF275
 5251 0bf1 01       		.byte	0x1
 5252 0bf2 7802     		.2byte	0x278
 5253 0bf4 00000000 		.4byte	.LFB45
 5254 0bf8 2A000000 		.4byte	.LFE45-.LFB45
 5255 0bfc 01       		.uleb128 0x1
 5256 0bfd 9C       		.byte	0x9c
 5257 0bfe 120C0000 		.4byte	0xc12
 5258 0c02 1A       		.uleb128 0x1a
 5259 0c03 D9060000 		.4byte	.LASF274
 5260 0c07 01       		.byte	0x1
 5261 0c08 7802     		.2byte	0x278
 5262 0c0a C3000000 		.4byte	0xc3
 5263 0c0e 02       		.uleb128 0x2
 5264 0c0f 91       		.byte	0x91
 5265 0c10 77       		.sleb128 -9
 5266 0c11 00       		.byte	0
 5267 0c12 21       		.uleb128 0x21
 5268 0c13 D6090000 		.4byte	.LASF277
 5269 0c17 01       		.byte	0x1
 5270 0c18 A502     		.2byte	0x2a5
 5271 0c1a 00000000 		.4byte	.LFB46
 5272 0c1e 0A000000 		.4byte	.LFE46-.LFB46
 5273 0c22 01       		.uleb128 0x1
 5274 0c23 9C       		.byte	0x9c
 5275 0c24 20       		.uleb128 0x20
 5276 0c25 5A040000 		.4byte	.LASF278
 5277 0c29 01       		.byte	0x1
 5278 0c2a AC02     		.2byte	0x2ac
 5279 0c2c 00000000 		.4byte	.LFB47
 5280 0c30 F8000000 		.4byte	.LFE47-.LFB47
ARM GAS  C:\Users\13740\AppData\Local\Temp\cc4654uj.s 			page 123


 5281 0c34 01       		.uleb128 0x1
 5282 0c35 9C       		.byte	0x9c
 5283 0c36 D00C0000 		.4byte	0xcd0
 5284 0c3a 1B       		.uleb128 0x1b
 5285 0c3b 6B000000 		.4byte	.LASF279
 5286 0c3f 01       		.byte	0x1
 5287 0c40 AE02     		.2byte	0x2ae
 5288 0c42 1E050000 		.4byte	0x51e
 5289 0c46 02       		.uleb128 0x2
 5290 0c47 91       		.byte	0x91
 5291 0c48 5C       		.sleb128 -36
 5292 0c49 1B       		.uleb128 0x1b
 5293 0c4a 500D0000 		.4byte	.LASF280
 5294 0c4e 01       		.byte	0x1
 5295 0c4f AF02     		.2byte	0x2af
 5296 0c51 D00C0000 		.4byte	0xcd0
 5297 0c55 05       		.uleb128 0x5
 5298 0c56 03       		.byte	0x3
 5299 0c57 60040000 		.4byte	dataString.9599
 5300 0c5b 1B       		.uleb128 0x1b
 5301 0c5c 5D140000 		.4byte	.LASF281
 5302 0c60 01       		.byte	0x1
 5303 0c61 B002     		.2byte	0x2b0
 5304 0c63 C3000000 		.4byte	0xc3
 5305 0c67 05       		.uleb128 0x5
 5306 0c68 03       		.byte	0x3
 5307 0c69 5C040000 		.4byte	diagStep.9600
 5308 0c6d 22       		.uleb128 0x22
 5309 0c6e 2A000000 		.4byte	.LBB5
 5310 0c72 1A000000 		.4byte	.LBE5-.LBB5
 5311 0c76 8A0C0000 		.4byte	0xc8a
 5312 0c7a 1B       		.uleb128 0x1b
 5313 0c7b 9E0C0000 		.4byte	.LASF251
 5314 0c7f 01       		.byte	0x1
 5315 0c80 B902     		.2byte	0x2b9
 5316 0c82 B8000000 		.4byte	0xb8
 5317 0c86 02       		.uleb128 0x2
 5318 0c87 91       		.byte	0x91
 5319 0c88 74       		.sleb128 -12
 5320 0c89 00       		.byte	0
 5321 0c8a 22       		.uleb128 0x22
 5322 0c8b 46000000 		.4byte	.LBB6
 5323 0c8f 18000000 		.4byte	.LBE6-.LBB6
 5324 0c93 A70C0000 		.4byte	0xca7
 5325 0c97 1B       		.uleb128 0x1b
 5326 0c98 70040000 		.4byte	.LASF252
 5327 0c9c 01       		.byte	0x1
 5328 0c9d C202     		.2byte	0x2c2
 5329 0c9f B8000000 		.4byte	0xb8
 5330 0ca3 02       		.uleb128 0x2
 5331 0ca4 91       		.byte	0x91
 5332 0ca5 70       		.sleb128 -16
 5333 0ca6 00       		.byte	0
 5334 0ca7 17       		.uleb128 0x17
 5335 0ca8 60000000 		.4byte	.LBB7
 5336 0cac 26000000 		.4byte	.LBE7-.LBB7
 5337 0cb0 1B       		.uleb128 0x1b
ARM GAS  C:\Users\13740\AppData\Local\Temp\cc4654uj.s 			page 124


 5338 0cb1 9E0C0000 		.4byte	.LASF251
 5339 0cb5 01       		.byte	0x1
 5340 0cb6 CB02     		.2byte	0x2cb
 5341 0cb8 B8000000 		.4byte	0xb8
 5342 0cbc 02       		.uleb128 0x2
 5343 0cbd 91       		.byte	0x91
 5344 0cbe 6C       		.sleb128 -20
 5345 0cbf 1B       		.uleb128 0x1b
 5346 0cc0 70040000 		.4byte	.LASF252
 5347 0cc4 01       		.byte	0x1
 5348 0cc5 CC02     		.2byte	0x2cc
 5349 0cc7 B8000000 		.4byte	0xb8
 5350 0ccb 02       		.uleb128 0x2
 5351 0ccc 91       		.byte	0x91
 5352 0ccd 68       		.sleb128 -24
 5353 0cce 00       		.byte	0
 5354 0ccf 00       		.byte	0
 5355 0cd0 0D       		.uleb128 0xd
 5356 0cd1 F5000000 		.4byte	0xf5
 5357 0cd5 E00C0000 		.4byte	0xce0
 5358 0cd9 0E       		.uleb128 0xe
 5359 0cda 0D010000 		.4byte	0x10d
 5360 0cde 27       		.byte	0x27
 5361 0cdf 00       		.byte	0
 5362 0ce0 20       		.uleb128 0x20
 5363 0ce1 20050000 		.4byte	.LASF282
 5364 0ce5 01       		.byte	0x1
 5365 0ce6 FC02     		.2byte	0x2fc
 5366 0ce8 00000000 		.4byte	.LFB48
 5367 0cec 54010000 		.4byte	.LFE48-.LFB48
 5368 0cf0 01       		.uleb128 0x1
 5369 0cf1 9C       		.byte	0x9c
 5370 0cf2 410D0000 		.4byte	0xd41
 5371 0cf6 1B       		.uleb128 0x1b
 5372 0cf7 6B000000 		.4byte	.LASF279
 5373 0cfb 01       		.byte	0x1
 5374 0cfc FE02     		.2byte	0x2fe
 5375 0cfe 1E050000 		.4byte	0x51e
 5376 0d02 02       		.uleb128 0x2
 5377 0d03 91       		.byte	0x91
 5378 0d04 60       		.sleb128 -32
 5379 0d05 1B       		.uleb128 0x1b
 5380 0d06 5C080000 		.4byte	.LASF283
 5381 0d0a 01       		.byte	0x1
 5382 0d0b FF02     		.2byte	0x2ff
 5383 0d0d 410D0000 		.4byte	0xd41
 5384 0d11 05       		.uleb128 0x5
 5385 0d12 03       		.byte	0x3
 5386 0d13 8C040000 		.4byte	tempString.9613
 5387 0d17 1B       		.uleb128 0x1b
 5388 0d18 E4110000 		.4byte	.LASF284
 5389 0d1c 01       		.byte	0x1
 5390 0d1d 0003     		.2byte	0x300
 5391 0d1f C3000000 		.4byte	0xc3
 5392 0d23 05       		.uleb128 0x5
 5393 0d24 03       		.byte	0x3
 5394 0d25 88040000 		.4byte	testStep.9614
ARM GAS  C:\Users\13740\AppData\Local\Temp\cc4654uj.s 			page 125


 5395 0d29 17       		.uleb128 0x17
 5396 0d2a 94000000 		.4byte	.LBB8
 5397 0d2e 2A000000 		.4byte	.LBE8-.LBB8
 5398 0d32 23       		.uleb128 0x23
 5399 0d33 6900     		.ascii	"i\000"
 5400 0d35 01       		.byte	0x1
 5401 0d36 1E03     		.2byte	0x31e
 5402 0d38 89000000 		.4byte	0x89
 5403 0d3c 02       		.uleb128 0x2
 5404 0d3d 91       		.byte	0x91
 5405 0d3e 6C       		.sleb128 -20
 5406 0d3f 00       		.byte	0
 5407 0d40 00       		.byte	0
 5408 0d41 0D       		.uleb128 0xd
 5409 0d42 F5000000 		.4byte	0xf5
 5410 0d46 510D0000 		.4byte	0xd51
 5411 0d4a 0E       		.uleb128 0xe
 5412 0d4b 0D010000 		.4byte	0x10d
 5413 0d4f 3B       		.byte	0x3b
 5414 0d50 00       		.byte	0
 5415 0d51 24       		.uleb128 0x24
 5416 0d52 C9050000 		.4byte	.LASF285
 5417 0d56 01       		.byte	0x1
 5418 0d57 4403     		.2byte	0x344
 5419 0d59 00000000 		.4byte	.LFB49
 5420 0d5d 34000000 		.4byte	.LFE49-.LFB49
 5421 0d61 01       		.uleb128 0x1
 5422 0d62 9C       		.byte	0x9c
 5423 0d63 20       		.uleb128 0x20
 5424 0d64 FD150000 		.4byte	.LASF286
 5425 0d68 01       		.byte	0x1
 5426 0d69 5C03     		.2byte	0x35c
 5427 0d6b 00000000 		.4byte	.LFB50
 5428 0d6f 4C000000 		.4byte	.LFE50-.LFB50
 5429 0d73 01       		.uleb128 0x1
 5430 0d74 9C       		.byte	0x9c
 5431 0d75 8C0D0000 		.4byte	0xd8c
 5432 0d79 23       		.uleb128 0x23
 5433 0d7a 6C656400 		.ascii	"led\000"
 5434 0d7e 01       		.byte	0x1
 5435 0d7f 5E03     		.2byte	0x35e
 5436 0d81 C3000000 		.4byte	0xc3
 5437 0d85 05       		.uleb128 0x5
 5438 0d86 03       		.byte	0x3
 5439 0d87 00000000 		.4byte	led.9631
 5440 0d8b 00       		.byte	0
 5441 0d8c 20       		.uleb128 0x20
 5442 0d8d 0D0F0000 		.4byte	.LASF287
 5443 0d91 01       		.byte	0x1
 5444 0d92 7003     		.2byte	0x370
 5445 0d94 00000000 		.4byte	.LFB51
 5446 0d98 74000000 		.4byte	.LFE51-.LFB51
 5447 0d9c 01       		.uleb128 0x1
 5448 0d9d 9C       		.byte	0x9c
 5449 0d9e CB0D0000 		.4byte	0xdcb
 5450 0da2 1A       		.uleb128 0x1a
 5451 0da3 42050000 		.4byte	.LASF288
ARM GAS  C:\Users\13740\AppData\Local\Temp\cc4654uj.s 			page 126


 5452 0da7 01       		.byte	0x1
 5453 0da8 7003     		.2byte	0x370
 5454 0daa DB000000 		.4byte	0xdb
 5455 0dae 02       		.uleb128 0x2
 5456 0daf 91       		.byte	0x91
 5457 0db0 74       		.sleb128 -12
 5458 0db1 1A       		.uleb128 0x1a
 5459 0db2 37010000 		.4byte	.LASF289
 5460 0db6 01       		.byte	0x1
 5461 0db7 7003     		.2byte	0x370
 5462 0db9 14010000 		.4byte	0x114
 5463 0dbd 02       		.uleb128 0x2
 5464 0dbe 91       		.byte	0x91
 5465 0dbf 70       		.sleb128 -16
 5466 0dc0 25       		.uleb128 0x25
 5467 0dc1 6900     		.ascii	"i\000"
 5468 0dc3 01       		.byte	0x1
 5469 0dc4 7203     		.2byte	0x372
 5470 0dc6 CF000000 		.4byte	0xcf
 5471 0dca 00       		.byte	0
 5472 0dcb 19       		.uleb128 0x19
 5473 0dcc 93050000 		.4byte	.LASF290
 5474 0dd0 01       		.byte	0x1
 5475 0dd1 9B03     		.2byte	0x39b
 5476 0dd3 E7000000 		.4byte	0xe7
 5477 0dd7 00000000 		.4byte	.LFB52
 5478 0ddb A0000000 		.4byte	.LFE52-.LFB52
 5479 0ddf 01       		.uleb128 0x1
 5480 0de0 9C       		.byte	0x9c
 5481 0de1 5E0E0000 		.4byte	0xe5e
 5482 0de5 1A       		.uleb128 0x1a
 5483 0de6 36060000 		.4byte	.LASF291
 5484 0dea 01       		.byte	0x1
 5485 0deb 9B03     		.2byte	0x39b
 5486 0ded B8000000 		.4byte	0xb8
 5487 0df1 02       		.uleb128 0x2
 5488 0df2 91       		.byte	0x91
 5489 0df3 5C       		.sleb128 -36
 5490 0df4 1A       		.uleb128 0x1a
 5491 0df5 64050000 		.4byte	.LASF292
 5492 0df9 01       		.byte	0x1
 5493 0dfa 9B03     		.2byte	0x39b
 5494 0dfc E7000000 		.4byte	0xe7
 5495 0e00 02       		.uleb128 0x2
 5496 0e01 91       		.byte	0x91
 5497 0e02 58       		.sleb128 -40
 5498 0e03 1A       		.uleb128 0x1a
 5499 0e04 FE0C0000 		.4byte	.LASF293
 5500 0e08 01       		.byte	0x1
 5501 0e09 9B03     		.2byte	0x39b
 5502 0e0b E7000000 		.4byte	0xe7
 5503 0e0f 02       		.uleb128 0x2
 5504 0e10 91       		.byte	0x91
 5505 0e11 54       		.sleb128 -44
 5506 0e12 1A       		.uleb128 0x1a
 5507 0e13 A7000000 		.4byte	.LASF294
 5508 0e17 01       		.byte	0x1
ARM GAS  C:\Users\13740\AppData\Local\Temp\cc4654uj.s 			page 127


 5509 0e18 9B03     		.2byte	0x39b
 5510 0e1a E7000000 		.4byte	0xe7
 5511 0e1e 02       		.uleb128 0x2
 5512 0e1f 91       		.byte	0x91
 5513 0e20 50       		.sleb128 -48
 5514 0e21 1B       		.uleb128 0x1b
 5515 0e22 DC100000 		.4byte	.LASF295
 5516 0e26 01       		.byte	0x1
 5517 0e27 9D03     		.2byte	0x39d
 5518 0e29 AD000000 		.4byte	0xad
 5519 0e2d 02       		.uleb128 0x2
 5520 0e2e 91       		.byte	0x91
 5521 0e2f 6C       		.sleb128 -20
 5522 0e30 1B       		.uleb128 0x1b
 5523 0e31 73110000 		.4byte	.LASF296
 5524 0e35 01       		.byte	0x1
 5525 0e36 A703     		.2byte	0x3a7
 5526 0e38 E7000000 		.4byte	0xe7
 5527 0e3c 02       		.uleb128 0x2
 5528 0e3d 91       		.byte	0x91
 5529 0e3e 68       		.sleb128 -24
 5530 0e3f 1B       		.uleb128 0x1b
 5531 0e40 97020000 		.4byte	.LASF297
 5532 0e44 01       		.byte	0x1
 5533 0e45 A803     		.2byte	0x3a8
 5534 0e47 E7000000 		.4byte	0xe7
 5535 0e4b 02       		.uleb128 0x2
 5536 0e4c 91       		.byte	0x91
 5537 0e4d 64       		.sleb128 -28
 5538 0e4e 1B       		.uleb128 0x1b
 5539 0e4f 4A190000 		.4byte	.LASF260
 5540 0e53 01       		.byte	0x1
 5541 0e54 A903     		.2byte	0x3a9
 5542 0e56 E7000000 		.4byte	0xe7
 5543 0e5a 02       		.uleb128 0x2
 5544 0e5b 91       		.byte	0x91
 5545 0e5c 60       		.sleb128 -32
 5546 0e5d 00       		.byte	0
 5547 0e5e 20       		.uleb128 0x20
 5548 0e5f B6050000 		.4byte	.LASF298
 5549 0e63 01       		.byte	0x1
 5550 0e64 BD03     		.2byte	0x3bd
 5551 0e66 00000000 		.4byte	.LFB53
 5552 0e6a 40020000 		.4byte	.LFE53-.LFB53
 5553 0e6e 01       		.uleb128 0x1
 5554 0e6f 9C       		.byte	0x9c
 5555 0e70 140F0000 		.4byte	0xf14
 5556 0e74 1B       		.uleb128 0x1b
 5557 0e75 B4140000 		.4byte	.LASF299
 5558 0e79 01       		.byte	0x1
 5559 0e7a BF03     		.2byte	0x3bf
 5560 0e7c B8000000 		.4byte	0xb8
 5561 0e80 02       		.uleb128 0x2
 5562 0e81 91       		.byte	0x91
 5563 0e82 6C       		.sleb128 -20
 5564 0e83 1B       		.uleb128 0x1b
 5565 0e84 BD090000 		.4byte	.LASF300
ARM GAS  C:\Users\13740\AppData\Local\Temp\cc4654uj.s 			page 128


 5566 0e88 01       		.byte	0x1
 5567 0e89 C003     		.2byte	0x3c0
 5568 0e8b A2000000 		.4byte	0xa2
 5569 0e8f 02       		.uleb128 0x2
 5570 0e90 91       		.byte	0x91
 5571 0e91 6A       		.sleb128 -22
 5572 0e92 1B       		.uleb128 0x1b
 5573 0e93 E0060000 		.4byte	.LASF301
 5574 0e97 01       		.byte	0x1
 5575 0e98 C103     		.2byte	0x3c1
 5576 0e9a B8000000 		.4byte	0xb8
 5577 0e9e 02       		.uleb128 0x2
 5578 0e9f 91       		.byte	0x91
 5579 0ea0 64       		.sleb128 -28
 5580 0ea1 1B       		.uleb128 0x1b
 5581 0ea2 36060000 		.4byte	.LASF291
 5582 0ea6 01       		.byte	0x1
 5583 0ea7 C203     		.2byte	0x3c2
 5584 0ea9 B8000000 		.4byte	0xb8
 5585 0ead 02       		.uleb128 0x2
 5586 0eae 91       		.byte	0x91
 5587 0eaf 60       		.sleb128 -32
 5588 0eb0 1B       		.uleb128 0x1b
 5589 0eb1 4A190000 		.4byte	.LASF260
 5590 0eb5 01       		.byte	0x1
 5591 0eb6 C303     		.2byte	0x3c3
 5592 0eb8 E7000000 		.4byte	0xe7
 5593 0ebc 02       		.uleb128 0x2
 5594 0ebd 91       		.byte	0x91
 5595 0ebe 50       		.sleb128 -48
 5596 0ebf 22       		.uleb128 0x22
 5597 0ec0 B0000000 		.4byte	.LBB9
 5598 0ec4 8A000000 		.4byte	.LBE9-.LBB9
 5599 0ec8 FA0E0000 		.4byte	0xefa
 5600 0ecc 1B       		.uleb128 0x1b
 5601 0ecd 64050000 		.4byte	.LASF292
 5602 0ed1 01       		.byte	0x1
 5603 0ed2 FB03     		.2byte	0x3fb
 5604 0ed4 E7000000 		.4byte	0xe7
 5605 0ed8 02       		.uleb128 0x2
 5606 0ed9 91       		.byte	0x91
 5607 0eda 5C       		.sleb128 -36
 5608 0edb 1B       		.uleb128 0x1b
 5609 0edc FE0C0000 		.4byte	.LASF293
 5610 0ee0 01       		.byte	0x1
 5611 0ee1 FC03     		.2byte	0x3fc
 5612 0ee3 E7000000 		.4byte	0xe7
 5613 0ee7 02       		.uleb128 0x2
 5614 0ee8 91       		.byte	0x91
 5615 0ee9 58       		.sleb128 -40
 5616 0eea 1B       		.uleb128 0x1b
 5617 0eeb A7000000 		.4byte	.LASF294
 5618 0eef 01       		.byte	0x1
 5619 0ef0 FD03     		.2byte	0x3fd
 5620 0ef2 E7000000 		.4byte	0xe7
 5621 0ef6 02       		.uleb128 0x2
 5622 0ef7 91       		.byte	0x91
ARM GAS  C:\Users\13740\AppData\Local\Temp\cc4654uj.s 			page 129


 5623 0ef8 54       		.sleb128 -44
 5624 0ef9 00       		.byte	0
 5625 0efa 17       		.uleb128 0x17
 5626 0efb 56010000 		.4byte	.LBB10
 5627 0eff 92000000 		.4byte	.LBE10-.LBB10
 5628 0f03 1B       		.uleb128 0x1b
 5629 0f04 850D0000 		.4byte	.LASF272
 5630 0f08 01       		.byte	0x1
 5631 0f09 2004     		.2byte	0x420
 5632 0f0b E7000000 		.4byte	0xe7
 5633 0f0f 02       		.uleb128 0x2
 5634 0f10 91       		.byte	0x91
 5635 0f11 4C       		.sleb128 -52
 5636 0f12 00       		.byte	0
 5637 0f13 00       		.byte	0
 5638 0f14 26       		.uleb128 0x26
 5639 0f15 080B0000 		.4byte	.LASF341
 5640 0f19 01       		.byte	0x1
 5641 0f1a 3C04     		.2byte	0x43c
 5642 0f1c 00000000 		.4byte	.LFB54
 5643 0f20 74000000 		.4byte	.LFE54-.LFB54
 5644 0f24 01       		.uleb128 0x1
 5645 0f25 9C       		.byte	0x9c
 5646 0f26 490F0000 		.4byte	0xf49
 5647 0f2a 1B       		.uleb128 0x1b
 5648 0f2b 440B0000 		.4byte	.LASF302
 5649 0f2f 01       		.byte	0x1
 5650 0f30 3E04     		.2byte	0x43e
 5651 0f32 E5030000 		.4byte	0x3e5
 5652 0f36 02       		.uleb128 0x2
 5653 0f37 91       		.byte	0x91
 5654 0f38 6F       		.sleb128 -17
 5655 0f39 1B       		.uleb128 0x1b
 5656 0f3a EC090000 		.4byte	.LASF303
 5657 0f3e 01       		.byte	0x1
 5658 0f3f 3F04     		.2byte	0x43f
 5659 0f41 C3000000 		.4byte	0xc3
 5660 0f45 02       		.uleb128 0x2
 5661 0f46 91       		.byte	0x91
 5662 0f47 6E       		.sleb128 -18
 5663 0f48 00       		.byte	0
 5664 0f49 24       		.uleb128 0x24
 5665 0f4a A1170000 		.4byte	.LASF304
 5666 0f4e 01       		.byte	0x1
 5667 0f4f 5B04     		.2byte	0x45b
 5668 0f51 00000000 		.4byte	.LFB55
 5669 0f55 22000000 		.4byte	.LFE55-.LFB55
 5670 0f59 01       		.uleb128 0x1
 5671 0f5a 9C       		.byte	0x9c
 5672 0f5b 27       		.uleb128 0x27
 5673 0f5c DA140000 		.4byte	.LASF305
 5674 0f60 01       		.byte	0x1
 5675 0f61 A104     		.2byte	0x4a1
 5676 0f63 89000000 		.4byte	0x89
 5677 0f67 00000000 		.4byte	.LFB56
 5678 0f6b 18040000 		.4byte	.LFE56-.LFB56
 5679 0f6f 01       		.uleb128 0x1
ARM GAS  C:\Users\13740\AppData\Local\Temp\cc4654uj.s 			page 130


 5680 0f70 9C       		.byte	0x9c
 5681 0f71 F40F0000 		.4byte	0xff4
 5682 0f75 1B       		.uleb128 0x1b
 5683 0f76 E80B0000 		.4byte	.LASF306
 5684 0f7a 01       		.byte	0x1
 5685 0f7b A404     		.2byte	0x4a4
 5686 0f7d B8000000 		.4byte	0xb8
 5687 0f81 05       		.uleb128 0x5
 5688 0f82 03       		.byte	0x3
 5689 0f83 F4040000 		.4byte	last_send_time.9730
 5690 0f87 22       		.uleb128 0x22
 5691 0f88 BA000000 		.4byte	.LBB11
 5692 0f8c D8010000 		.4byte	.LBE11-.LBB11
 5693 0f90 C80F0000 		.4byte	0xfc8
 5694 0f94 1B       		.uleb128 0x1b
 5695 0f95 6B000000 		.4byte	.LASF279
 5696 0f99 01       		.byte	0x1
 5697 0f9a D304     		.2byte	0x4d3
 5698 0f9c 1E050000 		.4byte	0x51e
 5699 0fa0 02       		.uleb128 0x2
 5700 0fa1 91       		.byte	0x91
 5701 0fa2 5C       		.sleb128 -36
 5702 0fa3 1B       		.uleb128 0x1b
 5703 0fa4 81130000 		.4byte	.LASF307
 5704 0fa8 01       		.byte	0x1
 5705 0fa9 D404     		.2byte	0x4d4
 5706 0fab D00C0000 		.4byte	0xcd0
 5707 0faf 05       		.uleb128 0x5
 5708 0fb0 03       		.byte	0x3
 5709 0fb1 C8040000 		.4byte	testString.9732
 5710 0fb5 1B       		.uleb128 0x1b
 5711 0fb6 75010000 		.4byte	.LASF308
 5712 0fba 01       		.byte	0x1
 5713 0fbb D504     		.2byte	0x4d5
 5714 0fbd 97000000 		.4byte	0x97
 5715 0fc1 05       		.uleb128 0x5
 5716 0fc2 03       		.byte	0x3
 5717 0fc3 F0040000 		.4byte	display_step.9733
 5718 0fc7 00       		.byte	0
 5719 0fc8 17       		.uleb128 0x17
 5720 0fc9 A6020000 		.4byte	.LBB12
 5721 0fcd 9E000000 		.4byte	.LBE12-.LBB12
 5722 0fd1 1B       		.uleb128 0x1b
 5723 0fd2 6B000000 		.4byte	.LASF279
 5724 0fd6 01       		.byte	0x1
 5725 0fd7 3505     		.2byte	0x535
 5726 0fd9 1E050000 		.4byte	0x51e
 5727 0fdd 02       		.uleb128 0x2
 5728 0fde 91       		.byte	0x91
 5729 0fdf 50       		.sleb128 -48
 5730 0fe0 1B       		.uleb128 0x1b
 5731 0fe1 500D0000 		.4byte	.LASF280
 5732 0fe5 01       		.byte	0x1
 5733 0fe6 3605     		.2byte	0x536
 5734 0fe8 F40F0000 		.4byte	0xff4
 5735 0fec 05       		.uleb128 0x5
 5736 0fed 03       		.byte	0x3
ARM GAS  C:\Users\13740\AppData\Local\Temp\cc4654uj.s 			page 131


 5737 0fee F8040000 		.4byte	dataString.9753
 5738 0ff2 00       		.byte	0
 5739 0ff3 00       		.byte	0
 5740 0ff4 0D       		.uleb128 0xd
 5741 0ff5 F5000000 		.4byte	0xf5
 5742 0ff9 04100000 		.4byte	0x1004
 5743 0ffd 0E       		.uleb128 0xe
 5744 0ffe 0D010000 		.4byte	0x10d
 5745 1002 31       		.byte	0x31
 5746 1003 00       		.byte	0
 5747 1004 20       		.uleb128 0x20
 5748 1005 DF160000 		.4byte	.LASF309
 5749 1009 01       		.byte	0x1
 5750 100a 5005     		.2byte	0x550
 5751 100c 00000000 		.4byte	.LFB57
 5752 1010 A4000000 		.4byte	.LFE57-.LFB57
 5753 1014 01       		.uleb128 0x1
 5754 1015 9C       		.byte	0x9c
 5755 1016 37100000 		.4byte	0x1037
 5756 101a 23       		.uleb128 0x23
 5757 101b 6900     		.ascii	"i\000"
 5758 101d 01       		.byte	0x1
 5759 101e 5205     		.2byte	0x552
 5760 1020 CF000000 		.4byte	0xcf
 5761 1024 02       		.uleb128 0x2
 5762 1025 91       		.byte	0x91
 5763 1026 76       		.sleb128 -10
 5764 1027 1B       		.uleb128 0x1b
 5765 1028 030D0000 		.4byte	.LASF310
 5766 102c 01       		.byte	0x1
 5767 102d 5305     		.2byte	0x553
 5768 102f 63040000 		.4byte	0x463
 5769 1033 02       		.uleb128 0x2
 5770 1034 91       		.byte	0x91
 5771 1035 6C       		.sleb128 -20
 5772 1036 00       		.byte	0
 5773 1037 16       		.uleb128 0x16
 5774 1038 BC140000 		.4byte	.LASF311
 5775 103c 01       		.byte	0x1
 5776 103d 15       		.byte	0x15
 5777 103e 97000000 		.4byte	0x97
 5778 1042 05       		.uleb128 0x5
 5779 1043 03       		.byte	0x3
 5780 1044 08000000 		.4byte	g_amp_running
 5781 1048 1B       		.uleb128 0x1b
 5782 1049 B60E0000 		.4byte	.LASF312
 5783 104d 01       		.byte	0x1
 5784 104e B803     		.2byte	0x3b8
 5785 1050 BB080000 		.4byte	0x8bb
 5786 1054 05       		.uleb128 0x5
 5787 1055 03       		.byte	0x3
 5788 1056 38000000 		.4byte	g_meas_state
 5789 105a 1B       		.uleb128 0x1b
 5790 105b A5110000 		.4byte	.LASF313
 5791 105f 01       		.byte	0x1
 5792 1060 B903     		.2byte	0x3b9
 5793 1062 7E080000 		.4byte	0x87e
ARM GAS  C:\Users\13740\AppData\Local\Temp\cc4654uj.s 			page 132


 5794 1066 05       		.uleb128 0x5
 5795 1067 03       		.byte	0x3
 5796 1068 39000000 		.4byte	g_current_sensor
 5797 106c 1B       		.uleb128 0x1b
 5798 106d 7E000000 		.4byte	.LASF314
 5799 1071 01       		.byte	0x1
 5800 1072 BA03     		.2byte	0x3ba
 5801 1074 B8000000 		.4byte	0xb8
 5802 1078 05       		.uleb128 0x5
 5803 1079 03       		.byte	0x3
 5804 107a 3C000000 		.4byte	g_meas_start_time
 5805 107e 1B       		.uleb128 0x1b
 5806 107f 09170000 		.4byte	.LASF315
 5807 1083 01       		.byte	0x1
 5808 1084 6B04     		.2byte	0x46b
 5809 1086 B8000000 		.4byte	0xb8
 5810 108a 05       		.uleb128 0x5
 5811 108b 03       		.byte	0x3
 5812 108c 40000000 		.4byte	g_test_adiid
 5813 1090 1B       		.uleb128 0x1b
 5814 1091 0E060000 		.4byte	.LASF316
 5815 1095 01       		.byte	0x1
 5816 1096 6C04     		.2byte	0x46c
 5817 1098 B8000000 		.4byte	0xb8
 5818 109c 05       		.uleb128 0x5
 5819 109d 03       		.byte	0x3
 5820 109e 44000000 		.4byte	g_test_chipid
 5821 10a2 1B       		.uleb128 0x1b
 5822 10a3 B6110000 		.4byte	.LASF317
 5823 10a7 01       		.byte	0x1
 5824 10a8 6D04     		.2byte	0x46d
 5825 10aa B8000000 		.4byte	0xb8
 5826 10ae 05       		.uleb128 0x5
 5827 10af 03       		.byte	0x3
 5828 10b0 48000000 		.4byte	g_test_reg_0908
 5829 10b4 1B       		.uleb128 0x1b
 5830 10b5 11100000 		.4byte	.LASF318
 5831 10b9 01       		.byte	0x1
 5832 10ba 6E04     		.2byte	0x46e
 5833 10bc B8000000 		.4byte	0xb8
 5834 10c0 05       		.uleb128 0x5
 5835 10c1 03       		.byte	0x3
 5836 10c2 4C000000 		.4byte	g_test_afecon
 5837 10c6 1B       		.uleb128 0x1b
 5838 10c7 BD080000 		.4byte	.LASF319
 5839 10cb 01       		.byte	0x1
 5840 10cc 6F04     		.2byte	0x46f
 5841 10ce B8000000 		.4byte	0xb8
 5842 10d2 05       		.uleb128 0x5
 5843 10d3 03       		.byte	0x3
 5844 10d4 50000000 		.4byte	g_test_fifocon
 5845 10d8 1B       		.uleb128 0x1b
 5846 10d9 FC050000 		.4byte	.LASF320
 5847 10dd 01       		.byte	0x1
 5848 10de 7004     		.2byte	0x470
 5849 10e0 A2000000 		.4byte	0xa2
 5850 10e4 05       		.uleb128 0x5
ARM GAS  C:\Users\13740\AppData\Local\Temp\cc4654uj.s 			page 133


 5851 10e5 03       		.byte	0x3
 5852 10e6 54000000 		.4byte	g_test_fifo_count
 5853 10ea 1B       		.uleb128 0x1b
 5854 10eb 0D160000 		.4byte	.LASF321
 5855 10ef 01       		.byte	0x1
 5856 10f0 7104     		.2byte	0x471
 5857 10f2 97000000 		.4byte	0x97
 5858 10f6 05       		.uleb128 0x5
 5859 10f7 03       		.byte	0x3
 5860 10f8 56000000 		.4byte	g_test_done
 5861 10fc 1B       		.uleb128 0x1b
 5862 10fd 330A0000 		.4byte	.LASF322
 5863 1101 01       		.byte	0x1
 5864 1102 8404     		.2byte	0x484
 5865 1104 23090000 		.4byte	0x923
 5866 1108 05       		.uleb128 0x5
 5867 1109 03       		.byte	0x3
 5868 110a 57000000 		.4byte	g_init_state
 5869 110e 1B       		.uleb128 0x1b
 5870 110f FB030000 		.4byte	.LASF323
 5871 1113 01       		.byte	0x1
 5872 1114 8504     		.2byte	0x485
 5873 1116 97000000 		.4byte	0x97
 5874 111a 05       		.uleb128 0x5
 5875 111b 03       		.byte	0x3
 5876 111c 58000000 		.4byte	g_reg_index
 5877 1120 28       		.uleb128 0x28
 5878 1121 A40C0000 		.4byte	.LASF324
 5879 1125 0B       		.byte	0xb
 5880 1126 C202     		.2byte	0x2c2
 5881 1128 C3000000 		.4byte	0xc3
 5882 112c 28       		.uleb128 0x28
 5883 112d 74070000 		.4byte	.LASF325
 5884 1131 08       		.byte	0x8
 5885 1132 A90A     		.2byte	0xaa9
 5886 1134 55050000 		.4byte	0x555
 5887 1138 28       		.uleb128 0x28
 5888 1139 7C060000 		.4byte	.LASF326
 5889 113d 08       		.byte	0x8
 5890 113e AA0A     		.2byte	0xaaa
 5891 1140 A5040000 		.4byte	0x4a5
 5892 1144 29       		.uleb128 0x29
 5893 1145 0D0D0000 		.4byte	.LASF327
 5894 1149 01       		.byte	0x1
 5895 114a 20       		.byte	0x20
 5896 114b AD030000 		.4byte	0x3ad
 5897 114f 05       		.uleb128 0x5
 5898 1150 03       		.byte	0x3
 5899 1151 00000000 		.4byte	apiResult
 5900 1155 29       		.uleb128 0x29
 5901 1156 27040000 		.4byte	.LASF328
 5902 115a 01       		.byte	0x1
 5903 115b 1E       		.byte	0x1e
 5904 115c 01010000 		.4byte	0x101
 5905 1160 05       		.uleb128 0x5
 5906 1161 03       		.byte	0x3
 5907 1162 00000000 		.4byte	mainTimer
ARM GAS  C:\Users\13740\AppData\Local\Temp\cc4654uj.s 			page 134


 5908 1166 29       		.uleb128 0x29
 5909 1167 F9080000 		.4byte	.LASF329
 5910 116b 01       		.byte	0x1
 5911 116c 1F       		.byte	0x1f
 5912 116d FC000000 		.4byte	0xfc
 5913 1171 05       		.uleb128 0x5
 5914 1172 03       		.byte	0x3
 5915 1173 00000000 		.4byte	measurementFlag
 5916 1177 0D       		.uleb128 0xd
 5917 1178 97000000 		.4byte	0x97
 5918 117c 87110000 		.4byte	0x1187
 5919 1180 0E       		.uleb128 0xe
 5920 1181 0D010000 		.4byte	0x10d
 5921 1185 07       		.byte	0x7
 5922 1186 00       		.byte	0
 5923 1187 29       		.uleb128 0x29
 5924 1188 CA140000 		.4byte	.LASF330
 5925 118c 01       		.byte	0x1
 5926 118d 14       		.byte	0x14
 5927 118e 77110000 		.4byte	0x1177
 5928 1192 05       		.uleb128 0x5
 5929 1193 03       		.byte	0x3
 5930 1194 00000000 		.4byte	g_SPI_Debug_Buf
 5931 1198 29       		.uleb128 0x29
 5932 1199 6C100000 		.4byte	.LASF331
 5933 119d 01       		.byte	0x1
 5934 119e 18       		.byte	0x18
 5935 119f DB000000 		.4byte	0xdb
 5936 11a3 05       		.uleb128 0x5
 5937 11a4 03       		.byte	0x3
 5938 11a5 00000000 		.4byte	lastSendTime
 5939 11a9 29       		.uleb128 0x29
 5940 11aa BC000000 		.4byte	.LASF332
 5941 11ae 01       		.byte	0x1
 5942 11af 31       		.byte	0x31
 5943 11b0 4E080000 		.4byte	0x84e
 5944 11b4 05       		.uleb128 0x5
 5945 11b5 03       		.byte	0x3
 5946 11b6 00000000 		.4byte	sensorData
 5947 11ba 29       		.uleb128 0x29
 5948 11bb C5070000 		.4byte	.LASF333
 5949 11bf 01       		.byte	0x1
 5950 11c0 3F       		.byte	0x3f
 5951 11c1 CB110000 		.4byte	0x11cb
 5952 11c5 05       		.uleb128 0x5
 5953 11c6 03       		.byte	0x3
 5954 11c7 00000000 		.4byte	pAmpCfg
 5955 11cb 0F       		.uleb128 0xf
 5956 11cc 04       		.byte	0x4
 5957 11cd AE070000 		.4byte	0x7ae
 5958 11d1 0D       		.uleb128 0xd
 5959 11d2 DB000000 		.4byte	0xdb
 5960 11d6 E2110000 		.4byte	0x11e2
 5961 11da 2A       		.uleb128 0x2a
 5962 11db 0D010000 		.4byte	0x10d
 5963 11df FF01     		.2byte	0x1ff
 5964 11e1 00       		.byte	0
ARM GAS  C:\Users\13740\AppData\Local\Temp\cc4654uj.s 			page 135


 5965 11e2 29       		.uleb128 0x29
 5966 11e3 C6030000 		.4byte	.LASF334
 5967 11e7 01       		.byte	0x1
 5968 11e8 40       		.byte	0x40
 5969 11e9 D1110000 		.4byte	0x11d1
 5970 11ed 05       		.uleb128 0x5
 5971 11ee 03       		.byte	0x3
 5972 11ef 00000000 		.4byte	ampBuffer
 5973 11f3 29       		.uleb128 0x29
 5974 11f4 B3070000 		.4byte	.LASF335
 5975 11f8 01       		.byte	0x1
 5976 11f9 41       		.byte	0x41
 5977 11fa DA070000 		.4byte	0x7da
 5978 11fe 05       		.uleb128 0x5
 5979 11ff 03       		.byte	0x3
 5980 1200 00000000 		.4byte	ampResult
 5981 1204 0D       		.uleb128 0xd
 5982 1205 14120000 		.4byte	0x1214
 5983 1209 14120000 		.4byte	0x1214
 5984 120d 0E       		.uleb128 0xe
 5985 120e 0D010000 		.4byte	0x10d
 5986 1212 0D       		.byte	0xd
 5987 1213 00       		.byte	0
 5988 1214 11       		.uleb128 0x11
 5989 1215 2F090000 		.4byte	0x92f
 5990 1219 2B       		.uleb128 0x2b
 5991 121a B9020000 		.4byte	.LASF336
 5992 121e 01       		.byte	0x1
 5993 121f 8B04     		.2byte	0x48b
 5994 1221 2B120000 		.4byte	0x122b
 5995 1225 05       		.uleb128 0x5
 5996 1226 03       		.byte	0x3
 5997 1227 00000000 		.4byte	g_RegTable
 5998 122b 11       		.uleb128 0x11
 5999 122c 04120000 		.4byte	0x1204
 6000 1230 00       		.byte	0
 6001              		.section	.debug_abbrev,"",%progbits
 6002              	.Ldebug_abbrev0:
 6003 0000 01       		.uleb128 0x1
 6004 0001 11       		.uleb128 0x11
 6005 0002 01       		.byte	0x1
 6006 0003 25       		.uleb128 0x25
 6007 0004 0E       		.uleb128 0xe
 6008 0005 13       		.uleb128 0x13
 6009 0006 0B       		.uleb128 0xb
 6010 0007 03       		.uleb128 0x3
 6011 0008 0E       		.uleb128 0xe
 6012 0009 1B       		.uleb128 0x1b
 6013 000a 0E       		.uleb128 0xe
 6014 000b 55       		.uleb128 0x55
 6015 000c 17       		.uleb128 0x17
 6016 000d 11       		.uleb128 0x11
 6017 000e 01       		.uleb128 0x1
 6018 000f 10       		.uleb128 0x10
 6019 0010 17       		.uleb128 0x17
 6020 0011 00       		.byte	0
 6021 0012 00       		.byte	0
ARM GAS  C:\Users\13740\AppData\Local\Temp\cc4654uj.s 			page 136


 6022 0013 02       		.uleb128 0x2
 6023 0014 24       		.uleb128 0x24
 6024 0015 00       		.byte	0
 6025 0016 0B       		.uleb128 0xb
 6026 0017 0B       		.uleb128 0xb
 6027 0018 3E       		.uleb128 0x3e
 6028 0019 0B       		.uleb128 0xb
 6029 001a 03       		.uleb128 0x3
 6030 001b 0E       		.uleb128 0xe
 6031 001c 00       		.byte	0
 6032 001d 00       		.byte	0
 6033 001e 03       		.uleb128 0x3
 6034 001f 16       		.uleb128 0x16
 6035 0020 00       		.byte	0
 6036 0021 03       		.uleb128 0x3
 6037 0022 0E       		.uleb128 0xe
 6038 0023 3A       		.uleb128 0x3a
 6039 0024 0B       		.uleb128 0xb
 6040 0025 3B       		.uleb128 0x3b
 6041 0026 0B       		.uleb128 0xb
 6042 0027 49       		.uleb128 0x49
 6043 0028 13       		.uleb128 0x13
 6044 0029 00       		.byte	0
 6045 002a 00       		.byte	0
 6046 002b 04       		.uleb128 0x4
 6047 002c 24       		.uleb128 0x24
 6048 002d 00       		.byte	0
 6049 002e 0B       		.uleb128 0xb
 6050 002f 0B       		.uleb128 0xb
 6051 0030 3E       		.uleb128 0x3e
 6052 0031 0B       		.uleb128 0xb
 6053 0032 03       		.uleb128 0x3
 6054 0033 08       		.uleb128 0x8
 6055 0034 00       		.byte	0
 6056 0035 00       		.byte	0
 6057 0036 05       		.uleb128 0x5
 6058 0037 16       		.uleb128 0x16
 6059 0038 00       		.byte	0
 6060 0039 03       		.uleb128 0x3
 6061 003a 0E       		.uleb128 0xe
 6062 003b 3A       		.uleb128 0x3a
 6063 003c 0B       		.uleb128 0xb
 6064 003d 3B       		.uleb128 0x3b
 6065 003e 05       		.uleb128 0x5
 6066 003f 49       		.uleb128 0x49
 6067 0040 13       		.uleb128 0x13
 6068 0041 00       		.byte	0
 6069 0042 00       		.byte	0
 6070 0043 06       		.uleb128 0x6
 6071 0044 35       		.uleb128 0x35
 6072 0045 00       		.byte	0
 6073 0046 49       		.uleb128 0x49
 6074 0047 13       		.uleb128 0x13
 6075 0048 00       		.byte	0
 6076 0049 00       		.byte	0
 6077 004a 07       		.uleb128 0x7
 6078 004b 0F       		.uleb128 0xf
ARM GAS  C:\Users\13740\AppData\Local\Temp\cc4654uj.s 			page 137


 6079 004c 00       		.byte	0
 6080 004d 0B       		.uleb128 0xb
 6081 004e 0B       		.uleb128 0xb
 6082 004f 00       		.byte	0
 6083 0050 00       		.byte	0
 6084 0051 08       		.uleb128 0x8
 6085 0052 04       		.uleb128 0x4
 6086 0053 01       		.byte	0x1
 6087 0054 0B       		.uleb128 0xb
 6088 0055 0B       		.uleb128 0xb
 6089 0056 49       		.uleb128 0x49
 6090 0057 13       		.uleb128 0x13
 6091 0058 3A       		.uleb128 0x3a
 6092 0059 0B       		.uleb128 0xb
 6093 005a 3B       		.uleb128 0x3b
 6094 005b 05       		.uleb128 0x5
 6095 005c 01       		.uleb128 0x1
 6096 005d 13       		.uleb128 0x13
 6097 005e 00       		.byte	0
 6098 005f 00       		.byte	0
 6099 0060 09       		.uleb128 0x9
 6100 0061 28       		.uleb128 0x28
 6101 0062 00       		.byte	0
 6102 0063 03       		.uleb128 0x3
 6103 0064 0E       		.uleb128 0xe
 6104 0065 1C       		.uleb128 0x1c
 6105 0066 0B       		.uleb128 0xb
 6106 0067 00       		.byte	0
 6107 0068 00       		.byte	0
 6108 0069 0A       		.uleb128 0xa
 6109 006a 28       		.uleb128 0x28
 6110 006b 00       		.byte	0
 6111 006c 03       		.uleb128 0x3
 6112 006d 0E       		.uleb128 0xe
 6113 006e 1C       		.uleb128 0x1c
 6114 006f 05       		.uleb128 0x5
 6115 0070 00       		.byte	0
 6116 0071 00       		.byte	0
 6117 0072 0B       		.uleb128 0xb
 6118 0073 13       		.uleb128 0x13
 6119 0074 01       		.byte	0x1
 6120 0075 0B       		.uleb128 0xb
 6121 0076 0B       		.uleb128 0xb
 6122 0077 3A       		.uleb128 0x3a
 6123 0078 0B       		.uleb128 0xb
 6124 0079 3B       		.uleb128 0x3b
 6125 007a 05       		.uleb128 0x5
 6126 007b 01       		.uleb128 0x1
 6127 007c 13       		.uleb128 0x13
 6128 007d 00       		.byte	0
 6129 007e 00       		.byte	0
 6130 007f 0C       		.uleb128 0xc
 6131 0080 0D       		.uleb128 0xd
 6132 0081 00       		.byte	0
 6133 0082 03       		.uleb128 0x3
 6134 0083 0E       		.uleb128 0xe
 6135 0084 3A       		.uleb128 0x3a
ARM GAS  C:\Users\13740\AppData\Local\Temp\cc4654uj.s 			page 138


 6136 0085 0B       		.uleb128 0xb
 6137 0086 3B       		.uleb128 0x3b
 6138 0087 05       		.uleb128 0x5
 6139 0088 49       		.uleb128 0x49
 6140 0089 13       		.uleb128 0x13
 6141 008a 38       		.uleb128 0x38
 6142 008b 0B       		.uleb128 0xb
 6143 008c 00       		.byte	0
 6144 008d 00       		.byte	0
 6145 008e 0D       		.uleb128 0xd
 6146 008f 01       		.uleb128 0x1
 6147 0090 01       		.byte	0x1
 6148 0091 49       		.uleb128 0x49
 6149 0092 13       		.uleb128 0x13
 6150 0093 01       		.uleb128 0x1
 6151 0094 13       		.uleb128 0x13
 6152 0095 00       		.byte	0
 6153 0096 00       		.byte	0
 6154 0097 0E       		.uleb128 0xe
 6155 0098 21       		.uleb128 0x21
 6156 0099 00       		.byte	0
 6157 009a 49       		.uleb128 0x49
 6158 009b 13       		.uleb128 0x13
 6159 009c 2F       		.uleb128 0x2f
 6160 009d 0B       		.uleb128 0xb
 6161 009e 00       		.byte	0
 6162 009f 00       		.byte	0
 6163 00a0 0F       		.uleb128 0xf
 6164 00a1 0F       		.uleb128 0xf
 6165 00a2 00       		.byte	0
 6166 00a3 0B       		.uleb128 0xb
 6167 00a4 0B       		.uleb128 0xb
 6168 00a5 49       		.uleb128 0x49
 6169 00a6 13       		.uleb128 0x13
 6170 00a7 00       		.byte	0
 6171 00a8 00       		.byte	0
 6172 00a9 10       		.uleb128 0x10
 6173 00aa 0D       		.uleb128 0xd
 6174 00ab 00       		.byte	0
 6175 00ac 03       		.uleb128 0x3
 6176 00ad 08       		.uleb128 0x8
 6177 00ae 3A       		.uleb128 0x3a
 6178 00af 0B       		.uleb128 0xb
 6179 00b0 3B       		.uleb128 0x3b
 6180 00b1 05       		.uleb128 0x5
 6181 00b2 49       		.uleb128 0x49
 6182 00b3 13       		.uleb128 0x13
 6183 00b4 38       		.uleb128 0x38
 6184 00b5 0B       		.uleb128 0xb
 6185 00b6 00       		.byte	0
 6186 00b7 00       		.byte	0
 6187 00b8 11       		.uleb128 0x11
 6188 00b9 26       		.uleb128 0x26
 6189 00ba 00       		.byte	0
 6190 00bb 49       		.uleb128 0x49
 6191 00bc 13       		.uleb128 0x13
 6192 00bd 00       		.byte	0
ARM GAS  C:\Users\13740\AppData\Local\Temp\cc4654uj.s 			page 139


 6193 00be 00       		.byte	0
 6194 00bf 12       		.uleb128 0x12
 6195 00c0 13       		.uleb128 0x13
 6196 00c1 01       		.byte	0x1
 6197 00c2 0B       		.uleb128 0xb
 6198 00c3 0B       		.uleb128 0xb
 6199 00c4 3A       		.uleb128 0x3a
 6200 00c5 0B       		.uleb128 0xb
 6201 00c6 3B       		.uleb128 0x3b
 6202 00c7 0B       		.uleb128 0xb
 6203 00c8 01       		.uleb128 0x1
 6204 00c9 13       		.uleb128 0x13
 6205 00ca 00       		.byte	0
 6206 00cb 00       		.byte	0
 6207 00cc 13       		.uleb128 0x13
 6208 00cd 0D       		.uleb128 0xd
 6209 00ce 00       		.byte	0
 6210 00cf 03       		.uleb128 0x3
 6211 00d0 0E       		.uleb128 0xe
 6212 00d1 3A       		.uleb128 0x3a
 6213 00d2 0B       		.uleb128 0xb
 6214 00d3 3B       		.uleb128 0x3b
 6215 00d4 0B       		.uleb128 0xb
 6216 00d5 49       		.uleb128 0x49
 6217 00d6 13       		.uleb128 0x13
 6218 00d7 38       		.uleb128 0x38
 6219 00d8 0B       		.uleb128 0xb
 6220 00d9 00       		.byte	0
 6221 00da 00       		.byte	0
 6222 00db 14       		.uleb128 0x14
 6223 00dc 04       		.uleb128 0x4
 6224 00dd 01       		.byte	0x1
 6225 00de 0B       		.uleb128 0xb
 6226 00df 0B       		.uleb128 0xb
 6227 00e0 49       		.uleb128 0x49
 6228 00e1 13       		.uleb128 0x13
 6229 00e2 3A       		.uleb128 0x3a
 6230 00e3 0B       		.uleb128 0xb
 6231 00e4 3B       		.uleb128 0x3b
 6232 00e5 0B       		.uleb128 0xb
 6233 00e6 01       		.uleb128 0x1
 6234 00e7 13       		.uleb128 0x13
 6235 00e8 00       		.byte	0
 6236 00e9 00       		.byte	0
 6237 00ea 15       		.uleb128 0x15
 6238 00eb 2E       		.uleb128 0x2e
 6239 00ec 01       		.byte	0x1
 6240 00ed 3F       		.uleb128 0x3f
 6241 00ee 19       		.uleb128 0x19
 6242 00ef 03       		.uleb128 0x3
 6243 00f0 0E       		.uleb128 0xe
 6244 00f1 3A       		.uleb128 0x3a
 6245 00f2 0B       		.uleb128 0xb
 6246 00f3 3B       		.uleb128 0x3b
 6247 00f4 0B       		.uleb128 0xb
 6248 00f5 27       		.uleb128 0x27
 6249 00f6 19       		.uleb128 0x19
ARM GAS  C:\Users\13740\AppData\Local\Temp\cc4654uj.s 			page 140


 6250 00f7 11       		.uleb128 0x11
 6251 00f8 01       		.uleb128 0x1
 6252 00f9 12       		.uleb128 0x12
 6253 00fa 06       		.uleb128 0x6
 6254 00fb 40       		.uleb128 0x40
 6255 00fc 18       		.uleb128 0x18
 6256 00fd 9642     		.uleb128 0x2116
 6257 00ff 19       		.uleb128 0x19
 6258 0100 01       		.uleb128 0x1
 6259 0101 13       		.uleb128 0x13
 6260 0102 00       		.byte	0
 6261 0103 00       		.byte	0
 6262 0104 16       		.uleb128 0x16
 6263 0105 34       		.uleb128 0x34
 6264 0106 00       		.byte	0
 6265 0107 03       		.uleb128 0x3
 6266 0108 0E       		.uleb128 0xe
 6267 0109 3A       		.uleb128 0x3a
 6268 010a 0B       		.uleb128 0xb
 6269 010b 3B       		.uleb128 0x3b
 6270 010c 0B       		.uleb128 0xb
 6271 010d 49       		.uleb128 0x49
 6272 010e 13       		.uleb128 0x13
 6273 010f 02       		.uleb128 0x2
 6274 0110 18       		.uleb128 0x18
 6275 0111 00       		.byte	0
 6276 0112 00       		.byte	0
 6277 0113 17       		.uleb128 0x17
 6278 0114 0B       		.uleb128 0xb
 6279 0115 01       		.byte	0x1
 6280 0116 11       		.uleb128 0x11
 6281 0117 01       		.uleb128 0x1
 6282 0118 12       		.uleb128 0x12
 6283 0119 06       		.uleb128 0x6
 6284 011a 00       		.byte	0
 6285 011b 00       		.byte	0
 6286 011c 18       		.uleb128 0x18
 6287 011d 2E       		.uleb128 0x2e
 6288 011e 00       		.byte	0
 6289 011f 3F       		.uleb128 0x3f
 6290 0120 19       		.uleb128 0x19
 6291 0121 03       		.uleb128 0x3
 6292 0122 0E       		.uleb128 0xe
 6293 0123 3A       		.uleb128 0x3a
 6294 0124 0B       		.uleb128 0xb
 6295 0125 3B       		.uleb128 0x3b
 6296 0126 0B       		.uleb128 0xb
 6297 0127 27       		.uleb128 0x27
 6298 0128 19       		.uleb128 0x19
 6299 0129 11       		.uleb128 0x11
 6300 012a 01       		.uleb128 0x1
 6301 012b 12       		.uleb128 0x12
 6302 012c 06       		.uleb128 0x6
 6303 012d 40       		.uleb128 0x40
 6304 012e 18       		.uleb128 0x18
 6305 012f 9642     		.uleb128 0x2116
 6306 0131 19       		.uleb128 0x19
ARM GAS  C:\Users\13740\AppData\Local\Temp\cc4654uj.s 			page 141


 6307 0132 00       		.byte	0
 6308 0133 00       		.byte	0
 6309 0134 19       		.uleb128 0x19
 6310 0135 2E       		.uleb128 0x2e
 6311 0136 01       		.byte	0x1
 6312 0137 3F       		.uleb128 0x3f
 6313 0138 19       		.uleb128 0x19
 6314 0139 03       		.uleb128 0x3
 6315 013a 0E       		.uleb128 0xe
 6316 013b 3A       		.uleb128 0x3a
 6317 013c 0B       		.uleb128 0xb
 6318 013d 3B       		.uleb128 0x3b
 6319 013e 05       		.uleb128 0x5
 6320 013f 27       		.uleb128 0x27
 6321 0140 19       		.uleb128 0x19
 6322 0141 49       		.uleb128 0x49
 6323 0142 13       		.uleb128 0x13
 6324 0143 11       		.uleb128 0x11
 6325 0144 01       		.uleb128 0x1
 6326 0145 12       		.uleb128 0x12
 6327 0146 06       		.uleb128 0x6
 6328 0147 40       		.uleb128 0x40
 6329 0148 18       		.uleb128 0x18
 6330 0149 9642     		.uleb128 0x2116
 6331 014b 19       		.uleb128 0x19
 6332 014c 01       		.uleb128 0x1
 6333 014d 13       		.uleb128 0x13
 6334 014e 00       		.byte	0
 6335 014f 00       		.byte	0
 6336 0150 1A       		.uleb128 0x1a
 6337 0151 05       		.uleb128 0x5
 6338 0152 00       		.byte	0
 6339 0153 03       		.uleb128 0x3
 6340 0154 0E       		.uleb128 0xe
 6341 0155 3A       		.uleb128 0x3a
 6342 0156 0B       		.uleb128 0xb
 6343 0157 3B       		.uleb128 0x3b
 6344 0158 05       		.uleb128 0x5
 6345 0159 49       		.uleb128 0x49
 6346 015a 13       		.uleb128 0x13
 6347 015b 02       		.uleb128 0x2
 6348 015c 18       		.uleb128 0x18
 6349 015d 00       		.byte	0
 6350 015e 00       		.byte	0
 6351 015f 1B       		.uleb128 0x1b
 6352 0160 34       		.uleb128 0x34
 6353 0161 00       		.byte	0
 6354 0162 03       		.uleb128 0x3
 6355 0163 0E       		.uleb128 0xe
 6356 0164 3A       		.uleb128 0x3a
 6357 0165 0B       		.uleb128 0xb
 6358 0166 3B       		.uleb128 0x3b
 6359 0167 05       		.uleb128 0x5
 6360 0168 49       		.uleb128 0x49
 6361 0169 13       		.uleb128 0x13
 6362 016a 02       		.uleb128 0x2
 6363 016b 18       		.uleb128 0x18
ARM GAS  C:\Users\13740\AppData\Local\Temp\cc4654uj.s 			page 142


 6364 016c 00       		.byte	0
 6365 016d 00       		.byte	0
 6366 016e 1C       		.uleb128 0x1c
 6367 016f 2E       		.uleb128 0x2e
 6368 0170 01       		.byte	0x1
 6369 0171 3F       		.uleb128 0x3f
 6370 0172 19       		.uleb128 0x19
 6371 0173 03       		.uleb128 0x3
 6372 0174 0E       		.uleb128 0xe
 6373 0175 3A       		.uleb128 0x3a
 6374 0176 0B       		.uleb128 0xb
 6375 0177 3B       		.uleb128 0x3b
 6376 0178 05       		.uleb128 0x5
 6377 0179 27       		.uleb128 0x27
 6378 017a 19       		.uleb128 0x19
 6379 017b 49       		.uleb128 0x49
 6380 017c 13       		.uleb128 0x13
 6381 017d 11       		.uleb128 0x11
 6382 017e 01       		.uleb128 0x1
 6383 017f 12       		.uleb128 0x12
 6384 0180 06       		.uleb128 0x6
 6385 0181 40       		.uleb128 0x40
 6386 0182 18       		.uleb128 0x18
 6387 0183 9742     		.uleb128 0x2117
 6388 0185 19       		.uleb128 0x19
 6389 0186 01       		.uleb128 0x1
 6390 0187 13       		.uleb128 0x13
 6391 0188 00       		.byte	0
 6392 0189 00       		.byte	0
 6393 018a 1D       		.uleb128 0x1d
 6394 018b 34       		.uleb128 0x34
 6395 018c 00       		.byte	0
 6396 018d 03       		.uleb128 0x3
 6397 018e 0E       		.uleb128 0xe
 6398 018f 3A       		.uleb128 0x3a
 6399 0190 0B       		.uleb128 0xb
 6400 0191 3B       		.uleb128 0x3b
 6401 0192 05       		.uleb128 0x5
 6402 0193 49       		.uleb128 0x49
 6403 0194 13       		.uleb128 0x13
 6404 0195 00       		.byte	0
 6405 0196 00       		.byte	0
 6406 0197 1E       		.uleb128 0x1e
 6407 0198 2E       		.uleb128 0x2e
 6408 0199 01       		.byte	0x1
 6409 019a 3F       		.uleb128 0x3f
 6410 019b 19       		.uleb128 0x19
 6411 019c 03       		.uleb128 0x3
 6412 019d 0E       		.uleb128 0xe
 6413 019e 3A       		.uleb128 0x3a
 6414 019f 0B       		.uleb128 0xb
 6415 01a0 3B       		.uleb128 0x3b
 6416 01a1 05       		.uleb128 0x5
 6417 01a2 49       		.uleb128 0x49
 6418 01a3 13       		.uleb128 0x13
 6419 01a4 3C       		.uleb128 0x3c
 6420 01a5 19       		.uleb128 0x19
ARM GAS  C:\Users\13740\AppData\Local\Temp\cc4654uj.s 			page 143


 6421 01a6 00       		.byte	0
 6422 01a7 00       		.byte	0
 6423 01a8 1F       		.uleb128 0x1f
 6424 01a9 18       		.uleb128 0x18
 6425 01aa 00       		.byte	0
 6426 01ab 00       		.byte	0
 6427 01ac 00       		.byte	0
 6428 01ad 20       		.uleb128 0x20
 6429 01ae 2E       		.uleb128 0x2e
 6430 01af 01       		.byte	0x1
 6431 01b0 3F       		.uleb128 0x3f
 6432 01b1 19       		.uleb128 0x19
 6433 01b2 03       		.uleb128 0x3
 6434 01b3 0E       		.uleb128 0xe
 6435 01b4 3A       		.uleb128 0x3a
 6436 01b5 0B       		.uleb128 0xb
 6437 01b6 3B       		.uleb128 0x3b
 6438 01b7 05       		.uleb128 0x5
 6439 01b8 27       		.uleb128 0x27
 6440 01b9 19       		.uleb128 0x19
 6441 01ba 11       		.uleb128 0x11
 6442 01bb 01       		.uleb128 0x1
 6443 01bc 12       		.uleb128 0x12
 6444 01bd 06       		.uleb128 0x6
 6445 01be 40       		.uleb128 0x40
 6446 01bf 18       		.uleb128 0x18
 6447 01c0 9642     		.uleb128 0x2116
 6448 01c2 19       		.uleb128 0x19
 6449 01c3 01       		.uleb128 0x1
 6450 01c4 13       		.uleb128 0x13
 6451 01c5 00       		.byte	0
 6452 01c6 00       		.byte	0
 6453 01c7 21       		.uleb128 0x21
 6454 01c8 2E       		.uleb128 0x2e
 6455 01c9 00       		.byte	0
 6456 01ca 3F       		.uleb128 0x3f
 6457 01cb 19       		.uleb128 0x19
 6458 01cc 03       		.uleb128 0x3
 6459 01cd 0E       		.uleb128 0xe
 6460 01ce 3A       		.uleb128 0x3a
 6461 01cf 0B       		.uleb128 0xb
 6462 01d0 3B       		.uleb128 0x3b
 6463 01d1 05       		.uleb128 0x5
 6464 01d2 27       		.uleb128 0x27
 6465 01d3 19       		.uleb128 0x19
 6466 01d4 11       		.uleb128 0x11
 6467 01d5 01       		.uleb128 0x1
 6468 01d6 12       		.uleb128 0x12
 6469 01d7 06       		.uleb128 0x6
 6470 01d8 40       		.uleb128 0x40
 6471 01d9 18       		.uleb128 0x18
 6472 01da 9742     		.uleb128 0x2117
 6473 01dc 19       		.uleb128 0x19
 6474 01dd 00       		.byte	0
 6475 01de 00       		.byte	0
 6476 01df 22       		.uleb128 0x22
 6477 01e0 0B       		.uleb128 0xb
ARM GAS  C:\Users\13740\AppData\Local\Temp\cc4654uj.s 			page 144


 6478 01e1 01       		.byte	0x1
 6479 01e2 11       		.uleb128 0x11
 6480 01e3 01       		.uleb128 0x1
 6481 01e4 12       		.uleb128 0x12
 6482 01e5 06       		.uleb128 0x6
 6483 01e6 01       		.uleb128 0x1
 6484 01e7 13       		.uleb128 0x13
 6485 01e8 00       		.byte	0
 6486 01e9 00       		.byte	0
 6487 01ea 23       		.uleb128 0x23
 6488 01eb 34       		.uleb128 0x34
 6489 01ec 00       		.byte	0
 6490 01ed 03       		.uleb128 0x3
 6491 01ee 08       		.uleb128 0x8
 6492 01ef 3A       		.uleb128 0x3a
 6493 01f0 0B       		.uleb128 0xb
 6494 01f1 3B       		.uleb128 0x3b
 6495 01f2 05       		.uleb128 0x5
 6496 01f3 49       		.uleb128 0x49
 6497 01f4 13       		.uleb128 0x13
 6498 01f5 02       		.uleb128 0x2
 6499 01f6 18       		.uleb128 0x18
 6500 01f7 00       		.byte	0
 6501 01f8 00       		.byte	0
 6502 01f9 24       		.uleb128 0x24
 6503 01fa 2E       		.uleb128 0x2e
 6504 01fb 00       		.byte	0
 6505 01fc 3F       		.uleb128 0x3f
 6506 01fd 19       		.uleb128 0x19
 6507 01fe 03       		.uleb128 0x3
 6508 01ff 0E       		.uleb128 0xe
 6509 0200 3A       		.uleb128 0x3a
 6510 0201 0B       		.uleb128 0xb
 6511 0202 3B       		.uleb128 0x3b
 6512 0203 05       		.uleb128 0x5
 6513 0204 27       		.uleb128 0x27
 6514 0205 19       		.uleb128 0x19
 6515 0206 11       		.uleb128 0x11
 6516 0207 01       		.uleb128 0x1
 6517 0208 12       		.uleb128 0x12
 6518 0209 06       		.uleb128 0x6
 6519 020a 40       		.uleb128 0x40
 6520 020b 18       		.uleb128 0x18
 6521 020c 9642     		.uleb128 0x2116
 6522 020e 19       		.uleb128 0x19
 6523 020f 00       		.byte	0
 6524 0210 00       		.byte	0
 6525 0211 25       		.uleb128 0x25
 6526 0212 34       		.uleb128 0x34
 6527 0213 00       		.byte	0
 6528 0214 03       		.uleb128 0x3
 6529 0215 08       		.uleb128 0x8
 6530 0216 3A       		.uleb128 0x3a
 6531 0217 0B       		.uleb128 0xb
 6532 0218 3B       		.uleb128 0x3b
 6533 0219 05       		.uleb128 0x5
 6534 021a 49       		.uleb128 0x49
ARM GAS  C:\Users\13740\AppData\Local\Temp\cc4654uj.s 			page 145


 6535 021b 13       		.uleb128 0x13
 6536 021c 00       		.byte	0
 6537 021d 00       		.byte	0
 6538 021e 26       		.uleb128 0x26
 6539 021f 2E       		.uleb128 0x2e
 6540 0220 01       		.byte	0x1
 6541 0221 03       		.uleb128 0x3
 6542 0222 0E       		.uleb128 0xe
 6543 0223 3A       		.uleb128 0x3a
 6544 0224 0B       		.uleb128 0xb
 6545 0225 3B       		.uleb128 0x3b
 6546 0226 05       		.uleb128 0x5
 6547 0227 27       		.uleb128 0x27
 6548 0228 19       		.uleb128 0x19
 6549 0229 11       		.uleb128 0x11
 6550 022a 01       		.uleb128 0x1
 6551 022b 12       		.uleb128 0x12
 6552 022c 06       		.uleb128 0x6
 6553 022d 40       		.uleb128 0x40
 6554 022e 18       		.uleb128 0x18
 6555 022f 9642     		.uleb128 0x2116
 6556 0231 19       		.uleb128 0x19
 6557 0232 01       		.uleb128 0x1
 6558 0233 13       		.uleb128 0x13
 6559 0234 00       		.byte	0
 6560 0235 00       		.byte	0
 6561 0236 27       		.uleb128 0x27
 6562 0237 2E       		.uleb128 0x2e
 6563 0238 01       		.byte	0x1
 6564 0239 3F       		.uleb128 0x3f
 6565 023a 19       		.uleb128 0x19
 6566 023b 03       		.uleb128 0x3
 6567 023c 0E       		.uleb128 0xe
 6568 023d 3A       		.uleb128 0x3a
 6569 023e 0B       		.uleb128 0xb
 6570 023f 3B       		.uleb128 0x3b
 6571 0240 05       		.uleb128 0x5
 6572 0241 49       		.uleb128 0x49
 6573 0242 13       		.uleb128 0x13
 6574 0243 11       		.uleb128 0x11
 6575 0244 01       		.uleb128 0x1
 6576 0245 12       		.uleb128 0x12
 6577 0246 06       		.uleb128 0x6
 6578 0247 40       		.uleb128 0x40
 6579 0248 18       		.uleb128 0x18
 6580 0249 9642     		.uleb128 0x2116
 6581 024b 19       		.uleb128 0x19
 6582 024c 01       		.uleb128 0x1
 6583 024d 13       		.uleb128 0x13
 6584 024e 00       		.byte	0
 6585 024f 00       		.byte	0
 6586 0250 28       		.uleb128 0x28
 6587 0251 34       		.uleb128 0x34
 6588 0252 00       		.byte	0
 6589 0253 03       		.uleb128 0x3
 6590 0254 0E       		.uleb128 0xe
 6591 0255 3A       		.uleb128 0x3a
ARM GAS  C:\Users\13740\AppData\Local\Temp\cc4654uj.s 			page 146


 6592 0256 0B       		.uleb128 0xb
 6593 0257 3B       		.uleb128 0x3b
 6594 0258 05       		.uleb128 0x5
 6595 0259 49       		.uleb128 0x49
 6596 025a 13       		.uleb128 0x13
 6597 025b 3F       		.uleb128 0x3f
 6598 025c 19       		.uleb128 0x19
 6599 025d 3C       		.uleb128 0x3c
 6600 025e 19       		.uleb128 0x19
 6601 025f 00       		.byte	0
 6602 0260 00       		.byte	0
 6603 0261 29       		.uleb128 0x29
 6604 0262 34       		.uleb128 0x34
 6605 0263 00       		.byte	0
 6606 0264 03       		.uleb128 0x3
 6607 0265 0E       		.uleb128 0xe
 6608 0266 3A       		.uleb128 0x3a
 6609 0267 0B       		.uleb128 0xb
 6610 0268 3B       		.uleb128 0x3b
 6611 0269 0B       		.uleb128 0xb
 6612 026a 49       		.uleb128 0x49
 6613 026b 13       		.uleb128 0x13
 6614 026c 3F       		.uleb128 0x3f
 6615 026d 19       		.uleb128 0x19
 6616 026e 02       		.uleb128 0x2
 6617 026f 18       		.uleb128 0x18
 6618 0270 00       		.byte	0
 6619 0271 00       		.byte	0
 6620 0272 2A       		.uleb128 0x2a
 6621 0273 21       		.uleb128 0x21
 6622 0274 00       		.byte	0
 6623 0275 49       		.uleb128 0x49
 6624 0276 13       		.uleb128 0x13
 6625 0277 2F       		.uleb128 0x2f
 6626 0278 05       		.uleb128 0x5
 6627 0279 00       		.byte	0
 6628 027a 00       		.byte	0
 6629 027b 2B       		.uleb128 0x2b
 6630 027c 34       		.uleb128 0x34
 6631 027d 00       		.byte	0
 6632 027e 03       		.uleb128 0x3
 6633 027f 0E       		.uleb128 0xe
 6634 0280 3A       		.uleb128 0x3a
 6635 0281 0B       		.uleb128 0xb
 6636 0282 3B       		.uleb128 0x3b
 6637 0283 05       		.uleb128 0x5
 6638 0284 49       		.uleb128 0x49
 6639 0285 13       		.uleb128 0x13
 6640 0286 3F       		.uleb128 0x3f
 6641 0287 19       		.uleb128 0x19
 6642 0288 02       		.uleb128 0x2
 6643 0289 18       		.uleb128 0x18
 6644 028a 00       		.byte	0
 6645 028b 00       		.byte	0
 6646 028c 00       		.byte	0
 6647              		.section	.debug_aranges,"",%progbits
 6648 0000 C4000000 		.4byte	0xc4
ARM GAS  C:\Users\13740\AppData\Local\Temp\cc4654uj.s 			page 147


 6649 0004 0200     		.2byte	0x2
 6650 0006 00000000 		.4byte	.Ldebug_info0
 6651 000a 04       		.byte	0x4
 6652 000b 00       		.byte	0
 6653 000c 0000     		.2byte	0
 6654 000e 0000     		.2byte	0
 6655 0010 00000000 		.4byte	.LFB36
 6656 0014 24030000 		.4byte	.LFE36-.LFB36
 6657 0018 00000000 		.4byte	.LFB37
 6658 001c E4000000 		.4byte	.LFE37-.LFB37
 6659 0020 00000000 		.4byte	.LFB38
 6660 0024 7C000000 		.4byte	.LFE38-.LFB38
 6661 0028 00000000 		.4byte	.LFB39
 6662 002c AC000000 		.4byte	.LFE39-.LFB39
 6663 0030 00000000 		.4byte	.LFB40
 6664 0034 20000000 		.4byte	.LFE40-.LFB40
 6665 0038 00000000 		.4byte	.LFB41
 6666 003c 4C010000 		.4byte	.LFE41-.LFB41
 6667 0040 00000000 		.4byte	.LFB42
 6668 0044 D4000000 		.4byte	.LFE42-.LFB42
 6669 0048 00000000 		.4byte	.LFB43
 6670 004c 10010000 		.4byte	.LFE43-.LFB43
 6671 0050 00000000 		.4byte	.LFB44
 6672 0054 2A000000 		.4byte	.LFE44-.LFB44
 6673 0058 00000000 		.4byte	.LFB45
 6674 005c 2A000000 		.4byte	.LFE45-.LFB45
 6675 0060 00000000 		.4byte	.LFB46
 6676 0064 0A000000 		.4byte	.LFE46-.LFB46
 6677 0068 00000000 		.4byte	.LFB47
 6678 006c F8000000 		.4byte	.LFE47-.LFB47
 6679 0070 00000000 		.4byte	.LFB48
 6680 0074 54010000 		.4byte	.LFE48-.LFB48
 6681 0078 00000000 		.4byte	.LFB49
 6682 007c 34000000 		.4byte	.LFE49-.LFB49
 6683 0080 00000000 		.4byte	.LFB50
 6684 0084 4C000000 		.4byte	.LFE50-.LFB50
 6685 0088 00000000 		.4byte	.LFB51
 6686 008c 74000000 		.4byte	.LFE51-.LFB51
 6687 0090 00000000 		.4byte	.LFB52
 6688 0094 A0000000 		.4byte	.LFE52-.LFB52
 6689 0098 00000000 		.4byte	.LFB53
 6690 009c 40020000 		.4byte	.LFE53-.LFB53
 6691 00a0 00000000 		.4byte	.LFB54
 6692 00a4 74000000 		.4byte	.LFE54-.LFB54
 6693 00a8 00000000 		.4byte	.LFB55
 6694 00ac 22000000 		.4byte	.LFE55-.LFB55
 6695 00b0 00000000 		.4byte	.LFB56
 6696 00b4 18040000 		.4byte	.LFE56-.LFB56
 6697 00b8 00000000 		.4byte	.LFB57
 6698 00bc A4000000 		.4byte	.LFE57-.LFB57
 6699 00c0 00000000 		.4byte	0
 6700 00c4 00000000 		.4byte	0
 6701              		.section	.debug_ranges,"",%progbits
 6702              	.Ldebug_ranges0:
 6703 0000 00000000 		.4byte	.LFB36
 6704 0004 24030000 		.4byte	.LFE36
 6705 0008 00000000 		.4byte	.LFB37
ARM GAS  C:\Users\13740\AppData\Local\Temp\cc4654uj.s 			page 148


 6706 000c E4000000 		.4byte	.LFE37
 6707 0010 00000000 		.4byte	.LFB38
 6708 0014 7C000000 		.4byte	.LFE38
 6709 0018 00000000 		.4byte	.LFB39
 6710 001c AC000000 		.4byte	.LFE39
 6711 0020 00000000 		.4byte	.LFB40
 6712 0024 20000000 		.4byte	.LFE40
 6713 0028 00000000 		.4byte	.LFB41
 6714 002c 4C010000 		.4byte	.LFE41
 6715 0030 00000000 		.4byte	.LFB42
 6716 0034 D4000000 		.4byte	.LFE42
 6717 0038 00000000 		.4byte	.LFB43
 6718 003c 10010000 		.4byte	.LFE43
 6719 0040 00000000 		.4byte	.LFB44
 6720 0044 2A000000 		.4byte	.LFE44
 6721 0048 00000000 		.4byte	.LFB45
 6722 004c 2A000000 		.4byte	.LFE45
 6723 0050 00000000 		.4byte	.LFB46
 6724 0054 0A000000 		.4byte	.LFE46
 6725 0058 00000000 		.4byte	.LFB47
 6726 005c F8000000 		.4byte	.LFE47
 6727 0060 00000000 		.4byte	.LFB48
 6728 0064 54010000 		.4byte	.LFE48
 6729 0068 00000000 		.4byte	.LFB49
 6730 006c 34000000 		.4byte	.LFE49
 6731 0070 00000000 		.4byte	.LFB50
 6732 0074 4C000000 		.4byte	.LFE50
 6733 0078 00000000 		.4byte	.LFB51
 6734 007c 74000000 		.4byte	.LFE51
 6735 0080 00000000 		.4byte	.LFB52
 6736 0084 A0000000 		.4byte	.LFE52
 6737 0088 00000000 		.4byte	.LFB53
 6738 008c 40020000 		.4byte	.LFE53
 6739 0090 00000000 		.4byte	.LFB54
 6740 0094 74000000 		.4byte	.LFE54
 6741 0098 00000000 		.4byte	.LFB55
 6742 009c 22000000 		.4byte	.LFE55
 6743 00a0 00000000 		.4byte	.LFB56
 6744 00a4 18040000 		.4byte	.LFE56
 6745 00a8 00000000 		.4byte	.LFB57
 6746 00ac A4000000 		.4byte	.LFE57
 6747 00b0 00000000 		.4byte	0
 6748 00b4 00000000 		.4byte	0
 6749              		.section	.debug_line,"",%progbits
 6750              	.Ldebug_line0:
 6751 0000 A1050000 		.section	.debug_str,"MS",%progbits,1
 6751      02009A01 
 6751      00000201 
 6751      FB0E0D00 
 6751      01010101 
 6752              	.LASF223:
 6753 0000 53454E53 		.ascii	"SENSOR_LACTATE\000"
 6753      4F525F4C 
 6753      41435441 
 6753      544500
 6754              	.LASF78:
 6755 000f 4359424C 		.ascii	"CYBLE_EVT_GATTC_STOP_CMD_COMPLETE\000"
ARM GAS  C:\Users\13740\AppData\Local\Temp\cc4654uj.s 			page 149


 6755      455F4556 
 6755      545F4741 
 6755      5454435F 
 6755      53544F50 
 6756              	.LASF74:
 6757 0031 4359424C 		.ascii	"CYBLE_EVT_GATTC_HANDLE_VALUE_NTF\000"
 6757      455F4556 
 6757      545F4741 
 6757      5454435F 
 6757      48414E44 
 6758              	.LASF200:
 6759 0052 567A6572 		.ascii	"Vzero\000"
 6759      6F00
 6760              	.LASF340:
 6761 0058 72616E64 		.ascii	"rand\000"
 6761      00
 6762              	.LASF267:
 6763 005d 616D7046 		.ascii	"ampFifoBuffer\000"
 6763      69666F42 
 6763      75666665 
 6763      7200
 6764              	.LASF279:
 6765 006b 6E6F7469 		.ascii	"notificationHandle\000"
 6765      66696361 
 6765      74696F6E 
 6765      48616E64 
 6765      6C6500
 6766              	.LASF314:
 6767 007e 675F6D65 		.ascii	"g_meas_start_time\000"
 6767      61735F73 
 6767      74617274 
 6767      5F74696D 
 6767      6500
 6768              	.LASF33:
 6769 0090 4359424C 		.ascii	"CYBLE_EVT_GAP_AUTH_REQ\000"
 6769      455F4556 
 6769      545F4741 
 6769      505F4155 
 6769      54485F52 
 6770              	.LASF294:
 6771 00a7 7067615F 		.ascii	"pga_gain\000"
 6771      6761696E 
 6771      00
 6772              	.LASF233:
 6773 00b0 4D656173 		.ascii	"MeasState_t\000"
 6773      53746174 
 6773      655F7400 
 6774              	.LASF332:
 6775 00bc 73656E73 		.ascii	"sensorData\000"
 6775      6F724461 
 6775      746100
 6776              	.LASF203:
 6777 00c7 45787452 		.ascii	"ExtRtiaVal\000"
 6777      74696156 
 6777      616C00
 6778              	.LASF106:
 6779 00d2 4359424C 		.ascii	"CYBLE_ERROR_GAP_ROLE\000"
ARM GAS  C:\Users\13740\AppData\Local\Temp\cc4654uj.s 			page 150


 6779      455F4552 
 6779      524F525F 
 6779      4741505F 
 6779      524F4C45 
 6780              	.LASF120:
 6781 00e7 4359424C 		.ascii	"CYBLE_ERROR_HARDWARE_FAILURE\000"
 6781      455F4552 
 6781      524F525F 
 6781      48415244 
 6781      57415245 
 6782              	.LASF58:
 6783 0104 4359424C 		.ascii	"CYBLE_EVT_GATT_DISCONNECT_IND\000"
 6783      455F4556 
 6783      545F4741 
 6783      54545F44 
 6783      4953434F 
 6784              	.LASF215:
 6785 0122 6C616374 		.ascii	"lactate\000"
 6785      61746500 
 6786              	.LASF199:
 6787 012a 52746961 		.ascii	"RtiaCalValue\000"
 6787      43616C56 
 6787      616C7565 
 6787      00
 6788              	.LASF289:
 6789 0137 6576656E 		.ascii	"eventParam\000"
 6789      74506172 
 6789      616D00
 6790              	.LASF276:
 6791 0142 44696167 		.ascii	"DiagnosticsElectrodes\000"
 6791      6E6F7374 
 6791      69637345 
 6791      6C656374 
 6791      726F6465 
 6792              	.LASF53:
 6793 0158 4359424C 		.ascii	"CYBLE_EVT_GAP_SCAN_REQ_RECVD\000"
 6793      455F4556 
 6793      545F4741 
 6793      505F5343 
 6793      414E5F52 
 6794              	.LASF308:
 6795 0175 64697370 		.ascii	"display_step\000"
 6795      6C61795F 
 6795      73746570 
 6795      00
 6796              	.LASF59:
 6797 0182 4359424C 		.ascii	"CYBLE_EVT_GATTS_XCNHG_MTU_REQ\000"
 6797      455F4556 
 6797      545F4741 
 6797      5454535F 
 6797      58434E48 
 6798              	.LASF77:
 6799 01a0 4359424C 		.ascii	"CYBLE_EVT_GATTS_DATA_SIGNED_CMD_REQ\000"
 6799      455F4556 
 6799      545F4741 
 6799      5454535F 
 6799      44415441 
ARM GAS  C:\Users\13740\AppData\Local\Temp\cc4654uj.s 			page 151


 6800              	.LASF99:
 6801 01c4 4359424C 		.ascii	"CYBLE_ERROR_INVALID_OPERATION\000"
 6801      455F4552 
 6801      524F525F 
 6801      494E5641 
 6801      4C49445F 
 6802              	.LASF28:
 6803 01e2 4359424C 		.ascii	"CYBLE_EVT_HARDWARE_ERROR\000"
 6803      455F4556 
 6803      545F4841 
 6803      52445741 
 6803      52455F45 
 6804              	.LASF12:
 6805 01fb 756E7369 		.ascii	"unsigned int\000"
 6805      676E6564 
 6805      20696E74 
 6805      00
 6806              	.LASF93:
 6807 0208 4359424C 		.ascii	"CYBLE_EVT_LE_PING_AUTH_TIMEOUT\000"
 6807      455F4556 
 6807      545F4C45 
 6807      5F50494E 
 6807      475F4155 
 6808              	.LASF90:
 6809 0227 4359424C 		.ascii	"CYBLE_EVT_L2CAP_CBFC_TX_CREDIT_IND\000"
 6809      455F4556 
 6809      545F4C32 
 6809      4341505F 
 6809      43424643 
 6810              	.LASF210:
 6811 024a 43757272 		.ascii	"Current\000"
 6811      656E7400 
 6812              	.LASF70:
 6813 0252 4359424C 		.ascii	"CYBLE_EVT_GATTS_WRITE_CMD_REQ\000"
 6813      455F4556 
 6813      545F4741 
 6813      5454535F 
 6813      57524954 
 6814              	.LASF6:
 6815 0270 5F5F696E 		.ascii	"__int32_t\000"
 6815      7433325F 
 6815      7400
 6816              	.LASF104:
 6817 027a 4359424C 		.ascii	"CYBLE_ERROR_NO_DEVICE_ENTITY\000"
 6817      455F4552 
 6817      524F525F 
 6817      4E4F5F44 
 6817      45564943 
 6818              	.LASF297:
 6819 0297 63757272 		.ascii	"current_A\000"
 6819      656E745F 
 6819      4100
 6820              	.LASF136:
 6821 02a1 4359424C 		.ascii	"CYBLE_LP_MODE_T\000"
 6821      455F4C50 
 6821      5F4D4F44 
 6821      455F5400 
ARM GAS  C:\Users\13740\AppData\Local\Temp\cc4654uj.s 			page 152


 6822              	.LASF264:
 6823 02b1 766F6C74 		.ascii	"voltage\000"
 6823      61676500 
 6824              	.LASF336:
 6825 02b9 675F5265 		.ascii	"g_RegTable\000"
 6825      67546162 
 6825      6C6500
 6826              	.LASF337:
 6827 02c4 474E5520 		.ascii	"GNU C11 5.4.1 20160609 (release) [ARM/embedded-5-br"
 6827      43313120 
 6827      352E342E 
 6827      31203230 
 6827      31363036 
 6828 02f7 616E6368 		.ascii	"anch revision 237715] -mcpu=cortex-m0 -mthumb -g -O"
 6828      20726576 
 6828      6973696F 
 6828      6E203233 
 6828      37373135 
 6829 032a 30202D66 		.ascii	"0 -ffunction-sections -ffat-lto-objects\000"
 6829      66756E63 
 6829      74696F6E 
 6829      2D736563 
 6829      74696F6E 
 6830              	.LASF209:
 6831 0352 41707041 		.ascii	"AppAMPCfg_Type\000"
 6831      4D504366 
 6831      675F5479 
 6831      706500
 6832              	.LASF205:
 6833 0361 496E6974 		.ascii	"InitSeqInfo\000"
 6833      53657149 
 6833      6E666F00 
 6834              	.LASF227:
 6835 036d 4D454153 		.ascii	"MEAS_IDLE\000"
 6835      5F49444C 
 6835      4500
 6836              	.LASF268:
 6837 0377 70437572 		.ascii	"pCurrentData\000"
 6837      72656E74 
 6837      44617461 
 6837      00
 6838              	.LASF105:
 6839 0384 4359424C 		.ascii	"CYBLE_ERROR_REPEATED_ATTEMPTS\000"
 6839      455F4552 
 6839      524F525F 
 6839      52455045 
 6839      41544544 
 6840              	.LASF34:
 6841 03a2 4359424C 		.ascii	"CYBLE_EVT_GAP_PASSKEY_ENTRY_REQUEST\000"
 6841      455F4556 
 6841      545F4741 
 6841      505F5041 
 6841      53534B45 
 6842              	.LASF334:
 6843 03c6 616D7042 		.ascii	"ampBuffer\000"
 6843      75666665 
 6843      7200
ARM GAS  C:\Users\13740\AppData\Local\Temp\cc4654uj.s 			page 153


 6844              	.LASF250:
 6845 03d0 6572726F 		.ascii	"error\000"
 6845      7200
 6846              	.LASF192:
 6847 03d6 41444350 		.ascii	"ADCPgaGain\000"
 6847      67614761 
 6847      696E00
 6848              	.LASF128:
 6849 03e1 4359424C 		.ascii	"CYBLE_ERROR_INVALID_STATE\000"
 6849      455F4552 
 6849      524F525F 
 6849      494E5641 
 6849      4C49445F 
 6850              	.LASF323:
 6851 03fb 675F7265 		.ascii	"g_reg_index\000"
 6851      675F696E 
 6851      64657800 
 6852              	.LASF191:
 6853 0407 5077724D 		.ascii	"PwrMod\000"
 6853      6F6400
 6854              	.LASF195:
 6855 040e 44617461 		.ascii	"DataFifoSrc\000"
 6855      4669666F 
 6855      53726300 
 6856              	.LASF207:
 6857 041a 53746F70 		.ascii	"StopRequired\000"
 6857      52657175 
 6857      69726564 
 6857      00
 6858              	.LASF328:
 6859 0427 6D61696E 		.ascii	"mainTimer\000"
 6859      54696D65 
 6859      7200
 6860              	.LASF42:
 6861 0431 4359424C 		.ascii	"CYBLE_EVT_GAP_CONNECTION_UPDATE_COMPLETE\000"
 6861      455F4556 
 6861      545F4741 
 6861      505F434F 
 6861      4E4E4543 
 6862              	.LASF278:
 6863 045a 53656E64 		.ascii	"SendLactateDataViaBLE\000"
 6863      4C616374 
 6863      61746544 
 6863      61746156 
 6863      6961424C 
 6864              	.LASF252:
 6865 0470 63686970 		.ascii	"chipid\000"
 6865      696400
 6866              	.LASF45:
 6867 0477 4359424C 		.ascii	"CYBLE_EVT_GAP_NUMERIC_COMPARISON_REQUEST\000"
 6867      455F4556 
 6867      545F4741 
 6867      505F4E55 
 6867      4D455249 
 6868              	.LASF185:
 6869 04a0 41646343 		.ascii	"AdcClkFreq\000"
 6869      6C6B4672 
ARM GAS  C:\Users\13740\AppData\Local\Temp\cc4654uj.s 			page 154


 6869      657100
 6870              	.LASF17:
 6871 04ab 75696E74 		.ascii	"uint8\000"
 6871      3800
 6872              	.LASF183:
 6873 04b1 53797343 		.ascii	"SysClkFreq\000"
 6873      6C6B4672 
 6873      657100
 6874              	.LASF175:
 6875 04bc 50686173 		.ascii	"Phase\000"
 6875      6500
 6876              	.LASF16:
 6877 04c2 75696E74 		.ascii	"uint32_t\000"
 6877      33325F74 
 6877      00
 6878              	.LASF92:
 6879 04cb 4359424C 		.ascii	"CYBLE_EVT_PENDING_FLASH_WRITE\000"
 6879      455F4556 
 6879      545F5045 
 6879      4E44494E 
 6879      475F464C 
 6880              	.LASF69:
 6881 04e9 4359424C 		.ascii	"CYBLE_EVT_GATTC_WRITE_RSP\000"
 6881      455F4556 
 6881      545F4741 
 6881      5454435F 
 6881      57524954 
 6882              	.LASF11:
 6883 0503 6C6F6E67 		.ascii	"long long unsigned int\000"
 6883      206C6F6E 
 6883      6720756E 
 6883      7369676E 
 6883      65642069 
 6884              	.LASF20:
 6885 051a 666C6F61 		.ascii	"float\000"
 6885      7400
 6886              	.LASF282:
 6887 0520 53656E64 		.ascii	"SendTemperatureViaBLE\000"
 6887      54656D70 
 6887      65726174 
 6887      75726556 
 6887      6961424C 
 6888              	.LASF193:
 6889 0536 41444353 		.ascii	"ADCSinc3Osr\000"
 6889      696E6333 
 6889      4F737200 
 6890              	.LASF288:
 6891 0542 6576656E 		.ascii	"event\000"
 6891      7400
 6892              	.LASF30:
 6893 0548 4359424C 		.ascii	"CYBLE_EVT_STACK_BUSY_STATUS\000"
 6893      455F4556 
 6893      545F5354 
 6893      41434B5F 
 6893      42555359 
 6894              	.LASF292:
 6895 0564 72746961 		.ascii	"rtia\000"
ARM GAS  C:\Users\13740\AppData\Local\Temp\cc4654uj.s 			page 155


 6895      00
 6896              	.LASF83:
 6897 0569 4359424C 		.ascii	"CYBLE_EVT_L2CAP_COMMAND_REJ\000"
 6897      455F4556 
 6897      545F4C32 
 6897      4341505F 
 6897      434F4D4D 
 6898              	.LASF236:
 6899 0585 494E4954 		.ascii	"INIT_CHECK_ID\000"
 6899      5F434845 
 6899      434B5F49 
 6899      4400
 6900              	.LASF290:
 6901 0593 41444343 		.ascii	"ADCCode_to_Current_nA\000"
 6901      6F64655F 
 6901      746F5F43 
 6901      75727265 
 6901      6E745F6E 
 6902              	.LASF177:
 6903 05a9 62506172 		.ascii	"bParaChanged\000"
 6903      61436861 
 6903      6E676564 
 6903      00
 6904              	.LASF298:
 6905 05b6 50726F63 		.ascii	"ProcessMeasurement\000"
 6905      6573734D 
 6905      65617375 
 6905      72656D65 
 6905      6E7400
 6906              	.LASF285:
 6907 05c9 53656E64 		.ascii	"SendAllSensorDataViaBLE\000"
 6907      416C6C53 
 6907      656E736F 
 6907      72446174 
 6907      61566961 
 6908              	.LASF131:
 6909 05e1 4359424C 		.ascii	"CYBLE_BLESS_ACTIVE\000"
 6909      455F424C 
 6909      4553535F 
 6909      41435449 
 6909      564500
 6910              	.LASF189:
 6911 05f4 5263616C 		.ascii	"RcalVal\000"
 6911      56616C00 
 6912              	.LASF320:
 6913 05fc 675F7465 		.ascii	"g_test_fifo_count\000"
 6913      73745F66 
 6913      69666F5F 
 6913      636F756E 
 6913      7400
 6914              	.LASF316:
 6915 060e 675F7465 		.ascii	"g_test_chipid\000"
 6915      73745F63 
 6915      68697069 
 6915      6400
 6916              	.LASF68:
 6917 061c 4359424C 		.ascii	"CYBLE_EVT_GATTS_WRITE_REQ\000"
ARM GAS  C:\Users\13740\AppData\Local\Temp\cc4654uj.s 			page 156


 6917      455F4556 
 6917      545F4741 
 6917      5454535F 
 6917      57524954 
 6918              	.LASF291:
 6919 0636 6164635F 		.ascii	"adc_code\000"
 6919      636F6465 
 6919      00
 6920              	.LASF249:
 6921 063f 7265675F 		.ascii	"reg_data\000"
 6921      64617461 
 6921      00
 6922              	.LASF169:
 6923 0648 53657152 		.ascii	"SeqRamAddr\000"
 6923      616D4164 
 6923      647200
 6924              	.LASF158:
 6925 0653 4359424C 		.ascii	"CYBLE_STATE_STOPPED\000"
 6925      455F5354 
 6925      4154455F 
 6925      53544F50 
 6925      50454400 
 6926              	.LASF211:
 6927 0667 566F6C74 		.ascii	"Voltage\000"
 6927      61676500 
 6928              	.LASF212:
 6929 066f 66416D70 		.ascii	"fAmpRes_Type\000"
 6929      5265735F 
 6929      54797065 
 6929      00
 6930              	.LASF326:
 6931 067c 6379426C 		.ascii	"cyBle_connHandle\000"
 6931      655F636F 
 6931      6E6E4861 
 6931      6E646C65 
 6931      00
 6932              	.LASF63:
 6933 068d 4359424C 		.ascii	"CYBLE_EVT_GATTC_FIND_INFO_RSP\000"
 6933      455F4556 
 6933      545F4741 
 6933      5454435F 
 6933      46494E44 
 6934              	.LASF139:
 6935 06ab 4359424C 		.ascii	"CYBLE_BLESS_STATE_SLEEP\000"
 6935      455F424C 
 6935      4553535F 
 6935      53544154 
 6935      455F534C 
 6936              	.LASF160:
 6937 06c3 4359424C 		.ascii	"CYBLE_STATE_CONNECTED\000"
 6937      455F5354 
 6937      4154455F 
 6937      434F4E4E 
 6937      45435445 
 6938              	.LASF274:
 6939 06d9 656E6162 		.ascii	"enable\000"
 6939      6C6500
ARM GAS  C:\Users\13740\AppData\Local\Temp\cc4654uj.s 			page 157


 6940              	.LASF301:
 6941 06e0 6669666F 		.ascii	"fifo_data\000"
 6941      5F646174 
 6941      6100
 6942              	.LASF238:
 6943 06ea 494E4954 		.ascii	"INIT_VERIFY_REG\000"
 6943      5F564552 
 6943      4946595F 
 6943      52454700 
 6944              	.LASF64:
 6945 06fa 4359424C 		.ascii	"CYBLE_EVT_GATTC_FIND_BY_TYPE_VALUE_RSP\000"
 6945      455F4556 
 6945      545F4741 
 6945      5454435F 
 6945      46494E44 
 6946              	.LASF154:
 6947 0721 76616C75 		.ascii	"value\000"
 6947      6500
 6948              	.LASF222:
 6949 0727 53454E53 		.ascii	"SENSOR_GLUCOSE\000"
 6949      4F525F47 
 6949      4C55434F 
 6949      534500
 6950              	.LASF72:
 6951 0736 4359424C 		.ascii	"CYBLE_EVT_GATTS_EXEC_WRITE_REQ\000"
 6951      455F4556 
 6951      545F4741 
 6951      5454535F 
 6951      45584543 
 6952              	.LASF73:
 6953 0755 4359424C 		.ascii	"CYBLE_EVT_GATTC_EXEC_WRITE_RSP\000"
 6953      455F4556 
 6953      545F4741 
 6953      5454435F 
 6953      45584543 
 6954              	.LASF325:
 6955 0774 6379426C 		.ascii	"cyBle_state\000"
 6955      655F7374 
 6955      61746500 
 6956              	.LASF151:
 6957 0780 4359424C 		.ascii	"CYBLE_CONN_HANDLE_T\000"
 6957      455F434F 
 6957      4E4E5F48 
 6957      414E444C 
 6957      455F5400 
 6958              	.LASF157:
 6959 0794 4359424C 		.ascii	"CYBLE_GATTS_HANDLE_VALUE_NTF_T\000"
 6959      455F4741 
 6959      5454535F 
 6959      48414E44 
 6959      4C455F56 
 6960              	.LASF335:
 6961 07b3 616D7052 		.ascii	"ampResult\000"
 6961      6573756C 
 6961      7400
 6962              	.LASF197:
 6963 07bd 4C705469 		.ascii	"LpTiaRf\000"
ARM GAS  C:\Users\13740\AppData\Local\Temp\cc4654uj.s 			page 158


 6963      61526600 
 6964              	.LASF333:
 6965 07c5 70416D70 		.ascii	"pAmpCfg\000"
 6965      43666700 
 6966              	.LASF79:
 6967 07cd 4359424C 		.ascii	"CYBLE_EVT_GATTS_READ_CHAR_VAL_ACCESS_REQ\000"
 6967      455F4556 
 6967      545F4741 
 6967      5454535F 
 6967      52454144 
 6968              	.LASF36:
 6969 07f6 4359424C 		.ascii	"CYBLE_EVT_GAP_AUTH_COMPLETE\000"
 6969      455F4556 
 6969      545F4741 
 6969      505F4155 
 6969      54485F43 
 6970              	.LASF108:
 6971 0812 4359424C 		.ascii	"CYBLE_ERROR_BT_ON_NOT_COMPLETED\000"
 6971      455F4552 
 6971      524F525F 
 6971      42545F4F 
 6971      4E5F4E4F 
 6972              	.LASF126:
 6973 0832 4359424C 		.ascii	"CYBLE_ERROR_IND_DISABLED\000"
 6973      455F4552 
 6973      524F525F 
 6973      494E445F 
 6973      44495341 
 6974              	.LASF231:
 6975 084b 4D454153 		.ascii	"MEAS_NEXT_SENSOR\000"
 6975      5F4E4558 
 6975      545F5345 
 6975      4E534F52 
 6975      00
 6976              	.LASF283:
 6977 085c 74656D70 		.ascii	"tempString\000"
 6977      53747269 
 6977      6E6700
 6978              	.LASF21:
 6979 0867 646F7562 		.ascii	"double\000"
 6979      6C6500
 6980              	.LASF168:
 6981 086e 53657149 		.ascii	"SeqId\000"
 6981      6400
 6982              	.LASF65:
 6983 0874 4359424C 		.ascii	"CYBLE_EVT_GATTC_READ_RSP\000"
 6983      455F4556 
 6983      545F4741 
 6983      5454435F 
 6983      52454144 
 6984              	.LASF214:
 6985 088d 676C7563 		.ascii	"glucose\000"
 6985      6F736500 
 6986              	.LASF179:
 6987 0895 4D617853 		.ascii	"MaxSeqLen\000"
 6987      65714C65 
 6987      6E00
ARM GAS  C:\Users\13740\AppData\Local\Temp\cc4654uj.s 			page 159


 6988              	.LASF60:
 6989 089f 4359424C 		.ascii	"CYBLE_EVT_GATTC_XCHNG_MTU_RSP\000"
 6989      455F4556 
 6989      545F4741 
 6989      5454435F 
 6989      5843484E 
 6990              	.LASF319:
 6991 08bd 675F7465 		.ascii	"g_test_fifocon\000"
 6991      73745F66 
 6991      69666F63 
 6991      6F6E00
 6992              	.LASF95:
 6993 08cc 4359424C 		.ascii	"CYBLE_EVT_FLASH_CORRUPT\000"
 6993      455F4556 
 6993      545F464C 
 6993      4153485F 
 6993      434F5252 
 6994              	.LASF226:
 6995 08e4 416D7065 		.ascii	"AmperometricSensor_t\000"
 6995      726F6D65 
 6995      74726963 
 6995      53656E73 
 6995      6F725F74 
 6996              	.LASF329:
 6997 08f9 6D656173 		.ascii	"measurementFlag\000"
 6997      7572656D 
 6997      656E7446 
 6997      6C616700 
 6998              	.LASF155:
 6999 0909 61747472 		.ascii	"attrHandle\000"
 6999      48616E64 
 6999      6C6500
 7000              	.LASF173:
 7001 0914 53455149 		.ascii	"SEQInfo_Type\000"
 7001      6E666F5F 
 7001      54797065 
 7001      00
 7002              	.LASF188:
 7003 0921 4E756D4F 		.ascii	"NumOfData\000"
 7003      66446174 
 7003      6100
 7004              	.LASF196:
 7005 092b 4C707469 		.ascii	"LptiaRtiaSel\000"
 7005      61527469 
 7005      6153656C 
 7005      00
 7006              	.LASF66:
 7007 0938 4359424C 		.ascii	"CYBLE_EVT_GATTC_READ_BLOB_RSP\000"
 7007      455F4556 
 7007      545F4741 
 7007      5454435F 
 7007      52454144 
 7008              	.LASF102:
 7009 0956 4359424C 		.ascii	"CYBLE_ERROR_OOB_NOT_AVAILABLE\000"
 7009      455F4552 
 7009      524F525F 
 7009      4F4F425F 
ARM GAS  C:\Users\13740\AppData\Local\Temp\cc4654uj.s 			page 160


 7009      4E4F545F 
 7010              	.LASF82:
 7011 0974 4359424C 		.ascii	"CYBLE_EVT_L2CAP_CONN_PARAM_UPDATE_RSP\000"
 7011      455F4556 
 7011      545F4C32 
 7011      4341505F 
 7011      434F4E4E 
 7012              	.LASF89:
 7013 099a 4359424C 		.ascii	"CYBLE_EVT_L2CAP_CBFC_RX_CREDIT_IND\000"
 7013      455F4556 
 7013      545F4C32 
 7013      4341505F 
 7013      43424643 
 7014              	.LASF300:
 7015 09bd 64617461 		.ascii	"data_count\000"
 7015      5F636F75 
 7015      6E7400
 7016              	.LASF232:
 7017 09c8 4D454153 		.ascii	"MEAS_COMPLETE\000"
 7017      5F434F4D 
 7017      504C4554 
 7017      4500
 7018              	.LASF277:
 7019 09d6 53656E64 		.ascii	"SendGlucoseDataViaBLE\000"
 7019      476C7563 
 7019      6F736544 
 7019      61746156 
 7019      6961424C 
 7020              	.LASF303:
 7021 09ec 696E7465 		.ascii	"interruptStatus\000"
 7021      72727570 
 7021      74537461 
 7021      74757300 
 7022              	.LASF85:
 7023 09fc 4359424C 		.ascii	"CYBLE_EVT_L2CAP_CBFC_CONN_CNF\000"
 7023      455F4556 
 7023      545F4C32 
 7023      4341505F 
 7023      43424643 
 7024              	.LASF163:
 7025 0a1a 4359424C 		.ascii	"CYBLE_STATE_T\000"
 7025      455F5354 
 7025      4154455F 
 7025      5400
 7026              	.LASF4:
 7027 0a28 5F5F7569 		.ascii	"__uint16_t\000"
 7027      6E743136 
 7027      5F7400
 7028              	.LASF322:
 7029 0a33 675F696E 		.ascii	"g_init_state\000"
 7029      69745F73 
 7029      74617465 
 7029      00
 7030              	.LASF204:
 7031 0a40 414D5049 		.ascii	"AMPInited\000"
 7031      6E697465 
 7031      6400
ARM GAS  C:\Users\13740\AppData\Local\Temp\cc4654uj.s 			page 161


 7032              	.LASF213:
 7033 0a4a 74656D70 		.ascii	"temperature\000"
 7033      65726174 
 7033      75726500 
 7034              	.LASF266:
 7035 0a56 52656164 		.ascii	"ReadCurrentFromAD5940\000"
 7035      43757272 
 7035      656E7446 
 7035      726F6D41 
 7035      44353934 
 7036              	.LASF100:
 7037 0a6c 4359424C 		.ascii	"CYBLE_ERROR_MEMORY_ALLOCATION_FAILED\000"
 7037      455F4552 
 7037      524F525F 
 7037      4D454D4F 
 7037      52595F41 
 7038              	.LASF121:
 7039 0a91 4359424C 		.ascii	"CYBLE_ERROR_UNSUPPORTED_FEATURE_OR_PARAMETER_VALUE\000"
 7039      455F4552 
 7039      524F525F 
 7039      554E5355 
 7039      50504F52 
 7040              	.LASF186:
 7041 0ac4 4669666F 		.ascii	"FifoThresh\000"
 7041      54687265 
 7041      736800
 7042              	.LASF29:
 7043 0acf 4359424C 		.ascii	"CYBLE_EVT_HCI_STATUS\000"
 7043      455F4556 
 7043      545F4843 
 7043      495F5354 
 7043      41545553 
 7044              	.LASF228:
 7045 0ae4 4D454153 		.ascii	"MEAS_SWITCH_CHANNEL\000"
 7045      5F535749 
 7045      5443485F 
 7045      4348414E 
 7045      4E454C00 
 7046              	.LASF22:
 7047 0af8 63686172 		.ascii	"char\000"
 7047      00
 7048              	.LASF255:
 7049 0afd 63757272 		.ascii	"current_uA\000"
 7049      656E745F 
 7049      754100
 7050              	.LASF341:
 7051 0b08 4C6F7750 		.ascii	"LowPowerImplementation\000"
 7051      6F776572 
 7051      496D706C 
 7051      656D656E 
 7051      74617469 
 7052              	.LASF118:
 7053 0b1f 4359424C 		.ascii	"CYBLE_ERROR_FLASH_WRITE_NOT_PERMITED\000"
 7053      455F4552 
 7053      524F525F 
 7053      464C4153 
 7053      485F5752 
ARM GAS  C:\Users\13740\AppData\Local\Temp\cc4654uj.s 			page 162


 7054              	.LASF302:
 7055 0b44 626C654D 		.ascii	"bleMode\000"
 7055      6F646500 
 7056              	.LASF242:
 7057 0b4c 494E4954 		.ascii	"INIT_COMPLETE\000"
 7057      5F434F4D 
 7057      504C4554 
 7057      4500
 7058              	.LASF101:
 7059 0b5a 4359424C 		.ascii	"CYBLE_ERROR_INSUFFICIENT_RESOURCES\000"
 7059      455F4552 
 7059      524F525F 
 7059      494E5355 
 7059      46464943 
 7060              	.LASF166:
 7061 0b7d 62545255 		.ascii	"bTRUE\000"
 7061      4500
 7062              	.LASF119:
 7063 0b83 4359424C 		.ascii	"CYBLE_ERROR_MIC_AUTH_FAILED\000"
 7063      455F4552 
 7063      524F525F 
 7063      4D49435F 
 7063      41555448 
 7064              	.LASF153:
 7065 0b9f 4359424C 		.ascii	"CYBLE_GATT_VALUE_T\000"
 7065      455F4741 
 7065      54545F56 
 7065      414C5545 
 7065      5F5400
 7066              	.LASF26:
 7067 0bb2 4359424C 		.ascii	"CYBLE_EVT_STACK_ON\000"
 7067      455F4556 
 7067      545F5354 
 7067      41434B5F 
 7067      4F4E00
 7068              	.LASF18:
 7069 0bc5 75696E74 		.ascii	"uint16\000"
 7069      313600
 7070              	.LASF148:
 7071 0bcc 4359424C 		.ascii	"CYBLE_GATT_DB_ATTR_HANDLE_T\000"
 7071      455F4741 
 7071      54545F44 
 7071      425F4154 
 7071      54525F48 
 7072              	.LASF306:
 7073 0be8 6C617374 		.ascii	"last_send_time\000"
 7073      5F73656E 
 7073      645F7469 
 7073      6D6500
 7074              	.LASF81:
 7075 0bf7 4359424C 		.ascii	"CYBLE_EVT_L2CAP_CONN_PARAM_UPDATE_REQ\000"
 7075      455F4556 
 7075      545F4C32 
 7075      4341505F 
 7075      434F4E4E 
 7076              	.LASF13:
 7077 0c1d 75696E74 		.ascii	"uint8_t\000"
ARM GAS  C:\Users\13740\AppData\Local\Temp\cc4654uj.s 			page 163


 7077      385F7400 
 7078              	.LASF117:
 7079 0c25 4359424C 		.ascii	"CYBLE_ERROR_DEVICE_ALREADY_EXISTS\000"
 7079      455F4552 
 7079      524F525F 
 7079      44455649 
 7079      43455F41 
 7080              	.LASF261:
 7081 0c47 636F6E63 		.ascii	"concentration\000"
 7081      656E7472 
 7081      6174696F 
 7081      6E00
 7082              	.LASF176:
 7083 0c55 66496D70 		.ascii	"fImpPol_Type\000"
 7083      506F6C5F 
 7083      54797065 
 7083      00
 7084              	.LASF218:
 7085 0c62 63757272 		.ascii	"current_glucose_nA\000"
 7085      656E745F 
 7085      676C7563 
 7085      6F73655F 
 7085      6E4100
 7086              	.LASF48:
 7087 0c75 4359424C 		.ascii	"CYBLE_EVT_GAP_DATA_LENGTH_CHANGE\000"
 7087      455F4556 
 7087      545F4741 
 7087      505F4441 
 7087      54415F4C 
 7088              	.LASF202:
 7089 0c96 45787452 		.ascii	"ExtRtia\000"
 7089      74696100 
 7090              	.LASF251:
 7091 0c9e 61646969 		.ascii	"adiid\000"
 7091      6400
 7092              	.LASF324:
 7093 0ca4 6379426C 		.ascii	"cyBle_pendingFlashWrite\000"
 7093      655F7065 
 7093      6E64696E 
 7093      67466C61 
 7093      73685772 
 7094              	.LASF125:
 7095 0cbc 4359424C 		.ascii	"CYBLE_ERROR_NTF_DISABLED\000"
 7095      455F4552 
 7095      524F525F 
 7095      4E54465F 
 7095      44495341 
 7096              	.LASF129:
 7097 0cd5 4359424C 		.ascii	"CYBLE_ERROR_STACK_BUSY\000"
 7097      455F4552 
 7097      524F525F 
 7097      53544143 
 7097      4B5F4255 
 7098              	.LASF243:
 7099 0cec 494E4954 		.ascii	"INIT_CONFIG_LPTIA\000"
 7099      5F434F4E 
 7099      4649475F 
ARM GAS  C:\Users\13740\AppData\Local\Temp\cc4654uj.s 			page 164


 7099      4C505449 
 7099      4100
 7100              	.LASF293:
 7101 0cfe 76726566 		.ascii	"vref\000"
 7101      00
 7102              	.LASF310:
 7103 0d03 6C6F6361 		.ascii	"localAddr\000"
 7103      6C416464 
 7103      7200
 7104              	.LASF327:
 7105 0d0d 61706952 		.ascii	"apiResult\000"
 7105      6573756C 
 7105      7400
 7106              	.LASF254:
 7107 0d17 61747465 		.ascii	"attempt\000"
 7107      6D707400 
 7108              	.LASF10:
 7109 0d1f 6C6F6E67 		.ascii	"long long int\000"
 7109      206C6F6E 
 7109      6720696E 
 7109      7400
 7110              	.LASF142:
 7111 0d2d 4359424C 		.ascii	"CYBLE_BLESS_STATE_DEEPSLEEP\000"
 7111      455F424C 
 7111      4553535F 
 7111      53544154 
 7111      455F4445 
 7112              	.LASF338:
 7113 0d49 6D61696E 		.ascii	"main.c\000"
 7113      2E6300
 7114              	.LASF280:
 7115 0d50 64617461 		.ascii	"dataString\000"
 7115      53747269 
 7115      6E6700
 7116              	.LASF220:
 7117 0d5b 63757272 		.ascii	"current_uric_nA\000"
 7117      656E745F 
 7117      75726963 
 7117      5F6E4100 
 7118              	.LASF56:
 7119 0d6b 4359424C 		.ascii	"CYBLE_EVT_GATTC_ERROR_RSP\000"
 7119      455F4556 
 7119      545F4741 
 7119      5454435F 
 7119      4552524F 
 7120              	.LASF272:
 7121 0d85 74656D70 		.ascii	"temp_factor\000"
 7121      5F666163 
 7121      746F7200 
 7122              	.LASF116:
 7123 0d91 4359424C 		.ascii	"CYBLE_ERROR_GATT_DB_INVALID_ATTR_HANDLE\000"
 7123      455F4552 
 7123      524F525F 
 7123      47415454 
 7123      5F44425F 
 7124              	.LASF208:
 7125 0db9 4669666F 		.ascii	"FifoDataCount\000"
ARM GAS  C:\Users\13740\AppData\Local\Temp\cc4654uj.s 			page 165


 7125      44617461 
 7125      436F756E 
 7125      7400
 7126              	.LASF253:
 7127 0dc7 69645F76 		.ascii	"id_valid\000"
 7127      616C6964 
 7127      00
 7128              	.LASF159:
 7129 0dd0 4359424C 		.ascii	"CYBLE_STATE_INITIALIZING\000"
 7129      455F5354 
 7129      4154455F 
 7129      494E4954 
 7129      49414C49 
 7130              	.LASF247:
 7131 0de9 496E6974 		.ascii	"InitState_t\000"
 7131      53746174 
 7131      655F7400 
 7132              	.LASF124:
 7133 0df5 4359424C 		.ascii	"CYBLE_ERROR_MAX\000"
 7133      455F4552 
 7133      524F525F 
 7133      4D415800 
 7134              	.LASF224:
 7135 0e05 53454E53 		.ascii	"SENSOR_URIC_ACID\000"
 7135      4F525F55 
 7135      5249435F 
 7135      41434944 
 7135      00
 7136              	.LASF184:
 7137 0e16 57757074 		.ascii	"WuptClkFreq\000"
 7137      436C6B46 
 7137      72657100 
 7138              	.LASF113:
 7139 0e22 4359424C 		.ascii	"CYBLE_ERROR_L2CAP_CONNECTION_ENTITY_NOT_FOUND\000"
 7139      455F4552 
 7139      524F525F 
 7139      4C324341 
 7139      505F434F 
 7140              	.LASF216:
 7141 0e50 75726963 		.ascii	"uric_acid\000"
 7141      5F616369 
 7141      6400
 7142              	.LASF257:
 7143 0e5a 4D656173 		.ascii	"MeasureAmperometricSensor\000"
 7143      75726541 
 7143      6D706572 
 7143      6F6D6574 
 7143      72696353 
 7144              	.LASF110:
 7145 0e74 4359424C 		.ascii	"CYBLE_ERROR_L2CAP_PSM_WRONG_ENCODING\000"
 7145      455F4552 
 7145      524F525F 
 7145      4C324341 
 7145      505F5053 
 7146              	.LASF275:
 7147 0e99 436F6E74 		.ascii	"ControlElectricalStimulation\000"
 7147      726F6C45 
ARM GAS  C:\Users\13740\AppData\Local\Temp\cc4654uj.s 			page 166


 7147      6C656374 
 7147      72696361 
 7147      6C537469 
 7148              	.LASF312:
 7149 0eb6 675F6D65 		.ascii	"g_meas_state\000"
 7149      61735F73 
 7149      74617465 
 7149      00
 7150              	.LASF38:
 7151 0ec3 4359424C 		.ascii	"CYBLE_EVT_GAPP_ADVERTISEMENT_START_STOP\000"
 7151      455F4556 
 7151      545F4741 
 7151      50505F41 
 7151      44564552 
 7152              	.LASF165:
 7153 0eeb 6246414C 		.ascii	"bFALSE\000"
 7153      534500
 7154              	.LASF149:
 7155 0ef2 62644861 		.ascii	"bdHandle\000"
 7155      6E646C65 
 7155      00
 7156              	.LASF19:
 7157 0efb 75696E74 		.ascii	"uint32\000"
 7157      333200
 7158              	.LASF235:
 7159 0f02 494E4954 		.ascii	"INIT_RESET\000"
 7159      5F524553 
 7159      455400
 7160              	.LASF287:
 7161 0f0d 41707043 		.ascii	"AppCallBack\000"
 7161      616C6C42 
 7161      61636B00 
 7162              	.LASF88:
 7163 0f19 4359424C 		.ascii	"CYBLE_EVT_L2CAP_CBFC_DATA_READ\000"
 7163      455F4556 
 7163      545F4C32 
 7163      4341505F 
 7163      43424643 
 7164              	.LASF162:
 7165 0f38 4359424C 		.ascii	"CYBLE_STATE_DISCONNECTED\000"
 7165      455F5354 
 7165      4154455F 
 7165      44495343 
 7165      4F4E4E45 
 7166              	.LASF47:
 7167 0f51 4359424C 		.ascii	"CYBLE_EVT_GAP_OOB_GENERATED_NOTIFICATION\000"
 7167      455F4556 
 7167      545F4741 
 7167      505F4F4F 
 7167      425F4745 
 7168              	.LASF273:
 7169 0f7a 436F6E74 		.ascii	"ControlDrugRelease\000"
 7169      726F6C44 
 7169      72756752 
 7169      656C6561 
 7169      736500
 7170              	.LASF135:
ARM GAS  C:\Users\13740\AppData\Local\Temp\cc4654uj.s 			page 167


 7171 0f8d 4359424C 		.ascii	"CYBLE_BLESS_INVALID\000"
 7171      455F424C 
 7171      4553535F 
 7171      494E5641 
 7171      4C494400 
 7172              	.LASF94:
 7173 0fa1 4359424C 		.ascii	"CYBLE_EVT_HCI_PKT\000"
 7173      455F4556 
 7173      545F4843 
 7173      495F504B 
 7173      5400
 7174              	.LASF130:
 7175 0fb3 4359424C 		.ascii	"CYBLE_API_RESULT_T\000"
 7175      455F4150 
 7175      495F5245 
 7175      53554C54 
 7175      5F5400
 7176              	.LASF112:
 7177 0fc6 4359424C 		.ascii	"CYBLE_ERROR_L2CAP_PSM_NOT_REGISTERED\000"
 7177      455F4552 
 7177      524F525F 
 7177      4C324341 
 7177      505F5053 
 7178              	.LASF167:
 7179 0feb 426F6F6C 		.ascii	"BoolFlag\000"
 7179      466C6167 
 7179      00
 7180              	.LASF271:
 7181 0ff4 4D656173 		.ascii	"MeasureAllSensorsWithCurrent\000"
 7181      75726541 
 7181      6C6C5365 
 7181      6E736F72 
 7181      73576974 
 7182              	.LASF318:
 7183 1011 675F7465 		.ascii	"g_test_afecon\000"
 7183      73745F61 
 7183      6665636F 
 7183      6E00
 7184              	.LASF51:
 7185 101f 4359424C 		.ascii	"CYBLE_EVT_GAP_SMP_NEGOTIATED_AUTH_INFO\000"
 7185      455F4556 
 7185      545F4741 
 7185      505F534D 
 7185      505F4E45 
 7186              	.LASF239:
 7187 1046 494E4954 		.ascii	"INIT_CHECK_AFE\000"
 7187      5F434845 
 7187      434B5F41 
 7187      464500
 7188              	.LASF170:
 7189 1055 5365714C 		.ascii	"SeqLen\000"
 7189      656E00
 7190              	.LASF241:
 7191 105c 494E4954 		.ascii	"INIT_CONFIG_APP\000"
 7191      5F434F4E 
 7191      4649475F 
 7191      41505000 
ARM GAS  C:\Users\13740\AppData\Local\Temp\cc4654uj.s 			page 168


 7192              	.LASF331:
 7193 106c 6C617374 		.ascii	"lastSendTime\000"
 7193      53656E64 
 7193      54696D65 
 7193      00
 7194              	.LASF23:
 7195 1079 6C6F6E67 		.ascii	"long double\000"
 7195      20646F75 
 7195      626C6500 
 7196              	.LASF14:
 7197 1085 75696E74 		.ascii	"uint16_t\000"
 7197      31365F74 
 7197      00
 7198              	.LASF219:
 7199 108e 63757272 		.ascii	"current_lactate_nA\000"
 7199      656E745F 
 7199      6C616374 
 7199      6174655F 
 7199      6E4100
 7200              	.LASF75:
 7201 10a1 4359424C 		.ascii	"CYBLE_EVT_GATTC_HANDLE_VALUE_IND\000"
 7201      455F4556 
 7201      545F4741 
 7201      5454435F 
 7201      48414E44 
 7202              	.LASF107:
 7203 10c2 4359424C 		.ascii	"CYBLE_ERROR_TX_POWER_READ\000"
 7203      455F4552 
 7203      524F525F 
 7203      54585F50 
 7203      4F574552 
 7204              	.LASF295:
 7205 10dc 6164635F 		.ascii	"adc_signed\000"
 7205      7369676E 
 7205      656400
 7206              	.LASF194:
 7207 10e7 41444353 		.ascii	"ADCSinc2Osr\000"
 7207      696E6332 
 7207      4F737200 
 7208              	.LASF144:
 7209 10f3 4359424C 		.ascii	"CYBLE_BLESS_STATE_INVALID\000"
 7209      455F424C 
 7209      4553535F 
 7209      53544154 
 7209      455F494E 
 7210              	.LASF240:
 7211 110d 494E4954 		.ascii	"INIT_CHECK_FIFO\000"
 7211      5F434845 
 7211      434B5F46 
 7211      49464F00 
 7212              	.LASF122:
 7213 111d 4359424C 		.ascii	"CYBLE_ERROR_FLASH_WRITE\000"
 7213      455F4552 
 7213      524F525F 
 7213      464C4153 
 7213      485F5752 
 7214              	.LASF27:
ARM GAS  C:\Users\13740\AppData\Local\Temp\cc4654uj.s 			page 169


 7215 1135 4359424C 		.ascii	"CYBLE_EVT_TIMEOUT\000"
 7215      455F4556 
 7215      545F5449 
 7215      4D454F55 
 7215      5400
 7216              	.LASF41:
 7217 1147 4359424C 		.ascii	"CYBLE_EVT_GAP_ENCRYPT_CHANGE\000"
 7217      455F4556 
 7217      545F4741 
 7217      505F454E 
 7217      43525950 
 7218              	.LASF206:
 7219 1164 4D656173 		.ascii	"MeasureSeqInfo\000"
 7219      75726553 
 7219      6571496E 
 7219      666F00
 7220              	.LASF296:
 7221 1173 765F6164 		.ascii	"v_adc\000"
 7221      6300
 7222              	.LASF24:
 7223 1179 73697A65 		.ascii	"sizetype\000"
 7223      74797065 
 7223      00
 7224              	.LASF127:
 7225 1182 4359424C 		.ascii	"CYBLE_ERROR_CHAR_IS_NOT_DISCOVERED\000"
 7225      455F4552 
 7225      524F525F 
 7225      43484152 
 7225      5F49535F 
 7226              	.LASF313:
 7227 11a5 675F6375 		.ascii	"g_current_sensor\000"
 7227      7272656E 
 7227      745F7365 
 7227      6E736F72 
 7227      00
 7228              	.LASF317:
 7229 11b6 675F7465 		.ascii	"g_test_reg_0908\000"
 7229      73745F72 
 7229      65675F30 
 7229      39303800 
 7230              	.LASF2:
 7231 11c6 73686F72 		.ascii	"short int\000"
 7231      7420696E 
 7231      7400
 7232              	.LASF201:
 7233 11d0 53656E73 		.ascii	"SensorBias\000"
 7233      6F724269 
 7233      617300
 7234              	.LASF248:
 7235 11db 7265675F 		.ascii	"reg_addr\000"
 7235      61646472 
 7235      00
 7236              	.LASF284:
 7237 11e4 74657374 		.ascii	"testStep\000"
 7237      53746570 
 7237      00
 7238              	.LASF181:
ARM GAS  C:\Users\13740\AppData\Local\Temp\cc4654uj.s 			page 170


 7239 11ed 4D617853 		.ascii	"MaxSeqLenCal\000"
 7239      65714C65 
 7239      6E43616C 
 7239      00
 7240              	.LASF7:
 7241 11fa 6C6F6E67 		.ascii	"long int\000"
 7241      20696E74 
 7241      00
 7242              	.LASF180:
 7243 1203 53657153 		.ascii	"SeqStartAddrCal\000"
 7243      74617274 
 7243      41646472 
 7243      43616C00 
 7244              	.LASF57:
 7245 1213 4359424C 		.ascii	"CYBLE_EVT_GATT_CONNECT_IND\000"
 7245      455F4556 
 7245      545F4741 
 7245      54545F43 
 7245      4F4E4E45 
 7246              	.LASF96:
 7247 122e 4359424C 		.ascii	"CYBLE_EVT_MAX\000"
 7247      455F4556 
 7247      545F4D41 
 7247      5800
 7248              	.LASF49:
 7249 123c 4359424C 		.ascii	"CYBLE_EVT_GAP_ENHANCE_CONN_COMPLETE\000"
 7249      455F4556 
 7249      545F4741 
 7249      505F454E 
 7249      48414E43 
 7250              	.LASF67:
 7251 1260 4359424C 		.ascii	"CYBLE_EVT_GATTC_READ_MULTI_RSP\000"
 7251      455F4556 
 7251      545F4741 
 7251      5454435F 
 7251      52454144 
 7252              	.LASF86:
 7253 127f 4359424C 		.ascii	"CYBLE_EVT_L2CAP_CBFC_DISCONN_IND\000"
 7253      455F4556 
 7253      545F4C32 
 7253      4341505F 
 7253      43424643 
 7254              	.LASF140:
 7255 12a0 4359424C 		.ascii	"CYBLE_BLESS_STATE_ECO_ON\000"
 7255      455F424C 
 7255      4553535F 
 7255      53544154 
 7255      455F4543 
 7256              	.LASF270:
 7257 12b9 41443539 		.ascii	"AD5941_Initialize\000"
 7257      34315F49 
 7257      6E697469 
 7257      616C697A 
 7257      6500
 7258              	.LASF171:
 7259 12cb 57726974 		.ascii	"WriteSRAM\000"
 7259      65535241 
ARM GAS  C:\Users\13740\AppData\Local\Temp\cc4654uj.s 			page 171


 7259      4D00
 7260              	.LASF98:
 7261 12d5 4359424C 		.ascii	"CYBLE_ERROR_INVALID_PARAMETER\000"
 7261      455F4552 
 7261      524F525F 
 7261      494E5641 
 7261      4C49445F 
 7262              	.LASF32:
 7263 12f3 4359424C 		.ascii	"CYBLE_EVT_GAPC_SCAN_PROGRESS_RESULT\000"
 7263      455F4556 
 7263      545F4741 
 7263      50435F53 
 7263      43414E5F 
 7264              	.LASF133:
 7265 1317 4359424C 		.ascii	"CYBLE_BLESS_DEEPSLEEP\000"
 7265      455F424C 
 7265      4553535F 
 7265      44454550 
 7265      534C4545 
 7266              	.LASF182:
 7267 132d 5265446F 		.ascii	"ReDoRtiaCal\000"
 7267      52746961 
 7267      43616C00 
 7268              	.LASF50:
 7269 1339 4359424C 		.ascii	"CYBLE_EVT_GAPC_DIRECT_ADV_REPORT\000"
 7269      455F4556 
 7269      545F4741 
 7269      50435F44 
 7269      49524543 
 7270              	.LASF61:
 7271 135a 4359424C 		.ascii	"CYBLE_EVT_GATTC_READ_BY_GROUP_TYPE_RSP\000"
 7271      455F4556 
 7271      545F4741 
 7271      5454435F 
 7271      52454144 
 7272              	.LASF307:
 7273 1381 74657374 		.ascii	"testString\000"
 7273      53747269 
 7273      6E6700
 7274              	.LASF71:
 7275 138c 4359424C 		.ascii	"CYBLE_EVT_GATTS_PREP_WRITE_REQ\000"
 7275      455F4556 
 7275      545F4741 
 7275      5454535F 
 7275      50524550 
 7276              	.LASF152:
 7277 13ab 61637475 		.ascii	"actualLen\000"
 7277      616C4C65 
 7277      6E00
 7278              	.LASF143:
 7279 13b5 4359424C 		.ascii	"CYBLE_BLESS_STATE_HIBERNATE\000"
 7279      455F424C 
 7279      4553535F 
 7279      53544154 
 7279      455F4849 
 7280              	.LASF229:
 7281 13d1 4D454153 		.ascii	"MEAS_WAIT_STABLE\000"
ARM GAS  C:\Users\13740\AppData\Local\Temp\cc4654uj.s 			page 172


 7281      5F574149 
 7281      545F5354 
 7281      41424C45 
 7281      00
 7282              	.LASF147:
 7283 13e2 4359424C 		.ascii	"CYBLE_GAP_BD_ADDR_T\000"
 7283      455F4741 
 7283      505F4244 
 7283      5F414444 
 7283      525F5400 
 7284              	.LASF114:
 7285 13f6 4359424C 		.ascii	"CYBLE_ERROR_L2CAP_CHANNEL_NOT_FOUND\000"
 7285      455F4552 
 7285      524F525F 
 7285      4C324341 
 7285      505F4348 
 7286              	.LASF3:
 7287 141a 5F5F7569 		.ascii	"__uint8_t\000"
 7287      6E74385F 
 7287      7400
 7288              	.LASF40:
 7289 1424 4359424C 		.ascii	"CYBLE_EVT_GAP_DEVICE_DISCONNECTED\000"
 7289      455F4556 
 7289      545F4741 
 7289      505F4445 
 7289      56494345 
 7290              	.LASF109:
 7291 1446 4359424C 		.ascii	"CYBLE_ERROR_SEC_FAILED\000"
 7291      455F4552 
 7291      524F525F 
 7291      5345435F 
 7291      4641494C 
 7292              	.LASF281:
 7293 145d 64696167 		.ascii	"diagStep\000"
 7293      53746570 
 7293      00
 7294              	.LASF190:
 7295 1466 41444352 		.ascii	"ADCRefVolt\000"
 7295      6566566F 
 7295      6C7400
 7296              	.LASF84:
 7297 1471 4359424C 		.ascii	"CYBLE_EVT_L2CAP_CBFC_CONN_IND\000"
 7297      455F4556 
 7297      545F4C32 
 7297      4341505F 
 7297      43424643 
 7298              	.LASF269:
 7299 148f 52656164 		.ascii	"ReadCurrentFromSourceMeter_Simulated\000"
 7299      43757272 
 7299      656E7446 
 7299      726F6D53 
 7299      6F757263 
 7300              	.LASF299:
 7301 14b4 6669666F 		.ascii	"fifosta\000"
 7301      73746100 
 7302              	.LASF311:
 7303 14bc 675F616D 		.ascii	"g_amp_running\000"
ARM GAS  C:\Users\13740\AppData\Local\Temp\cc4654uj.s 			page 173


 7303      705F7275 
 7303      6E6E696E 
 7303      6700
 7304              	.LASF330:
 7305 14ca 675F5350 		.ascii	"g_SPI_Debug_Buf\000"
 7305      495F4465 
 7305      6275675F 
 7305      42756600 
 7306              	.LASF305:
 7307 14da 6D61696E 		.ascii	"main\000"
 7307      00
 7308              	.LASF145:
 7309 14df 62644164 		.ascii	"bdAddr\000"
 7309      647200
 7310              	.LASF9:
 7311 14e6 6C6F6E67 		.ascii	"long unsigned int\000"
 7311      20756E73 
 7311      69676E65 
 7311      6420696E 
 7311      7400
 7312              	.LASF111:
 7313 14f8 4359424C 		.ascii	"CYBLE_ERROR_L2CAP_PSM_ALREADY_REGISTERED\000"
 7313      455F4552 
 7313      524F525F 
 7313      4C324341 
 7313      505F5053 
 7314              	.LASF44:
 7315 1521 4359424C 		.ascii	"CYBLE_EVT_GAP_KEYINFO_EXCHNGE_CMPLT\000"
 7315      455F4556 
 7315      545F4741 
 7315      505F4B45 
 7315      59494E46 
 7316              	.LASF35:
 7317 1545 4359424C 		.ascii	"CYBLE_EVT_GAP_PASSKEY_DISPLAY_REQUEST\000"
 7317      455F4556 
 7317      545F4741 
 7317      505F5041 
 7317      53534B45 
 7318              	.LASF80:
 7319 156b 4359424C 		.ascii	"CYBLE_EVT_GATTC_LONG_PROCEDURE_END\000"
 7319      455F4556 
 7319      545F4741 
 7319      5454435F 
 7319      4C4F4E47 
 7320              	.LASF103:
 7321 158e 4359424C 		.ascii	"CYBLE_ERROR_NO_CONNECTION\000"
 7321      455F4552 
 7321      524F525F 
 7321      4E4F5F43 
 7321      4F4E4E45 
 7322              	.LASF15:
 7323 15a8 696E7433 		.ascii	"int32_t\000"
 7323      325F7400 
 7324              	.LASF156:
 7325 15b0 4359424C 		.ascii	"CYBLE_GATT_HANDLE_VALUE_PAIR_T\000"
 7325      455F4741 
 7325      54545F48 
ARM GAS  C:\Users\13740\AppData\Local\Temp\cc4654uj.s 			page 174


 7325      414E444C 
 7325      455F5641 
 7326              	.LASF91:
 7327 15cf 4359424C 		.ascii	"CYBLE_EVT_L2CAP_CBFC_DATA_WRITE_IND\000"
 7327      455F4556 
 7327      545F4C32 
 7327      4341505F 
 7327      43424643 
 7328              	.LASF174:
 7329 15f3 4D61676E 		.ascii	"Magnitude\000"
 7329      69747564 
 7329      6500
 7330              	.LASF286:
 7331 15fd 54696D65 		.ascii	"Timer_Interrupt\000"
 7331      725F496E 
 7331      74657272 
 7331      75707400 
 7332              	.LASF321:
 7333 160d 675F7465 		.ascii	"g_test_done\000"
 7333      73745F64 
 7333      6F6E6500 
 7334              	.LASF244:
 7335 1619 494E4954 		.ascii	"INIT_CONFIG_ADC\000"
 7335      5F434F4E 
 7335      4649475F 
 7335      41444300 
 7336              	.LASF37:
 7337 1629 4359424C 		.ascii	"CYBLE_EVT_GAP_AUTH_FAILED\000"
 7337      455F4556 
 7337      545F4741 
 7337      505F4155 
 7337      54485F46 
 7338              	.LASF31:
 7339 1643 4359424C 		.ascii	"CYBLE_EVT_MEMORY_REQUEST\000"
 7339      455F4556 
 7339      545F4D45 
 7339      4D4F5259 
 7339      5F524551 
 7340              	.LASF225:
 7341 165c 53454E53 		.ascii	"SENSOR_COUNT\000"
 7341      4F525F43 
 7341      4F554E54 
 7341      00
 7342              	.LASF146:
 7343 1669 74797065 		.ascii	"type\000"
 7343      00
 7344              	.LASF46:
 7345 166e 4359424C 		.ascii	"CYBLE_EVT_GAP_KEYPRESS_NOTIFICATION\000"
 7345      455F4556 
 7345      545F4741 
 7345      505F4B45 
 7345      59505245 
 7346              	.LASF1:
 7347 1692 756E7369 		.ascii	"unsigned char\000"
 7347      676E6564 
 7347      20636861 
 7347      7200
ARM GAS  C:\Users\13740\AppData\Local\Temp\cc4654uj.s 			page 175


 7348              	.LASF8:
 7349 16a0 5F5F7569 		.ascii	"__uint32_t\000"
 7349      6E743332 
 7349      5F7400
 7350              	.LASF256:
 7351 16ab 64617461 		.ascii	"dataCount\000"
 7351      436F756E 
 7351      7400
 7352              	.LASF221:
 7353 16b5 53656E73 		.ascii	"SensorData_t\000"
 7353      6F724461 
 7353      74615F74 
 7353      00
 7354              	.LASF141:
 7355 16c2 4359424C 		.ascii	"CYBLE_BLESS_STATE_ECO_STABLE\000"
 7355      455F424C 
 7355      4553535F 
 7355      53544154 
 7355      455F4543 
 7356              	.LASF309:
 7357 16df 53746172 		.ascii	"StartAdvertisement\000"
 7357      74416476 
 7357      65727469 
 7357      73656D65 
 7357      6E7400
 7358              	.LASF25:
 7359 16f2 4359424C 		.ascii	"CYBLE_EVT_HOST_INVALID\000"
 7359      455F4556 
 7359      545F484F 
 7359      53545F49 
 7359      4E56414C 
 7360              	.LASF315:
 7361 1709 675F7465 		.ascii	"g_test_adiid\000"
 7361      73745F61 
 7361      64696964 
 7361      00
 7362              	.LASF134:
 7363 1716 4359424C 		.ascii	"CYBLE_BLESS_HIBERNATE\000"
 7363      455F424C 
 7363      4553535F 
 7363      48494245 
 7363      524E4154 
 7364              	.LASF55:
 7365 172c 4359424C 		.ascii	"CYBLE_EVT_GAP_SMP_LOC_P256_KEYS_GEN_AND_SET_COMPLET"
 7365      455F4556 
 7365      545F4741 
 7365      505F534D 
 7365      505F4C4F 
 7366 175f 4500     		.ascii	"E\000"
 7367              	.LASF87:
 7368 1761 4359424C 		.ascii	"CYBLE_EVT_L2CAP_CBFC_DISCONN_CNF\000"
 7368      455F4556 
 7368      545F4C32 
 7368      4341505F 
 7368      43424643 
 7369              	.LASF39:
 7370 1782 4359424C 		.ascii	"CYBLE_EVT_GAP_DEVICE_CONNECTED\000"
ARM GAS  C:\Users\13740\AppData\Local\Temp\cc4654uj.s 			page 176


 7370      455F4556 
 7370      545F4741 
 7370      505F4445 
 7370      56494345 
 7371              	.LASF304:
 7372 17a1 41443539 		.ascii	"AD5941_HardReset\000"
 7372      34315F48 
 7372      61726452 
 7372      65736574 
 7372      00
 7373              	.LASF234:
 7374 17b2 494E4954 		.ascii	"INIT_IDLE\000"
 7374      5F49444C 
 7374      4500
 7375              	.LASF258:
 7376 17bc 436F6E76 		.ascii	"ConvertCurrentToConcentration\000"
 7376      65727443 
 7376      75727265 
 7376      6E74546F 
 7376      436F6E63 
 7377              	.LASF52:
 7378 17da 4359424C 		.ascii	"CYBLE_EVT_GAP_CONN_ESTB\000"
 7378      455F4556 
 7378      545F4741 
 7378      505F434F 
 7378      4E4E5F45 
 7379              	.LASF54:
 7380 17f2 4359424C 		.ascii	"CYBLE_EVT_GAP_AUTH_REQ_REPLY_ERR\000"
 7380      455F4556 
 7380      545F4741 
 7380      505F4155 
 7380      54485F52 
 7381              	.LASF217:
 7382 1813 74696D65 		.ascii	"timestamp\000"
 7382      7374616D 
 7382      7000
 7383              	.LASF245:
 7384 181d 494E4954 		.ascii	"INIT_CONFIG_FIFO_EN\000"
 7384      5F434F4E 
 7384      4649475F 
 7384      4649464F 
 7384      5F454E00 
 7385              	.LASF265:
 7386 1831 72657369 		.ascii	"resistance\000"
 7386      7374616E 
 7386      636500
 7387              	.LASF0:
 7388 183c 7369676E 		.ascii	"signed char\000"
 7388      65642063 
 7388      68617200 
 7389              	.LASF198:
 7390 1848 4C705469 		.ascii	"LpTiaRl\000"
 7390      61526C00 
 7391              	.LASF5:
 7392 1850 73686F72 		.ascii	"short unsigned int\000"
 7392      7420756E 
 7392      7369676E 
ARM GAS  C:\Users\13740\AppData\Local\Temp\cc4654uj.s 			page 177


 7392      65642069 
 7392      6E7400
 7393              	.LASF62:
 7394 1863 4359424C 		.ascii	"CYBLE_EVT_GATTC_READ_BY_TYPE_RSP\000"
 7394      455F4556 
 7394      545F4741 
 7394      5454435F 
 7394      52454144 
 7395              	.LASF262:
 7396 1884 4D656173 		.ascii	"MeasureTemperature\000"
 7396      75726554 
 7396      656D7065 
 7396      72617475 
 7396      726500
 7397              	.LASF164:
 7398 1897 41443539 		.ascii	"AD5940Err\000"
 7398      34304572 
 7398      7200
 7399              	.LASF123:
 7400 18a1 4359424C 		.ascii	"CYBLE_ERROR_CONTROLLER_BUSY\000"
 7400      455F4552 
 7400      524F525F 
 7400      434F4E54 
 7400      524F4C4C 
 7401              	.LASF115:
 7402 18bd 4359424C 		.ascii	"CYBLE_ERROR_L2CAP_PSM_NOT_IN_RANGE\000"
 7402      455F4552 
 7402      524F525F 
 7402      4C324341 
 7402      505F5053 
 7403              	.LASF237:
 7404 18e0 494E4954 		.ascii	"INIT_WRITE_REGS\000"
 7404      5F575249 
 7404      54455F52 
 7404      45475300 
 7405              	.LASF97:
 7406 18f0 4359424C 		.ascii	"CYBLE_ERROR_OK\000"
 7406      455F4552 
 7406      524F525F 
 7406      4F4B00
 7407              	.LASF339:
 7408 18ff 453A5C64 		.ascii	"E:\\desktop\\bu\\eda\\Transistor1-4414\\Transistor."
 7408      65736B74 
 7408      6F705C62 
 7408      755C6564 
 7408      615C5472 
 7409 192d 63796473 		.ascii	"cydsn\000"
 7409      6E00
 7410              	.LASF246:
 7411 1933 494E4954 		.ascii	"INIT_START_MEASUREMENT\000"
 7411      5F535441 
 7411      52545F4D 
 7411      45415355 
 7411      52454D45 
 7412              	.LASF260:
 7413 194a 63757272 		.ascii	"current_nA\000"
 7413      656E745F 
ARM GAS  C:\Users\13740\AppData\Local\Temp\cc4654uj.s 			page 178


 7413      6E4100
 7414              	.LASF76:
 7415 1955 4359424C 		.ascii	"CYBLE_EVT_GATTS_HANDLE_VALUE_CNF\000"
 7415      455F4556 
 7415      545F4741 
 7415      5454535F 
 7415      48414E44 
 7416              	.LASF132:
 7417 1976 4359424C 		.ascii	"CYBLE_BLESS_SLEEP\000"
 7417      455F424C 
 7417      4553535F 
 7417      534C4545 
 7417      5000
 7418              	.LASF259:
 7419 1988 73656E73 		.ascii	"sensorType\000"
 7419      6F725479 
 7419      706500
 7420              	.LASF150:
 7421 1993 61747449 		.ascii	"attId\000"
 7421      6400
 7422              	.LASF230:
 7423 1999 4D454153 		.ascii	"MEAS_READ_FIFO\000"
 7423      5F524541 
 7423      445F4649 
 7423      464F00
 7424              	.LASF187:
 7425 19a8 416D704F 		.ascii	"AmpODR\000"
 7425      445200
 7426              	.LASF137:
 7427 19af 4359424C 		.ascii	"CYBLE_BLESS_STATE_ACTIVE\000"
 7427      455F424C 
 7427      4553535F 
 7427      53544154 
 7427      455F4143 
 7428              	.LASF138:
 7429 19c8 4359424C 		.ascii	"CYBLE_BLESS_STATE_EVENT_CLOSE\000"
 7429      455F424C 
 7429      4553535F 
 7429      53544154 
 7429      455F4556 
 7430              	.LASF43:
 7431 19e6 4359424C 		.ascii	"CYBLE_EVT_GAPC_SCAN_START_STOP\000"
 7431      455F4556 
 7431      545F4741 
 7431      50435F53 
 7431      43414E5F 
 7432              	.LASF178:
 7433 1a05 53657153 		.ascii	"SeqStartAddr\000"
 7433      74617274 
 7433      41646472 
 7433      00
 7434              	.LASF263:
 7435 1a12 61646343 		.ascii	"adcCode\000"
 7435      6F646500 
 7436              	.LASF161:
 7437 1a1a 4359424C 		.ascii	"CYBLE_STATE_ADVERTISING\000"
 7437      455F5354 
ARM GAS  C:\Users\13740\AppData\Local\Temp\cc4654uj.s 			page 179


 7437      4154455F 
 7437      41445645 
 7437      52544953 
 7438              	.LASF172:
 7439 1a32 70536571 		.ascii	"pSeqCmd\000"
 7439      436D6400 
 7440              		.ident	"GCC: (GNU Tools for ARM Embedded Processors) 5.4.1 20160609 (release) [ARM/embedded-5-bran
